---
triple:          'arm64-apple-darwin'
binary-path:     '/Users/dingkai/Code/IOI2024/cses/SortingAndSearch/Maximum Subarray Sum IIS3.gout'
relocations:
  - { offsetInCU: 0xCF, offset: 0xCF, size: 0x8, addend: 0x0, symName: __ZSt17__size_to_integerm, symObjAddr: 0x0, symBinAddr: 0x100004434, symSize: 0x14 }
  - { offsetInCU: 0xD7, offset: 0xD7, size: 0x8, addend: 0x0, symName: __ZSt19piecewise_construct, symObjAddr: 0x40B4, symBinAddr: 0x100008FFC, symSize: 0x0 }
  - { offsetInCU: 0x683, offset: 0x683, size: 0x8, addend: 0x0, symName: __ZSt19piecewise_construct, symObjAddr: 0x40B4, symBinAddr: 0x100008FFC, symSize: 0x0 }
  - { offsetInCU: 0x404E, offset: 0x404E, size: 0x8, addend: 0x0, symName: __ZStL8__ioinit, symObjAddr: 0x49558, symBinAddr: 0x1000100F2, symSize: 0x0 }
  - { offsetInCU: 0x5A77, offset: 0x5A77, size: 0x8, addend: 0x0, symName: _x, symObjAddr: 0x49560, symBinAddr: 0x1000100F8, symSize: 0x0 }
  - { offsetInCU: 0x75E1, offset: 0x75E1, size: 0x8, addend: 0x0, symName: _preSum, symObjAddr: 0x49578, symBinAddr: 0x100010110, symSize: 0x0 }
  - { offsetInCU: 0x7923, offset: 0x7923, size: 0x8, addend: 0x0, symName: _prPreSum, symObjAddr: 0x49590, symBinAddr: 0x100010128, symSize: 0x0 }
  - { offsetInCU: 0xB649, offset: 0xB649, size: 0x8, addend: 0x0, symName: _umpPreSumDel, symObjAddr: 0x495B0, symBinAddr: 0x100010148, symSize: 0x0 }
  - { offsetInCU: 0xD5B3, offset: 0xD5B3, size: 0x8, addend: 0x0, symName: __ZNSt8__detail30__integer_to_chars_is_unsignedIjEE, symObjAddr: 0x40B5, symBinAddr: 0x100008FFD, symSize: 0x0 }
  - { offsetInCU: 0xD5CD, offset: 0xD5CD, size: 0x8, addend: 0x0, symName: __ZNSt8__detail30__integer_to_chars_is_unsignedImEE, symObjAddr: 0x40B6, symBinAddr: 0x100008FFE, symSize: 0x0 }
  - { offsetInCU: 0xD5E7, offset: 0xD5E7, size: 0x8, addend: 0x0, symName: __ZNSt8__detail30__integer_to_chars_is_unsignedIyEE, symObjAddr: 0x40B7, symBinAddr: 0x100008FFF, symSize: 0x0 }
  - { offsetInCU: 0xD623, offset: 0xD623, size: 0x8, addend: 0x0, symName: __GLOBAL__sub_I_Maximum_Subarray_Sum_IIS3.cpp, symObjAddr: 0x40A0, symBinAddr: 0x1000084D4, symSize: 0x14 }
  - { offsetInCU: 0xD62B, offset: 0xD62B, size: 0x8, addend: 0x0, symName: __ZSt19piecewise_construct, symObjAddr: 0x40B4, symBinAddr: 0x100008FFC, symSize: 0x0 }
  - { offsetInCU: 0xD652, offset: 0xD652, size: 0x8, addend: 0x0, symName: __ZNSt6vectorIiSaIiEED1Ev, symObjAddr: 0x4044, symBinAddr: 0x100008478, symSize: 0x5C }
  - { offsetInCU: 0xD65A, offset: 0xD65A, size: 0x8, addend: 0x0, symName: __GLOBAL__sub_I_Maximum_Subarray_Sum_IIS3.cpp, symObjAddr: 0x40A0, symBinAddr: 0x1000084D4, symSize: 0x14 }
  - { offsetInCU: 0xD6CD, offset: 0xD6CD, size: 0x8, addend: 0x0, symName: __Z41__static_initialization_and_destruction_0v, symObjAddr: 0x3F68, symBinAddr: 0x10000839C, symSize: 0xDC }
  - { offsetInCU: 0xD6D5, offset: 0xD6D5, size: 0x8, addend: 0x0, symName: __ZNSt6vectorIiSaIiEED1Ev, symObjAddr: 0x4044, symBinAddr: 0x100008478, symSize: 0x5C }
  - { offsetInCU: 0xD72E, offset: 0xD72E, size: 0x8, addend: 0x0, symName: __ZNSt13unordered_mapIxiSt4hashIxESt8equal_toIxESaISt4pairIKxiEEED1Ev, symObjAddr: 0x3F48, symBinAddr: 0x10000837C, symSize: 0x20 }
  - { offsetInCU: 0xD736, offset: 0xD736, size: 0x8, addend: 0x0, symName: __Z41__static_initialization_and_destruction_0v, symObjAddr: 0x3F68, symBinAddr: 0x10000839C, symSize: 0xDC }
  - { offsetInCU: 0xD77D, offset: 0xD77D, size: 0x8, addend: 0x0, symName: __ZNSt14priority_queueIxSt6vectorIxSaIxEESt7greaterIxEED1Ev, symObjAddr: 0x3F28, symBinAddr: 0x10000835C, symSize: 0x20 }
  - { offsetInCU: 0xD785, offset: 0xD785, size: 0x8, addend: 0x0, symName: __ZNSt13unordered_mapIxiSt4hashIxESt8equal_toIxESaISt4pairIKxiEEED1Ev, symObjAddr: 0x3F48, symBinAddr: 0x10000837C, symSize: 0x20 }
  - { offsetInCU: 0xD770, offset: 0xD770, size: 0x8, addend: 0x0, symName: __ZNSt10_Head_baseILm0ERKxLb0EE7_M_headERS2_, symObjAddr: 0x3F10, symBinAddr: 0x100008344, symSize: 0x18 }
  - { offsetInCU: 0xD778, offset: 0xD778, size: 0x8, addend: 0x0, symName: __ZNSt14priority_queueIxSt6vectorIxSaIxEESt7greaterIxEED1Ev, symObjAddr: 0x3F28, symBinAddr: 0x10000835C, symSize: 0x20 }
  - { offsetInCU: 0xD7A1, offset: 0xD7A1, size: 0x8, addend: 0x0, symName: __ZNSt11_Tuple_implILm0EJRKxEE7_M_headERS2_, symObjAddr: 0x3EF4, symBinAddr: 0x100008328, symSize: 0x1C }
  - { offsetInCU: 0xD7A9, offset: 0xD7A9, size: 0x8, addend: 0x0, symName: __ZNSt10_Head_baseILm0ERKxLb0EE7_M_headERS2_, symObjAddr: 0x3F10, symBinAddr: 0x100008344, symSize: 0x18 }
  - { offsetInCU: 0xD859, offset: 0xD859, size: 0x8, addend: 0x0, symName: __ZSt12__get_helperILm0ERKxJEERT0_RSt11_Tuple_implIXT_EJS2_DpT1_EE, symObjAddr: 0x3ED8, symBinAddr: 0x10000830C, symSize: 0x1C }
  - { offsetInCU: 0xD861, offset: 0xD861, size: 0x8, addend: 0x0, symName: __ZNSt11_Tuple_implILm0EJRKxEE7_M_headERS2_, symObjAddr: 0x3EF4, symBinAddr: 0x100008328, symSize: 0x1C }
  - { offsetInCU: 0xD850, offset: 0xD850, size: 0x8, addend: 0x0, symName: __ZNK9__gnu_cxx16__aligned_bufferISt4pairIKxiEE7_M_addrEv, symObjAddr: 0x3EC4, symBinAddr: 0x1000082F8, symSize: 0x14 }
  - { offsetInCU: 0xD858, offset: 0xD858, size: 0x8, addend: 0x0, symName: __ZSt12__get_helperILm0ERKxJEERT0_RSt11_Tuple_implIXT_EJS2_DpT1_EE, symObjAddr: 0x3ED8, symBinAddr: 0x10000830C, symSize: 0x1C }
  - { offsetInCU: 0xD882, offset: 0xD882, size: 0x8, addend: 0x0, symName: __ZNSt15__new_allocatorIPNSt8__detail15_Hash_node_baseEE8allocateEmPKv, symObjAddr: 0x3E48, symBinAddr: 0x10000827C, symSize: 0x7C }
  - { offsetInCU: 0xD88A, offset: 0xD88A, size: 0x8, addend: 0x0, symName: __ZNK9__gnu_cxx16__aligned_bufferISt4pairIKxiEE7_M_addrEv, symObjAddr: 0x3EC4, symBinAddr: 0x1000082F8, symSize: 0x14 }
  - { offsetInCU: 0xD972, offset: 0xD972, size: 0x8, addend: 0x0, symName: __ZSt3getILm0EJRKxEERNSt13tuple_elementIXT_ESt5tupleIJDpT0_EEE4typeERS6_, symObjAddr: 0x3E2C, symBinAddr: 0x100008260, symSize: 0x1C }
  - { offsetInCU: 0xD97A, offset: 0xD97A, size: 0x8, addend: 0x0, symName: __ZNSt15__new_allocatorIPNSt8__detail15_Hash_node_baseEE8allocateEmPKv, symObjAddr: 0x3E48, symBinAddr: 0x10000827C, symSize: 0x7C }
  - { offsetInCU: 0xD964, offset: 0xD964, size: 0x8, addend: 0x0, symName: __ZNK9__gnu_cxx16__aligned_bufferISt4pairIKxiEE6_M_ptrEv, symObjAddr: 0x3E10, symBinAddr: 0x100008244, symSize: 0x1C }
  - { offsetInCU: 0xD96C, offset: 0xD96C, size: 0x8, addend: 0x0, symName: __ZSt3getILm0EJRKxEERNSt13tuple_elementIXT_ESt5tupleIJDpT0_EEE4typeERS6_, symObjAddr: 0x3E2C, symBinAddr: 0x100008260, symSize: 0x1C }
  - { offsetInCU: 0xDA1E, offset: 0xDA1E, size: 0x8, addend: 0x0, symName: __ZSt9__fill_a1IPxxEN9__gnu_cxx11__enable_ifIXsrSt11__is_scalarIT0_E7__valueEvE6__typeET_S8_RKS4_, symObjAddr: 0x3DB8, symBinAddr: 0x1000081EC, symSize: 0x58 }
  - { offsetInCU: 0xDA26, offset: 0xDA26, size: 0x8, addend: 0x0, symName: __ZNK9__gnu_cxx16__aligned_bufferISt4pairIKxiEE6_M_ptrEv, symObjAddr: 0x3E10, symBinAddr: 0x100008244, symSize: 0x1C }
  - { offsetInCU: 0xDA97, offset: 0xDA97, size: 0x8, addend: 0x0, symName: __ZSt9__fill_a1IPiiEN9__gnu_cxx11__enable_ifIXsrSt11__is_scalarIT0_E7__valueEvE6__typeET_S8_RKS4_, symObjAddr: 0x3D60, symBinAddr: 0x100008194, symSize: 0x58 }
  - { offsetInCU: 0xDA9F, offset: 0xDA9F, size: 0x8, addend: 0x0, symName: __ZSt9__fill_a1IPxxEN9__gnu_cxx11__enable_ifIXsrSt11__is_scalarIT0_E7__valueEvE6__typeET_S8_RKS4_, symObjAddr: 0x3DB8, symBinAddr: 0x1000081EC, symSize: 0x58 }
  - { offsetInCU: 0xDB19, offset: 0xDB19, size: 0x8, addend: 0x0, symName: __ZSt12__to_addressIPNSt8__detail15_Hash_node_baseEEPT_S4_, symObjAddr: 0x3D4C, symBinAddr: 0x100008180, symSize: 0x14 }
  - { offsetInCU: 0xDB21, offset: 0xDB21, size: 0x8, addend: 0x0, symName: __ZSt9__fill_a1IPiiEN9__gnu_cxx11__enable_ifIXsrSt11__is_scalarIT0_E7__valueEvE6__typeET_S8_RKS4_, symObjAddr: 0x3D60, symBinAddr: 0x100008194, symSize: 0x58 }
  - { offsetInCU: 0xDC0C, offset: 0xDC0C, size: 0x8, addend: 0x0, symName: __ZNSt4pairIKxiEC1IJRS0_EJLm0EEJEJEEERSt5tupleIJDpT_EERS4_IJDpT1_EESt12_Index_tupleIJXspT0_EEESD_IJXspT2_EEE, symObjAddr: 0x3D04, symBinAddr: 0x100008138, symSize: 0x48 }
  - { offsetInCU: 0xDC14, offset: 0xDC14, size: 0x8, addend: 0x0, symName: __ZSt12__to_addressIPNSt8__detail15_Hash_node_baseEEPT_S4_, symObjAddr: 0x3D4C, symBinAddr: 0x100008180, symSize: 0x14 }
  - { offsetInCU: 0xDCA6, offset: 0xDCA6, size: 0x8, addend: 0x0, symName: __ZSt7forwardIRKSt4pairIKxiEEOT_RNSt16remove_referenceIS5_E4typeE, symObjAddr: 0x3CF0, symBinAddr: 0x100008124, symSize: 0x14 }
  - { offsetInCU: 0xDCAE, offset: 0xDCAE, size: 0x8, addend: 0x0, symName: __ZNSt4pairIKxiEC1IJRS0_EJLm0EEJEJEEERSt5tupleIJDpT_EERS4_IJDpT1_EESt12_Index_tupleIJXspT0_EEESD_IJXspT2_EEE, symObjAddr: 0x3D04, symBinAddr: 0x100008138, symSize: 0x48 }
  - { offsetInCU: 0xDC81, offset: 0xDC81, size: 0x8, addend: 0x0, symName: __ZNKSt8__detail21_Hash_node_value_baseISt4pairIKxiEE9_M_valptrEv, symObjAddr: 0x3CD4, symBinAddr: 0x100008108, symSize: 0x1C }
  - { offsetInCU: 0xDC89, offset: 0xDC89, size: 0x8, addend: 0x0, symName: __ZSt7forwardIRKSt4pairIKxiEEOT_RNSt16remove_referenceIS5_E4typeE, symObjAddr: 0x3CF0, symBinAddr: 0x100008124, symSize: 0x14 }
  - { offsetInCU: 0xDCB0, offset: 0xDCB0, size: 0x8, addend: 0x0, symName: __ZNKSt8__detail21_Hashtable_ebo_helperILi0ESt8equal_toIxELb1EE7_M_cgetEv, symObjAddr: 0x3CC0, symBinAddr: 0x1000080F4, symSize: 0x14 }
  - { offsetInCU: 0xDCB8, offset: 0xDCB8, size: 0x8, addend: 0x0, symName: __ZNKSt8__detail21_Hash_node_value_baseISt4pairIKxiEE9_M_valptrEv, symObjAddr: 0x3CD4, symBinAddr: 0x100008108, symSize: 0x1C }
  - { offsetInCU: 0xDD26, offset: 0xDD26, size: 0x8, addend: 0x0, symName: __ZSt8__fill_aIPxxEvT_S1_RKT0_, symObjAddr: 0x3C90, symBinAddr: 0x1000080C4, symSize: 0x30 }
  - { offsetInCU: 0xDD2E, offset: 0xDD2E, size: 0x8, addend: 0x0, symName: __ZNKSt8__detail21_Hashtable_ebo_helperILi0ESt8equal_toIxELb1EE7_M_cgetEv, symObjAddr: 0x3CC0, symBinAddr: 0x1000080F4, symSize: 0x14 }
  - { offsetInCU: 0xDD8B, offset: 0xDD8B, size: 0x8, addend: 0x0, symName: __ZSt8__fill_aIPiiEvT_S1_RKT0_, symObjAddr: 0x3C60, symBinAddr: 0x100008094, symSize: 0x30 }
  - { offsetInCU: 0xDD93, offset: 0xDD93, size: 0x8, addend: 0x0, symName: __ZSt8__fill_aIPxxEvT_S1_RKT0_, symObjAddr: 0x3C90, symBinAddr: 0x1000080C4, symSize: 0x30 }
  - { offsetInCU: 0xDE6F, offset: 0xDE6F, size: 0x8, addend: 0x0, symName: __ZSt11__addressofINSt8__detail10_Hash_nodeISt4pairIKxiELb0EEEEPT_RS6_, symObjAddr: 0x3C4C, symBinAddr: 0x100008080, symSize: 0x14 }
  - { offsetInCU: 0xDE77, offset: 0xDE77, size: 0x8, addend: 0x0, symName: __ZSt8__fill_aIPiiEvT_S1_RKT0_, symObjAddr: 0x3C60, symBinAddr: 0x100008094, symSize: 0x30 }
  - { offsetInCU: 0xDE1B, offset: 0xDE1B, size: 0x8, addend: 0x0, symName: __ZNSt8__detail16_Hashtable_allocISaINS_10_Hash_nodeISt4pairIKxiELb0EEEEE19_M_allocate_bucketsEm, symObjAddr: 0x3B94, symBinAddr: 0x100007FC8, symSize: 0xB8 }
  - { offsetInCU: 0xDE23, offset: 0xDE23, size: 0x8, addend: 0x0, symName: __ZSt11__addressofINSt8__detail10_Hash_nodeISt4pairIKxiELb0EEEEPT_RS6_, symObjAddr: 0x3C4C, symBinAddr: 0x100008080, symSize: 0x14 }
  - { offsetInCU: 0xE00E, offset: 0xE00E, size: 0x8, addend: 0x0, symName: __ZNSt4pairIKxiEC1IJRS0_EJEEESt21piecewise_construct_tSt5tupleIJDpT_EES5_IJDpT0_EE, symObjAddr: 0x3B58, symBinAddr: 0x100007F8C, symSize: 0x3C }
  - { offsetInCU: 0xE016, offset: 0xE016, size: 0x8, addend: 0x0, symName: __ZNSt8__detail16_Hashtable_allocISaINS_10_Hash_nodeISt4pairIKxiELb0EEEEE19_M_allocate_bucketsEm, symObjAddr: 0x3B94, symBinAddr: 0x100007FC8, symSize: 0xB8 }
  - { offsetInCU: 0xE072, offset: 0xE072, size: 0x8, addend: 0x0, symName: __ZNSt11_Tuple_implILm0EJRKxEEC2EOS2_, symObjAddr: 0x3B30, symBinAddr: 0x100007F64, symSize: 0x28 }
  - { offsetInCU: 0xE07A, offset: 0xE07A, size: 0x8, addend: 0x0, symName: __ZNSt4pairIKxiEC1IJRS0_EJEEESt21piecewise_construct_tSt5tupleIJDpT_EES5_IJDpT0_EE, symObjAddr: 0x3B58, symBinAddr: 0x100007F8C, symSize: 0x3C }
  - { offsetInCU: 0xE0A0, offset: 0xE0A0, size: 0x8, addend: 0x0, symName: __ZNKSt8equal_toIxEclERKxS2_, symObjAddr: 0x3AFC, symBinAddr: 0x100007F30, symSize: 0x34 }
  - { offsetInCU: 0xE0A8, offset: 0xE0A8, size: 0x8, addend: 0x0, symName: __ZNSt11_Tuple_implILm0EJRKxEEC2EOS2_, symObjAddr: 0x3B30, symBinAddr: 0x100007F64, symSize: 0x28 }
  - { offsetInCU: 0xE10A, offset: 0xE10A, size: 0x8, addend: 0x0, symName: __ZNKSt8__detail10_Select1stclIRKSt4pairIKxiEEEONS0_10__1st_typeIT_E4typeEOS8_, symObjAddr: 0x3ADC, symBinAddr: 0x100007F10, symSize: 0x20 }
  - { offsetInCU: 0xE112, offset: 0xE112, size: 0x8, addend: 0x0, symName: __ZNKSt8equal_toIxEclERKxS2_, symObjAddr: 0x3AFC, symBinAddr: 0x100007F30, symSize: 0x34 }
  - { offsetInCU: 0xE159, offset: 0xE159, size: 0x8, addend: 0x0, symName: __ZNKSt8__detail21_Hash_node_value_baseISt4pairIKxiEE4_M_vEv, symObjAddr: 0x3AC0, symBinAddr: 0x100007EF4, symSize: 0x1C }
  - { offsetInCU: 0xE161, offset: 0xE161, size: 0x8, addend: 0x0, symName: __ZNKSt8__detail10_Select1stclIRKSt4pairIKxiEEEONS0_10__1st_typeIT_E4typeEOS8_, symObjAddr: 0x3ADC, symBinAddr: 0x100007F10, symSize: 0x20 }
  - { offsetInCU: 0xE188, offset: 0xE188, size: 0x8, addend: 0x0, symName: __ZNKSt8__detail15_Hashtable_baseIxSt4pairIKxiENS_10_Select1stESt8equal_toIxESt4hashIxENS_18_Mod_range_hashingENS_20_Default_ranged_hashENS_17_Hashtable_traitsILb0ELb0ELb1EEEE5_M_eqEv, symObjAddr: 0x3AA4, symBinAddr: 0x100007ED8, symSize: 0x1C }
  - { offsetInCU: 0xE190, offset: 0xE190, size: 0x8, addend: 0x0, symName: __ZNKSt8__detail21_Hash_node_value_baseISt4pairIKxiEE4_M_vEv, symObjAddr: 0x3AC0, symBinAddr: 0x100007EF4, symSize: 0x1C }
  - { offsetInCU: 0xE23B, offset: 0xE23B, size: 0x8, addend: 0x0, symName: __ZSt10__fill_n_aIPxmxET_S1_T0_RKT1_St26random_access_iterator_tag, symObjAddr: 0x3A40, symBinAddr: 0x100007E74, symSize: 0x64 }
  - { offsetInCU: 0xE243, offset: 0xE243, size: 0x8, addend: 0x0, symName: __ZNKSt8__detail15_Hashtable_baseIxSt4pairIKxiENS_10_Select1stESt8equal_toIxESt4hashIxENS_18_Mod_range_hashingENS_20_Default_ranged_hashENS_17_Hashtable_traitsILb0ELb0ELb1EEEE5_M_eqEv, symObjAddr: 0x3AA4, symBinAddr: 0x100007ED8, symSize: 0x1C }
  - { offsetInCU: 0xE2EE, offset: 0xE2EE, size: 0x8, addend: 0x0, symName: __ZSt10__fill_n_aIPimiET_S1_T0_RKT1_St26random_access_iterator_tag, symObjAddr: 0x39DC, symBinAddr: 0x100007E10, symSize: 0x64 }
  - { offsetInCU: 0xE2F6, offset: 0xE2F6, size: 0x8, addend: 0x0, symName: __ZSt10__fill_n_aIPxmxET_S1_T0_RKT1_St26random_access_iterator_tag, symObjAddr: 0x3A40, symBinAddr: 0x100007E74, symSize: 0x64 }
  - { offsetInCU: 0xE3B0, offset: 0xE3B0, size: 0x8, addend: 0x0, symName: __ZSt11__addressofIPNSt8__detail15_Hash_node_baseEEPT_RS3_, symObjAddr: 0x39C8, symBinAddr: 0x100007DFC, symSize: 0x14 }
  - { offsetInCU: 0xE3B8, offset: 0xE3B8, size: 0x8, addend: 0x0, symName: __ZSt10__fill_n_aIPimiET_S1_T0_RKT1_St26random_access_iterator_tag, symObjAddr: 0x39DC, symBinAddr: 0x100007E10, symSize: 0x64 }
  - { offsetInCU: 0xE428, offset: 0xE428, size: 0x8, addend: 0x0, symName: __ZSt9addressofINSt8__detail10_Hash_nodeISt4pairIKxiELb0EEEEPT_RS6_, symObjAddr: 0x39AC, symBinAddr: 0x100007DE0, symSize: 0x1C }
  - { offsetInCU: 0xE430, offset: 0xE430, size: 0x8, addend: 0x0, symName: __ZSt11__addressofIPNSt8__detail15_Hash_node_baseEEPT_RS3_, symObjAddr: 0x39C8, symBinAddr: 0x100007DFC, symSize: 0x14 }
  - { offsetInCU: 0xE3D9, offset: 0xE3D9, size: 0x8, addend: 0x0, symName: __ZNSt10_HashtableIxSt4pairIKxiESaIS2_ENSt8__detail10_Select1stESt8equal_toIxESt4hashIxENS4_18_Mod_range_hashingENS4_20_Default_ranged_hashENS4_20_Prime_rehash_policyENS4_17_Hashtable_traitsILb0ELb0ELb1EEEE19_M_allocate_bucketsEm, symObjAddr: 0x3954, symBinAddr: 0x100007D88, symSize: 0x58 }
  - { offsetInCU: 0xE3E1, offset: 0xE3E1, size: 0x8, addend: 0x0, symName: __ZSt9addressofINSt8__detail10_Hash_nodeISt4pairIKxiELb0EEEEPT_RS6_, symObjAddr: 0x39AC, symBinAddr: 0x100007DE0, symSize: 0x1C }
  - { offsetInCU: 0xE41C, offset: 0xE41C, size: 0x8, addend: 0x0, symName: __ZNSt15__new_allocatorINSt8__detail10_Hash_nodeISt4pairIKxiELb0EEEE10deallocateEPS5_m, symObjAddr: 0x3918, symBinAddr: 0x100007D4C, symSize: 0x3C }
  - { offsetInCU: 0xE424, offset: 0xE424, size: 0x8, addend: 0x0, symName: __ZNSt10_HashtableIxSt4pairIKxiESaIS2_ENSt8__detail10_Select1stESt8equal_toIxESt4hashIxENS4_18_Mod_range_hashingENS4_20_Default_ranged_hashENS4_20_Prime_rehash_policyENS4_17_Hashtable_traitsILb0ELb0ELb1EEEE19_M_allocate_bucketsEm, symObjAddr: 0x3954, symBinAddr: 0x100007D88, symSize: 0x58 }
  - { offsetInCU: 0xE538, offset: 0xE538, size: 0x8, addend: 0x0, symName: __ZNSt5tupleIJRKxEEC1EOS2_, symObjAddr: 0x38F0, symBinAddr: 0x100007D24, symSize: 0x28 }
  - { offsetInCU: 0xE540, offset: 0xE540, size: 0x8, addend: 0x0, symName: __ZNSt15__new_allocatorINSt8__detail10_Hash_nodeISt4pairIKxiELb0EEEE10deallocateEPS5_m, symObjAddr: 0x3918, symBinAddr: 0x100007D4C, symSize: 0x3C }
  - { offsetInCU: 0xE558, offset: 0xE558, size: 0x8, addend: 0x0, symName: __ZNSt15__new_allocatorINSt8__detail10_Hash_nodeISt4pairIKxiELb0EEEE8allocateEmPKv, symObjAddr: 0x3860, symBinAddr: 0x100007C94, symSize: 0x90 }
  - { offsetInCU: 0xE560, offset: 0xE560, size: 0x8, addend: 0x0, symName: __ZNSt5tupleIJRKxEEC1EOS2_, symObjAddr: 0x38F0, symBinAddr: 0x100007D24, symSize: 0x28 }
  - { offsetInCU: 0xE5E3, offset: 0xE5E3, size: 0x8, addend: 0x0, symName: __ZN9__gnu_cxx16__aligned_bufferISt4pairIKxiEE7_M_addrEv, symObjAddr: 0x384C, symBinAddr: 0x100007C80, symSize: 0x14 }
  - { offsetInCU: 0xE5EB, offset: 0xE5EB, size: 0x8, addend: 0x0, symName: __ZNSt15__new_allocatorINSt8__detail10_Hash_nodeISt4pairIKxiELb0EEEE8allocateEmPKv, symObjAddr: 0x3860, symBinAddr: 0x100007C94, symSize: 0x90 }
  - { offsetInCU: 0xE615, offset: 0xE615, size: 0x8, addend: 0x0, symName: __ZNKSt8__detail15_Hash_code_baseIxSt4pairIKxiENS_10_Select1stESt4hashIxENS_18_Mod_range_hashingENS_20_Default_ranged_hashELb0EE15_M_bucket_indexERKNS_16_Hash_node_valueIS3_Lb0EEEm, symObjAddr: 0x3800, symBinAddr: 0x100007C34, symSize: 0x4C }
  - { offsetInCU: 0xE61D, offset: 0xE61D, size: 0x8, addend: 0x0, symName: __ZN9__gnu_cxx16__aligned_bufferISt4pairIKxiEE7_M_addrEv, symObjAddr: 0x384C, symBinAddr: 0x100007C80, symSize: 0x14 }
  - { offsetInCU: 0xE66C, offset: 0xE66C, size: 0x8, addend: 0x0, symName: __ZNKSt8__detail15_Hashtable_baseIxSt4pairIKxiENS_10_Select1stESt8equal_toIxESt4hashIxENS_18_Mod_range_hashingENS_20_Default_ranged_hashENS_17_Hashtable_traitsILb0ELb0ELb1EEEE13_M_key_equalsERS2_RKNS_16_Hash_node_valueIS3_Lb0EEE, symObjAddr: 0x37A8, symBinAddr: 0x100007BDC, symSize: 0x58 }
  - { offsetInCU: 0xE674, offset: 0xE674, size: 0x8, addend: 0x0, symName: __ZNKSt8__detail15_Hash_code_baseIxSt4pairIKxiENS_10_Select1stESt4hashIxENS_18_Mod_range_hashingENS_20_Default_ranged_hashELb0EE15_M_bucket_indexERKNS_16_Hash_node_valueIS3_Lb0EEEm, symObjAddr: 0x3800, symBinAddr: 0x100007C34, symSize: 0x4C }
  - { offsetInCU: 0xE6C3, offset: 0xE6C3, size: 0x8, addend: 0x0, symName: __ZNSt8__detail15_Hashtable_baseIxSt4pairIKxiENS_10_Select1stESt8equal_toIxESt4hashIxENS_18_Mod_range_hashingENS_20_Default_ranged_hashENS_17_Hashtable_traitsILb0ELb0ELb1EEEE9_S_equalsEmRKNS_21_Hash_node_code_cacheILb0EEE, symObjAddr: 0x3790, symBinAddr: 0x100007BC4, symSize: 0x18 }
  - { offsetInCU: 0xE6CB, offset: 0xE6CB, size: 0x8, addend: 0x0, symName: __ZNKSt8__detail15_Hashtable_baseIxSt4pairIKxiENS_10_Select1stESt8equal_toIxESt4hashIxENS_18_Mod_range_hashingENS_20_Default_ranged_hashENS_17_Hashtable_traitsILb0ELb0ELb1EEEE13_M_key_equalsERS2_RKNS_16_Hash_node_valueIS3_Lb0EEE, symObjAddr: 0x37A8, symBinAddr: 0x100007BDC, symSize: 0x58 }
  - { offsetInCU: 0xE76F, offset: 0xE76F, size: 0x8, addend: 0x0, symName: __ZSt6fill_nIPxmxET_S1_T0_RKT1_, symObjAddr: 0x3748, symBinAddr: 0x100007B7C, symSize: 0x48 }
  - { offsetInCU: 0xE777, offset: 0xE777, size: 0x8, addend: 0x0, symName: __ZNSt8__detail15_Hashtable_baseIxSt4pairIKxiENS_10_Select1stESt8equal_toIxESt4hashIxENS_18_Mod_range_hashingENS_20_Default_ranged_hashENS_17_Hashtable_traitsILb0ELb0ELb1EEEE9_S_equalsEmRKNS_21_Hash_node_code_cacheILb0EEE, symObjAddr: 0x3790, symBinAddr: 0x100007BC4, symSize: 0x18 }
  - { offsetInCU: 0xE7FD, offset: 0xE7FD, size: 0x8, addend: 0x0, symName: __ZSt10_ConstructIxJEEvPT_DpOT0_, symObjAddr: 0x371C, symBinAddr: 0x100007B50, symSize: 0x2C }
  - { offsetInCU: 0xE805, offset: 0xE805, size: 0x8, addend: 0x0, symName: __ZSt6fill_nIPxmxET_S1_T0_RKT1_, symObjAddr: 0x3748, symBinAddr: 0x100007B7C, symSize: 0x48 }
  - { offsetInCU: 0xE849, offset: 0xE849, size: 0x8, addend: 0x0, symName: __ZSt11__addressofIxEPT_RS0_, symObjAddr: 0x3708, symBinAddr: 0x100007B3C, symSize: 0x14 }
  - { offsetInCU: 0xE851, offset: 0xE851, size: 0x8, addend: 0x0, symName: __ZSt10_ConstructIxJEEvPT_DpOT0_, symObjAddr: 0x371C, symBinAddr: 0x100007B50, symSize: 0x2C }
  - { offsetInCU: 0xE8D3, offset: 0xE8D3, size: 0x8, addend: 0x0, symName: __ZSt6fill_nIPimiET_S1_T0_RKT1_, symObjAddr: 0x36C0, symBinAddr: 0x100007AF4, symSize: 0x48 }
  - { offsetInCU: 0xE8DB, offset: 0xE8DB, size: 0x8, addend: 0x0, symName: __ZSt11__addressofIxEPT_RS0_, symObjAddr: 0x3708, symBinAddr: 0x100007B3C, symSize: 0x14 }
  - { offsetInCU: 0xE96B, offset: 0xE96B, size: 0x8, addend: 0x0, symName: __ZSt10_ConstructIiJEEvPT_DpOT0_, symObjAddr: 0x3694, symBinAddr: 0x100007AC8, symSize: 0x2C }
  - { offsetInCU: 0xE973, offset: 0xE973, size: 0x8, addend: 0x0, symName: __ZSt6fill_nIPimiET_S1_T0_RKT1_, symObjAddr: 0x36C0, symBinAddr: 0x100007AF4, symSize: 0x48 }
  - { offsetInCU: 0xE9B7, offset: 0xE9B7, size: 0x8, addend: 0x0, symName: __ZSt11__addressofIiEPT_RS0_, symObjAddr: 0x3680, symBinAddr: 0x100007AB4, symSize: 0x14 }
  - { offsetInCU: 0xE9BF, offset: 0xE9BF, size: 0x8, addend: 0x0, symName: __ZSt10_ConstructIiJEEvPT_DpOT0_, symObjAddr: 0x3694, symBinAddr: 0x100007AC8, symSize: 0x2C }
  - { offsetInCU: 0xE9E9, offset: 0xE9E9, size: 0x8, addend: 0x0, symName: __ZNSt15__new_allocatorIPNSt8__detail15_Hash_node_baseEE10deallocateEPS2_m, symObjAddr: 0x3650, symBinAddr: 0x100007A84, symSize: 0x30 }
  - { offsetInCU: 0xE9F1, offset: 0xE9F1, size: 0x8, addend: 0x0, symName: __ZSt11__addressofIiEPT_RS0_, symObjAddr: 0x3680, symBinAddr: 0x100007AB4, symSize: 0x14 }
  - { offsetInCU: 0xEAA1, offset: 0xEAA1, size: 0x8, addend: 0x0, symName: __ZNSt15__new_allocatorIPNSt8__detail15_Hash_node_baseEED2Ev, symObjAddr: 0x363C, symBinAddr: 0x100007A70, symSize: 0x14 }
  - { offsetInCU: 0xEAA9, offset: 0xEAA9, size: 0x8, addend: 0x0, symName: __ZNSt15__new_allocatorIPNSt8__detail15_Hash_node_baseEE10deallocateEPS2_m, symObjAddr: 0x3650, symBinAddr: 0x100007A84, symSize: 0x30 }
  - { offsetInCU: 0xEB12, offset: 0xEB12, size: 0x8, addend: 0x0, symName: __ZSt9addressofIPNSt8__detail15_Hash_node_baseEEPT_RS3_, symObjAddr: 0x3620, symBinAddr: 0x100007A54, symSize: 0x1C }
  - { offsetInCU: 0xEB1A, offset: 0xEB1A, size: 0x8, addend: 0x0, symName: __ZNSt15__new_allocatorIPNSt8__detail15_Hash_node_baseEED2Ev, symObjAddr: 0x363C, symBinAddr: 0x100007A70, symSize: 0x14 }
  - { offsetInCU: 0xEAF6, offset: 0xEAF6, size: 0x8, addend: 0x0, symName: __ZNSt19__ptr_traits_ptr_toIPNSt8__detail10_Hash_nodeISt4pairIKxiELb0EEES5_Lb0EE10pointer_toERS5_, symObjAddr: 0x3604, symBinAddr: 0x100007A38, symSize: 0x1C }
  - { offsetInCU: 0xEAFE, offset: 0xEAFE, size: 0x8, addend: 0x0, symName: __ZSt9addressofIPNSt8__detail15_Hash_node_baseEEPT_RS3_, symObjAddr: 0x3620, symBinAddr: 0x100007A54, symSize: 0x1C }
  - { offsetInCU: 0xEB5D, offset: 0xEB5D, size: 0x8, addend: 0x0, symName: __ZNSt8__detail21_Hashtable_ebo_helperILi0ESaINS_10_Hash_nodeISt4pairIKxiELb0EEEELb1EE6_M_getEv, symObjAddr: 0x35F0, symBinAddr: 0x100007A24, symSize: 0x14 }
  - { offsetInCU: 0xEB65, offset: 0xEB65, size: 0x8, addend: 0x0, symName: __ZNSt19__ptr_traits_ptr_toIPNSt8__detail10_Hash_nodeISt4pairIKxiELb0EEES5_Lb0EE10pointer_toERS5_, symObjAddr: 0x3604, symBinAddr: 0x100007A38, symSize: 0x1C }
  - { offsetInCU: 0xEC07, offset: 0xEC07, size: 0x8, addend: 0x0, symName: __ZN9__gnu_cxx5__ops14_Iter_comp_valISt7greaterIxEEC1EONS0_15_Iter_comp_iterIS3_EE, symObjAddr: 0x35CC, symBinAddr: 0x100007A00, symSize: 0x24 }
  - { offsetInCU: 0xEC0F, offset: 0xEC0F, size: 0x8, addend: 0x0, symName: __ZNSt8__detail21_Hashtable_ebo_helperILi0ESaINS_10_Hash_nodeISt4pairIKxiELb0EEEELb1EE6_M_getEv, symObjAddr: 0x35F0, symBinAddr: 0x100007A24, symSize: 0x14 }
  - { offsetInCU: 0xEC9D, offset: 0xEC9D, size: 0x8, addend: 0x0, symName: __ZSt4moveIRN9__gnu_cxx5__ops15_Iter_comp_iterISt7greaterIxEEEEONSt16remove_referenceIT_E4typeEOS8_, symObjAddr: 0x35B8, symBinAddr: 0x1000079EC, symSize: 0x14 }
  - { offsetInCU: 0xECA5, offset: 0xECA5, size: 0x8, addend: 0x0, symName: __ZN9__gnu_cxx5__ops14_Iter_comp_valISt7greaterIxEEC1EONS0_15_Iter_comp_iterIS3_EE, symObjAddr: 0x35CC, symBinAddr: 0x100007A00, symSize: 0x24 }
  - { offsetInCU: 0xEC4D, offset: 0xEC4D, size: 0x8, addend: 0x0, symName: __ZN9__gnu_cxx5__ops15_Iter_comp_iterISt7greaterIxEEclINS_17__normal_iteratorIPxSt6vectorIxSaIxEEEESB_EEbT_T0_, symObjAddr: 0x3568, symBinAddr: 0x10000799C, symSize: 0x50 }
  - { offsetInCU: 0xEC55, offset: 0xEC55, size: 0x8, addend: 0x0, symName: __ZSt4moveIRN9__gnu_cxx5__ops15_Iter_comp_iterISt7greaterIxEEEEONSt16remove_referenceIT_E4typeEOS8_, symObjAddr: 0x35B8, symBinAddr: 0x1000079EC, symSize: 0x14 }
  - { offsetInCU: 0xED39, offset: 0xED39, size: 0x8, addend: 0x0, symName: __ZNSt8__detail19_Node_iterator_baseISt4pairIKxiELb0EEC2EPNS_10_Hash_nodeIS3_Lb0EEE, symObjAddr: 0x3544, symBinAddr: 0x100007978, symSize: 0x24 }
  - { offsetInCU: 0xED41, offset: 0xED41, size: 0x8, addend: 0x0, symName: __ZN9__gnu_cxx5__ops15_Iter_comp_iterISt7greaterIxEEclINS_17__normal_iteratorIPxSt6vectorIxSaIxEEEESB_EEbT_T0_, symObjAddr: 0x3568, symBinAddr: 0x10000799C, symSize: 0x50 }
  - { offsetInCU: 0xED20, offset: 0xED20, size: 0x8, addend: 0x0, symName: __ZNSt10_HashtableIxSt4pairIKxiESaIS2_ENSt8__detail10_Select1stESt8equal_toIxESt4hashIxENS4_18_Mod_range_hashingENS4_20_Default_ranged_hashENS4_20_Prime_rehash_policyENS4_17_Hashtable_traitsILb0ELb0ELb1EEEE13_M_rehash_auxEmSt17integral_constantIbLb1EE, symObjAddr: 0x33D8, symBinAddr: 0x10000780C, symSize: 0x16C }
  - { offsetInCU: 0xED28, offset: 0xED28, size: 0x8, addend: 0x0, symName: __ZNSt8__detail19_Node_iterator_baseISt4pairIKxiELb0EEC2EPNS_10_Hash_nodeIS3_Lb0EEE, symObjAddr: 0x3544, symBinAddr: 0x100007978, symSize: 0x24 }
  - { offsetInCU: 0xEF3F, offset: 0xEF3F, size: 0x8, addend: 0x0, symName: __ZSt12__to_addressINSt8__detail10_Hash_nodeISt4pairIKxiELb0EEEEPT_S7_, symObjAddr: 0x33C4, symBinAddr: 0x1000077F8, symSize: 0x14 }
  - { offsetInCU: 0xEF47, offset: 0xEF47, size: 0x8, addend: 0x0, symName: __ZNSt10_HashtableIxSt4pairIKxiESaIS2_ENSt8__detail10_Select1stESt8equal_toIxESt4hashIxENS4_18_Mod_range_hashingENS4_20_Default_ranged_hashENS4_20_Prime_rehash_policyENS4_17_Hashtable_traitsILb0ELb0ELb1EEEE13_M_rehash_auxEmSt17integral_constantIbLb1EE, symObjAddr: 0x33D8, symBinAddr: 0x10000780C, symSize: 0x16C }
  - { offsetInCU: 0xEF65, offset: 0xEF65, size: 0x8, addend: 0x0, symName: __ZNSt10_Head_baseILm0ERKxLb0EEC2ES1_, symObjAddr: 0x33A0, symBinAddr: 0x1000077D4, symSize: 0x24 }
  - { offsetInCU: 0xEF6D, offset: 0xEF6D, size: 0x8, addend: 0x0, symName: __ZSt12__to_addressINSt8__detail10_Hash_nodeISt4pairIKxiELb0EEEEPT_S7_, symObjAddr: 0x33C4, symBinAddr: 0x1000077F8, symSize: 0x14 }
  - { offsetInCU: 0xEF7A, offset: 0xEF7A, size: 0x8, addend: 0x0, symName: __ZN9__gnu_cxx16__aligned_bufferISt4pairIKxiEE6_M_ptrEv, symObjAddr: 0x3384, symBinAddr: 0x1000077B8, symSize: 0x1C }
  - { offsetInCU: 0xEF82, offset: 0xEF82, size: 0x8, addend: 0x0, symName: __ZNSt10_Head_baseILm0ERKxLb0EEC2ES1_, symObjAddr: 0x33A0, symBinAddr: 0x1000077D4, symSize: 0x24 }
  - { offsetInCU: 0xEFA9, offset: 0xEFA9, size: 0x8, addend: 0x0, symName: __ZNKSt10_HashtableIxSt4pairIKxiESaIS2_ENSt8__detail10_Select1stESt8equal_toIxESt4hashIxENS4_18_Mod_range_hashingENS4_20_Default_ranged_hashENS4_20_Prime_rehash_policyENS4_17_Hashtable_traitsILb0ELb0ELb1EEEE15_M_bucket_indexERKNS4_16_Hash_node_valueIS2_Lb0EEE, symObjAddr: 0x3354, symBinAddr: 0x100007788, symSize: 0x30 }
  - { offsetInCU: 0xEFB1, offset: 0xEFB1, size: 0x8, addend: 0x0, symName: __ZN9__gnu_cxx16__aligned_bufferISt4pairIKxiEE6_M_ptrEv, symObjAddr: 0x3384, symBinAddr: 0x1000077B8, symSize: 0x1C }
  - { offsetInCU: 0xEFEC, offset: 0xEFEC, size: 0x8, addend: 0x0, symName: __ZNKSt8__detail15_Hashtable_baseIxSt4pairIKxiENS_10_Select1stESt8equal_toIxESt4hashIxENS_18_Mod_range_hashingENS_20_Default_ranged_hashENS_17_Hashtable_traitsILb0ELb0ELb1EEEE9_M_equalsERS2_mRKNS_16_Hash_node_valueIS3_Lb0EEE, symObjAddr: 0x32EC, symBinAddr: 0x100007720, symSize: 0x68 }
  - { offsetInCU: 0xEFF4, offset: 0xEFF4, size: 0x8, addend: 0x0, symName: __ZNKSt10_HashtableIxSt4pairIKxiESaIS2_ENSt8__detail10_Select1stESt8equal_toIxESt4hashIxENS4_18_Mod_range_hashingENS4_20_Default_ranged_hashENS4_20_Prime_rehash_policyENS4_17_Hashtable_traitsILb0ELb0ELb1EEEE15_M_bucket_indexERKNS4_16_Hash_node_valueIS2_Lb0EEE, symObjAddr: 0x3354, symBinAddr: 0x100007788, symSize: 0x30 }
  - { offsetInCU: 0xF057, offset: 0xF057, size: 0x8, addend: 0x0, symName: __ZNKSt8__detail21_Hashtable_ebo_helperILi1ESt4hashIxELb1EE7_M_cgetEv, symObjAddr: 0x32D8, symBinAddr: 0x10000770C, symSize: 0x14 }
  - { offsetInCU: 0xF05F, offset: 0xF05F, size: 0x8, addend: 0x0, symName: __ZNKSt8__detail15_Hashtable_baseIxSt4pairIKxiENS_10_Select1stESt8equal_toIxESt4hashIxENS_18_Mod_range_hashingENS_20_Default_ranged_hashENS_17_Hashtable_traitsILb0ELb0ELb1EEEE9_M_equalsERS2_mRKNS_16_Hash_node_valueIS3_Lb0EEE, symObjAddr: 0x32EC, symBinAddr: 0x100007720, symSize: 0x68 }
  - { offsetInCU: 0xF086, offset: 0xF086, size: 0x8, addend: 0x0, symName: __ZNKSt7greaterIxEclERKxS2_, symObjAddr: 0x32A4, symBinAddr: 0x1000076D8, symSize: 0x34 }
  - { offsetInCU: 0xF08E, offset: 0xF08E, size: 0x8, addend: 0x0, symName: __ZNKSt8__detail21_Hashtable_ebo_helperILi1ESt4hashIxELb1EE7_M_cgetEv, symObjAddr: 0x32D8, symBinAddr: 0x10000770C, symSize: 0x14 }
  - { offsetInCU: 0xF18D, offset: 0xF18D, size: 0x8, addend: 0x0, symName: __ZSt14__relocate_a_1IxxENSt9enable_ifIXsrSt24__is_bitwise_relocatableIT_vE5valueEPS2_E4typeES4_S4_S4_RSaIT0_E, symObjAddr: 0x323C, symBinAddr: 0x100007670, symSize: 0x68 }
  - { offsetInCU: 0xF195, offset: 0xF195, size: 0x8, addend: 0x0, symName: __ZNKSt7greaterIxEclERKxS2_, symObjAddr: 0x32A4, symBinAddr: 0x1000076D8, symSize: 0x34 }
  - { offsetInCU: 0xF1D4, offset: 0xF1D4, size: 0x8, addend: 0x0, symName: __ZSt12__niter_baseIPxET_S1_, symObjAddr: 0x3228, symBinAddr: 0x10000765C, symSize: 0x14 }
  - { offsetInCU: 0xF1DC, offset: 0xF1DC, size: 0x8, addend: 0x0, symName: __ZSt14__relocate_a_1IxxENSt9enable_ifIXsrSt24__is_bitwise_relocatableIT_vE5valueEPS2_E4typeES4_S4_S4_RSaIT0_E, symObjAddr: 0x323C, symBinAddr: 0x100007670, symSize: 0x68 }
  - { offsetInCU: 0xF1E2, offset: 0xF1E2, size: 0x8, addend: 0x0, symName: __ZNSt15__new_allocatorIxE8allocateEmPKv, symObjAddr: 0x31AC, symBinAddr: 0x1000075E0, symSize: 0x7C }
  - { offsetInCU: 0xF1EA, offset: 0xF1EA, size: 0x8, addend: 0x0, symName: __ZSt12__niter_baseIPxET_S1_, symObjAddr: 0x3228, symBinAddr: 0x10000765C, symSize: 0x14 }
  - { offsetInCU: 0xF268, offset: 0xF268, size: 0x8, addend: 0x0, symName: __ZNSt27__uninitialized_default_n_1ILb1EE18__uninit_default_nIPxmEET_S3_T0_, symObjAddr: 0x3148, symBinAddr: 0x10000757C, symSize: 0x64 }
  - { offsetInCU: 0xF270, offset: 0xF270, size: 0x8, addend: 0x0, symName: __ZNSt15__new_allocatorIxE8allocateEmPKv, symObjAddr: 0x31AC, symBinAddr: 0x1000075E0, symSize: 0x7C }
  - { offsetInCU: 0xF314, offset: 0xF314, size: 0x8, addend: 0x0, symName: __ZNSt12_Destroy_auxILb1EE9__destroyIPiEEvT_S3_, symObjAddr: 0x3130, symBinAddr: 0x100007564, symSize: 0x18 }
  - { offsetInCU: 0xF31C, offset: 0xF31C, size: 0x8, addend: 0x0, symName: __ZNSt27__uninitialized_default_n_1ILb1EE18__uninit_default_nIPxmEET_S3_T0_, symObjAddr: 0x3148, symBinAddr: 0x10000757C, symSize: 0x64 }
  - { offsetInCU: 0xF3F3, offset: 0xF3F3, size: 0x8, addend: 0x0, symName: __ZSt14__relocate_a_1IiiENSt9enable_ifIXsrSt24__is_bitwise_relocatableIT_vE5valueEPS2_E4typeES4_S4_S4_RSaIT0_E, symObjAddr: 0x30C8, symBinAddr: 0x1000074FC, symSize: 0x68 }
  - { offsetInCU: 0xF3FB, offset: 0xF3FB, size: 0x8, addend: 0x0, symName: __ZNSt12_Destroy_auxILb1EE9__destroyIPiEEvT_S3_, symObjAddr: 0x3130, symBinAddr: 0x100007564, symSize: 0x18 }
  - { offsetInCU: 0xF444, offset: 0xF444, size: 0x8, addend: 0x0, symName: __ZSt12__niter_baseIPiET_S1_, symObjAddr: 0x30B4, symBinAddr: 0x1000074E8, symSize: 0x14 }
  - { offsetInCU: 0xF44C, offset: 0xF44C, size: 0x8, addend: 0x0, symName: __ZSt14__relocate_a_1IiiENSt9enable_ifIXsrSt24__is_bitwise_relocatableIT_vE5valueEPS2_E4typeES4_S4_S4_RSaIT0_E, symObjAddr: 0x30C8, symBinAddr: 0x1000074FC, symSize: 0x68 }
  - { offsetInCU: 0xF45C, offset: 0xF45C, size: 0x8, addend: 0x0, symName: __ZNSt15__new_allocatorIiE8allocateEmPKv, symObjAddr: 0x3038, symBinAddr: 0x10000746C, symSize: 0x7C }
  - { offsetInCU: 0xF464, offset: 0xF464, size: 0x8, addend: 0x0, symName: __ZSt12__niter_baseIPiET_S1_, symObjAddr: 0x30B4, symBinAddr: 0x1000074E8, symSize: 0x14 }
  - { offsetInCU: 0xF4E2, offset: 0xF4E2, size: 0x8, addend: 0x0, symName: __ZNSt27__uninitialized_default_n_1ILb1EE18__uninit_default_nIPimEET_S3_T0_, symObjAddr: 0x2FD4, symBinAddr: 0x100007408, symSize: 0x64 }
  - { offsetInCU: 0xF4EA, offset: 0xF4EA, size: 0x8, addend: 0x0, symName: __ZNSt15__new_allocatorIiE8allocateEmPKv, symObjAddr: 0x3038, symBinAddr: 0x10000746C, symSize: 0x7C }
  - { offsetInCU: 0xF622, offset: 0xF622, size: 0x8, addend: 0x0, symName: __ZNSt19__ptr_traits_ptr_toIPPNSt8__detail15_Hash_node_baseES2_Lb0EE10pointer_toERS2_, symObjAddr: 0x2FB8, symBinAddr: 0x1000073EC, symSize: 0x1C }
  - { offsetInCU: 0xF62A, offset: 0xF62A, size: 0x8, addend: 0x0, symName: __ZNSt27__uninitialized_default_n_1ILb1EE18__uninit_default_nIPimEET_S3_T0_, symObjAddr: 0x2FD4, symBinAddr: 0x100007408, symSize: 0x64 }
  - { offsetInCU: 0xF653, offset: 0xF653, size: 0x8, addend: 0x0, symName: __ZNSt8__detail16_Hashtable_allocISaINS_10_Hash_nodeISt4pairIKxiELb0EEEEE22_M_deallocate_node_ptrEPS5_, symObjAddr: 0x2F60, symBinAddr: 0x100007394, symSize: 0x58 }
  - { offsetInCU: 0xF65B, offset: 0xF65B, size: 0x8, addend: 0x0, symName: __ZNSt19__ptr_traits_ptr_toIPPNSt8__detail15_Hash_node_baseES2_Lb0EE10pointer_toERS2_, symObjAddr: 0x2FB8, symBinAddr: 0x1000073EC, symSize: 0x1C }
  - { offsetInCU: 0xF722, offset: 0xF722, size: 0x8, addend: 0x0, symName: __ZNSt8__detail16_Hashtable_allocISaINS_10_Hash_nodeISt4pairIKxiELb0EEEEE17_M_node_allocatorEv, symObjAddr: 0x2F44, symBinAddr: 0x100007378, symSize: 0x1C }
  - { offsetInCU: 0xF72A, offset: 0xF72A, size: 0x8, addend: 0x0, symName: __ZNSt8__detail16_Hashtable_allocISaINS_10_Hash_nodeISt4pairIKxiELb0EEEEE22_M_deallocate_node_ptrEPS5_, symObjAddr: 0x2F60, symBinAddr: 0x100007394, symSize: 0x58 }
  - { offsetInCU: 0xF751, offset: 0xF751, size: 0x8, addend: 0x0, symName: __ZNSt12_Destroy_auxILb1EE9__destroyIPxEEvT_S3_, symObjAddr: 0x2F2C, symBinAddr: 0x100007360, symSize: 0x18 }
  - { offsetInCU: 0xF759, offset: 0xF759, size: 0x8, addend: 0x0, symName: __ZNSt8__detail16_Hashtable_allocISaINS_10_Hash_nodeISt4pairIKxiELb0EEEEE17_M_node_allocatorEv, symObjAddr: 0x2F44, symBinAddr: 0x100007378, symSize: 0x1C }
  - { offsetInCU: 0xF904, offset: 0xF904, size: 0x8, addend: 0x0, symName: __ZSt13__adjust_heapIN9__gnu_cxx17__normal_iteratorIPxSt6vectorIxSaIxEEEElxNS0_5__ops15_Iter_comp_iterISt7greaterIxEEEEvT_T0_SD_T1_T2_, symObjAddr: 0x2D54, symBinAddr: 0x100007188, symSize: 0x1D8 }
  - { offsetInCU: 0xF90C, offset: 0xF90C, size: 0x8, addend: 0x0, symName: __ZNSt12_Destroy_auxILb1EE9__destroyIPxEEvT_S3_, symObjAddr: 0x2F2C, symBinAddr: 0x100007360, symSize: 0x18 }
  - { offsetInCU: 0xF8BD, offset: 0xF8BD, size: 0x8, addend: 0x0, symName: __ZNK9__gnu_cxx17__normal_iteratorIPKxSt6vectorIxSaIxEEE4baseEv, symObjAddr: 0x2D40, symBinAddr: 0x100007174, symSize: 0x14 }
  - { offsetInCU: 0xF8C5, offset: 0xF8C5, size: 0x8, addend: 0x0, symName: __ZSt13__adjust_heapIN9__gnu_cxx17__normal_iteratorIPxSt6vectorIxSaIxEEEElxNS0_5__ops15_Iter_comp_iterISt7greaterIxEEEEvT_T0_SD_T1_T2_, symObjAddr: 0x2D54, symBinAddr: 0x100007188, symSize: 0x1D8 }
  - { offsetInCU: 0xF955, offset: 0xF955, size: 0x8, addend: 0x0, symName: __ZN9__gnu_cxx17__normal_iteratorIPKxSt6vectorIxSaIxEEEC1ERKS2_, symObjAddr: 0x2D18, symBinAddr: 0x10000714C, symSize: 0x28 }
  - { offsetInCU: 0xF95D, offset: 0xF95D, size: 0x8, addend: 0x0, symName: __ZNK9__gnu_cxx17__normal_iteratorIPKxSt6vectorIxSaIxEEE4baseEv, symObjAddr: 0x2D40, symBinAddr: 0x100007174, symSize: 0x14 }
  - { offsetInCU: 0xF9CC, offset: 0xF9CC, size: 0x8, addend: 0x0, symName: __ZNSt8__detail14_Node_iteratorISt4pairIKxiELb0ELb0EEC1EPNS_10_Hash_nodeIS3_Lb0EEE, symObjAddr: 0x2CF0, symBinAddr: 0x100007124, symSize: 0x28 }
  - { offsetInCU: 0xF9D4, offset: 0xF9D4, size: 0x8, addend: 0x0, symName: __ZN9__gnu_cxx17__normal_iteratorIPKxSt6vectorIxSaIxEEEC1ERKS2_, symObjAddr: 0x2D18, symBinAddr: 0x10000714C, symSize: 0x28 }
  - { offsetInCU: 0xF9B4, offset: 0xF9B4, size: 0x8, addend: 0x0, symName: __ZNSt10_HashtableIxSt4pairIKxiESaIS2_ENSt8__detail10_Select1stESt8equal_toIxESt4hashIxENS4_18_Mod_range_hashingENS4_20_Default_ranged_hashENS4_20_Prime_rehash_policyENS4_17_Hashtable_traitsILb0ELb0ELb1EEEE22_M_insert_bucket_beginEmPNS4_10_Hash_nodeIS2_Lb0EEE, symObjAddr: 0x2BE4, symBinAddr: 0x100007018, symSize: 0x10C }
  - { offsetInCU: 0xF9BC, offset: 0xF9BC, size: 0x8, addend: 0x0, symName: __ZNSt8__detail14_Node_iteratorISt4pairIKxiELb0ELb0EEC1EPNS_10_Hash_nodeIS3_Lb0EEE, symObjAddr: 0x2CF0, symBinAddr: 0x100007124, symSize: 0x28 }
  - { offsetInCU: 0xFA0B, offset: 0xFA0B, size: 0x8, addend: 0x0, symName: __ZNKSt8__detail15_Hash_code_baseIxSt4pairIKxiENS_10_Select1stESt4hashIxENS_18_Mod_range_hashingENS_20_Default_ranged_hashELb0EE13_M_store_codeERNS_21_Hash_node_code_cacheILb0EEEm, symObjAddr: 0x2BC8, symBinAddr: 0x100006FFC, symSize: 0x1C }
  - { offsetInCU: 0xFA13, offset: 0xFA13, size: 0x8, addend: 0x0, symName: __ZNSt10_HashtableIxSt4pairIKxiESaIS2_ENSt8__detail10_Select1stESt8equal_toIxESt4hashIxENS4_18_Mod_range_hashingENS4_20_Default_ranged_hashENS4_20_Prime_rehash_policyENS4_17_Hashtable_traitsILb0ELb0ELb1EEEE22_M_insert_bucket_beginEmPNS4_10_Hash_nodeIS2_Lb0EEE, symObjAddr: 0x2BE4, symBinAddr: 0x100007018, symSize: 0x10C }
  - { offsetInCU: 0xFA52, offset: 0xFA52, size: 0x8, addend: 0x0, symName: __ZNSt10_HashtableIxSt4pairIKxiESaIS2_ENSt8__detail10_Select1stESt8equal_toIxESt4hashIxENS4_18_Mod_range_hashingENS4_20_Default_ranged_hashENS4_20_Prime_rehash_policyENS4_17_Hashtable_traitsILb0ELb0ELb1EEEE9_M_rehashEmRKm, symObjAddr: 0x2B5C, symBinAddr: 0x100006F90, symSize: 0x6C }
  - { offsetInCU: 0xFA5A, offset: 0xFA5A, size: 0x8, addend: 0x0, symName: __ZNKSt8__detail15_Hash_code_baseIxSt4pairIKxiENS_10_Select1stESt4hashIxENS_18_Mod_range_hashingENS_20_Default_ranged_hashELb0EE13_M_store_codeERNS_21_Hash_node_code_cacheILb0EEEm, symObjAddr: 0x2BC8, symBinAddr: 0x100006FFC, symSize: 0x1C }
  - { offsetInCU: 0xFAA9, offset: 0xFAA9, size: 0x8, addend: 0x0, symName: __ZNSt8__detail16_Hashtable_allocISaINS_10_Hash_nodeISt4pairIKxiELb0EEEEE16_M_allocate_nodeIJRKSt21piecewise_construct_tSt5tupleIJRS3_EESC_IJEEEEEPS5_DpOT_, symObjAddr: 0x2978, symBinAddr: 0x100006DAC, symSize: 0x1E4 }
  - { offsetInCU: 0xFAB1, offset: 0xFAB1, size: 0x8, addend: 0x0, symName: __ZNSt10_HashtableIxSt4pairIKxiESaIS2_ENSt8__detail10_Select1stESt8equal_toIxESt4hashIxENS4_18_Mod_range_hashingENS4_20_Default_ranged_hashENS4_20_Prime_rehash_policyENS4_17_Hashtable_traitsILb0ELb0ELb1EEEE9_M_rehashEmRKm, symObjAddr: 0x2B5C, symBinAddr: 0x100006F90, symSize: 0x6C }
  - { offsetInCU: 0xFCC2, offset: 0xFCC2, size: 0x8, addend: 0x0, symName: __ZNSt8__detail10_Hash_nodeISt4pairIKxiELb0EEC1Ev, symObjAddr: 0x2958, symBinAddr: 0x100006D8C, symSize: 0x20 }
  - { offsetInCU: 0xFCCA, offset: 0xFCCA, size: 0x8, addend: 0x0, symName: __ZNSt8__detail16_Hashtable_allocISaINS_10_Hash_nodeISt4pairIKxiELb0EEEEE16_M_allocate_nodeIJRKSt21piecewise_construct_tSt5tupleIJRS3_EESC_IJEEEEEPS5_DpOT_, symObjAddr: 0x2978, symBinAddr: 0x100006DAC, symSize: 0x1E4 }
  - { offsetInCU: 0xFD19, offset: 0xFD19, size: 0x8, addend: 0x0, symName: __ZSt7forwardISt5tupleIJEEEOT_RNSt16remove_referenceIS2_E4typeE, symObjAddr: 0x2944, symBinAddr: 0x100006D78, symSize: 0x14 }
  - { offsetInCU: 0xFD21, offset: 0xFD21, size: 0x8, addend: 0x0, symName: __ZNSt8__detail10_Hash_nodeISt4pairIKxiELb0EEC1Ev, symObjAddr: 0x2958, symBinAddr: 0x100006D8C, symSize: 0x20 }
  - { offsetInCU: 0xFD84, offset: 0xFD84, size: 0x8, addend: 0x0, symName: __ZSt7forwardISt5tupleIJRKxEEEOT_RNSt16remove_referenceIS4_E4typeE, symObjAddr: 0x2930, symBinAddr: 0x100006D64, symSize: 0x14 }
  - { offsetInCU: 0xFD8C, offset: 0xFD8C, size: 0x8, addend: 0x0, symName: __ZSt7forwardISt5tupleIJEEEOT_RNSt16remove_referenceIS2_E4typeE, symObjAddr: 0x2944, symBinAddr: 0x100006D78, symSize: 0x14 }
  - { offsetInCU: 0xFDE4, offset: 0xFDE4, size: 0x8, addend: 0x0, symName: __ZSt7forwardIRKSt21piecewise_construct_tEOT_RNSt16remove_referenceIS3_E4typeE, symObjAddr: 0x291C, symBinAddr: 0x100006D50, symSize: 0x14 }
  - { offsetInCU: 0xFDEC, offset: 0xFDEC, size: 0x8, addend: 0x0, symName: __ZSt7forwardISt5tupleIJRKxEEEOT_RNSt16remove_referenceIS4_E4typeE, symObjAddr: 0x2930, symBinAddr: 0x100006D64, symSize: 0x14 }
  - { offsetInCU: 0xFE09, offset: 0xFE09, size: 0x8, addend: 0x0, symName: __ZNSt11_Tuple_implILm0EJRKxEEC2ES1_, symObjAddr: 0x28F4, symBinAddr: 0x100006D28, symSize: 0x28 }
  - { offsetInCU: 0xFE11, offset: 0xFE11, size: 0x8, addend: 0x0, symName: __ZSt7forwardIRKSt21piecewise_construct_tEOT_RNSt16remove_referenceIS3_E4typeE, symObjAddr: 0x291C, symBinAddr: 0x100006D50, symSize: 0x14 }
  - { offsetInCU: 0xFE1F, offset: 0xFE1F, size: 0x8, addend: 0x0, symName: __ZNSt8__detail21_Hash_node_value_baseISt4pairIKxiEE9_M_valptrEv, symObjAddr: 0x28D8, symBinAddr: 0x100006D0C, symSize: 0x1C }
  - { offsetInCU: 0xFE27, offset: 0xFE27, size: 0x8, addend: 0x0, symName: __ZNSt11_Tuple_implILm0EJRKxEEC2ES1_, symObjAddr: 0x28F4, symBinAddr: 0x100006D28, symSize: 0x28 }
  - { offsetInCU: 0xFE4E, offset: 0xFE4E, size: 0x8, addend: 0x0, symName: __ZNKSt10_HashtableIxSt4pairIKxiESaIS2_ENSt8__detail10_Select1stESt8equal_toIxESt4hashIxENS4_18_Mod_range_hashingENS4_20_Default_ranged_hashENS4_20_Prime_rehash_policyENS4_17_Hashtable_traitsILb0ELb0ELb1EEEE19_M_find_before_nodeEmRS1_m, symObjAddr: 0x27D8, symBinAddr: 0x100006C0C, symSize: 0x100 }
  - { offsetInCU: 0xFE56, offset: 0xFE56, size: 0x8, addend: 0x0, symName: __ZNSt8__detail21_Hash_node_value_baseISt4pairIKxiEE9_M_valptrEv, symObjAddr: 0x28D8, symBinAddr: 0x100006D0C, symSize: 0x1C }
  - { offsetInCU: 0xFEF3, offset: 0xFEF3, size: 0x8, addend: 0x0, symName: __ZNKSt8__detail15_Hash_code_baseIxSt4pairIKxiENS_10_Select1stESt4hashIxENS_18_Mod_range_hashingENS_20_Default_ranged_hashELb0EE15_M_bucket_indexEmm, symObjAddr: 0x27AC, symBinAddr: 0x100006BE0, symSize: 0x2C }
  - { offsetInCU: 0xFEFB, offset: 0xFEFB, size: 0x8, addend: 0x0, symName: __ZNKSt10_HashtableIxSt4pairIKxiESaIS2_ENSt8__detail10_Select1stESt8equal_toIxESt4hashIxENS4_18_Mod_range_hashingENS4_20_Default_ranged_hashENS4_20_Prime_rehash_policyENS4_17_Hashtable_traitsILb0ELb0ELb1EEEE19_M_find_before_nodeEmRS1_m, symObjAddr: 0x27D8, symBinAddr: 0x100006C0C, symSize: 0x100 }
  - { offsetInCU: 0xFF4A, offset: 0xFF4A, size: 0x8, addend: 0x0, symName: __ZNKSt8__detail15_Hash_code_baseIxSt4pairIKxiENS_10_Select1stESt4hashIxENS_18_Mod_range_hashingENS_20_Default_ranged_hashELb0EE7_M_hashEv, symObjAddr: 0x2790, symBinAddr: 0x100006BC4, symSize: 0x1C }
  - { offsetInCU: 0xFF52, offset: 0xFF52, size: 0x8, addend: 0x0, symName: __ZNKSt8__detail15_Hash_code_baseIxSt4pairIKxiENS_10_Select1stESt4hashIxENS_18_Mod_range_hashingENS_20_Default_ranged_hashELb0EE15_M_bucket_indexEmm, symObjAddr: 0x27AC, symBinAddr: 0x100006BE0, symSize: 0x2C }
  - { offsetInCU: 0xFF79, offset: 0xFF79, size: 0x8, addend: 0x0, symName: __ZN9__gnu_cxx5__ops14_Iter_comp_valISt7greaterIxEEclINS_17__normal_iteratorIPxSt6vectorIxSaIxEEEExEEbT_RT0_, symObjAddr: 0x274C, symBinAddr: 0x100006B80, symSize: 0x44 }
  - { offsetInCU: 0xFF81, offset: 0xFF81, size: 0x8, addend: 0x0, symName: __ZNKSt8__detail15_Hash_code_baseIxSt4pairIKxiENS_10_Select1stESt4hashIxENS_18_Mod_range_hashingENS_20_Default_ranged_hashELb0EE7_M_hashEv, symObjAddr: 0x2790, symBinAddr: 0x100006BC4, symSize: 0x1C }
  - { offsetInCU: 0xFFE8, offset: 0xFFE8, size: 0x8, addend: 0x0, symName: __ZNK9__gnu_cxx17__normal_iteratorIPxSt6vectorIxSaIxEEEplEl, symObjAddr: 0x270C, symBinAddr: 0x100006B40, symSize: 0x40 }
  - { offsetInCU: 0xFFF0, offset: 0xFFF0, size: 0x8, addend: 0x0, symName: __ZN9__gnu_cxx5__ops14_Iter_comp_valISt7greaterIxEEclINS_17__normal_iteratorIPxSt6vectorIxSaIxEEEExEEbT_RT0_, symObjAddr: 0x274C, symBinAddr: 0x100006B80, symSize: 0x44 }
  - { offsetInCU: 0x1002B, offset: 0x1002B, size: 0x8, addend: 0x0, symName: __ZNK9__gnu_cxx17__normal_iteratorIPxSt6vectorIxSaIxEEE4baseEv, symObjAddr: 0x26F8, symBinAddr: 0x100006B2C, symSize: 0x14 }
  - { offsetInCU: 0x10033, offset: 0x10033, size: 0x8, addend: 0x0, symName: __ZNK9__gnu_cxx17__normal_iteratorIPxSt6vectorIxSaIxEEEplEl, symObjAddr: 0x270C, symBinAddr: 0x100006B40, symSize: 0x40 }
  - { offsetInCU: 0x10105, offset: 0x10105, size: 0x8, addend: 0x0, symName: __ZSt7forwardIRKxEOT_RNSt16remove_referenceIS2_E4typeE, symObjAddr: 0x26E4, symBinAddr: 0x100006B18, symSize: 0x14 }
  - { offsetInCU: 0x1010D, offset: 0x1010D, size: 0x8, addend: 0x0, symName: __ZNK9__gnu_cxx17__normal_iteratorIPxSt6vectorIxSaIxEEE4baseEv, symObjAddr: 0x26F8, symBinAddr: 0x100006B2C, symSize: 0x14 }
  - { offsetInCU: 0x10181, offset: 0x10181, size: 0x8, addend: 0x0, symName: __ZSt12__relocate_aIPxS0_SaIxEET0_T_S3_S2_RT1_, symObjAddr: 0x2688, symBinAddr: 0x100006ABC, symSize: 0x5C }
  - { offsetInCU: 0x10189, offset: 0x10189, size: 0x8, addend: 0x0, symName: __ZSt7forwardIRKxEOT_RNSt16remove_referenceIS2_E4typeE, symObjAddr: 0x26E4, symBinAddr: 0x100006B18, symSize: 0x14 }
  - { offsetInCU: 0x1023F, offset: 0x1023F, size: 0x8, addend: 0x0, symName: __ZSt25__uninitialized_default_nIPxmET_S1_T0_, symObjAddr: 0x265C, symBinAddr: 0x100006A90, symSize: 0x2C }
  - { offsetInCU: 0x10247, offset: 0x10247, size: 0x8, addend: 0x0, symName: __ZSt12__relocate_aIPxS0_SaIxEET0_T_S3_S2_RT1_, symObjAddr: 0x2688, symBinAddr: 0x100006ABC, symSize: 0x5C }
  - { offsetInCU: 0x10251, offset: 0x10251, size: 0x8, addend: 0x0, symName: __ZNKSt12_Vector_baseIxSaIxEE19_M_get_Tp_allocatorEv, symObjAddr: 0x2648, symBinAddr: 0x100006A7C, symSize: 0x14 }
  - { offsetInCU: 0x10259, offset: 0x10259, size: 0x8, addend: 0x0, symName: __ZSt25__uninitialized_default_nIPxmET_S1_T0_, symObjAddr: 0x265C, symBinAddr: 0x100006A90, symSize: 0x2C }
  - { offsetInCU: 0x10280, offset: 0x10280, size: 0x8, addend: 0x0, symName: __ZNSt6vectorIxSaIxEE11_S_max_sizeERKS0_, symObjAddr: 0x25F4, symBinAddr: 0x100006A28, symSize: 0x54 }
  - { offsetInCU: 0x10288, offset: 0x10288, size: 0x8, addend: 0x0, symName: __ZNKSt12_Vector_baseIxSaIxEE19_M_get_Tp_allocatorEv, symObjAddr: 0x2648, symBinAddr: 0x100006A7C, symSize: 0x14 }
  - { offsetInCU: 0x10373, offset: 0x10373, size: 0x8, addend: 0x0, symName: __ZSt8_DestroyIPiEvT_S1_, symObjAddr: 0x25CC, symBinAddr: 0x100006A00, symSize: 0x28 }
  - { offsetInCU: 0x1037B, offset: 0x1037B, size: 0x8, addend: 0x0, symName: __ZNSt6vectorIxSaIxEE11_S_max_sizeERKS0_, symObjAddr: 0x25F4, symBinAddr: 0x100006A28, symSize: 0x54 }
  - { offsetInCU: 0x10403, offset: 0x10403, size: 0x8, addend: 0x0, symName: __ZSt12__relocate_aIPiS0_SaIiEET0_T_S3_S2_RT1_, symObjAddr: 0x2570, symBinAddr: 0x1000069A4, symSize: 0x5C }
  - { offsetInCU: 0x1040B, offset: 0x1040B, size: 0x8, addend: 0x0, symName: __ZSt8_DestroyIPiEvT_S1_, symObjAddr: 0x25CC, symBinAddr: 0x100006A00, symSize: 0x28 }
  - { offsetInCU: 0x104D5, offset: 0x104D5, size: 0x8, addend: 0x0, symName: __ZSt25__uninitialized_default_nIPimET_S1_T0_, symObjAddr: 0x2544, symBinAddr: 0x100006978, symSize: 0x2C }
  - { offsetInCU: 0x104DD, offset: 0x104DD, size: 0x8, addend: 0x0, symName: __ZSt12__relocate_aIPiS0_SaIiEET0_T_S3_S2_RT1_, symObjAddr: 0x2570, symBinAddr: 0x1000069A4, symSize: 0x5C }
  - { offsetInCU: 0x104F1, offset: 0x104F1, size: 0x8, addend: 0x0, symName: __ZNKSt12_Vector_baseIiSaIiEE19_M_get_Tp_allocatorEv, symObjAddr: 0x2530, symBinAddr: 0x100006964, symSize: 0x14 }
  - { offsetInCU: 0x104F9, offset: 0x104F9, size: 0x8, addend: 0x0, symName: __ZSt25__uninitialized_default_nIPimET_S1_T0_, symObjAddr: 0x2544, symBinAddr: 0x100006978, symSize: 0x2C }
  - { offsetInCU: 0x10520, offset: 0x10520, size: 0x8, addend: 0x0, symName: __ZNSt6vectorIiSaIiEE11_S_max_sizeERKS0_, symObjAddr: 0x24DC, symBinAddr: 0x100006910, symSize: 0x54 }
  - { offsetInCU: 0x10528, offset: 0x10528, size: 0x8, addend: 0x0, symName: __ZNKSt12_Vector_baseIiSaIiEE19_M_get_Tp_allocatorEv, symObjAddr: 0x2530, symBinAddr: 0x100006964, symSize: 0x14 }
  - { offsetInCU: 0x105EC, offset: 0x105EC, size: 0x8, addend: 0x0, symName: __ZNSt8__detail16_Hashtable_allocISaINS_10_Hash_nodeISt4pairIKxiELb0EEEEE21_M_deallocate_bucketsEPPNS_15_Hash_node_baseEm, symObjAddr: 0x2464, symBinAddr: 0x100006898, symSize: 0x78 }
  - { offsetInCU: 0x105F4, offset: 0x105F4, size: 0x8, addend: 0x0, symName: __ZNSt6vectorIiSaIiEE11_S_max_sizeERKS0_, symObjAddr: 0x24DC, symBinAddr: 0x100006910, symSize: 0x54 }
  - { offsetInCU: 0x1071F, offset: 0x1071F, size: 0x8, addend: 0x0, symName: __ZNKSt10_HashtableIxSt4pairIKxiESaIS2_ENSt8__detail10_Select1stESt8equal_toIxESt4hashIxENS4_18_Mod_range_hashingENS4_20_Default_ranged_hashENS4_20_Prime_rehash_policyENS4_17_Hashtable_traitsILb0ELb0ELb1EEEE21_M_uses_single_bucketEPPNS4_15_Hash_node_baseE, symObjAddr: 0x2428, symBinAddr: 0x10000685C, symSize: 0x3C }
  - { offsetInCU: 0x10727, offset: 0x10727, size: 0x8, addend: 0x0, symName: __ZNSt8__detail16_Hashtable_allocISaINS_10_Hash_nodeISt4pairIKxiELb0EEEEE21_M_deallocate_bucketsEPPNS_15_Hash_node_baseEm, symObjAddr: 0x2464, symBinAddr: 0x100006898, symSize: 0x78 }
  - { offsetInCU: 0x10762, offset: 0x10762, size: 0x8, addend: 0x0, symName: __ZNSt8__detail16_Hashtable_allocISaINS_10_Hash_nodeISt4pairIKxiELb0EEEEE18_M_deallocate_nodeEPS5_, symObjAddr: 0x23C0, symBinAddr: 0x1000067F4, symSize: 0x68 }
  - { offsetInCU: 0x1076A, offset: 0x1076A, size: 0x8, addend: 0x0, symName: __ZNKSt10_HashtableIxSt4pairIKxiESaIS2_ENSt8__detail10_Select1stESt8equal_toIxESt4hashIxENS4_18_Mod_range_hashingENS4_20_Default_ranged_hashENS4_20_Prime_rehash_policyENS4_17_Hashtable_traitsILb0ELb0ELb1EEEE21_M_uses_single_bucketEPPNS4_15_Hash_node_baseE, symObjAddr: 0x2428, symBinAddr: 0x10000685C, symSize: 0x3C }
  - { offsetInCU: 0x10809, offset: 0x10809, size: 0x8, addend: 0x0, symName: __ZNKSt8__detail10_Hash_nodeISt4pairIKxiELb0EE7_M_nextEv, symObjAddr: 0x23A8, symBinAddr: 0x1000067DC, symSize: 0x18 }
  - { offsetInCU: 0x10811, offset: 0x10811, size: 0x8, addend: 0x0, symName: __ZNSt8__detail16_Hashtable_allocISaINS_10_Hash_nodeISt4pairIKxiELb0EEEEE18_M_deallocate_nodeEPS5_, symObjAddr: 0x23C0, symBinAddr: 0x1000067F4, symSize: 0x68 }
  - { offsetInCU: 0x10869, offset: 0x10869, size: 0x8, addend: 0x0, symName: __ZSt8_DestroyIPxEvT_S1_, symObjAddr: 0x2380, symBinAddr: 0x1000067B4, symSize: 0x28 }
  - { offsetInCU: 0x10871, offset: 0x10871, size: 0x8, addend: 0x0, symName: __ZNKSt8__detail10_Hash_nodeISt4pairIKxiELb0EE7_M_nextEv, symObjAddr: 0x23A8, symBinAddr: 0x1000067DC, symSize: 0x18 }
  - { offsetInCU: 0x1088D, offset: 0x1088D, size: 0x8, addend: 0x0, symName: __ZNSt15__new_allocatorIxE10deallocateEPxm, symObjAddr: 0x2350, symBinAddr: 0x100006784, symSize: 0x30 }
  - { offsetInCU: 0x10895, offset: 0x10895, size: 0x8, addend: 0x0, symName: __ZSt8_DestroyIPxEvT_S1_, symObjAddr: 0x2380, symBinAddr: 0x1000067B4, symSize: 0x28 }
  - { offsetInCU: 0x108E2, offset: 0x108E2, size: 0x8, addend: 0x0, symName: __ZNSt15__new_allocatorIiE10deallocateEPim, symObjAddr: 0x2320, symBinAddr: 0x100006754, symSize: 0x30 }
  - { offsetInCU: 0x108EA, offset: 0x108EA, size: 0x8, addend: 0x0, symName: __ZNSt15__new_allocatorIxE10deallocateEPxm, symObjAddr: 0x2350, symBinAddr: 0x100006784, symSize: 0x30 }
  - { offsetInCU: 0x10A88, offset: 0x10A88, size: 0x8, addend: 0x0, symName: __ZSt10__pop_heapIN9__gnu_cxx17__normal_iteratorIPxSt6vectorIxSaIxEEEENS0_5__ops15_Iter_comp_iterISt7greaterIxEEEEvT_SC_SC_RT0_, symObjAddr: 0x228C, symBinAddr: 0x1000066C0, symSize: 0x94 }
  - { offsetInCU: 0x10A90, offset: 0x10A90, size: 0x8, addend: 0x0, symName: __ZNSt15__new_allocatorIiE10deallocateEPim, symObjAddr: 0x2320, symBinAddr: 0x100006754, symSize: 0x30 }
  - { offsetInCU: 0x10A2F, offset: 0x10A2F, size: 0x8, addend: 0x0, symName: __ZN9__gnu_cxx17__normal_iteratorIPxSt6vectorIxSaIxEEEmmEv, symObjAddr: 0x2264, symBinAddr: 0x100006698, symSize: 0x28 }
  - { offsetInCU: 0x10A37, offset: 0x10A37, size: 0x8, addend: 0x0, symName: __ZSt10__pop_heapIN9__gnu_cxx17__normal_iteratorIPxSt6vectorIxSaIxEEEENS0_5__ops15_Iter_comp_iterISt7greaterIxEEEEvT_SC_SC_RT0_, symObjAddr: 0x228C, symBinAddr: 0x1000066C0, symSize: 0x94 }
  - { offsetInCU: 0x10A5E, offset: 0x10A5E, size: 0x8, addend: 0x0, symName: __ZNK9__gnu_cxx17__normal_iteratorIPKxSt6vectorIxSaIxEEEdeEv, symObjAddr: 0x224C, symBinAddr: 0x100006680, symSize: 0x18 }
  - { offsetInCU: 0x10A66, offset: 0x10A66, size: 0x8, addend: 0x0, symName: __ZN9__gnu_cxx17__normal_iteratorIPxSt6vectorIxSaIxEEEmmEv, symObjAddr: 0x2264, symBinAddr: 0x100006698, symSize: 0x28 }
  - { offsetInCU: 0x10B1B, offset: 0x10B1B, size: 0x8, addend: 0x0, symName: __ZN9__gnu_cxxeqIPKxSt6vectorIxSaIxEEEEbRKNS_17__normal_iteratorIT_T0_EESB_, symObjAddr: 0x2208, symBinAddr: 0x10000663C, symSize: 0x44 }
  - { offsetInCU: 0x10B23, offset: 0x10B23, size: 0x8, addend: 0x0, symName: __ZNK9__gnu_cxx17__normal_iteratorIPKxSt6vectorIxSaIxEEEdeEv, symObjAddr: 0x224C, symBinAddr: 0x100006680, symSize: 0x18 }
  - { offsetInCU: 0x10B04, offset: 0x10B04, size: 0x8, addend: 0x0, symName: __ZNKSt6vectorIxSaIxEE3endEv, symObjAddr: 0x21E0, symBinAddr: 0x100006614, symSize: 0x28 }
  - { offsetInCU: 0x10B0C, offset: 0x10B0C, size: 0x8, addend: 0x0, symName: __ZN9__gnu_cxxeqIPKxSt6vectorIxSaIxEEEEbRKNS_17__normal_iteratorIT_T0_EESB_, symObjAddr: 0x2208, symBinAddr: 0x10000663C, symSize: 0x44 }
  - { offsetInCU: 0x10B33, offset: 0x10B33, size: 0x8, addend: 0x0, symName: __ZNKSt6vectorIxSaIxEE5beginEv, symObjAddr: 0x21BC, symBinAddr: 0x1000065F0, symSize: 0x24 }
  - { offsetInCU: 0x10B3B, offset: 0x10B3B, size: 0x8, addend: 0x0, symName: __ZNKSt6vectorIxSaIxEE3endEv, symObjAddr: 0x21E0, symBinAddr: 0x100006614, symSize: 0x28 }
  - { offsetInCU: 0x10B62, offset: 0x10B62, size: 0x8, addend: 0x0, symName: __ZNKSt8__detail14_Node_iteratorISt4pairIKxiELb0ELb0EEptEv, symObjAddr: 0x2198, symBinAddr: 0x1000065CC, symSize: 0x24 }
  - { offsetInCU: 0x10B6A, offset: 0x10B6A, size: 0x8, addend: 0x0, symName: __ZNKSt6vectorIxSaIxEE5beginEv, symObjAddr: 0x21BC, symBinAddr: 0x1000065F0, symSize: 0x24 }
  - { offsetInCU: 0x10B91, offset: 0x10B91, size: 0x8, addend: 0x0, symName: __ZNSt10_HashtableIxSt4pairIKxiESaIS2_ENSt8__detail10_Select1stESt8equal_toIxESt4hashIxENS4_18_Mod_range_hashingENS4_20_Default_ranged_hashENS4_20_Prime_rehash_policyENS4_17_Hashtable_traitsILb0ELb0ELb1EEEE21_M_insert_unique_nodeEmmPNS4_10_Hash_nodeIS2_Lb0EEEm, symObjAddr: 0x20B0, symBinAddr: 0x1000064E4, symSize: 0xE8 }
  - { offsetInCU: 0x10B99, offset: 0x10B99, size: 0x8, addend: 0x0, symName: __ZNKSt8__detail14_Node_iteratorISt4pairIKxiELb0ELb0EEptEv, symObjAddr: 0x2198, symBinAddr: 0x1000065CC, symSize: 0x24 }
  - { offsetInCU: 0x10D42, offset: 0x10D42, size: 0x8, addend: 0x0, symName: __ZNSt10_HashtableIxSt4pairIKxiESaIS2_ENSt8__detail10_Select1stESt8equal_toIxESt4hashIxENS4_18_Mod_range_hashingENS4_20_Default_ranged_hashENS4_20_Prime_rehash_policyENS4_17_Hashtable_traitsILb0ELb0ELb1EEEE12_Scoped_nodeD1Ev, symObjAddr: 0x206C, symBinAddr: 0x1000064A0, symSize: 0x44 }
  - { offsetInCU: 0x10D4A, offset: 0x10D4A, size: 0x8, addend: 0x0, symName: __ZNSt10_HashtableIxSt4pairIKxiESaIS2_ENSt8__detail10_Select1stESt8equal_toIxESt4hashIxENS4_18_Mod_range_hashingENS4_20_Default_ranged_hashENS4_20_Prime_rehash_policyENS4_17_Hashtable_traitsILb0ELb0ELb1EEEE21_M_insert_unique_nodeEmmPNS4_10_Hash_nodeIS2_Lb0EEEm, symObjAddr: 0x20B0, symBinAddr: 0x1000064E4, symSize: 0xE8 }
  - { offsetInCU: 0x10E4E, offset: 0x10E4E, size: 0x8, addend: 0x0, symName: __ZNSt10_HashtableIxSt4pairIKxiESaIS2_ENSt8__detail10_Select1stESt8equal_toIxESt4hashIxENS4_18_Mod_range_hashingENS4_20_Default_ranged_hashENS4_20_Prime_rehash_policyENS4_17_Hashtable_traitsILb0ELb0ELb1EEEE12_Scoped_nodeC1IJRKSt21piecewise_construct_tSt5tupleIJRS1_EESL_IJEEEEEPNS4_16_Hashtable_allocISaINS4_10_Hash_nodeIS2_Lb0EEEEEEDpOT_, symObjAddr: 0x1FE4, symBinAddr: 0x100006418, symSize: 0x88 }
  - { offsetInCU: 0x10E56, offset: 0x10E56, size: 0x8, addend: 0x0, symName: __ZNSt10_HashtableIxSt4pairIKxiESaIS2_ENSt8__detail10_Select1stESt8equal_toIxESt4hashIxENS4_18_Mod_range_hashingENS4_20_Default_ranged_hashENS4_20_Prime_rehash_policyENS4_17_Hashtable_traitsILb0ELb0ELb1EEEE12_Scoped_nodeD1Ev, symObjAddr: 0x206C, symBinAddr: 0x1000064A0, symSize: 0x44 }
  - { offsetInCU: 0x10DDD, offset: 0x10DDD, size: 0x8, addend: 0x0, symName: __ZNSt5tupleIJRKxEEC1ILb1ELb1EEES1_, symObjAddr: 0x1FBC, symBinAddr: 0x1000063F0, symSize: 0x28 }
  - { offsetInCU: 0x10DE5, offset: 0x10DE5, size: 0x8, addend: 0x0, symName: __ZNSt10_HashtableIxSt4pairIKxiESaIS2_ENSt8__detail10_Select1stESt8equal_toIxESt4hashIxENS4_18_Mod_range_hashingENS4_20_Default_ranged_hashENS4_20_Prime_rehash_policyENS4_17_Hashtable_traitsILb0ELb0ELb1EEEE12_Scoped_nodeC1IJRKSt21piecewise_construct_tSt5tupleIJRS1_EESL_IJEEEEEPNS4_16_Hashtable_allocISaINS4_10_Hash_nodeIS2_Lb0EEEEEEDpOT_, symObjAddr: 0x1FE4, symBinAddr: 0x100006418, symSize: 0x88 }
  - { offsetInCU: 0x10E03, offset: 0x10E03, size: 0x8, addend: 0x0, symName: __ZNSt8__detail21_Hash_node_value_baseISt4pairIKxiEE4_M_vEv, symObjAddr: 0x1FA0, symBinAddr: 0x1000063D4, symSize: 0x1C }
  - { offsetInCU: 0x10E0B, offset: 0x10E0B, size: 0x8, addend: 0x0, symName: __ZNSt5tupleIJRKxEEC1ILb1ELb1EEES1_, symObjAddr: 0x1FBC, symBinAddr: 0x1000063F0, symSize: 0x28 }
  - { offsetInCU: 0x10E32, offset: 0x10E32, size: 0x8, addend: 0x0, symName: __ZNKSt10_HashtableIxSt4pairIKxiESaIS2_ENSt8__detail10_Select1stESt8equal_toIxESt4hashIxENS4_18_Mod_range_hashingENS4_20_Default_ranged_hashENS4_20_Prime_rehash_policyENS4_17_Hashtable_traitsILb0ELb0ELb1EEEE12_M_find_nodeEmRS1_m, symObjAddr: 0x1F4C, symBinAddr: 0x100006380, symSize: 0x54 }
  - { offsetInCU: 0x10E3A, offset: 0x10E3A, size: 0x8, addend: 0x0, symName: __ZNSt8__detail21_Hash_node_value_baseISt4pairIKxiEE4_M_vEv, symObjAddr: 0x1FA0, symBinAddr: 0x1000063D4, symSize: 0x1C }
  - { offsetInCU: 0x10EB1, offset: 0x10EB1, size: 0x8, addend: 0x0, symName: __ZNKSt10_HashtableIxSt4pairIKxiESaIS2_ENSt8__detail10_Select1stESt8equal_toIxESt4hashIxENS4_18_Mod_range_hashingENS4_20_Default_ranged_hashENS4_20_Prime_rehash_policyENS4_17_Hashtable_traitsILb0ELb0ELb1EEEE15_M_bucket_indexEm, symObjAddr: 0x1F1C, symBinAddr: 0x100006350, symSize: 0x30 }
  - { offsetInCU: 0x10EB9, offset: 0x10EB9, size: 0x8, addend: 0x0, symName: __ZNKSt10_HashtableIxSt4pairIKxiESaIS2_ENSt8__detail10_Select1stESt8equal_toIxESt4hashIxENS4_18_Mod_range_hashingENS4_20_Default_ranged_hashENS4_20_Prime_rehash_policyENS4_17_Hashtable_traitsILb0ELb0ELb1EEEE12_M_find_nodeEmRS1_m, symObjAddr: 0x1F4C, symBinAddr: 0x100006380, symSize: 0x54 }
  - { offsetInCU: 0x10EF4, offset: 0x10EF4, size: 0x8, addend: 0x0, symName: __ZNKSt8__detail15_Hash_code_baseIxSt4pairIKxiENS_10_Select1stESt4hashIxENS_18_Mod_range_hashingENS_20_Default_ranged_hashELb0EE12_M_hash_codeERS2_, symObjAddr: 0x1EE4, symBinAddr: 0x100006318, symSize: 0x38 }
  - { offsetInCU: 0x10EFC, offset: 0x10EFC, size: 0x8, addend: 0x0, symName: __ZNKSt10_HashtableIxSt4pairIKxiESaIS2_ENSt8__detail10_Select1stESt8equal_toIxESt4hashIxENS4_18_Mod_range_hashingENS4_20_Default_ranged_hashENS4_20_Prime_rehash_policyENS4_17_Hashtable_traitsILb0ELb0ELb1EEEE15_M_bucket_indexEm, symObjAddr: 0x1F1C, symBinAddr: 0x100006350, symSize: 0x30 }
  - { offsetInCU: 0x1106C, offset: 0x1106C, size: 0x8, addend: 0x0, symName: __ZSt11__push_heapIN9__gnu_cxx17__normal_iteratorIPxSt6vectorIxSaIxEEEElxNS0_5__ops14_Iter_comp_valISt7greaterIxEEEEvT_T0_SD_T1_RT2_, symObjAddr: 0x1DBC, symBinAddr: 0x1000061F0, symSize: 0x128 }
  - { offsetInCU: 0x11074, offset: 0x11074, size: 0x8, addend: 0x0, symName: __ZNKSt8__detail15_Hash_code_baseIxSt4pairIKxiENS_10_Select1stESt4hashIxENS_18_Mod_range_hashingENS_20_Default_ranged_hashELb0EE12_M_hash_codeERS2_, symObjAddr: 0x1EE4, symBinAddr: 0x100006318, symSize: 0x38 }
  - { offsetInCU: 0x110A3, offset: 0x110A3, size: 0x8, addend: 0x0, symName: __ZN9__gnu_cxxmiIPxSt6vectorIxSaIxEEEENS_17__normal_iteratorIT_T0_E15difference_typeERKS8_SB_, symObjAddr: 0x1D7C, symBinAddr: 0x1000061B0, symSize: 0x40 }
  - { offsetInCU: 0x110AB, offset: 0x110AB, size: 0x8, addend: 0x0, symName: __ZSt11__push_heapIN9__gnu_cxx17__normal_iteratorIPxSt6vectorIxSaIxEEEElxNS0_5__ops14_Iter_comp_valISt7greaterIxEEEEvT_T0_SD_T1_RT2_, symObjAddr: 0x1DBC, symBinAddr: 0x1000061F0, symSize: 0x128 }
  - { offsetInCU: 0x110CC, offset: 0x110CC, size: 0x8, addend: 0x0, symName: __ZSt4moveIRxEONSt16remove_referenceIT_E4typeEOS2_, symObjAddr: 0x1D68, symBinAddr: 0x10000619C, symSize: 0x14 }
  - { offsetInCU: 0x110D4, offset: 0x110D4, size: 0x8, addend: 0x0, symName: __ZN9__gnu_cxxmiIPxSt6vectorIxSaIxEEEENS_17__normal_iteratorIT_T0_E15difference_typeERKS8_SB_, symObjAddr: 0x1D7C, symBinAddr: 0x1000061B0, symSize: 0x40 }
  - { offsetInCU: 0x110D5, offset: 0x110D5, size: 0x8, addend: 0x0, symName: __ZNK9__gnu_cxx17__normal_iteratorIPxSt6vectorIxSaIxEEEdeEv, symObjAddr: 0x1D50, symBinAddr: 0x100006184, symSize: 0x18 }
  - { offsetInCU: 0x110DD, offset: 0x110DD, size: 0x8, addend: 0x0, symName: __ZSt4moveIRxEONSt16remove_referenceIT_E4typeEOS2_, symObjAddr: 0x1D68, symBinAddr: 0x10000619C, symSize: 0x14 }
  - { offsetInCU: 0x11104, offset: 0x11104, size: 0x8, addend: 0x0, symName: __ZNK9__gnu_cxx17__normal_iteratorIPxSt6vectorIxSaIxEEEmiEl, symObjAddr: 0x1D0C, symBinAddr: 0x100006140, symSize: 0x44 }
  - { offsetInCU: 0x1110C, offset: 0x1110C, size: 0x8, addend: 0x0, symName: __ZNK9__gnu_cxx17__normal_iteratorIPxSt6vectorIxSaIxEEEdeEv, symObjAddr: 0x1D50, symBinAddr: 0x100006184, symSize: 0x18 }
  - { offsetInCU: 0x111A9, offset: 0x111A9, size: 0x8, addend: 0x0, symName: __ZN9__gnu_cxx5__ops14_Iter_comp_valISt7greaterIxEEC1ES3_, symObjAddr: 0x1CE8, symBinAddr: 0x10000611C, symSize: 0x24 }
  - { offsetInCU: 0x111B1, offset: 0x111B1, size: 0x8, addend: 0x0, symName: __ZNK9__gnu_cxx17__normal_iteratorIPxSt6vectorIxSaIxEEEmiEl, symObjAddr: 0x1D0C, symBinAddr: 0x100006140, symSize: 0x44 }
  - { offsetInCU: 0x11212, offset: 0x11212, size: 0x8, addend: 0x0, symName: __ZN9__gnu_cxx17__normal_iteratorIPxSt6vectorIxSaIxEEEC1ERKS1_, symObjAddr: 0x1CC0, symBinAddr: 0x1000060F4, symSize: 0x28 }
  - { offsetInCU: 0x1121A, offset: 0x1121A, size: 0x8, addend: 0x0, symName: __ZN9__gnu_cxx5__ops14_Iter_comp_valISt7greaterIxEEC1ES3_, symObjAddr: 0x1CE8, symBinAddr: 0x10000611C, symSize: 0x24 }
  - { offsetInCU: 0x1120E, offset: 0x1120E, size: 0x8, addend: 0x0, symName: __ZNSt6vectorIxSaIxEE17_M_realloc_insertIJRKxEEEvN9__gnu_cxx17__normal_iteratorIPxS1_EEDpOT_, symObjAddr: 0x1B00, symBinAddr: 0x100005F34, symSize: 0x1C0 }
  - { offsetInCU: 0x11216, offset: 0x11216, size: 0x8, addend: 0x0, symName: __ZN9__gnu_cxx17__normal_iteratorIPxSt6vectorIxSaIxEEEC1ERKS1_, symObjAddr: 0x1CC0, symBinAddr: 0x1000060F4, symSize: 0x28 }
  - { offsetInCU: 0x113C5, offset: 0x113C5, size: 0x8, addend: 0x0, symName: __ZNSt6vectorIxSaIxEE11_S_relocateEPxS2_S2_RS0_, symObjAddr: 0x1ACC, symBinAddr: 0x100005F00, symSize: 0x34 }
  - { offsetInCU: 0x113CD, offset: 0x113CD, size: 0x8, addend: 0x0, symName: __ZNSt6vectorIxSaIxEE17_M_realloc_insertIJRKxEEEvN9__gnu_cxx17__normal_iteratorIPxS1_EEDpOT_, symObjAddr: 0x1B00, symBinAddr: 0x100005F34, symSize: 0x1C0 }
  - { offsetInCU: 0x11433, offset: 0x11433, size: 0x8, addend: 0x0, symName: __ZNSt12_Vector_baseIxSaIxEE11_M_allocateEm, symObjAddr: 0x1A7C, symBinAddr: 0x100005EB0, symSize: 0x50 }
  - { offsetInCU: 0x1143B, offset: 0x1143B, size: 0x8, addend: 0x0, symName: __ZNSt6vectorIxSaIxEE11_S_relocateEPxS2_S2_RS0_, symObjAddr: 0x1ACC, symBinAddr: 0x100005F00, symSize: 0x34 }
  - { offsetInCU: 0x114A8, offset: 0x114A8, size: 0x8, addend: 0x0, symName: __ZNKSt6vectorIxSaIxEE12_M_check_lenEmPKc, symObjAddr: 0x19AC, symBinAddr: 0x100005DE0, symSize: 0xD0 }
  - { offsetInCU: 0x114B0, offset: 0x114B0, size: 0x8, addend: 0x0, symName: __ZNSt12_Vector_baseIxSaIxEE11_M_allocateEm, symObjAddr: 0x1A7C, symBinAddr: 0x100005EB0, symSize: 0x50 }
  - { offsetInCU: 0x1159E, offset: 0x1159E, size: 0x8, addend: 0x0, symName: __ZSt27__uninitialized_default_n_aIPxmxET_S1_T0_RSaIT1_E, symObjAddr: 0x1984, symBinAddr: 0x100005DB8, symSize: 0x28 }
  - { offsetInCU: 0x115A6, offset: 0x115A6, size: 0x8, addend: 0x0, symName: __ZNKSt6vectorIxSaIxEE12_M_check_lenEmPKc, symObjAddr: 0x19AC, symBinAddr: 0x100005DE0, symSize: 0xD0 }
  - { offsetInCU: 0x11599, offset: 0x11599, size: 0x8, addend: 0x0, symName: __ZNKSt6vectorIxSaIxEE8max_sizeEv, symObjAddr: 0x1964, symBinAddr: 0x100005D98, symSize: 0x20 }
  - { offsetInCU: 0x115A1, offset: 0x115A1, size: 0x8, addend: 0x0, symName: __ZSt27__uninitialized_default_n_aIPxmxET_S1_T0_RSaIT1_E, symObjAddr: 0x1984, symBinAddr: 0x100005DB8, symSize: 0x28 }
  - { offsetInCU: 0x1161D, offset: 0x1161D, size: 0x8, addend: 0x0, symName: __ZNSt6vectorIiSaIiEE11_S_relocateEPiS2_S2_RS0_, symObjAddr: 0x1930, symBinAddr: 0x100005D64, symSize: 0x34 }
  - { offsetInCU: 0x11625, offset: 0x11625, size: 0x8, addend: 0x0, symName: __ZNKSt6vectorIxSaIxEE8max_sizeEv, symObjAddr: 0x1964, symBinAddr: 0x100005D98, symSize: 0x20 }
  - { offsetInCU: 0x1168B, offset: 0x1168B, size: 0x8, addend: 0x0, symName: __ZNSt12_Vector_baseIiSaIiEE11_M_allocateEm, symObjAddr: 0x18E0, symBinAddr: 0x100005D14, symSize: 0x50 }
  - { offsetInCU: 0x11693, offset: 0x11693, size: 0x8, addend: 0x0, symName: __ZNSt6vectorIiSaIiEE11_S_relocateEPiS2_S2_RS0_, symObjAddr: 0x1930, symBinAddr: 0x100005D64, symSize: 0x34 }
  - { offsetInCU: 0x11700, offset: 0x11700, size: 0x8, addend: 0x0, symName: __ZNKSt6vectorIiSaIiEE12_M_check_lenEmPKc, symObjAddr: 0x1810, symBinAddr: 0x100005C44, symSize: 0xD0 }
  - { offsetInCU: 0x11708, offset: 0x11708, size: 0x8, addend: 0x0, symName: __ZNSt12_Vector_baseIiSaIiEE11_M_allocateEm, symObjAddr: 0x18E0, symBinAddr: 0x100005D14, symSize: 0x50 }
  - { offsetInCU: 0x117E2, offset: 0x117E2, size: 0x8, addend: 0x0, symName: __ZSt27__uninitialized_default_n_aIPimiET_S1_T0_RSaIT1_E, symObjAddr: 0x17E8, symBinAddr: 0x100005C1C, symSize: 0x28 }
  - { offsetInCU: 0x117EA, offset: 0x117EA, size: 0x8, addend: 0x0, symName: __ZNKSt6vectorIiSaIiEE12_M_check_lenEmPKc, symObjAddr: 0x1810, symBinAddr: 0x100005C44, symSize: 0xD0 }
  - { offsetInCU: 0x117F1, offset: 0x117F1, size: 0x8, addend: 0x0, symName: __ZNSt12_Vector_baseIiSaIiEE19_M_get_Tp_allocatorEv, symObjAddr: 0x17D4, symBinAddr: 0x100005C08, symSize: 0x14 }
  - { offsetInCU: 0x117F9, offset: 0x117F9, size: 0x8, addend: 0x0, symName: __ZSt27__uninitialized_default_n_aIPimiET_S1_T0_RSaIT1_E, symObjAddr: 0x17E8, symBinAddr: 0x100005C1C, symSize: 0x28 }
  - { offsetInCU: 0x11820, offset: 0x11820, size: 0x8, addend: 0x0, symName: __ZNKSt6vectorIiSaIiEE8max_sizeEv, symObjAddr: 0x17B4, symBinAddr: 0x100005BE8, symSize: 0x20 }
  - { offsetInCU: 0x11828, offset: 0x11828, size: 0x8, addend: 0x0, symName: __ZNSt12_Vector_baseIiSaIiEE19_M_get_Tp_allocatorEv, symObjAddr: 0x17D4, symBinAddr: 0x100005C08, symSize: 0x14 }
  - { offsetInCU: 0x1184F, offset: 0x1184F, size: 0x8, addend: 0x0, symName: __ZNSt10_HashtableIxSt4pairIKxiESaIS2_ENSt8__detail10_Select1stESt8equal_toIxESt4hashIxENS4_18_Mod_range_hashingENS4_20_Default_ranged_hashENS4_20_Prime_rehash_policyENS4_17_Hashtable_traitsILb0ELb0ELb1EEEE21_M_deallocate_bucketsEPPNS4_15_Hash_node_baseEm, symObjAddr: 0x1764, symBinAddr: 0x100005B98, symSize: 0x50 }
  - { offsetInCU: 0x11857, offset: 0x11857, size: 0x8, addend: 0x0, symName: __ZNKSt6vectorIiSaIiEE8max_sizeEv, symObjAddr: 0x17B4, symBinAddr: 0x100005BE8, symSize: 0x20 }
  - { offsetInCU: 0x118A6, offset: 0x118A6, size: 0x8, addend: 0x0, symName: __ZNSt8__detail16_Hashtable_allocISaINS_10_Hash_nodeISt4pairIKxiELb0EEEEE19_M_deallocate_nodesEPS5_, symObjAddr: 0x1714, symBinAddr: 0x100005B48, symSize: 0x50 }
  - { offsetInCU: 0x118AE, offset: 0x118AE, size: 0x8, addend: 0x0, symName: __ZNSt10_HashtableIxSt4pairIKxiESaIS2_ENSt8__detail10_Select1stESt8equal_toIxESt4hashIxENS4_18_Mod_range_hashingENS4_20_Default_ranged_hashENS4_20_Prime_rehash_policyENS4_17_Hashtable_traitsILb0ELb0ELb1EEEE21_M_deallocate_bucketsEPPNS4_15_Hash_node_baseEm, symObjAddr: 0x1764, symBinAddr: 0x100005B98, symSize: 0x50 }
  - { offsetInCU: 0x1190F, offset: 0x1190F, size: 0x8, addend: 0x0, symName: __ZNKSt10_HashtableIxSt4pairIKxiESaIS2_ENSt8__detail10_Select1stESt8equal_toIxESt4hashIxENS4_18_Mod_range_hashingENS4_20_Default_ranged_hashENS4_20_Prime_rehash_policyENS4_17_Hashtable_traitsILb0ELb0ELb1EEEE8_M_beginEv, symObjAddr: 0x16FC, symBinAddr: 0x100005B30, symSize: 0x18 }
  - { offsetInCU: 0x11917, offset: 0x11917, size: 0x8, addend: 0x0, symName: __ZNSt8__detail16_Hashtable_allocISaINS_10_Hash_nodeISt4pairIKxiELb0EEEEE19_M_deallocate_nodesEPS5_, symObjAddr: 0x1714, symBinAddr: 0x100005B48, symSize: 0x50 }
  - { offsetInCU: 0x119AC, offset: 0x119AC, size: 0x8, addend: 0x0, symName: __ZNSt12_Vector_baseIxSaIxEE19_M_get_Tp_allocatorEv, symObjAddr: 0x16E8, symBinAddr: 0x100005B1C, symSize: 0x14 }
  - { offsetInCU: 0x119B4, offset: 0x119B4, size: 0x8, addend: 0x0, symName: __ZNKSt10_HashtableIxSt4pairIKxiESaIS2_ENSt8__detail10_Select1stESt8equal_toIxESt4hashIxENS4_18_Mod_range_hashingENS4_20_Default_ranged_hashENS4_20_Prime_rehash_policyENS4_17_Hashtable_traitsILb0ELb0ELb1EEEE8_M_beginEv, symObjAddr: 0x16FC, symBinAddr: 0x100005B30, symSize: 0x18 }
  - { offsetInCU: 0x11A89, offset: 0x11A89, size: 0x8, addend: 0x0, symName: __ZNSt6vectorIxSaIxEE8pop_backEv, symObjAddr: 0x1694, symBinAddr: 0x100005AC8, symSize: 0x54 }
  - { offsetInCU: 0x11A91, offset: 0x11A91, size: 0x8, addend: 0x0, symName: __ZNSt12_Vector_baseIxSaIxEE19_M_get_Tp_allocatorEv, symObjAddr: 0x16E8, symBinAddr: 0x100005B1C, symSize: 0x14 }
  - { offsetInCU: 0x11BE9, offset: 0x11BE9, size: 0x8, addend: 0x0, symName: __ZSt8pop_heapIN9__gnu_cxx17__normal_iteratorIPxSt6vectorIxSaIxEEEESt7greaterIxEEvT_S9_T0_, symObjAddr: 0x1630, symBinAddr: 0x100005A64, symSize: 0x64 }
  - { offsetInCU: 0x11BF1, offset: 0x11BF1, size: 0x8, addend: 0x0, symName: __ZNSt6vectorIxSaIxEE8pop_backEv, symObjAddr: 0x1694, symBinAddr: 0x100005AC8, symSize: 0x54 }
  - { offsetInCU: 0x11C20, offset: 0x11C20, size: 0x8, addend: 0x0, symName: __ZSt4moveIRSt7greaterIxEEONSt16remove_referenceIT_E4typeEOS4_, symObjAddr: 0x161C, symBinAddr: 0x100005A50, symSize: 0x14 }
  - { offsetInCU: 0x11C28, offset: 0x11C28, size: 0x8, addend: 0x0, symName: __ZSt8pop_heapIN9__gnu_cxx17__normal_iteratorIPxSt6vectorIxSaIxEEEESt7greaterIxEEvT_S9_T0_, symObjAddr: 0x1630, symBinAddr: 0x100005A64, symSize: 0x64 }
  - { offsetInCU: 0x11C19, offset: 0x11C19, size: 0x8, addend: 0x0, symName: __ZNKSt6vectorIxSaIxEE5frontEv, symObjAddr: 0x15F4, symBinAddr: 0x100005A28, symSize: 0x28 }
  - { offsetInCU: 0x11C21, offset: 0x11C21, size: 0x8, addend: 0x0, symName: __ZSt4moveIRSt7greaterIxEEONSt16remove_referenceIT_E4typeEOS4_, symObjAddr: 0x161C, symBinAddr: 0x100005A50, symSize: 0x14 }
  - { offsetInCU: 0x11C48, offset: 0x11C48, size: 0x8, addend: 0x0, symName: __ZNKSt6vectorIxSaIxEE5emptyEv, symObjAddr: 0x15B8, symBinAddr: 0x1000059EC, symSize: 0x3C }
  - { offsetInCU: 0x11C50, offset: 0x11C50, size: 0x8, addend: 0x0, symName: __ZNKSt6vectorIxSaIxEE5frontEv, symObjAddr: 0x15F4, symBinAddr: 0x100005A28, symSize: 0x28 }
  - { offsetInCU: 0x11C77, offset: 0x11C77, size: 0x8, addend: 0x0, symName: __ZNSt8__detail9_Map_baseIxSt4pairIKxiESaIS3_ENS_10_Select1stESt8equal_toIxESt4hashIxENS_18_Mod_range_hashingENS_20_Default_ranged_hashENS_20_Prime_rehash_policyENS_17_Hashtable_traitsILb0ELb0ELb1EEELb1EEixERS2_, symObjAddr: 0x14B0, symBinAddr: 0x1000058E4, symSize: 0x108 }
  - { offsetInCU: 0x11C7F, offset: 0x11C7F, size: 0x8, addend: 0x0, symName: __ZNKSt6vectorIxSaIxEE5emptyEv, symObjAddr: 0x15B8, symBinAddr: 0x1000059EC, symSize: 0x3C }
  - { offsetInCU: 0x11E1F, offset: 0x11E1F, size: 0x8, addend: 0x0, symName: __ZSt9push_heapIN9__gnu_cxx17__normal_iteratorIPxSt6vectorIxSaIxEEEESt7greaterIxEEvT_S9_T0_, symObjAddr: 0x1418, symBinAddr: 0x10000584C, symSize: 0x98 }
  - { offsetInCU: 0x11E27, offset: 0x11E27, size: 0x8, addend: 0x0, symName: __ZNSt8__detail9_Map_baseIxSt4pairIKxiESaIS3_ENS_10_Select1stESt8equal_toIxESt4hashIxENS_18_Mod_range_hashingENS_20_Default_ranged_hashENS_20_Prime_rehash_policyENS_17_Hashtable_traitsILb0ELb0ELb1EEELb1EEixERS2_, symObjAddr: 0x14B0, symBinAddr: 0x1000058E4, symSize: 0x108 }
  - { offsetInCU: 0x11E0C, offset: 0x11E0C, size: 0x8, addend: 0x0, symName: __ZNSt6vectorIxSaIxEE3endEv, symObjAddr: 0x13F0, symBinAddr: 0x100005824, symSize: 0x28 }
  - { offsetInCU: 0x11E14, offset: 0x11E14, size: 0x8, addend: 0x0, symName: __ZSt9push_heapIN9__gnu_cxx17__normal_iteratorIPxSt6vectorIxSaIxEEEESt7greaterIxEEvT_S9_T0_, symObjAddr: 0x1418, symBinAddr: 0x10000584C, symSize: 0x98 }
  - { offsetInCU: 0x11E3B, offset: 0x11E3B, size: 0x8, addend: 0x0, symName: __ZNSt6vectorIxSaIxEE5beginEv, symObjAddr: 0x13CC, symBinAddr: 0x100005800, symSize: 0x24 }
  - { offsetInCU: 0x11E43, offset: 0x11E43, size: 0x8, addend: 0x0, symName: __ZNSt6vectorIxSaIxEE3endEv, symObjAddr: 0x13F0, symBinAddr: 0x100005824, symSize: 0x28 }
  - { offsetInCU: 0x11E6A, offset: 0x11E6A, size: 0x8, addend: 0x0, symName: __ZNSt6vectorIxSaIxEE9push_backERKx, symObjAddr: 0x12F8, symBinAddr: 0x10000572C, symSize: 0xD4 }
  - { offsetInCU: 0x11E72, offset: 0x11E72, size: 0x8, addend: 0x0, symName: __ZNSt6vectorIxSaIxEE5beginEv, symObjAddr: 0x13CC, symBinAddr: 0x100005800, symSize: 0x24 }
  - { offsetInCU: 0x11F29, offset: 0x11F29, size: 0x8, addend: 0x0, symName: __ZNSt6vectorIxSaIxEE15_M_erase_at_endEPx, symObjAddr: 0x1270, symBinAddr: 0x1000056A4, symSize: 0x88 }
  - { offsetInCU: 0x11F31, offset: 0x11F31, size: 0x8, addend: 0x0, symName: __ZNSt6vectorIxSaIxEE9push_backERKx, symObjAddr: 0x12F8, symBinAddr: 0x10000572C, symSize: 0xD4 }
  - { offsetInCU: 0x11FD0, offset: 0x11FD0, size: 0x8, addend: 0x0, symName: __ZNSt6vectorIxSaIxEE17_M_default_appendEm, symObjAddr: 0x1070, symBinAddr: 0x1000054A4, symSize: 0x200 }
  - { offsetInCU: 0x11FD8, offset: 0x11FD8, size: 0x8, addend: 0x0, symName: __ZNSt6vectorIxSaIxEE15_M_erase_at_endEPx, symObjAddr: 0x1270, symBinAddr: 0x1000056A4, symSize: 0x88 }
  - { offsetInCU: 0x120AF, offset: 0x120AF, size: 0x8, addend: 0x0, symName: __ZNKSt6vectorIxSaIxEE4sizeEv, symObjAddr: 0x1048, symBinAddr: 0x10000547C, symSize: 0x28 }
  - { offsetInCU: 0x120B7, offset: 0x120B7, size: 0x8, addend: 0x0, symName: __ZNSt6vectorIxSaIxEE17_M_default_appendEm, symObjAddr: 0x1070, symBinAddr: 0x1000054A4, symSize: 0x200 }
  - { offsetInCU: 0x120DE, offset: 0x120DE, size: 0x8, addend: 0x0, symName: __ZNSt6vectorIiSaIiEE15_M_erase_at_endEPi, symObjAddr: 0xFC0, symBinAddr: 0x1000053F4, symSize: 0x88 }
  - { offsetInCU: 0x120E6, offset: 0x120E6, size: 0x8, addend: 0x0, symName: __ZNKSt6vectorIxSaIxEE4sizeEv, symObjAddr: 0x1048, symBinAddr: 0x10000547C, symSize: 0x28 }
  - { offsetInCU: 0x12185, offset: 0x12185, size: 0x8, addend: 0x0, symName: __ZNSt6vectorIiSaIiEE17_M_default_appendEm, symObjAddr: 0xDC0, symBinAddr: 0x1000051F4, symSize: 0x200 }
  - { offsetInCU: 0x1218D, offset: 0x1218D, size: 0x8, addend: 0x0, symName: __ZNSt6vectorIiSaIiEE15_M_erase_at_endEPi, symObjAddr: 0xFC0, symBinAddr: 0x1000053F4, symSize: 0x88 }
  - { offsetInCU: 0x12264, offset: 0x12264, size: 0x8, addend: 0x0, symName: __ZNKSt6vectorIiSaIiEE4sizeEv, symObjAddr: 0xD98, symBinAddr: 0x1000051CC, symSize: 0x28 }
  - { offsetInCU: 0x1226C, offset: 0x1226C, size: 0x8, addend: 0x0, symName: __ZNSt6vectorIiSaIiEE17_M_default_appendEm, symObjAddr: 0xDC0, symBinAddr: 0x1000051F4, symSize: 0x200 }
  - { offsetInCU: 0x12293, offset: 0x12293, size: 0x8, addend: 0x0, symName: __ZNSt10_HashtableIxSt4pairIKxiESaIS2_ENSt8__detail10_Select1stESt8equal_toIxESt4hashIxENS4_18_Mod_range_hashingENS4_20_Default_ranged_hashENS4_20_Prime_rehash_policyENS4_17_Hashtable_traitsILb0ELb0ELb1EEEE21_M_deallocate_bucketsEv, symObjAddr: 0xD64, symBinAddr: 0x100005198, symSize: 0x34 }
  - { offsetInCU: 0x1229B, offset: 0x1229B, size: 0x8, addend: 0x0, symName: __ZNKSt6vectorIiSaIiEE4sizeEv, symObjAddr: 0xD98, symBinAddr: 0x1000051CC, symSize: 0x28 }
  - { offsetInCU: 0x122C2, offset: 0x122C2, size: 0x8, addend: 0x0, symName: __ZNSt10_HashtableIxSt4pairIKxiESaIS2_ENSt8__detail10_Select1stESt8equal_toIxESt4hashIxENS4_18_Mod_range_hashingENS4_20_Default_ranged_hashENS4_20_Prime_rehash_policyENS4_17_Hashtable_traitsILb0ELb0ELb1EEEE5clearEv, symObjAddr: 0xD00, symBinAddr: 0x100005134, symSize: 0x64 }
  - { offsetInCU: 0x122CA, offset: 0x122CA, size: 0x8, addend: 0x0, symName: __ZNSt10_HashtableIxSt4pairIKxiESaIS2_ENSt8__detail10_Select1stESt8equal_toIxESt4hashIxENS4_18_Mod_range_hashingENS4_20_Default_ranged_hashENS4_20_Prime_rehash_policyENS4_17_Hashtable_traitsILb0ELb0ELb1EEEE21_M_deallocate_bucketsEv, symObjAddr: 0xD64, symBinAddr: 0x100005198, symSize: 0x34 }
  - { offsetInCU: 0x12360, offset: 0x12360, size: 0x8, addend: 0x0, symName: __ZNSt15__new_allocatorINSt8__detail10_Hash_nodeISt4pairIKxiELb0EEEED2Ev, symObjAddr: 0xCEC, symBinAddr: 0x100005120, symSize: 0x14 }
  - { offsetInCU: 0x12368, offset: 0x12368, size: 0x8, addend: 0x0, symName: __ZNSt10_HashtableIxSt4pairIKxiESaIS2_ENSt8__detail10_Select1stESt8equal_toIxESt4hashIxENS4_18_Mod_range_hashingENS4_20_Default_ranged_hashENS4_20_Prime_rehash_policyENS4_17_Hashtable_traitsILb0ELb0ELb1EEEE5clearEv, symObjAddr: 0xD00, symBinAddr: 0x100005134, symSize: 0x64 }
  - { offsetInCU: 0x1239F, offset: 0x1239F, size: 0x8, addend: 0x0, symName: __ZNSt6vectorIxSaIxEED1Ev, symObjAddr: 0xC90, symBinAddr: 0x1000050C4, symSize: 0x5C }
  - { offsetInCU: 0x123A7, offset: 0x123A7, size: 0x8, addend: 0x0, symName: __ZNSt15__new_allocatorINSt8__detail10_Hash_nodeISt4pairIKxiELb0EEEED2Ev, symObjAddr: 0xCEC, symBinAddr: 0x100005120, symSize: 0x14 }
  - { offsetInCU: 0x123F2, offset: 0x123F2, size: 0x8, addend: 0x0, symName: __ZNSt12_Vector_baseIxSaIxEE13_M_deallocateEPxm, symObjAddr: 0xC38, symBinAddr: 0x10000506C, symSize: 0x58 }
  - { offsetInCU: 0x123FA, offset: 0x123FA, size: 0x8, addend: 0x0, symName: __ZNSt6vectorIxSaIxEED1Ev, symObjAddr: 0xC90, symBinAddr: 0x1000050C4, symSize: 0x5C }
  - { offsetInCU: 0x124CC, offset: 0x124CC, size: 0x8, addend: 0x0, symName: __ZNSt15__new_allocatorIxED2Ev, symObjAddr: 0xC24, symBinAddr: 0x100005058, symSize: 0x14 }
  - { offsetInCU: 0x124D4, offset: 0x124D4, size: 0x8, addend: 0x0, symName: __ZNSt12_Vector_baseIxSaIxEE13_M_deallocateEPxm, symObjAddr: 0xC38, symBinAddr: 0x10000506C, symSize: 0x58 }
  - { offsetInCU: 0x12528, offset: 0x12528, size: 0x8, addend: 0x0, symName: __ZNSt12_Vector_baseIxSaIxEE17_Vector_impl_dataC2Ev, symObjAddr: 0xBF8, symBinAddr: 0x10000502C, symSize: 0x2C }
  - { offsetInCU: 0x12530, offset: 0x12530, size: 0x8, addend: 0x0, symName: __ZNSt15__new_allocatorIxED2Ev, symObjAddr: 0xC24, symBinAddr: 0x100005058, symSize: 0x14 }
  - { offsetInCU: 0x1253C, offset: 0x1253C, size: 0x8, addend: 0x0, symName: __ZNSt12_Vector_baseIiSaIiEE13_M_deallocateEPim, symObjAddr: 0xBA0, symBinAddr: 0x100004FD4, symSize: 0x58 }
  - { offsetInCU: 0x12544, offset: 0x12544, size: 0x8, addend: 0x0, symName: __ZNSt12_Vector_baseIxSaIxEE17_Vector_impl_dataC2Ev, symObjAddr: 0xBF8, symBinAddr: 0x10000502C, symSize: 0x2C }
  - { offsetInCU: 0x12616, offset: 0x12616, size: 0x8, addend: 0x0, symName: __ZNSt15__new_allocatorIiED2Ev, symObjAddr: 0xB8C, symBinAddr: 0x100004FC0, symSize: 0x14 }
  - { offsetInCU: 0x1261E, offset: 0x1261E, size: 0x8, addend: 0x0, symName: __ZNSt12_Vector_baseIiSaIiEE13_M_deallocateEPim, symObjAddr: 0xBA0, symBinAddr: 0x100004FD4, symSize: 0x58 }
  - { offsetInCU: 0x12672, offset: 0x12672, size: 0x8, addend: 0x0, symName: __ZNSt12_Vector_baseIiSaIiEE17_Vector_impl_dataC2Ev, symObjAddr: 0xB60, symBinAddr: 0x100004F94, symSize: 0x2C }
  - { offsetInCU: 0x1267A, offset: 0x1267A, size: 0x8, addend: 0x0, symName: __ZNSt15__new_allocatorIiED2Ev, symObjAddr: 0xB8C, symBinAddr: 0x100004FC0, symSize: 0x14 }
  - { offsetInCU: 0x126B4, offset: 0x126B4, size: 0x8, addend: 0x0, symName: __ZSt3maxIxERKT_S2_S2_, symObjAddr: 0xB28, symBinAddr: 0x100004F5C, symSize: 0x38 }
  - { offsetInCU: 0x126BC, offset: 0x126BC, size: 0x8, addend: 0x0, symName: __ZNSt12_Vector_baseIiSaIiEE17_Vector_impl_dataC2Ev, symObjAddr: 0xB60, symBinAddr: 0x100004F94, symSize: 0x2C }
  - { offsetInCU: 0x126E6, offset: 0x126E6, size: 0x8, addend: 0x0, symName: __ZNSt14priority_queueIxSt6vectorIxSaIxEESt7greaterIxEE3popEv, symObjAddr: 0xADC, symBinAddr: 0x100004F10, symSize: 0x4C }
  - { offsetInCU: 0x126EE, offset: 0x126EE, size: 0x8, addend: 0x0, symName: __ZSt3maxIxERKT_S2_S2_, symObjAddr: 0xB28, symBinAddr: 0x100004F5C, symSize: 0x38 }
  - { offsetInCU: 0x12715, offset: 0x12715, size: 0x8, addend: 0x0, symName: __ZNKSt14priority_queueIxSt6vectorIxSaIxEESt7greaterIxEE3topEv, symObjAddr: 0xAC0, symBinAddr: 0x100004EF4, symSize: 0x1C }
  - { offsetInCU: 0x1271D, offset: 0x1271D, size: 0x8, addend: 0x0, symName: __ZNSt14priority_queueIxSt6vectorIxSaIxEESt7greaterIxEE3popEv, symObjAddr: 0xADC, symBinAddr: 0x100004F10, symSize: 0x4C }
  - { offsetInCU: 0x12744, offset: 0x12744, size: 0x8, addend: 0x0, symName: __ZNKSt14priority_queueIxSt6vectorIxSaIxEESt7greaterIxEE5emptyEv, symObjAddr: 0xAA0, symBinAddr: 0x100004ED4, symSize: 0x20 }
  - { offsetInCU: 0x1274C, offset: 0x1274C, size: 0x8, addend: 0x0, symName: __ZNKSt14priority_queueIxSt6vectorIxSaIxEESt7greaterIxEE3topEv, symObjAddr: 0xAC0, symBinAddr: 0x100004EF4, symSize: 0x1C }
  - { offsetInCU: 0x12773, offset: 0x12773, size: 0x8, addend: 0x0, symName: __ZNSt13unordered_mapIxiSt4hashIxESt8equal_toIxESaISt4pairIKxiEEEixERS5_, symObjAddr: 0xA7C, symBinAddr: 0x100004EB0, symSize: 0x24 }
  - { offsetInCU: 0x1277B, offset: 0x1277B, size: 0x8, addend: 0x0, symName: __ZNKSt14priority_queueIxSt6vectorIxSaIxEESt7greaterIxEE5emptyEv, symObjAddr: 0xAA0, symBinAddr: 0x100004ED4, symSize: 0x20 }
  - { offsetInCU: 0x127B6, offset: 0x127B6, size: 0x8, addend: 0x0, symName: __ZNSt14priority_queueIxSt6vectorIxSaIxEESt7greaterIxEE4pushERKx, symObjAddr: 0xA28, symBinAddr: 0x100004E5C, symSize: 0x54 }
  - { offsetInCU: 0x127BE, offset: 0x127BE, size: 0x8, addend: 0x0, symName: __ZNSt13unordered_mapIxiSt4hashIxESt8equal_toIxESaISt4pairIKxiEEEixERS5_, symObjAddr: 0xA7C, symBinAddr: 0x100004EB0, symSize: 0x24 }
  - { offsetInCU: 0x127F9, offset: 0x127F9, size: 0x8, addend: 0x0, symName: __ZNSt6vectorIxSaIxEEixEm, symObjAddr: 0xA00, symBinAddr: 0x100004E34, symSize: 0x28 }
  - { offsetInCU: 0x12801, offset: 0x12801, size: 0x8, addend: 0x0, symName: __ZNSt14priority_queueIxSt6vectorIxSaIxEESt7greaterIxEE4pushERKx, symObjAddr: 0xA28, symBinAddr: 0x100004E5C, symSize: 0x54 }
  - { offsetInCU: 0x1283C, offset: 0x1283C, size: 0x8, addend: 0x0, symName: __ZNSt6vectorIiSaIiEEixEm, symObjAddr: 0x9D8, symBinAddr: 0x100004E0C, symSize: 0x28 }
  - { offsetInCU: 0x12844, offset: 0x12844, size: 0x8, addend: 0x0, symName: __ZNSt6vectorIxSaIxEEixEm, symObjAddr: 0xA00, symBinAddr: 0x100004E34, symSize: 0x28 }
  - { offsetInCU: 0x1287F, offset: 0x1287F, size: 0x8, addend: 0x0, symName: __ZNSt6vectorIxSaIxEE6resizeEm, symObjAddr: 0x928, symBinAddr: 0x100004D5C, symSize: 0xB0 }
  - { offsetInCU: 0x12887, offset: 0x12887, size: 0x8, addend: 0x0, symName: __ZNSt6vectorIiSaIiEEixEm, symObjAddr: 0x9D8, symBinAddr: 0x100004E0C, symSize: 0x28 }
  - { offsetInCU: 0x128C2, offset: 0x128C2, size: 0x8, addend: 0x0, symName: __ZNSt6vectorIiSaIiEE6resizeEm, symObjAddr: 0x878, symBinAddr: 0x100004CAC, symSize: 0xB0 }
  - { offsetInCU: 0x128CA, offset: 0x128CA, size: 0x8, addend: 0x0, symName: __ZNSt6vectorIxSaIxEE6resizeEm, symObjAddr: 0x928, symBinAddr: 0x100004D5C, symSize: 0xB0 }
  - { offsetInCU: 0x129FE, offset: 0x129FE, size: 0x8, addend: 0x0, symName: __ZNSt10_HashtableIxSt4pairIKxiESaIS2_ENSt8__detail10_Select1stESt8equal_toIxESt4hashIxENS4_18_Mod_range_hashingENS4_20_Default_ranged_hashENS4_20_Prime_rehash_policyENS4_17_Hashtable_traitsILb0ELb0ELb1EEEED1Ev, symObjAddr: 0x848, symBinAddr: 0x100004C7C, symSize: 0x30 }
  - { offsetInCU: 0x12A06, offset: 0x12A06, size: 0x8, addend: 0x0, symName: __ZNSt6vectorIiSaIiEE6resizeEm, symObjAddr: 0x878, symBinAddr: 0x100004CAC, symSize: 0xB0 }
  - { offsetInCU: 0x129F4, offset: 0x129F4, size: 0x8, addend: 0x0, symName: __ZNSt8__detail21_Hashtable_ebo_helperILi0ESaINS_10_Hash_nodeISt4pairIKxiELb0EEEELb1EEC2Ev, symObjAddr: 0x81C, symBinAddr: 0x100004C50, symSize: 0x2C }
  - { offsetInCU: 0x129FC, offset: 0x129FC, size: 0x8, addend: 0x0, symName: __ZNSt10_HashtableIxSt4pairIKxiESaIS2_ENSt8__detail10_Select1stESt8equal_toIxESt4hashIxENS4_18_Mod_range_hashingENS4_20_Default_ranged_hashENS4_20_Prime_rehash_policyENS4_17_Hashtable_traitsILb0ELb0ELb1EEEED1Ev, symObjAddr: 0x848, symBinAddr: 0x100004C7C, symSize: 0x30 }
  - { offsetInCU: 0x12A6F, offset: 0x12A6F, size: 0x8, addend: 0x0, symName: __ZNSt8__detail21_Hashtable_ebo_helperILi0ESt8equal_toIxELb1EEC2Ev, symObjAddr: 0x808, symBinAddr: 0x100004C3C, symSize: 0x14 }
  - { offsetInCU: 0x12A77, offset: 0x12A77, size: 0x8, addend: 0x0, symName: __ZNSt8__detail21_Hashtable_ebo_helperILi0ESaINS_10_Hash_nodeISt4pairIKxiELb0EEEELb1EEC2Ev, symObjAddr: 0x81C, symBinAddr: 0x100004C50, symSize: 0x2C }
  - { offsetInCU: 0x12AB2, offset: 0x12AB2, size: 0x8, addend: 0x0, symName: __ZNSt8__detail21_Hashtable_ebo_helperILi1ESt4hashIxELb1EEC2Ev, symObjAddr: 0x7F4, symBinAddr: 0x100004C28, symSize: 0x14 }
  - { offsetInCU: 0x12ABA, offset: 0x12ABA, size: 0x8, addend: 0x0, symName: __ZNSt8__detail21_Hashtable_ebo_helperILi0ESt8equal_toIxELb1EEC2Ev, symObjAddr: 0x808, symBinAddr: 0x100004C3C, symSize: 0x14 }
  - { offsetInCU: 0x12B10, offset: 0x12B10, size: 0x8, addend: 0x0, symName: __ZNSt14priority_queueIxSt6vectorIxSaIxEESt7greaterIxEEC1IS2_vEEv, symObjAddr: 0x7C8, symBinAddr: 0x100004BFC, symSize: 0x2C }
  - { offsetInCU: 0x12B18, offset: 0x12B18, size: 0x8, addend: 0x0, symName: __ZNSt8__detail21_Hashtable_ebo_helperILi1ESt4hashIxELb1EEC2Ev, symObjAddr: 0x7F4, symBinAddr: 0x100004C28, symSize: 0x14 }
  - { offsetInCU: 0x12B58, offset: 0x12B58, size: 0x8, addend: 0x0, symName: __ZNSt12_Vector_baseIxSaIxEED2Ev, symObjAddr: 0x778, symBinAddr: 0x100004BAC, symSize: 0x50 }
  - { offsetInCU: 0x12B60, offset: 0x12B60, size: 0x8, addend: 0x0, symName: __ZNSt14priority_queueIxSt6vectorIxSaIxEESt7greaterIxEEC1IS2_vEEv, symObjAddr: 0x7C8, symBinAddr: 0x100004BFC, symSize: 0x2C }
  - { offsetInCU: 0x12BD4, offset: 0x12BD4, size: 0x8, addend: 0x0, symName: __ZNSt12_Vector_baseIxSaIxEE12_Vector_implC1Ev, symObjAddr: 0x740, symBinAddr: 0x100004B74, symSize: 0x38 }
  - { offsetInCU: 0x12BDC, offset: 0x12BDC, size: 0x8, addend: 0x0, symName: __ZNSt12_Vector_baseIxSaIxEED2Ev, symObjAddr: 0x778, symBinAddr: 0x100004BAC, symSize: 0x50 }
  - { offsetInCU: 0x12C67, offset: 0x12C67, size: 0x8, addend: 0x0, symName: __ZNSt12_Vector_baseIiSaIiEED2Ev, symObjAddr: 0x6F0, symBinAddr: 0x100004B24, symSize: 0x50 }
  - { offsetInCU: 0x12C6F, offset: 0x12C6F, size: 0x8, addend: 0x0, symName: __ZNSt12_Vector_baseIxSaIxEE12_Vector_implC1Ev, symObjAddr: 0x740, symBinAddr: 0x100004B74, symSize: 0x38 }
  - { offsetInCU: 0x12CE3, offset: 0x12CE3, size: 0x8, addend: 0x0, symName: __ZNSt12_Vector_baseIiSaIiEE12_Vector_implC1Ev, symObjAddr: 0x6B8, symBinAddr: 0x100004AEC, symSize: 0x38 }
  - { offsetInCU: 0x12CEB, offset: 0x12CEB, size: 0x8, addend: 0x0, symName: __ZNSt12_Vector_baseIiSaIiEED2Ev, symObjAddr: 0x6F0, symBinAddr: 0x100004B24, symSize: 0x50 }
  - { offsetInCU: 0x12D61, offset: 0x12D61, size: 0x8, addend: 0x0, symName: __ZSt3maxImERKT_S2_S2_, symObjAddr: 0x680, symBinAddr: 0x100004AB4, symSize: 0x38 }
  - { offsetInCU: 0x12D69, offset: 0x12D69, size: 0x8, addend: 0x0, symName: __ZNSt12_Vector_baseIiSaIiEE12_Vector_implC1Ev, symObjAddr: 0x6B8, symBinAddr: 0x100004AEC, symSize: 0x38 }
  - { offsetInCU: 0x12D99, offset: 0x12D99, size: 0x8, addend: 0x0, symName: _main, symObjAddr: 0x380, symBinAddr: 0x1000047B4, symSize: 0x300 }
  - { offsetInCU: 0x12DA1, offset: 0x12DA1, size: 0x8, addend: 0x0, symName: __ZSt3maxImERKT_S2_S2_, symObjAddr: 0x680, symBinAddr: 0x100004AB4, symSize: 0x38 }
  - { offsetInCU: 0x12ECF, offset: 0x12ECF, size: 0x8, addend: 0x0, symName: __ZNSt13unordered_mapIxiSt4hashIxESt8equal_toIxESaISt4pairIKxiEEEC1Ev, symObjAddr: 0x360, symBinAddr: 0x100004794, symSize: 0x20 }
  - { offsetInCU: 0x12ED7, offset: 0x12ED7, size: 0x8, addend: 0x0, symName: _main, symObjAddr: 0x380, symBinAddr: 0x1000047B4, symSize: 0x300 }
  - { offsetInCU: 0x12FA3, offset: 0x12FA3, size: 0x8, addend: 0x0, symName: __ZNSt10_HashtableIxSt4pairIKxiESaIS2_ENSt8__detail10_Select1stESt8equal_toIxESt4hashIxENS4_18_Mod_range_hashingENS4_20_Default_ranged_hashENS4_20_Prime_rehash_policyENS4_17_Hashtable_traitsILb0ELb0ELb1EEEEC1Ev, symObjAddr: 0x2F0, symBinAddr: 0x100004724, symSize: 0x70 }
  - { offsetInCU: 0x12FAB, offset: 0x12FAB, size: 0x8, addend: 0x0, symName: __ZNSt13unordered_mapIxiSt4hashIxESt8equal_toIxESaISt4pairIKxiEEEC1Ev, symObjAddr: 0x360, symBinAddr: 0x100004794, symSize: 0x20 }
  - { offsetInCU: 0x12F77, offset: 0x12F77, size: 0x8, addend: 0x0, symName: __ZNSt8__detail16_Hashtable_allocISaINS_10_Hash_nodeISt4pairIKxiELb0EEEEED2Ev, symObjAddr: 0x2D0, symBinAddr: 0x100004704, symSize: 0x20 }
  - { offsetInCU: 0x12F7F, offset: 0x12F7F, size: 0x8, addend: 0x0, symName: __ZNSt10_HashtableIxSt4pairIKxiESaIS2_ENSt8__detail10_Select1stESt8equal_toIxESt4hashIxENS4_18_Mod_range_hashingENS4_20_Default_ranged_hashENS4_20_Prime_rehash_policyENS4_17_Hashtable_traitsILb0ELb0ELb1EEEEC1Ev, symObjAddr: 0x2F0, symBinAddr: 0x100004724, symSize: 0x70 }
  - { offsetInCU: 0x12FBE, offset: 0x12FBE, size: 0x8, addend: 0x0, symName: __ZNSt8__detail16_Hashtable_allocISaINS_10_Hash_nodeISt4pairIKxiELb0EEEEEC2Ev, symObjAddr: 0x2B0, symBinAddr: 0x1000046E4, symSize: 0x20 }
  - { offsetInCU: 0x12FC6, offset: 0x12FC6, size: 0x8, addend: 0x0, symName: __ZNSt8__detail16_Hashtable_allocISaINS_10_Hash_nodeISt4pairIKxiELb0EEEEED2Ev, symObjAddr: 0x2D0, symBinAddr: 0x100004704, symSize: 0x20 }
  - { offsetInCU: 0x13024, offset: 0x13024, size: 0x8, addend: 0x0, symName: __ZNSt8__detail21_Hashtable_ebo_helperILi0ESaINS_10_Hash_nodeISt4pairIKxiELb0EEEELb1EED2Ev, symObjAddr: 0x284, symBinAddr: 0x1000046B8, symSize: 0x2C }
  - { offsetInCU: 0x1302C, offset: 0x1302C, size: 0x8, addend: 0x0, symName: __ZNSt8__detail16_Hashtable_allocISaINS_10_Hash_nodeISt4pairIKxiELb0EEEEEC2Ev, symObjAddr: 0x2B0, symBinAddr: 0x1000046E4, symSize: 0x20 }
  - { offsetInCU: 0x130E9, offset: 0x130E9, size: 0x8, addend: 0x0, symName: __ZNSt8__detail15_Hashtable_baseIxSt4pairIKxiENS_10_Select1stESt8equal_toIxESt4hashIxENS_18_Mod_range_hashingENS_20_Default_ranged_hashENS_17_Hashtable_traitsILb0ELb0ELb1EEEEC2Ev, symObjAddr: 0x25C, symBinAddr: 0x100004690, symSize: 0x28 }
  - { offsetInCU: 0x130F1, offset: 0x130F1, size: 0x8, addend: 0x0, symName: __ZNSt8__detail21_Hashtable_ebo_helperILi0ESaINS_10_Hash_nodeISt4pairIKxiELb0EEEELb1EED2Ev, symObjAddr: 0x284, symBinAddr: 0x1000046B8, symSize: 0x2C }
  - { offsetInCU: 0x13101, offset: 0x13101, size: 0x8, addend: 0x0, symName: __ZNSt8__detail15_Hash_code_baseIxSt4pairIKxiENS_10_Select1stESt4hashIxENS_18_Mod_range_hashingENS_20_Default_ranged_hashELb0EEC2Ev, symObjAddr: 0x23C, symBinAddr: 0x100004670, symSize: 0x20 }
  - { offsetInCU: 0x13109, offset: 0x13109, size: 0x8, addend: 0x0, symName: __ZNSt8__detail15_Hashtable_baseIxSt4pairIKxiENS_10_Select1stESt8equal_toIxESt4hashIxENS_18_Mod_range_hashingENS_20_Default_ranged_hashENS_17_Hashtable_traitsILb0ELb0ELb1EEEEC2Ev, symObjAddr: 0x25C, symBinAddr: 0x100004690, symSize: 0x28 }
  - { offsetInCU: 0x130DE, offset: 0x130DE, size: 0x8, addend: 0x0, symName: __ZNSt6vectorIxSaIxEEC1Ev, symObjAddr: 0x21C, symBinAddr: 0x100004650, symSize: 0x20 }
  - { offsetInCU: 0x130E6, offset: 0x130E6, size: 0x8, addend: 0x0, symName: __ZNSt8__detail15_Hash_code_baseIxSt4pairIKxiENS_10_Select1stESt4hashIxENS_18_Mod_range_hashingENS_20_Default_ranged_hashELb0EEC2Ev, symObjAddr: 0x23C, symBinAddr: 0x100004670, symSize: 0x20 }
  - { offsetInCU: 0x1312C, offset: 0x1312C, size: 0x8, addend: 0x0, symName: __ZNSt12_Vector_baseIxSaIxEEC2Ev, symObjAddr: 0x1FC, symBinAddr: 0x100004630, symSize: 0x20 }
  - { offsetInCU: 0x13134, offset: 0x13134, size: 0x8, addend: 0x0, symName: __ZNSt6vectorIxSaIxEEC1Ev, symObjAddr: 0x21C, symBinAddr: 0x100004650, symSize: 0x20 }
  - { offsetInCU: 0x13192, offset: 0x13192, size: 0x8, addend: 0x0, symName: __ZNSt12_Vector_baseIxSaIxEE12_Vector_implD1Ev, symObjAddr: 0x1D0, symBinAddr: 0x100004604, symSize: 0x2C }
  - { offsetInCU: 0x1319A, offset: 0x1319A, size: 0x8, addend: 0x0, symName: __ZNSt12_Vector_baseIxSaIxEEC2Ev, symObjAddr: 0x1FC, symBinAddr: 0x100004630, symSize: 0x20 }
  - { offsetInCU: 0x131EA, offset: 0x131EA, size: 0x8, addend: 0x0, symName: __ZNSt6vectorIiSaIiEEC1Ev, symObjAddr: 0x1B0, symBinAddr: 0x1000045E4, symSize: 0x20 }
  - { offsetInCU: 0x131F2, offset: 0x131F2, size: 0x8, addend: 0x0, symName: __ZNSt12_Vector_baseIxSaIxEE12_Vector_implD1Ev, symObjAddr: 0x1D0, symBinAddr: 0x100004604, symSize: 0x2C }
  - { offsetInCU: 0x13238, offset: 0x13238, size: 0x8, addend: 0x0, symName: __ZNSt12_Vector_baseIiSaIiEEC2Ev, symObjAddr: 0x190, symBinAddr: 0x1000045C4, symSize: 0x20 }
  - { offsetInCU: 0x13240, offset: 0x13240, size: 0x8, addend: 0x0, symName: __ZNSt6vectorIiSaIiEEC1Ev, symObjAddr: 0x1B0, symBinAddr: 0x1000045E4, symSize: 0x20 }
  - { offsetInCU: 0x1329E, offset: 0x1329E, size: 0x8, addend: 0x0, symName: __ZNSt12_Vector_baseIiSaIiEE12_Vector_implD1Ev, symObjAddr: 0x164, symBinAddr: 0x100004598, symSize: 0x2C }
  - { offsetInCU: 0x132A6, offset: 0x132A6, size: 0x8, addend: 0x0, symName: __ZNSt12_Vector_baseIiSaIiEEC2Ev, symObjAddr: 0x190, symBinAddr: 0x1000045C4, symSize: 0x20 }
  - { offsetInCU: 0x132F5, offset: 0x132F5, size: 0x8, addend: 0x0, symName: __ZSt3minImERKT_S2_S2_, symObjAddr: 0x12C, symBinAddr: 0x100004560, symSize: 0x38 }
  - { offsetInCU: 0x132FD, offset: 0x132FD, size: 0x8, addend: 0x0, symName: __ZNSt12_Vector_baseIiSaIiEE12_Vector_implD1Ev, symObjAddr: 0x164, symBinAddr: 0x100004598, symSize: 0x2C }
  - { offsetInCU: 0x13321, offset: 0x13321, size: 0x8, addend: 0x0, symName: __ZNSt8__detail20_Prime_rehash_policy8_M_resetEm, symObjAddr: 0x108, symBinAddr: 0x10000453C, symSize: 0x24 }
  - { offsetInCU: 0x13329, offset: 0x13329, size: 0x8, addend: 0x0, symName: __ZSt3minImERKT_S2_S2_, symObjAddr: 0x12C, symBinAddr: 0x100004560, symSize: 0x38 }
  - { offsetInCU: 0x13364, offset: 0x13364, size: 0x8, addend: 0x0, symName: __ZNKSt8__detail20_Prime_rehash_policy8_M_stateEv, symObjAddr: 0xF0, symBinAddr: 0x100004524, symSize: 0x18 }
  - { offsetInCU: 0x1336C, offset: 0x1336C, size: 0x8, addend: 0x0, symName: __ZNSt8__detail20_Prime_rehash_policy8_M_resetEm, symObjAddr: 0x108, symBinAddr: 0x10000453C, symSize: 0x24 }
  - { offsetInCU: 0x133E6, offset: 0x133E6, size: 0x8, addend: 0x0, symName: __ZNSt8__detail20_Prime_rehash_policyC1Ef, symObjAddr: 0xC4, symBinAddr: 0x1000044F8, symSize: 0x2C }
  - { offsetInCU: 0x133EE, offset: 0x133EE, size: 0x8, addend: 0x0, symName: __ZNKSt8__detail20_Prime_rehash_policy8_M_stateEv, symObjAddr: 0xF0, symBinAddr: 0x100004524, symSize: 0x18 }
  - { offsetInCU: 0x133F7, offset: 0x133F7, size: 0x8, addend: 0x0, symName: __ZNKSt8__detail18_Mod_range_hashingclEmm, symObjAddr: 0x94, symBinAddr: 0x1000044C8, symSize: 0x30 }
  - { offsetInCU: 0x133FF, offset: 0x133FF, size: 0x8, addend: 0x0, symName: __ZNSt8__detail20_Prime_rehash_policyC1Ef, symObjAddr: 0xC4, symBinAddr: 0x1000044F8, symSize: 0x2C }
  - { offsetInCU: 0x1348B, offset: 0x1348B, size: 0x8, addend: 0x0, symName: __ZNSt8__detail15_Hash_node_baseC1Ev, symObjAddr: 0x78, symBinAddr: 0x1000044AC, symSize: 0x1C }
  - { offsetInCU: 0x13493, offset: 0x13493, size: 0x8, addend: 0x0, symName: __ZNKSt8__detail18_Mod_range_hashingclEmm, symObjAddr: 0x94, symBinAddr: 0x1000044C8, symSize: 0x30 }
  - { offsetInCU: 0x134B9, offset: 0x134B9, size: 0x8, addend: 0x0, symName: __ZNSt8__detail15_Hash_node_baseC2Ev, symObjAddr: 0x5C, symBinAddr: 0x100004490, symSize: 0x1C }
  - { offsetInCU: 0x134C1, offset: 0x134C1, size: 0x8, addend: 0x0, symName: __ZNSt8__detail15_Hash_node_baseC1Ev, symObjAddr: 0x78, symBinAddr: 0x1000044AC, symSize: 0x1C }
  - { offsetInCU: 0x134C3, offset: 0x134C3, size: 0x8, addend: 0x0, symName: __ZNKSt4hashIxEclEx, symObjAddr: 0x44, symBinAddr: 0x100004478, symSize: 0x18 }
  - { offsetInCU: 0x134CB, offset: 0x134CB, size: 0x8, addend: 0x0, symName: __ZNSt8__detail15_Hash_node_baseC2Ev, symObjAddr: 0x5C, symBinAddr: 0x100004490, symSize: 0x1C }
  - { offsetInCU: 0x13513, offset: 0x13513, size: 0x8, addend: 0x0, symName: __ZdlPvS_, symObjAddr: 0x2C, symBinAddr: 0x100004460, symSize: 0x18 }
  - { offsetInCU: 0x1351B, offset: 0x1351B, size: 0x8, addend: 0x0, symName: __ZNKSt4hashIxEclEx, symObjAddr: 0x44, symBinAddr: 0x100004478, symSize: 0x18 }
  - { offsetInCU: 0x13550, offset: 0x13550, size: 0x8, addend: 0x0, symName: __ZnwmPv, symObjAddr: 0x14, symBinAddr: 0x100004448, symSize: 0x18 }
  - { offsetInCU: 0x13558, offset: 0x13558, size: 0x8, addend: 0x0, symName: __ZdlPvS_, symObjAddr: 0x2C, symBinAddr: 0x100004460, symSize: 0x18 }
  - { offsetInCU: 0x135B8, offset: 0x135B8, size: 0x8, addend: 0x0, symName: __ZSt17__size_to_integerm, symObjAddr: 0x0, symBinAddr: 0x100004434, symSize: 0x14 }
  - { offsetInCU: 0x135C0, offset: 0x135C0, size: 0x8, addend: 0x0, symName: __ZnwmPv, symObjAddr: 0x14, symBinAddr: 0x100004448, symSize: 0x18 }
...
