---
triple:          'arm64-apple-darwin'
binary-path:     '/Users/dingkai/Code/IOI2024/Atcoder/Dabc337.gout'
relocations:
  - { offsetInCU: 0xBD, offset: 0xBD, size: 0x8, addend: 0x0, symName: __ZSt23__is_constant_evaluatedv, symObjAddr: 0x0, symBinAddr: 0x100003F38, symSize: 0x8 }
  - { offsetInCU: 0x861F, offset: 0x861F, size: 0x8, addend: 0x0, symName: __ZStL8__ioinit, symObjAddr: 0x2F268, symBinAddr: 0x10000C0E4, symSize: 0x0 }
  - { offsetInCU: 0x8752, offset: 0x8752, size: 0x8, addend: 0x0, symName: __Z4gridB5cxx11, symObjAddr: 0x2F270, symBinAddr: 0x10000C0E8, symSize: 0x0 }
  - { offsetInCU: 0x8A03, offset: 0x8A03, size: 0x8, addend: 0x0, symName: __GLOBAL__sub_I_Dabc337.cpp, symObjAddr: 0x25C8, symBinAddr: 0x100006500, symSize: 0x14 }
  - { offsetInCU: 0x8A71, offset: 0x8A71, size: 0x8, addend: 0x0, symName: __ZNSt6vectorINSt7__cxx1112basic_stringIcSt11char_traitsIcESaIcEEESaIS5_EED1Ev, symObjAddr: 0x256C, symBinAddr: 0x1000064A4, symSize: 0x5C }
  - { offsetInCU: 0x8AA0, offset: 0x8AA0, size: 0x8, addend: 0x0, symName: __Z41__static_initialization_and_destruction_0v, symObjAddr: 0x2508, symBinAddr: 0x100006440, symSize: 0x64 }
  - { offsetInCU: 0x8A90, offset: 0x8A90, size: 0x8, addend: 0x0, symName: __ZSt9__fill_a1IPSt5arrayIiLm3EES1_EN9__gnu_cxx11__enable_ifIXntsrSt11__is_scalarIT0_E7__valueEvE6__typeET_SA_RKS6_, symObjAddr: 0x24B0, symBinAddr: 0x1000063E8, symSize: 0x58 }
  - { offsetInCU: 0x8AEA, offset: 0x8AEA, size: 0x8, addend: 0x0, symName: __ZSt8__fill_aIPSt5arrayIiLm3EES1_EvT_S3_RKT0_, symObjAddr: 0x2480, symBinAddr: 0x1000063B8, symSize: 0x30 }
  - { offsetInCU: 0x8BB1, offset: 0x8BB1, size: 0x8, addend: 0x0, symName: __ZSt7forwardINSt7__cxx1112basic_stringIcSt11char_traitsIcESaIcEEEEOT_RNSt16remove_referenceIS6_E4typeE, symObjAddr: 0x246C, symBinAddr: 0x1000063A4, symSize: 0x14 }
  - { offsetInCU: 0x8BE1, offset: 0x8BE1, size: 0x8, addend: 0x0, symName: __ZSt10__fill_n_aIPSt5arrayIiLm3EEmS1_ET_S3_T0_RKT1_St26random_access_iterator_tag, symObjAddr: 0x23E8, symBinAddr: 0x100006320, symSize: 0x84 }
  - { offsetInCU: 0x8CCB, offset: 0x8CCB, size: 0x8, addend: 0x0, symName: __ZSt6fill_nIPSt5arrayIiLm3EEmS1_ET_S3_T0_RKT1_, symObjAddr: 0x23A0, symBinAddr: 0x1000062D8, symSize: 0x48 }
  - { offsetInCU: 0x8D4D, offset: 0x8D4D, size: 0x8, addend: 0x0, symName: __ZSt10_ConstructISt5arrayIiLm3EEJEEvPT_DpOT0_, symObjAddr: 0x235C, symBinAddr: 0x100006294, symSize: 0x44 }
  - { offsetInCU: 0x8D86, offset: 0x8D86, size: 0x8, addend: 0x0, symName: __ZSt11__addressofISt5arrayIiLm3EEEPT_RS2_, symObjAddr: 0x2348, symBinAddr: 0x100006280, symSize: 0x14 }
  - { offsetInCU: 0x8DCA, offset: 0x8DCA, size: 0x8, addend: 0x0, symName: __ZSt8_DestroyINSt7__cxx1112basic_stringIcSt11char_traitsIcESaIcEEEEvPT_, symObjAddr: 0x2328, symBinAddr: 0x100006260, symSize: 0x20 }
  - { offsetInCU: 0x8DFA, offset: 0x8DFA, size: 0x8, addend: 0x0, symName: __ZSt19__relocate_object_aINSt7__cxx1112basic_stringIcSt11char_traitsIcESaIcEEES5_SaIS5_EEvPT_PT0_RT1_, symObjAddr: 0x2258, symBinAddr: 0x100006190, symSize: 0xD0 }
  - { offsetInCU: 0x8F2E, offset: 0x8F2E, size: 0x8, addend: 0x0, symName: __ZSt10_ConstructINSt7__cxx1112basic_stringIcSt11char_traitsIcESaIcEEEJEEvPT_DpOT0_, symObjAddr: 0x222C, symBinAddr: 0x100006164, symSize: 0x2C }
  - { offsetInCU: 0x8F7B, offset: 0x8F7B, size: 0x8, addend: 0x0, symName: __ZSt14__relocate_a_1ISt5arrayIiLm3EES1_ENSt9enable_ifIXsrSt24__is_bitwise_relocatableIT_vE5valueEPS4_E4typeES6_S6_S6_RSaIT0_E, symObjAddr: 0x219C, symBinAddr: 0x1000060D4, symSize: 0x90 }
  - { offsetInCU: 0x8FF5, offset: 0x8FF5, size: 0x8, addend: 0x0, symName: __ZSt12__niter_baseIPSt5arrayIiLm3EEET_S3_, symObjAddr: 0x2188, symBinAddr: 0x1000060C0, symSize: 0x14 }
  - { offsetInCU: 0x902A, offset: 0x902A, size: 0x8, addend: 0x0, symName: __ZNSt15__new_allocatorISt5arrayIiLm3EEE8allocateEmPKv, symObjAddr: 0x20F8, symBinAddr: 0x100006030, symSize: 0x90 }
  - { offsetInCU: 0x9094, offset: 0x9094, size: 0x8, addend: 0x0, symName: __ZNSt27__uninitialized_default_n_1ILb1EE18__uninit_default_nIPSt5arrayIiLm3EEmEET_S5_T0_, symObjAddr: 0x2094, symBinAddr: 0x100005FCC, symSize: 0x64 }
  - { offsetInCU: 0x910A, offset: 0x910A, size: 0x8, addend: 0x0, symName: __ZNSt15__new_allocatorISt5arrayIiLm3EEE10deallocateEPS1_m, symObjAddr: 0x2058, symBinAddr: 0x100005F90, symSize: 0x3C }
  - { offsetInCU: 0x9160, offset: 0x9160, size: 0x8, addend: 0x0, symName: __ZNSt12_Destroy_auxILb0EE9__destroyIPNSt7__cxx1112basic_stringIcSt11char_traitsIcESaIcEEEEEvT_S9_, symObjAddr: 0x200C, symBinAddr: 0x100005F44, symSize: 0x4C }
  - { offsetInCU: 0x919F, offset: 0x919F, size: 0x8, addend: 0x0, symName: __ZSt14__relocate_a_1IPNSt7__cxx1112basic_stringIcSt11char_traitsIcESaIcEEES6_SaIS5_EET0_T_S9_S8_RT1_, symObjAddr: 0x1F88, symBinAddr: 0x100005EC0, symSize: 0x84 }
  - { offsetInCU: 0x9222, offset: 0x9222, size: 0x8, addend: 0x0, symName: __ZSt12__niter_baseIPNSt7__cxx1112basic_stringIcSt11char_traitsIcESaIcEEEET_S7_, symObjAddr: 0x1F74, symBinAddr: 0x100005EAC, symSize: 0x14 }
  - { offsetInCU: 0x9257, offset: 0x9257, size: 0x8, addend: 0x0, symName: __ZNSt15__new_allocatorINSt7__cxx1112basic_stringIcSt11char_traitsIcESaIcEEEE8allocateEmPKv, symObjAddr: 0x1EF8, symBinAddr: 0x100005E30, symSize: 0x7C }
  - { offsetInCU: 0x92C1, offset: 0x92C1, size: 0x8, addend: 0x0, symName: __ZNSt27__uninitialized_default_n_1ILb0EE18__uninit_default_nIPNSt7__cxx1112basic_stringIcSt11char_traitsIcESaIcEEEmEET_S9_T0_, symObjAddr: 0x1EA0, symBinAddr: 0x100005DD8, symSize: 0x58 }
  - { offsetInCU: 0x932F, offset: 0x932F, size: 0x8, addend: 0x0, symName: __ZSt12__relocate_aIPSt5arrayIiLm3EES2_SaIS1_EET0_T_S5_S4_RT1_, symObjAddr: 0x1E44, symBinAddr: 0x100005D7C, symSize: 0x5C }
  - { offsetInCU: 0x93C7, offset: 0x93C7, size: 0x8, addend: 0x0, symName: __ZNKSt12_Vector_baseISt5arrayIiLm3EESaIS1_EE19_M_get_Tp_allocatorEv, symObjAddr: 0x1E30, symBinAddr: 0x100005D68, symSize: 0x14 }
  - { offsetInCU: 0x93EB, offset: 0x93EB, size: 0x8, addend: 0x0, symName: __ZNSt12_Destroy_auxILb1EE9__destroyIPSt5arrayIiLm3EEEEvT_S5_, symObjAddr: 0x1E18, symBinAddr: 0x100005D50, symSize: 0x18 }
  - { offsetInCU: 0x941C, offset: 0x941C, size: 0x8, addend: 0x0, symName: __ZSt25__uninitialized_default_nIPSt5arrayIiLm3EEmET_S3_T0_, symObjAddr: 0x1DEC, symBinAddr: 0x100005D24, symSize: 0x2C }
  - { offsetInCU: 0x9500, offset: 0x9500, size: 0x8, addend: 0x0, symName: __ZNSt12_Vector_baseISt5arrayIiLm3EESaIS1_EE17_Vector_impl_dataC2Ev, symObjAddr: 0x1DC0, symBinAddr: 0x100005CF8, symSize: 0x2C }
  - { offsetInCU: 0x94FA, offset: 0x94FA, size: 0x8, addend: 0x0, symName: __ZSt3minImERKT_S2_S2_, symObjAddr: 0x1D88, symBinAddr: 0x100005CC0, symSize: 0x38 }
  - { offsetInCU: 0x954D, offset: 0x954D, size: 0x8, addend: 0x0, symName: __ZSt8_DestroyIPNSt7__cxx1112basic_stringIcSt11char_traitsIcESaIcEEEEvT_S7_, symObjAddr: 0x1D60, symBinAddr: 0x100005C98, symSize: 0x28 }
  - { offsetInCU: 0x958C, offset: 0x958C, size: 0x8, addend: 0x0, symName: __ZSt12__relocate_aIPNSt7__cxx1112basic_stringIcSt11char_traitsIcESaIcEEES6_SaIS5_EET0_T_S9_S8_RT1_, symObjAddr: 0x1D04, symBinAddr: 0x100005C3C, symSize: 0x5C }
  - { offsetInCU: 0x9620, offset: 0x9620, size: 0x8, addend: 0x0, symName: __ZSt3maxImERKT_S2_S2_, symObjAddr: 0x1CCC, symBinAddr: 0x100005C04, symSize: 0x38 }
  - { offsetInCU: 0x9661, offset: 0x9661, size: 0x8, addend: 0x0, symName: __ZSt25__uninitialized_default_nIPNSt7__cxx1112basic_stringIcSt11char_traitsIcESaIcEEEmET_S7_T0_, symObjAddr: 0x1CA0, symBinAddr: 0x100005BD8, symSize: 0x2C }
  - { offsetInCU: 0x96C0, offset: 0x96C0, size: 0x8, addend: 0x0, symName: __ZNKSt12_Vector_baseINSt7__cxx1112basic_stringIcSt11char_traitsIcESaIcEEESaIS5_EE19_M_get_Tp_allocatorEv, symObjAddr: 0x1C8C, symBinAddr: 0x100005BC4, symSize: 0x14 }
  - { offsetInCU: 0x96E4, offset: 0x96E4, size: 0x8, addend: 0x0, symName: __ZNSt6vectorINSt7__cxx1112basic_stringIcSt11char_traitsIcESaIcEEESaIS5_EE11_S_max_sizeERKS6_, symObjAddr: 0x1C38, symBinAddr: 0x100005B70, symSize: 0x54 }
  - { offsetInCU: 0x9795, offset: 0x9795, size: 0x8, addend: 0x0, symName: __ZNSt15__new_allocatorINSt7__cxx1112basic_stringIcSt11char_traitsIcESaIcEEEE10deallocateEPS5_m, symObjAddr: 0x1C08, symBinAddr: 0x100005B40, symSize: 0x30 }
  - { offsetInCU: 0x9804, offset: 0x9804, size: 0x8, addend: 0x0, symName: __ZNSt6vectorISt5arrayIiLm3EESaIS1_EE11_S_relocateEPS1_S4_S4_RS2_, symObjAddr: 0x1BD4, symBinAddr: 0x100005B0C, symSize: 0x34 }
  - { offsetInCU: 0x9860, offset: 0x9860, size: 0x8, addend: 0x0, symName: __ZNSt12_Vector_baseISt5arrayIiLm3EESaIS1_EE11_M_allocateEm, symObjAddr: 0x1B84, symBinAddr: 0x100005ABC, symSize: 0x50 }
  - { offsetInCU: 0x98C2, offset: 0x98C2, size: 0x8, addend: 0x0, symName: __ZNKSt6vectorISt5arrayIiLm3EESaIS1_EE12_M_check_lenEmPKc, symObjAddr: 0x1AB4, symBinAddr: 0x1000059EC, symSize: 0xD0 }
  - { offsetInCU: 0x991A, offset: 0x991A, size: 0x8, addend: 0x0, symName: __ZNKSt6vectorISt5arrayIiLm3EESaIS1_EE8max_sizeEv, symObjAddr: 0x1A94, symBinAddr: 0x1000059CC, symSize: 0x20 }
  - { offsetInCU: 0x993E, offset: 0x993E, size: 0x8, addend: 0x0, symName: __ZSt8_DestroyIPSt5arrayIiLm3EEEvT_S3_, symObjAddr: 0x1A6C, symBinAddr: 0x1000059A4, symSize: 0x28 }
  - { offsetInCU: 0x997D, offset: 0x997D, size: 0x8, addend: 0x0, symName: __ZSt27__uninitialized_default_n_aIPSt5arrayIiLm3EEmS1_ET_S3_T0_RSaIT1_E, symObjAddr: 0x1A44, symBinAddr: 0x10000597C, symSize: 0x28 }
  - { offsetInCU: 0x99DC, offset: 0x99DC, size: 0x8, addend: 0x0, symName: __ZNSt12_Vector_baseISt5arrayIiLm3EESaIS1_EE13_M_deallocateEPS1_m, symObjAddr: 0x19EC, symBinAddr: 0x100005924, symSize: 0x58 }
  - { offsetInCU: 0x9A56, offset: 0x9A56, size: 0x8, addend: 0x0, symName: __ZNSt12_Vector_baseISt5arrayIiLm3EESaIS1_EE17_M_create_storageEm, symObjAddr: 0x1980, symBinAddr: 0x1000058B8, symSize: 0x6C }
  - { offsetInCU: 0x9AF0, offset: 0x9AF0, size: 0x8, addend: 0x0, symName: __ZNSt12_Vector_baseISt5arrayIiLm3EESaIS1_EE12_Vector_implC1ERKS2_, symObjAddr: 0x1934, symBinAddr: 0x10000586C, symSize: 0x4C }
  - { offsetInCU: 0x9B4C, offset: 0x9B4C, size: 0x8, addend: 0x0, symName: __ZNSt6vectorISt5arrayIiLm3EESaIS1_EE11_S_max_sizeERKS2_, symObjAddr: 0x18D8, symBinAddr: 0x100005810, symSize: 0x5C }
  - { offsetInCU: 0x9C31, offset: 0x9C31, size: 0x8, addend: 0x0, symName: __ZNSt6vectorINSt7__cxx1112basic_stringIcSt11char_traitsIcESaIcEEESaIS5_EE11_S_relocateEPS5_S8_S8_RS6_, symObjAddr: 0x18A4, symBinAddr: 0x1000057DC, symSize: 0x34 }
  - { offsetInCU: 0x9C8D, offset: 0x9C8D, size: 0x8, addend: 0x0, symName: __ZNSt12_Vector_baseINSt7__cxx1112basic_stringIcSt11char_traitsIcESaIcEEESaIS5_EE11_M_allocateEm, symObjAddr: 0x1854, symBinAddr: 0x10000578C, symSize: 0x50 }
  - { offsetInCU: 0x9CEF, offset: 0x9CEF, size: 0x8, addend: 0x0, symName: __ZNKSt6vectorINSt7__cxx1112basic_stringIcSt11char_traitsIcESaIcEEESaIS5_EE12_M_check_lenEmPKc, symObjAddr: 0x1784, symBinAddr: 0x1000056BC, symSize: 0xD0 }
  - { offsetInCU: 0x9D43, offset: 0x9D43, size: 0x8, addend: 0x0, symName: __ZSt27__uninitialized_default_n_aIPNSt7__cxx1112basic_stringIcSt11char_traitsIcESaIcEEEmS5_ET_S7_T0_RSaIT1_E, symObjAddr: 0x175C, symBinAddr: 0x100005694, symSize: 0x28 }
  - { offsetInCU: 0x9DA2, offset: 0x9DA2, size: 0x8, addend: 0x0, symName: __ZNSt12_Vector_baseINSt7__cxx1112basic_stringIcSt11char_traitsIcESaIcEEESaIS5_EE19_M_get_Tp_allocatorEv, symObjAddr: 0x1748, symBinAddr: 0x100005680, symSize: 0x14 }
  - { offsetInCU: 0x9DCA, offset: 0x9DCA, size: 0x8, addend: 0x0, symName: __ZNKSt6vectorINSt7__cxx1112basic_stringIcSt11char_traitsIcESaIcEEESaIS5_EE8max_sizeEv, symObjAddr: 0x1728, symBinAddr: 0x100005660, symSize: 0x20 }
  - { offsetInCU: 0x9E67, offset: 0x9E67, size: 0x8, addend: 0x0, symName: __ZNSt6vectorISt5arrayIiLm3EESaIS1_EE17_M_default_appendEm, symObjAddr: 0x14E0, symBinAddr: 0x100005418, symSize: 0x248 }
  - { offsetInCU: 0x9F0D, offset: 0x9F0D, size: 0x8, addend: 0x0, symName: __ZNKSt6vectorISt5arrayIiLm3EESaIS1_EE4sizeEv, symObjAddr: 0x14AC, symBinAddr: 0x1000053E4, symSize: 0x34 }
  - { offsetInCU: 0x9F35, offset: 0x9F35, size: 0x8, addend: 0x0, symName: __ZNSt6vectorISt5arrayIiLm3EESaIS1_EE15_M_erase_at_endEPS1_, symObjAddr: 0x1418, symBinAddr: 0x100005350, symSize: 0x94 }
  - { offsetInCU: 0x9FF9, offset: 0x9FF9, size: 0x8, addend: 0x0, symName: __ZNSt12_Vector_baseISt5arrayIiLm3EESaIS1_EE19_M_get_Tp_allocatorEv, symObjAddr: 0x1404, symBinAddr: 0x10000533C, symSize: 0x14 }
  - { offsetInCU: 0xA021, offset: 0xA021, size: 0x8, addend: 0x0, symName: __ZNSt6vectorISt5arrayIiLm3EESaIS1_EE21_M_default_initializeEm, symObjAddr: 0x13B4, symBinAddr: 0x1000052EC, symSize: 0x50 }
  - { offsetInCU: 0xA0A6, offset: 0xA0A6, size: 0x8, addend: 0x0, symName: __ZNSt12_Vector_baseISt5arrayIiLm3EESaIS1_EED2Ev, symObjAddr: 0x1358, symBinAddr: 0x100005290, symSize: 0x5C }
  - { offsetInCU: 0xA101, offset: 0xA101, size: 0x8, addend: 0x0, symName: __ZNSt12_Vector_baseISt5arrayIiLm3EESaIS1_EEC2EmRKS2_, symObjAddr: 0x1304, symBinAddr: 0x10000523C, symSize: 0x54 }
  - { offsetInCU: 0xA163, offset: 0xA163, size: 0x8, addend: 0x0, symName: __ZNSt12_Vector_baseISt5arrayIiLm3EESaIS1_EE12_Vector_implD1Ev, symObjAddr: 0x12D8, symBinAddr: 0x100005210, symSize: 0x2C }
  - { offsetInCU: 0xA16A, offset: 0xA16A, size: 0x8, addend: 0x0, symName: __ZNSt6vectorISt5arrayIiLm3EESaIS1_EE17_S_check_init_lenEmRKS2_, symObjAddr: 0x1254, symBinAddr: 0x10000518C, symSize: 0x84 }
  - { offsetInCU: 0xA25E, offset: 0xA25E, size: 0x8, addend: 0x0, symName: __ZNSt15__new_allocatorISt5arrayIiLm3EEED2Ev, symObjAddr: 0x1240, symBinAddr: 0x100005178, symSize: 0x14 }
  - { offsetInCU: 0xA26A, offset: 0xA26A, size: 0x8, addend: 0x0, symName: __ZSt11__addressofINSt7__cxx1112basic_stringIcSt11char_traitsIcESaIcEEEEPT_RS6_, symObjAddr: 0x122C, symBinAddr: 0x100005164, symSize: 0x14 }
  - { offsetInCU: 0xA29E, offset: 0xA29E, size: 0x8, addend: 0x0, symName: __ZNSt6vectorINSt7__cxx1112basic_stringIcSt11char_traitsIcESaIcEEESaIS5_EE15_M_erase_at_endEPS5_, symObjAddr: 0x11A4, symBinAddr: 0x1000050DC, symSize: 0x88 }
  - { offsetInCU: 0xA32A, offset: 0xA32A, size: 0x8, addend: 0x0, symName: __ZNSt6vectorINSt7__cxx1112basic_stringIcSt11char_traitsIcESaIcEEESaIS5_EE17_M_default_appendEm, symObjAddr: 0xFA4, symBinAddr: 0x100004EDC, symSize: 0x200 }
  - { offsetInCU: 0xA3D0, offset: 0xA3D0, size: 0x8, addend: 0x0, symName: __ZNKSt6vectorINSt7__cxx1112basic_stringIcSt11char_traitsIcESaIcEEESaIS5_EE4sizeEv, symObjAddr: 0xF7C, symBinAddr: 0x100004EB4, symSize: 0x28 }
  - { offsetInCU: 0xA3F8, offset: 0xA3F8, size: 0x8, addend: 0x0, symName: __ZNSt12_Vector_baseINSt7__cxx1112basic_stringIcSt11char_traitsIcESaIcEEESaIS5_EE13_M_deallocateEPS5_m, symObjAddr: 0xF24, symBinAddr: 0x100004E5C, symSize: 0x58 }
  - { offsetInCU: 0xA4E0, offset: 0xA4E0, size: 0x8, addend: 0x0, symName: __ZNSt15__new_allocatorINSt7__cxx1112basic_stringIcSt11char_traitsIcESaIcEEEED2Ev, symObjAddr: 0xF10, symBinAddr: 0x100004E48, symSize: 0x14 }
  - { offsetInCU: 0xA533, offset: 0xA533, size: 0x8, addend: 0x0, symName: __ZNSt12_Vector_baseINSt7__cxx1112basic_stringIcSt11char_traitsIcESaIcEEESaIS5_EE17_Vector_impl_dataC2Ev, symObjAddr: 0xEE4, symBinAddr: 0x100004E1C, symSize: 0x2C }
  - { offsetInCU: 0xA509, offset: 0xA509, size: 0x8, addend: 0x0, symName: __ZSt4moveIRNSt7__cxx1112basic_stringIcSt11char_traitsIcESaIcEEEEONSt16remove_referenceIT_E4typeEOS8_, symObjAddr: 0xED0, symBinAddr: 0x100004E08, symSize: 0x14 }
  - { offsetInCU: 0xA53F, offset: 0xA53F, size: 0x8, addend: 0x0, symName: __ZSt12__str_concatINSt7__cxx1112basic_stringIcSt11char_traitsIcESaIcEEEET_PKNS6_10value_typeENS6_9size_typeES9_SA_RKNS6_14allocator_typeE, symObjAddr: 0xDF0, symBinAddr: 0x100004D28, symSize: 0xE0 }
  - { offsetInCU: 0xA6B9, offset: 0xA6B9, size: 0x8, addend: 0x0, symName: __ZNSt15__new_allocatorIcED2Ev, symObjAddr: 0xDDC, symBinAddr: 0x100004D14, symSize: 0x14 }
  - { offsetInCU: 0xA6BF, offset: 0xA6BF, size: 0x8, addend: 0x0, symName: __ZN9__gnu_cxx11char_traitsIcE2eqERKcS3_, symObjAddr: 0xDAC, symBinAddr: 0x100004CE4, symSize: 0x30 }
  - { offsetInCU: 0xA6FB, offset: 0xA6FB, size: 0x8, addend: 0x0, symName: __ZSt3minIiERKT_S2_S2_, symObjAddr: 0xD74, symBinAddr: 0x100004CAC, symSize: 0x38 }
  - { offsetInCU: 0xA73E, offset: 0xA73E, size: 0x8, addend: 0x0, symName: __ZNSt5arrayIiLm3EEixEm, symObjAddr: 0xD50, symBinAddr: 0x100004C88, symSize: 0x24 }
  - { offsetInCU: 0xA775, offset: 0xA775, size: 0x8, addend: 0x0, symName: __ZNSt6vectorISt5arrayIiLm3EESaIS1_EEixEm, symObjAddr: 0xD1C, symBinAddr: 0x100004C54, symSize: 0x34 }
  - { offsetInCU: 0xA7AD, offset: 0xA7AD, size: 0x8, addend: 0x0, symName: __ZNSt6vectorISt5arrayIiLm3EESaIS1_EE6resizeEm, symObjAddr: 0xC60, symBinAddr: 0x100004B98, symSize: 0xBC }
  - { offsetInCU: 0xA7E5, offset: 0xA7E5, size: 0x8, addend: 0x0, symName: __ZNSt6vectorISt5arrayIiLm3EESaIS1_EE5clearEv, symObjAddr: 0xC34, symBinAddr: 0x100004B6C, symSize: 0x2C }
  - { offsetInCU: 0xA853, offset: 0xA853, size: 0x8, addend: 0x0, symName: __ZNSt6vectorISt5arrayIiLm3EESaIS1_EED1Ev, symObjAddr: 0xBD8, symBinAddr: 0x100004B10, symSize: 0x5C }
  - { offsetInCU: 0xA8E0, offset: 0xA8E0, size: 0x8, addend: 0x0, symName: __ZNSt6vectorISt5arrayIiLm3EESaIS1_EEC1EmRKS2_, symObjAddr: 0xB70, symBinAddr: 0x100004AA8, symSize: 0x68 }
  - { offsetInCU: 0xA917, offset: 0xA917, size: 0x8, addend: 0x0, symName: __ZStplIcSt11char_traitsIcESaIcEENSt7__cxx1112basic_stringIT_T0_T1_EEOS8_PKS5_, symObjAddr: 0xB2C, symBinAddr: 0x100004A64, symSize: 0x44 }
  - { offsetInCU: 0xA96A, offset: 0xA96A, size: 0x8, addend: 0x0, symName: __ZStplIcSt11char_traitsIcESaIcEENSt7__cxx1112basic_stringIT_T0_T1_EEPKS5_RKS8_, symObjAddr: 0xA80, symBinAddr: 0x1000049B8, symSize: 0xAC }
  - { offsetInCU: 0xA9FF, offset: 0xA9FF, size: 0x8, addend: 0x0, symName: __ZNSt6vectorINSt7__cxx1112basic_stringIcSt11char_traitsIcESaIcEEESaIS5_EEixEm, symObjAddr: 0xA58, symBinAddr: 0x100004990, symSize: 0x28 }
  - { offsetInCU: 0xAA37, offset: 0xAA37, size: 0x8, addend: 0x0, symName: __ZNSt6vectorINSt7__cxx1112basic_stringIcSt11char_traitsIcESaIcEEESaIS5_EE6resizeEm, symObjAddr: 0x9A8, symBinAddr: 0x1000048E0, symSize: 0xB0 }
  - { offsetInCU: 0xAAE1, offset: 0xAAE1, size: 0x8, addend: 0x0, symName: __ZNSt12_Vector_baseINSt7__cxx1112basic_stringIcSt11char_traitsIcESaIcEEESaIS5_EED2Ev, symObjAddr: 0x958, symBinAddr: 0x100004890, symSize: 0x50 }
  - { offsetInCU: 0xAB48, offset: 0xAB48, size: 0x8, addend: 0x0, symName: __ZNSt12_Vector_baseINSt7__cxx1112basic_stringIcSt11char_traitsIcESaIcEEESaIS5_EE12_Vector_implC1Ev, symObjAddr: 0x920, symBinAddr: 0x100004858, symSize: 0x38 }
  - { offsetInCU: 0xAB68, offset: 0xAB68, size: 0x8, addend: 0x0, symName: __ZN9__gnu_cxx11char_traitsIcE6lengthEPKc, symObjAddr: 0x8C4, symBinAddr: 0x1000047FC, symSize: 0x5C }
  - { offsetInCU: 0xABA8, offset: 0xABA8, size: 0x8, addend: 0x0, symName: _main, symObjAddr: 0xE0, symBinAddr: 0x100004018, symSize: 0x7E4 }
  - { offsetInCU: 0xAEAF, offset: 0xAEAF, size: 0x8, addend: 0x0, symName: __ZNSt6vectorINSt7__cxx1112basic_stringIcSt11char_traitsIcESaIcEEESaIS5_EEC1Ev, symObjAddr: 0xC0, symBinAddr: 0x100003FF8, symSize: 0x20 }
  - { offsetInCU: 0xAEF2, offset: 0xAEF2, size: 0x8, addend: 0x0, symName: __ZNSt12_Vector_baseINSt7__cxx1112basic_stringIcSt11char_traitsIcESaIcEEESaIS5_EEC2Ev, symObjAddr: 0xA0, symBinAddr: 0x100003FD8, symSize: 0x20 }
  - { offsetInCU: 0xAF49, offset: 0xAF49, size: 0x8, addend: 0x0, symName: __ZNSt12_Vector_baseINSt7__cxx1112basic_stringIcSt11char_traitsIcESaIcEEESaIS5_EE12_Vector_implD1Ev, symObjAddr: 0x74, symBinAddr: 0x100003FAC, symSize: 0x2C }
  - { offsetInCU: 0xAF2B, offset: 0xAF2B, size: 0x8, addend: 0x0, symName: __ZNSt11char_traitsIcE6lengthEPKc, symObjAddr: 0x34, symBinAddr: 0x100003F6C, symSize: 0x40 }
  - { offsetInCU: 0xAF63, offset: 0xAF63, size: 0x8, addend: 0x0, symName: __ZnwmPv, symObjAddr: 0x1C, symBinAddr: 0x100003F54, symSize: 0x18 }
  - { offsetInCU: 0xAF8E, offset: 0xAF8E, size: 0x8, addend: 0x0, symName: __ZSt17__size_to_integerm, symObjAddr: 0x8, symBinAddr: 0x100003F40, symSize: 0x14 }
  - { offsetInCU: 0xAFB7, offset: 0xAFB7, size: 0x8, addend: 0x0, symName: __ZSt23__is_constant_evaluatedv, symObjAddr: 0x0, symBinAddr: 0x100003F38, symSize: 0x8 }
...
