---
triple:          'arm64-apple-darwin'
binary-path:     '/Users/dingkai/Code/IOI2024/CSES/SortingAndSearch/test2.gout'
relocations:
  - { offsetInCU: 0xC3, offset: 0xC3, size: 0x8, addend: 0x0, symName: __ZnwmPv, symObjAddr: 0x0, symBinAddr: 0x1000037E8, symSize: 0x18 }
  - { offsetInCU: 0x366D, offset: 0x366D, size: 0x8, addend: 0x0, symName: __ZN10__gnu_pbds6detailL9g_a_sizesE, symObjAddr: 0x4920, symBinAddr: 0x100008990, symSize: 0x0 }
  - { offsetInCU: 0x3800, offset: 0x3800, size: 0x8, addend: 0x0, symName: __ZNSt3tr112_GLOBAL__N_16ignoreE, symObjAddr: 0x644E8, symBinAddr: 0x1000100A2, symSize: 0x0 }
  - { offsetInCU: 0x3E5B, offset: 0x3E5B, size: 0x8, addend: 0x0, symName: __ZStL8__ioinit, symObjAddr: 0x644E9, symBinAddr: 0x1000100A3, symSize: 0x0 }
  - { offsetInCU: 0xB7E7, offset: 0xB7E7, size: 0x8, addend: 0x0, symName: __ZN10__gnu_pbds6detail19bin_search_tree_setISt5arrayIiLm2EENS_9null_typeESt4lessIS3_ENS0_11tree_traitsIS3_S4_S6_NS_33tree_order_statistics_node_updateENS_11rb_tree_tagESaIcEEESA_E16s_node_allocatorE, symObjAddr: 0x54B8, symBinAddr: 0x100010000, symSize: 0x0 }
  - { offsetInCU: 0xB795, offset: 0xB795, size: 0x8, addend: 0x0, symName: __ZN10__gnu_pbds6detail12cond_dealtorINS0_13rb_tree_node_ISt5arrayIiLm2EEmSaIcEEES5_E7s_allocE, symObjAddr: 0x54B9, symBinAddr: 0x100010001, symSize: 0x0 }
  - { offsetInCU: 0xBA53, offset: 0xBA53, size: 0x8, addend: 0x0, symName: __ZNSt8__detail30__integer_to_chars_is_unsignedIjEE, symObjAddr: 0x502E, symBinAddr: 0x10000909E, symSize: 0x0 }
  - { offsetInCU: 0xBA6D, offset: 0xBA6D, size: 0x8, addend: 0x0, symName: __ZNSt8__detail30__integer_to_chars_is_unsignedImEE, symObjAddr: 0x502F, symBinAddr: 0x10000909F, symSize: 0x0 }
  - { offsetInCU: 0xBA87, offset: 0xBA87, size: 0x8, addend: 0x0, symName: __ZNSt8__detail30__integer_to_chars_is_unsignedIyEE, symObjAddr: 0x5030, symBinAddr: 0x1000090A0, symSize: 0x0 }
  - { offsetInCU: 0xBAAF, offset: 0xBAAF, size: 0x8, addend: 0x0, symName: __GLOBAL__sub_I_test2.cpp, symObjAddr: 0x4908, symBinAddr: 0x1000080F0, symSize: 0x14 }
  - { offsetInCU: 0xBB20, offset: 0xBB20, size: 0x8, addend: 0x0, symName: __ZNSaIN10__gnu_pbds6detail13rb_tree_node_ISt5arrayIiLm2EEmSaIcEEEED1Ev, symObjAddr: 0x48E8, symBinAddr: 0x1000080D0, symSize: 0x20 }
  - { offsetInCU: 0xBB28, offset: 0xBB28, size: 0x8, addend: 0x0, symName: __GLOBAL__sub_I_test2.cpp, symObjAddr: 0x4908, symBinAddr: 0x1000080F0, symSize: 0x14 }
  - { offsetInCU: 0xBB07, offset: 0xBB07, size: 0x8, addend: 0x0, symName: __ZN10__gnu_pbds6detail19bin_search_tree_setISt5arrayIiLm2EENS_9null_typeESt4lessIS3_ENS0_11tree_traitsIS3_S4_S6_NS_33tree_order_statistics_node_updateENS_11rb_tree_tagESaIcEEESA_E10get_cmp_fnEv, symObjAddr: 0x48D4, symBinAddr: 0x1000080BC, symSize: 0x14 }
  - { offsetInCU: 0xBB0F, offset: 0xBB0F, size: 0x8, addend: 0x0, symName: __ZNSaIN10__gnu_pbds6detail13rb_tree_node_ISt5arrayIiLm2EEmSaIcEEEED1Ev, symObjAddr: 0x48E8, symBinAddr: 0x1000080D0, symSize: 0x20 }
  - { offsetInCU: 0xBB36, offset: 0xBB36, size: 0x8, addend: 0x0, symName: __ZN10__gnu_pbds6detail19bin_search_tree_setISt5arrayIiLm2EENS_9null_typeESt4lessIS3_ENS0_11tree_traitsIS3_S4_S6_NS_33tree_order_statistics_node_updateENS_11rb_tree_tagESaIcEEESA_E8node_endEv, symObjAddr: 0x48B0, symBinAddr: 0x100008098, symSize: 0x24 }
  - { offsetInCU: 0xBB3E, offset: 0xBB3E, size: 0x8, addend: 0x0, symName: __ZN10__gnu_pbds6detail19bin_search_tree_setISt5arrayIiLm2EENS_9null_typeESt4lessIS3_ENS0_11tree_traitsIS3_S4_S6_NS_33tree_order_statistics_node_updateENS_11rb_tree_tagESaIcEEESA_E10get_cmp_fnEv, symObjAddr: 0x48D4, symBinAddr: 0x1000080BC, symSize: 0x14 }
  - { offsetInCU: 0xBB65, offset: 0xBB65, size: 0x8, addend: 0x0, symName: __ZNK10__gnu_pbds6detail19bin_search_tree_setISt5arrayIiLm2EENS_9null_typeESt4lessIS3_ENS0_11tree_traitsIS3_S4_S6_NS_33tree_order_statistics_node_updateENS_11rb_tree_tagESaIcEEESA_E8node_endEv, symObjAddr: 0x488C, symBinAddr: 0x100008074, symSize: 0x24 }
  - { offsetInCU: 0xBB6D, offset: 0xBB6D, size: 0x8, addend: 0x0, symName: __ZN10__gnu_pbds6detail19bin_search_tree_setISt5arrayIiLm2EENS_9null_typeESt4lessIS3_ENS0_11tree_traitsIS3_S4_S6_NS_33tree_order_statistics_node_updateENS_11rb_tree_tagESaIcEEESA_E8node_endEv, symObjAddr: 0x48B0, symBinAddr: 0x100008098, symSize: 0x24 }
  - { offsetInCU: 0xBB94, offset: 0xBB94, size: 0x8, addend: 0x0, symName: __ZN10__gnu_pbds6detail19bin_search_tree_setISt5arrayIiLm2EENS_9null_typeESt4lessIS3_ENS0_11tree_traitsIS3_S4_S6_NS_33tree_order_statistics_node_updateENS_11rb_tree_tagESaIcEEESA_E10node_beginEv, symObjAddr: 0x4860, symBinAddr: 0x100008048, symSize: 0x2C }
  - { offsetInCU: 0xBB9C, offset: 0xBB9C, size: 0x8, addend: 0x0, symName: __ZNK10__gnu_pbds6detail19bin_search_tree_setISt5arrayIiLm2EENS_9null_typeESt4lessIS3_ENS0_11tree_traitsIS3_S4_S6_NS_33tree_order_statistics_node_updateENS_11rb_tree_tagESaIcEEESA_E8node_endEv, symObjAddr: 0x488C, symBinAddr: 0x100008074, symSize: 0x24 }
  - { offsetInCU: 0xBBC3, offset: 0xBBC3, size: 0x8, addend: 0x0, symName: __ZNK10__gnu_pbds6detail19bin_search_tree_setISt5arrayIiLm2EENS_9null_typeESt4lessIS3_ENS0_11tree_traitsIS3_S4_S6_NS_33tree_order_statistics_node_updateENS_11rb_tree_tagESaIcEEESA_E10node_beginEv, symObjAddr: 0x4834, symBinAddr: 0x10000801C, symSize: 0x2C }
  - { offsetInCU: 0xBBCB, offset: 0xBBCB, size: 0x8, addend: 0x0, symName: __ZN10__gnu_pbds6detail19bin_search_tree_setISt5arrayIiLm2EENS_9null_typeESt4lessIS3_ENS0_11tree_traitsIS3_S4_S6_NS_33tree_order_statistics_node_updateENS_11rb_tree_tagESaIcEEESA_E10node_beginEv, symObjAddr: 0x4860, symBinAddr: 0x100008048, symSize: 0x2C }
  - { offsetInCU: 0xBBF2, offset: 0xBBF2, size: 0x8, addend: 0x0, symName: __ZNK10__gnu_pbds6detail19bin_search_tree_setISt5arrayIiLm2EENS_9null_typeESt4lessIS3_ENS0_11tree_traitsIS3_S4_S6_NS_33tree_order_statistics_node_updateENS_11rb_tree_tagESaIcEEESA_E3endEv, symObjAddr: 0x480C, symBinAddr: 0x100007FF4, symSize: 0x28 }
  - { offsetInCU: 0xBBFA, offset: 0xBBFA, size: 0x8, addend: 0x0, symName: __ZNK10__gnu_pbds6detail19bin_search_tree_setISt5arrayIiLm2EENS_9null_typeESt4lessIS3_ENS0_11tree_traitsIS3_S4_S6_NS_33tree_order_statistics_node_updateENS_11rb_tree_tagESaIcEEESA_E10node_beginEv, symObjAddr: 0x4834, symBinAddr: 0x10000801C, symSize: 0x2C }
  - { offsetInCU: 0xBC49, offset: 0xBC49, size: 0x8, addend: 0x0, symName: __Z41__static_initialization_and_destruction_0v, symObjAddr: 0x4720, symBinAddr: 0x100007F08, symSize: 0xEC }
  - { offsetInCU: 0xBC51, offset: 0xBC51, size: 0x8, addend: 0x0, symName: __ZNK10__gnu_pbds6detail19bin_search_tree_setISt5arrayIiLm2EENS_9null_typeESt4lessIS3_ENS0_11tree_traitsIS3_S4_S6_NS_33tree_order_statistics_node_updateENS_11rb_tree_tagESaIcEEESA_E3endEv, symObjAddr: 0x480C, symBinAddr: 0x100007FF4, symSize: 0x28 }
  - { offsetInCU: 0xBD0F, offset: 0xBD0F, size: 0x8, addend: 0x0, symName: __ZSt4moveIRiEONSt16remove_referenceIT_E4typeEOS2_, symObjAddr: 0x470C, symBinAddr: 0x100007EF4, symSize: 0x14 }
  - { offsetInCU: 0xBD17, offset: 0xBD17, size: 0x8, addend: 0x0, symName: __Z41__static_initialization_and_destruction_0v, symObjAddr: 0x4720, symBinAddr: 0x100007F08, symSize: 0xEC }
  - { offsetInCU: 0xBDC8, offset: 0xBDC8, size: 0x8, addend: 0x0, symName: __ZSt4swapIiENSt9enable_ifIXsrSt6__and_IJSt6__not_ISt15__is_tuple_likeIT_EESt21is_move_constructibleIS4_ESt18is_move_assignableIS4_EEE5valueEvE4typeERS4_SE_, symObjAddr: 0x46B8, symBinAddr: 0x100007EA0, symSize: 0x54 }
  - { offsetInCU: 0xBDD0, offset: 0xBDD0, size: 0x8, addend: 0x0, symName: __ZSt4moveIRiEONSt16remove_referenceIT_E4typeEOS2_, symObjAddr: 0x470C, symBinAddr: 0x100007EF4, symSize: 0x14 }
  - { offsetInCU: 0xBD8A, offset: 0xBD8A, size: 0x8, addend: 0x0, symName: __ZNSt11__copy_moveILb1ELb0ESt26random_access_iterator_tagE12__assign_oneISt5arrayIiLm3EES4_EEvPT_PT0_, symObjAddr: 0x467C, symBinAddr: 0x100007E64, symSize: 0x3C }
  - { offsetInCU: 0xBD92, offset: 0xBD92, size: 0x8, addend: 0x0, symName: __ZSt4swapIiENSt9enable_ifIXsrSt6__and_IJSt6__not_ISt15__is_tuple_likeIT_EESt21is_move_constructibleIS4_ESt18is_move_assignableIS4_EEE5valueEvE4typeERS4_SE_, symObjAddr: 0x46B8, symBinAddr: 0x100007EA0, symSize: 0x54 }
  - { offsetInCU: 0xBE1C, offset: 0xBE1C, size: 0x8, addend: 0x0, symName: __ZSt9iter_swapIPiS0_EvT_T0_, symObjAddr: 0x4654, symBinAddr: 0x100007E3C, symSize: 0x28 }
  - { offsetInCU: 0xBE24, offset: 0xBE24, size: 0x8, addend: 0x0, symName: __ZNSt11__copy_moveILb1ELb0ESt26random_access_iterator_tagE12__assign_oneISt5arrayIiLm3EES4_EEvPT_PT0_, symObjAddr: 0x467C, symBinAddr: 0x100007E64, symSize: 0x3C }
  - { offsetInCU: 0xBE78, offset: 0xBE78, size: 0x8, addend: 0x0, symName: __ZNK9__gnu_cxx5__ops15_Iter_less_iterclIPKiS4_EEbT_T0_, symObjAddr: 0x4620, symBinAddr: 0x100007E08, symSize: 0x34 }
  - { offsetInCU: 0xBE80, offset: 0xBE80, size: 0x8, addend: 0x0, symName: __ZSt9iter_swapIPiS0_EvT_T0_, symObjAddr: 0x4654, symBinAddr: 0x100007E3C, symSize: 0x28 }
  - { offsetInCU: 0xBEE7, offset: 0xBEE7, size: 0x8, addend: 0x0, symName: __ZNSt8__lc_raiISt26random_access_iterator_tagS0_E6__cnd2IPKiEEbT_S5_, symObjAddr: 0x4608, symBinAddr: 0x100007DF0, symSize: 0x18 }
  - { offsetInCU: 0xBEEF, offset: 0xBEEF, size: 0x8, addend: 0x0, symName: __ZNK9__gnu_cxx5__ops15_Iter_less_iterclIPKiS4_EEbT_T0_, symObjAddr: 0x4620, symBinAddr: 0x100007E08, symSize: 0x34 }
  - { offsetInCU: 0xBF2A, offset: 0xBF2A, size: 0x8, addend: 0x0, symName: __ZNSt8__lc_raiISt26random_access_iterator_tagS0_E10__newlast1IPKiS4_EET_S5_S5_T0_S6_, symObjAddr: 0x459C, symBinAddr: 0x100007D84, symSize: 0x6C }
  - { offsetInCU: 0xBF32, offset: 0xBF32, size: 0x8, addend: 0x0, symName: __ZNSt8__lc_raiISt26random_access_iterator_tagS0_E6__cnd2IPKiEEbT_S5_, symObjAddr: 0x4608, symBinAddr: 0x100007DF0, symSize: 0x18 }
  - { offsetInCU: 0xBFDA, offset: 0xBFDA, size: 0x8, addend: 0x0, symName: __ZNSt20__copy_move_backwardILb1ELb1ESt26random_access_iterator_tagE13__copy_move_bISt5arrayIiLm3EES4_EEPT0_PT_S8_S6_, symObjAddr: 0x44C0, symBinAddr: 0x100007CA8, symSize: 0xDC }
  - { offsetInCU: 0xBFE2, offset: 0xBFE2, size: 0x8, addend: 0x0, symName: __ZNSt8__lc_raiISt26random_access_iterator_tagS0_E10__newlast1IPKiS4_EET_S5_S5_T0_S6_, symObjAddr: 0x459C, symBinAddr: 0x100007D84, symSize: 0x6C }
  - { offsetInCU: 0xC0A2, offset: 0xC0A2, size: 0x8, addend: 0x0, symName: __ZSt11swap_rangesIPiS0_ET0_T_S2_S1_, symObjAddr: 0x4468, symBinAddr: 0x100007C50, symSize: 0x58 }
  - { offsetInCU: 0xC0AA, offset: 0xC0AA, size: 0x8, addend: 0x0, symName: __ZNSt20__copy_move_backwardILb1ELb1ESt26random_access_iterator_tagE13__copy_move_bISt5arrayIiLm3EES4_EEPT0_PT_S8_S6_, symObjAddr: 0x44C0, symBinAddr: 0x100007CA8, symSize: 0xDC }
  - { offsetInCU: 0xC0DF, offset: 0xC0DF, size: 0x8, addend: 0x0, symName: __ZNSt5arrayIiLm3EE3endEv, symObjAddr: 0x4448, symBinAddr: 0x100007C30, symSize: 0x20 }
  - { offsetInCU: 0xC0E7, offset: 0xC0E7, size: 0x8, addend: 0x0, symName: __ZSt11swap_rangesIPiS0_ET0_T_S2_S1_, symObjAddr: 0x4468, symBinAddr: 0x100007C50, symSize: 0x58 }
  - { offsetInCU: 0xC134, offset: 0xC134, size: 0x8, addend: 0x0, symName: __ZNSt5arrayIiLm3EE5beginEv, symObjAddr: 0x442C, symBinAddr: 0x100007C14, symSize: 0x1C }
  - { offsetInCU: 0xC13C, offset: 0xC13C, size: 0x8, addend: 0x0, symName: __ZNSt5arrayIiLm3EE3endEv, symObjAddr: 0x4448, symBinAddr: 0x100007C30, symSize: 0x20 }
  - { offsetInCU: 0xC189, offset: 0xC189, size: 0x8, addend: 0x0, symName: __ZN9__gnu_cxx5__ops14_Iter_comp_valIZ4mainEUlSt5arrayIiLm3EES3_E_EclINS_17__normal_iteratorIPS3_St6vectorIS3_SaIS3_EEEES3_EEbT_RT0_, symObjAddr: 0x43D0, symBinAddr: 0x100007BB8, symSize: 0x5C }
  - { offsetInCU: 0xC191, offset: 0xC191, size: 0x8, addend: 0x0, symName: __ZNSt5arrayIiLm3EE5beginEv, symObjAddr: 0x442C, symBinAddr: 0x100007C14, symSize: 0x1C }
  - { offsetInCU: 0xC26F, offset: 0xC26F, size: 0x8, addend: 0x0, symName: __ZSt9__fill_a1IPiiEN9__gnu_cxx11__enable_ifIXsrSt11__is_scalarIT0_E7__valueEvE6__typeET_S8_RKS4_, symObjAddr: 0x4378, symBinAddr: 0x100007B60, symSize: 0x58 }
  - { offsetInCU: 0xC277, offset: 0xC277, size: 0x8, addend: 0x0, symName: __ZN9__gnu_cxx5__ops14_Iter_comp_valIZ4mainEUlSt5arrayIiLm3EES3_E_EclINS_17__normal_iteratorIPS3_St6vectorIS3_SaIS3_EEEES3_EEbT_RT0_, symObjAddr: 0x43D0, symBinAddr: 0x100007BB8, symSize: 0x5C }
  - { offsetInCU: 0xC32D, offset: 0xC32D, size: 0x8, addend: 0x0, symName: __ZSt9__fill_a1IPSt5arrayIiLm3EES1_EN9__gnu_cxx11__enable_ifIXntsrSt11__is_scalarIT0_E7__valueEvE6__typeET_SA_RKS6_, symObjAddr: 0x4320, symBinAddr: 0x100007B08, symSize: 0x58 }
  - { offsetInCU: 0xC335, offset: 0xC335, size: 0x8, addend: 0x0, symName: __ZSt9__fill_a1IPiiEN9__gnu_cxx11__enable_ifIXsrSt11__is_scalarIT0_E7__valueEvE6__typeET_S8_RKS4_, symObjAddr: 0x4378, symBinAddr: 0x100007B60, symSize: 0x58 }
  - { offsetInCU: 0xC3BC, offset: 0xC3BC, size: 0x8, addend: 0x0, symName: __ZSt30__lexicographical_compare_implIPKiS1_N9__gnu_cxx5__ops15_Iter_less_iterEEbT_S5_T0_S6_T1_, symObjAddr: 0x4204, symBinAddr: 0x1000079EC, symSize: 0x11C }
  - { offsetInCU: 0xC3C4, offset: 0xC3C4, size: 0x8, addend: 0x0, symName: __ZSt9__fill_a1IPSt5arrayIiLm3EES1_EN9__gnu_cxx11__enable_ifIXntsrSt11__is_scalarIT0_E7__valueEvE6__typeET_SA_RKS6_, symObjAddr: 0x4320, symBinAddr: 0x100007B08, symSize: 0x58 }
  - { offsetInCU: 0xC444, offset: 0xC444, size: 0x8, addend: 0x0, symName: __ZSt23__copy_move_backward_a2ILb1EPSt5arrayIiLm3EES2_ET1_T0_S4_S3_, symObjAddr: 0x41D8, symBinAddr: 0x1000079C0, symSize: 0x2C }
  - { offsetInCU: 0xC44C, offset: 0xC44C, size: 0x8, addend: 0x0, symName: __ZSt30__lexicographical_compare_implIPKiS1_N9__gnu_cxx5__ops15_Iter_less_iterEEbT_S5_T0_S6_T1_, symObjAddr: 0x4204, symBinAddr: 0x1000079EC, symSize: 0x11C }
  - { offsetInCU: 0xC443, offset: 0xC443, size: 0x8, addend: 0x0, symName: __ZNSt5arrayIiLm3EE4swapERS0_, symObjAddr: 0x4184, symBinAddr: 0x10000796C, symSize: 0x54 }
  - { offsetInCU: 0xC44B, offset: 0xC44B, size: 0x8, addend: 0x0, symName: __ZSt23__copy_move_backward_a2ILb1EPSt5arrayIiLm3EES2_ET1_T0_S4_S3_, symObjAddr: 0x41D8, symBinAddr: 0x1000079C0, symSize: 0x2C }
  - { offsetInCU: 0xC562, offset: 0xC562, size: 0x8, addend: 0x0, symName: __ZSt11__push_heapIN9__gnu_cxx17__normal_iteratorIPSt5arrayIiLm3EESt6vectorIS3_SaIS3_EEEElS3_NS0_5__ops14_Iter_comp_valIZ4mainEUlS3_S3_E_EEEvT_T0_SE_T1_RT2_, symObjAddr: 0x4028, symBinAddr: 0x100007810, symSize: 0x15C }
  - { offsetInCU: 0xC56A, offset: 0xC56A, size: 0x8, addend: 0x0, symName: __ZNSt5arrayIiLm3EE4swapERS0_, symObjAddr: 0x4184, symBinAddr: 0x10000796C, symSize: 0x54 }
  - { offsetInCU: 0xC57E, offset: 0xC57E, size: 0x8, addend: 0x0, symName: __ZN9__gnu_cxx5__ops14_Iter_comp_valIZ4mainEUlSt5arrayIiLm3EES3_E_EC1EONS0_15_Iter_comp_iterIS4_EE, symObjAddr: 0x4004, symBinAddr: 0x1000077EC, symSize: 0x24 }
  - { offsetInCU: 0xC586, offset: 0xC586, size: 0x8, addend: 0x0, symName: __ZSt11__push_heapIN9__gnu_cxx17__normal_iteratorIPSt5arrayIiLm3EESt6vectorIS3_SaIS3_EEEElS3_NS0_5__ops14_Iter_comp_valIZ4mainEUlS3_S3_E_EEEvT_T0_SE_T1_RT2_, symObjAddr: 0x4028, symBinAddr: 0x100007810, symSize: 0x15C }
  - { offsetInCU: 0xC5E6, offset: 0xC5E6, size: 0x8, addend: 0x0, symName: __ZSt8__fill_aIPiiEvT_S1_RKT0_, symObjAddr: 0x3FD4, symBinAddr: 0x1000077BC, symSize: 0x30 }
  - { offsetInCU: 0xC5EE, offset: 0xC5EE, size: 0x8, addend: 0x0, symName: __ZN9__gnu_cxx5__ops14_Iter_comp_valIZ4mainEUlSt5arrayIiLm3EES3_E_EC1EONS0_15_Iter_comp_iterIS4_EE, symObjAddr: 0x4004, symBinAddr: 0x1000077EC, symSize: 0x24 }
  - { offsetInCU: 0xC68E, offset: 0xC68E, size: 0x8, addend: 0x0, symName: __ZSt8__fill_aIPSt5arrayIiLm3EES1_EvT_S3_RKT0_, symObjAddr: 0x3FA4, symBinAddr: 0x10000778C, symSize: 0x30 }
  - { offsetInCU: 0xC696, offset: 0xC696, size: 0x8, addend: 0x0, symName: __ZSt8__fill_aIPiiEvT_S1_RKT0_, symObjAddr: 0x3FD4, symBinAddr: 0x1000077BC, symSize: 0x30 }
  - { offsetInCU: 0xC6A5, offset: 0xC6A5, size: 0x8, addend: 0x0, symName: __ZNSt25__lexicographical_compareILb0EE4__lcIPKiS3_EEbT_S4_T0_S5_, symObjAddr: 0x3F5C, symBinAddr: 0x100007744, symSize: 0x48 }
  - { offsetInCU: 0xC6AD, offset: 0xC6AD, size: 0x8, addend: 0x0, symName: __ZSt8__fill_aIPSt5arrayIiLm3EES1_EvT_S3_RKT0_, symObjAddr: 0x3FA4, symBinAddr: 0x10000778C, symSize: 0x30 }
  - { offsetInCU: 0xC810, offset: 0xC810, size: 0x8, addend: 0x0, symName: __ZSt12__niter_wrapIN9__gnu_cxx17__normal_iteratorIPSt5arrayIiLm3EESt6vectorIS3_SaIS3_EEEES4_ET_S9_T0_, symObjAddr: 0x3F14, symBinAddr: 0x1000076FC, symSize: 0x48 }
  - { offsetInCU: 0xC818, offset: 0xC818, size: 0x8, addend: 0x0, symName: __ZNSt25__lexicographical_compareILb0EE4__lcIPKiS3_EEbT_S4_T0_S5_, symObjAddr: 0x3F5C, symBinAddr: 0x100007744, symSize: 0x48 }
  - { offsetInCU: 0xC82A, offset: 0xC82A, size: 0x8, addend: 0x0, symName: __ZSt23__copy_move_backward_a1ILb1EPSt5arrayIiLm3EES2_ET1_T0_S4_S3_, symObjAddr: 0x3EE8, symBinAddr: 0x1000076D0, symSize: 0x2C }
  - { offsetInCU: 0xC832, offset: 0xC832, size: 0x8, addend: 0x0, symName: __ZSt12__niter_wrapIN9__gnu_cxx17__normal_iteratorIPSt5arrayIiLm3EESt6vectorIS3_SaIS3_EEEES4_ET_S9_T0_, symObjAddr: 0x3F14, symBinAddr: 0x1000076FC, symSize: 0x48 }
  - { offsetInCU: 0xC8D6, offset: 0xC8D6, size: 0x8, addend: 0x0, symName: __ZSt12__niter_baseIPSt5arrayIiLm3EESt6vectorIS1_SaIS1_EEET_N9__gnu_cxx17__normal_iteratorIS6_T0_EE, symObjAddr: 0x3EC8, symBinAddr: 0x1000076B0, symSize: 0x20 }
  - { offsetInCU: 0xC8DE, offset: 0xC8DE, size: 0x8, addend: 0x0, symName: __ZSt23__copy_move_backward_a1ILb1EPSt5arrayIiLm3EES2_ET1_T0_S4_S3_, symObjAddr: 0x3EE8, symBinAddr: 0x1000076D0, symSize: 0x2C }
  - { offsetInCU: 0xC903, offset: 0xC903, size: 0x8, addend: 0x0, symName: __ZSt4swapIiLm3EENSt9enable_ifIXsrNSt14__array_traitsIT_XT0_EE13_Is_swappableE5valueEvE4typeERSt5arrayIS2_XT0_EES9_, symObjAddr: 0x3EA0, symBinAddr: 0x100007688, symSize: 0x28 }
  - { offsetInCU: 0xC90B, offset: 0xC90B, size: 0x8, addend: 0x0, symName: __ZSt12__niter_baseIPSt5arrayIiLm3EESt6vectorIS1_SaIS1_EEET_N9__gnu_cxx17__normal_iteratorIS6_T0_EE, symObjAddr: 0x3EC8, symBinAddr: 0x1000076B0, symSize: 0x20 }
  - { offsetInCU: 0xC9C8, offset: 0xC9C8, size: 0x8, addend: 0x0, symName: __ZSt13__adjust_heapIN9__gnu_cxx17__normal_iteratorIPSt5arrayIiLm3EESt6vectorIS3_SaIS3_EEEElS3_NS0_5__ops15_Iter_comp_iterIZ4mainEUlS3_S3_E_EEEvT_T0_SE_T1_T2_, symObjAddr: 0x3C8C, symBinAddr: 0x100007474, symSize: 0x214 }
  - { offsetInCU: 0xC9D0, offset: 0xC9D0, size: 0x8, addend: 0x0, symName: __ZSt4swapIiLm3EENSt9enable_ifIXsrNSt14__array_traitsIT_XT0_EE13_Is_swappableE5valueEvE4typeERSt5arrayIS2_XT0_EES9_, symObjAddr: 0x3EA0, symBinAddr: 0x100007688, symSize: 0x28 }
  - { offsetInCU: 0xCA46, offset: 0xCA46, size: 0x8, addend: 0x0, symName: __ZSt10__fill_n_aIPimiET_S1_T0_RKT1_St26random_access_iterator_tag, symObjAddr: 0x3C28, symBinAddr: 0x100007410, symSize: 0x64 }
  - { offsetInCU: 0xCA4E, offset: 0xCA4E, size: 0x8, addend: 0x0, symName: __ZSt13__adjust_heapIN9__gnu_cxx17__normal_iteratorIPSt5arrayIiLm3EESt6vectorIS3_SaIS3_EEEElS3_NS0_5__ops15_Iter_comp_iterIZ4mainEUlS3_S3_E_EEEvT_T0_SE_T1_T2_, symObjAddr: 0x3C8C, symBinAddr: 0x100007474, symSize: 0x214 }
  - { offsetInCU: 0xCB46, offset: 0xCB46, size: 0x8, addend: 0x0, symName: __ZSt10__fill_n_aIPSt5arrayIiLm3EEmS1_ET_S3_T0_RKT1_St26random_access_iterator_tag, symObjAddr: 0x3BA4, symBinAddr: 0x10000738C, symSize: 0x84 }
  - { offsetInCU: 0xCB4E, offset: 0xCB4E, size: 0x8, addend: 0x0, symName: __ZSt10__fill_n_aIPimiET_S1_T0_RKT1_St26random_access_iterator_tag, symObjAddr: 0x3C28, symBinAddr: 0x100007410, symSize: 0x64 }
  - { offsetInCU: 0xCBE3, offset: 0xCBE3, size: 0x8, addend: 0x0, symName: __ZSt30__lexicographical_compare_aux1IPKiS1_EbT_S2_T0_S3_, symObjAddr: 0x3B68, symBinAddr: 0x100007350, symSize: 0x3C }
  - { offsetInCU: 0xCBEB, offset: 0xCBEB, size: 0x8, addend: 0x0, symName: __ZSt10__fill_n_aIPSt5arrayIiLm3EEmS1_ET_S3_T0_RKT1_St26random_access_iterator_tag, symObjAddr: 0x3BA4, symBinAddr: 0x10000738C, symSize: 0x84 }
  - { offsetInCU: 0xCC52, offset: 0xCC52, size: 0x8, addend: 0x0, symName: __ZSt12__niter_baseIPKiET_S2_, symObjAddr: 0x3B54, symBinAddr: 0x10000733C, symSize: 0x14 }
  - { offsetInCU: 0xCC5A, offset: 0xCC5A, size: 0x8, addend: 0x0, symName: __ZSt30__lexicographical_compare_aux1IPKiS1_EbT_S2_T0_S3_, symObjAddr: 0x3B68, symBinAddr: 0x100007350, symSize: 0x3C }
  - { offsetInCU: 0xCC63, offset: 0xCC63, size: 0x8, addend: 0x0, symName: __ZN9__gnu_cxx5__ops14_Val_comp_iterIZ4mainEUlSt5arrayIiLm3EES3_E_EclIS3_NS_17__normal_iteratorIPS3_St6vectorIS3_SaIS3_EEEEEEbRT_T0_, symObjAddr: 0x3AFC, symBinAddr: 0x1000072E4, symSize: 0x58 }
  - { offsetInCU: 0xCC6B, offset: 0xCC6B, size: 0x8, addend: 0x0, symName: __ZSt12__niter_baseIPKiET_S2_, symObjAddr: 0x3B54, symBinAddr: 0x10000733C, symSize: 0x14 }
  - { offsetInCU: 0xCCFC, offset: 0xCCFC, size: 0x8, addend: 0x0, symName: __ZN9__gnu_cxx5__ops14_Val_comp_iterIZ4mainEUlSt5arrayIiLm3EES3_E_EC1EONS0_15_Iter_comp_iterIS4_EE, symObjAddr: 0x3AD8, symBinAddr: 0x1000072C0, symSize: 0x24 }
  - { offsetInCU: 0xCD04, offset: 0xCD04, size: 0x8, addend: 0x0, symName: __ZN9__gnu_cxx5__ops14_Val_comp_iterIZ4mainEUlSt5arrayIiLm3EES3_E_EclIS3_NS_17__normal_iteratorIPS3_St6vectorIS3_SaIS3_EEEEEEbRT_T0_, symObjAddr: 0x3AFC, symBinAddr: 0x1000072E4, symSize: 0x58 }
  - { offsetInCU: 0xCD98, offset: 0xCD98, size: 0x8, addend: 0x0, symName: __ZSt4moveIRN9__gnu_cxx5__ops15_Iter_comp_iterIZ4mainEUlSt5arrayIiLm3EES4_E_EEEONSt16remove_referenceIT_E4typeEOS9_, symObjAddr: 0x3AC4, symBinAddr: 0x1000072AC, symSize: 0x14 }
  - { offsetInCU: 0xCDA0, offset: 0xCDA0, size: 0x8, addend: 0x0, symName: __ZN9__gnu_cxx5__ops14_Val_comp_iterIZ4mainEUlSt5arrayIiLm3EES3_E_EC1EONS0_15_Iter_comp_iterIS4_EE, symObjAddr: 0x3AD8, symBinAddr: 0x1000072C0, symSize: 0x24 }
  - { offsetInCU: 0xCED1, offset: 0xCED1, size: 0x8, addend: 0x0, symName: __ZSt22__copy_move_backward_aILb1EN9__gnu_cxx17__normal_iteratorIPSt5arrayIiLm3EESt6vectorIS3_SaIS3_EEEES8_ET1_T0_SA_S9_, symObjAddr: 0x3A64, symBinAddr: 0x10000724C, symSize: 0x60 }
  - { offsetInCU: 0xCED9, offset: 0xCED9, size: 0x8, addend: 0x0, symName: __ZSt4moveIRN9__gnu_cxx5__ops15_Iter_comp_iterIZ4mainEUlSt5arrayIiLm3EES4_E_EEEONSt16remove_referenceIT_E4typeEOS9_, symObjAddr: 0x3AC4, symBinAddr: 0x1000072AC, symSize: 0x14 }
  - { offsetInCU: 0xCEE2, offset: 0xCEE2, size: 0x8, addend: 0x0, symName: __ZSt12__miter_baseIN9__gnu_cxx17__normal_iteratorIPSt5arrayIiLm3EESt6vectorIS3_SaIS3_EEEEET_S9_, symObjAddr: 0x3A50, symBinAddr: 0x100007238, symSize: 0x14 }
  - { offsetInCU: 0xCEEA, offset: 0xCEEA, size: 0x8, addend: 0x0, symName: __ZSt22__copy_move_backward_aILb1EN9__gnu_cxx17__normal_iteratorIPSt5arrayIiLm3EESt6vectorIS3_SaIS3_EEEES8_ET1_T0_SA_S9_, symObjAddr: 0x3A64, symBinAddr: 0x10000724C, symSize: 0x60 }
  - { offsetInCU: 0xCF7C, offset: 0xCF7C, size: 0x8, addend: 0x0, symName: __ZSt9iter_swapIN9__gnu_cxx17__normal_iteratorIPSt5arrayIiLm3EESt6vectorIS3_SaIS3_EEEES8_EvT_T0_, symObjAddr: 0x3A0C, symBinAddr: 0x1000071F4, symSize: 0x44 }
  - { offsetInCU: 0xCF84, offset: 0xCF84, size: 0x8, addend: 0x0, symName: __ZSt12__miter_baseIN9__gnu_cxx17__normal_iteratorIPSt5arrayIiLm3EESt6vectorIS3_SaIS3_EEEEET_S9_, symObjAddr: 0x3A50, symBinAddr: 0x100007238, symSize: 0x14 }
  - { offsetInCU: 0xCEC7, offset: 0xCEC7, size: 0x8, addend: 0x0, symName: __ZN9__gnu_cxx17__normal_iteratorIPSt5arrayIiLm3EESt6vectorIS2_SaIS2_EEEmmEv, symObjAddr: 0x39E4, symBinAddr: 0x1000071CC, symSize: 0x28 }
  - { offsetInCU: 0xCECF, offset: 0xCECF, size: 0x8, addend: 0x0, symName: __ZSt9iter_swapIN9__gnu_cxx17__normal_iteratorIPSt5arrayIiLm3EESt6vectorIS3_SaIS3_EEEES8_EvT_T0_, symObjAddr: 0x3A0C, symBinAddr: 0x1000071F4, symSize: 0x44 }
  - { offsetInCU: 0xCFB5, offset: 0xCFB5, size: 0x8, addend: 0x0, symName: __ZSt10__pop_heapIN9__gnu_cxx17__normal_iteratorIPSt5arrayIiLm3EESt6vectorIS3_SaIS3_EEEENS0_5__ops15_Iter_comp_iterIZ4mainEUlS3_S3_E_EEEvT_SD_SD_RT0_, symObjAddr: 0x3928, symBinAddr: 0x100007110, symSize: 0xBC }
  - { offsetInCU: 0xCFBD, offset: 0xCFBD, size: 0x8, addend: 0x0, symName: __ZN9__gnu_cxx17__normal_iteratorIPSt5arrayIiLm3EESt6vectorIS2_SaIS2_EEEmmEv, symObjAddr: 0x39E4, symBinAddr: 0x1000071CC, symSize: 0x28 }
  - { offsetInCU: 0xD053, offset: 0xD053, size: 0x8, addend: 0x0, symName: __ZN9__gnu_cxxltIPSt5arrayIiLm3EESt6vectorIS2_SaIS2_EEEEbRKNS_17__normal_iteratorIT_T0_EESC_, symObjAddr: 0x38E4, symBinAddr: 0x1000070CC, symSize: 0x44 }
  - { offsetInCU: 0xD05B, offset: 0xD05B, size: 0x8, addend: 0x0, symName: __ZSt10__pop_heapIN9__gnu_cxx17__normal_iteratorIPSt5arrayIiLm3EESt6vectorIS3_SaIS3_EEEENS0_5__ops15_Iter_comp_iterIZ4mainEUlS3_S3_E_EEEvT_SD_SD_RT0_, symObjAddr: 0x3928, symBinAddr: 0x100007110, symSize: 0xBC }
  - { offsetInCU: 0xD0E7, offset: 0xD0E7, size: 0x8, addend: 0x0, symName: __ZSt11__make_heapIN9__gnu_cxx17__normal_iteratorIPSt5arrayIiLm3EESt6vectorIS3_SaIS3_EEEENS0_5__ops15_Iter_comp_iterIZ4mainEUlS3_S3_E_EEEvT_SD_RT0_, symObjAddr: 0x37F0, symBinAddr: 0x100006FD8, symSize: 0xF4 }
  - { offsetInCU: 0xD0EF, offset: 0xD0EF, size: 0x8, addend: 0x0, symName: __ZN9__gnu_cxxltIPSt5arrayIiLm3EESt6vectorIS2_SaIS2_EEEEbRKNS_17__normal_iteratorIT_T0_EESC_, symObjAddr: 0x38E4, symBinAddr: 0x1000070CC, symSize: 0x44 }
  - { offsetInCU: 0xD15D, offset: 0xD15D, size: 0x8, addend: 0x0, symName: __ZSt6fill_nIPimiET_S1_T0_RKT1_, symObjAddr: 0x37A8, symBinAddr: 0x100006F90, symSize: 0x48 }
  - { offsetInCU: 0xD165, offset: 0xD165, size: 0x8, addend: 0x0, symName: __ZSt11__make_heapIN9__gnu_cxx17__normal_iteratorIPSt5arrayIiLm3EESt6vectorIS3_SaIS3_EEEENS0_5__ops15_Iter_comp_iterIZ4mainEUlS3_S3_E_EEEvT_SD_RT0_, symObjAddr: 0x37F0, symBinAddr: 0x100006FD8, symSize: 0xF4 }
  - { offsetInCU: 0xD1F5, offset: 0xD1F5, size: 0x8, addend: 0x0, symName: __ZSt10_ConstructIiJEEvPT_DpOT0_, symObjAddr: 0x377C, symBinAddr: 0x100006F64, symSize: 0x2C }
  - { offsetInCU: 0xD1FD, offset: 0xD1FD, size: 0x8, addend: 0x0, symName: __ZSt6fill_nIPimiET_S1_T0_RKT1_, symObjAddr: 0x37A8, symBinAddr: 0x100006F90, symSize: 0x48 }
  - { offsetInCU: 0xD241, offset: 0xD241, size: 0x8, addend: 0x0, symName: __ZSt11__addressofIiEPT_RS0_, symObjAddr: 0x3768, symBinAddr: 0x100006F50, symSize: 0x14 }
  - { offsetInCU: 0xD249, offset: 0xD249, size: 0x8, addend: 0x0, symName: __ZSt10_ConstructIiJEEvPT_DpOT0_, symObjAddr: 0x377C, symBinAddr: 0x100006F64, symSize: 0x2C }
  - { offsetInCU: 0xD25A, offset: 0xD25A, size: 0x8, addend: 0x0, symName: __ZNSt15__new_allocatorIiE8allocateEmPKv, symObjAddr: 0x36EC, symBinAddr: 0x100006ED4, symSize: 0x7C }
  - { offsetInCU: 0xD262, offset: 0xD262, size: 0x8, addend: 0x0, symName: __ZSt11__addressofIiEPT_RS0_, symObjAddr: 0x3768, symBinAddr: 0x100006F50, symSize: 0x14 }
  - { offsetInCU: 0xD373, offset: 0xD373, size: 0x8, addend: 0x0, symName: __ZSt6fill_nIPSt5arrayIiLm3EEmS1_ET_S3_T0_RKT1_, symObjAddr: 0x36A4, symBinAddr: 0x100006E8C, symSize: 0x48 }
  - { offsetInCU: 0xD37B, offset: 0xD37B, size: 0x8, addend: 0x0, symName: __ZNSt15__new_allocatorIiE8allocateEmPKv, symObjAddr: 0x36EC, symBinAddr: 0x100006ED4, symSize: 0x7C }
  - { offsetInCU: 0xD3FA, offset: 0xD3FA, size: 0x8, addend: 0x0, symName: __ZSt10_ConstructISt5arrayIiLm3EEJEEvPT_DpOT0_, symObjAddr: 0x3660, symBinAddr: 0x100006E48, symSize: 0x44 }
  - { offsetInCU: 0xD402, offset: 0xD402, size: 0x8, addend: 0x0, symName: __ZSt6fill_nIPSt5arrayIiLm3EEmS1_ET_S3_T0_RKT1_, symObjAddr: 0x36A4, symBinAddr: 0x100006E8C, symSize: 0x48 }
  - { offsetInCU: 0xD446, offset: 0xD446, size: 0x8, addend: 0x0, symName: __ZSt11__addressofISt5arrayIiLm3EEEPT_RS2_, symObjAddr: 0x364C, symBinAddr: 0x100006E34, symSize: 0x14 }
  - { offsetInCU: 0xD44E, offset: 0xD44E, size: 0x8, addend: 0x0, symName: __ZSt10_ConstructISt5arrayIiLm3EEJEEvPT_DpOT0_, symObjAddr: 0x3660, symBinAddr: 0x100006E48, symSize: 0x44 }
  - { offsetInCU: 0xD441, offset: 0xD441, size: 0x8, addend: 0x0, symName: __ZNSt15__new_allocatorISt5arrayIiLm3EEE8allocateEmPKv, symObjAddr: 0x35BC, symBinAddr: 0x100006DA4, symSize: 0x90 }
  - { offsetInCU: 0xD449, offset: 0xD449, size: 0x8, addend: 0x0, symName: __ZSt11__addressofISt5arrayIiLm3EEEPT_RS2_, symObjAddr: 0x364C, symBinAddr: 0x100006E34, symSize: 0x14 }
  - { offsetInCU: 0xD4FB, offset: 0xD4FB, size: 0x8, addend: 0x0, symName: __ZNK10__gnu_pbds33tree_order_statistics_node_updateINS_6detail30bin_search_tree_const_node_it_INS1_13rb_tree_node_ISt5arrayIiLm2EEmSaIcEEENS1_25bin_search_tree_const_it_IPS7_S5_PS5_PKS5_RS5_RSB_Lb1ES6_EESF_S6_EESG_St4lessIS5_ES6_EclESG_SG_, symObjAddr: 0x34F8, symBinAddr: 0x100006CE0, symSize: 0xC4 }
  - { offsetInCU: 0xD503, offset: 0xD503, size: 0x8, addend: 0x0, symName: __ZNSt15__new_allocatorISt5arrayIiLm3EEE8allocateEmPKv, symObjAddr: 0x35BC, symBinAddr: 0x100006DA4, symSize: 0x90 }
  - { offsetInCU: 0xD59C, offset: 0xD59C, size: 0x8, addend: 0x0, symName: __ZN10__gnu_pbds6detail12cond_dealtorINS0_13rb_tree_node_ISt5arrayIiLm2EEmSaIcEEES5_E13set_no_actionEv, symObjAddr: 0x34D8, symBinAddr: 0x100006CC0, symSize: 0x20 }
  - { offsetInCU: 0xD5A4, offset: 0xD5A4, size: 0x8, addend: 0x0, symName: __ZNK10__gnu_pbds33tree_order_statistics_node_updateINS_6detail30bin_search_tree_const_node_it_INS1_13rb_tree_node_ISt5arrayIiLm2EEmSaIcEEENS1_25bin_search_tree_const_it_IPS7_S5_PS5_PKS5_RS5_RSB_Lb1ES6_EESF_S6_EESG_St4lessIS5_ES6_EclESG_SG_, symObjAddr: 0x34F8, symBinAddr: 0x100006CE0, symSize: 0xC4 }
  - { offsetInCU: 0xD64B, offset: 0xD64B, size: 0x8, addend: 0x0, symName: __ZN10__gnu_pbds6detail12cond_dealtorINS0_13rb_tree_node_ISt5arrayIiLm2EEmSaIcEEES5_ED1Ev, symObjAddr: 0x3490, symBinAddr: 0x100006C78, symSize: 0x48 }
  - { offsetInCU: 0xD653, offset: 0xD653, size: 0x8, addend: 0x0, symName: __ZN10__gnu_pbds6detail12cond_dealtorINS0_13rb_tree_node_ISt5arrayIiLm2EEmSaIcEEES5_E13set_no_actionEv, symObjAddr: 0x34D8, symBinAddr: 0x100006CC0, symSize: 0x20 }
  - { offsetInCU: 0xD6A5, offset: 0xD6A5, size: 0x8, addend: 0x0, symName: __ZN10__gnu_pbds6detail12cond_dealtorINS0_13rb_tree_node_ISt5arrayIiLm2EEmSaIcEEES5_EC1EPS6_, symObjAddr: 0x3464, symBinAddr: 0x100006C4C, symSize: 0x2C }
  - { offsetInCU: 0xD6AD, offset: 0xD6AD, size: 0x8, addend: 0x0, symName: __ZN10__gnu_pbds6detail12cond_dealtorINS0_13rb_tree_node_ISt5arrayIiLm2EEmSaIcEEES5_ED1Ev, symObjAddr: 0x3490, symBinAddr: 0x100006C78, symSize: 0x48 }
  - { offsetInCU: 0xD6F6, offset: 0xD6F6, size: 0x8, addend: 0x0, symName: __ZSt29__lexicographical_compare_auxIPKiS1_EbT_S2_T0_S3_, symObjAddr: 0x33F0, symBinAddr: 0x100006BD8, symSize: 0x74 }
  - { offsetInCU: 0xD6FE, offset: 0xD6FE, size: 0x8, addend: 0x0, symName: __ZN10__gnu_pbds6detail12cond_dealtorINS0_13rb_tree_node_ISt5arrayIiLm2EEmSaIcEEES5_EC1EPS6_, symObjAddr: 0x3464, symBinAddr: 0x100006C4C, symSize: 0x2C }
  - { offsetInCU: 0xD718, offset: 0xD718, size: 0x8, addend: 0x0, symName: __ZNKSt5arrayIiLm2EE4dataEv, symObjAddr: 0x33DC, symBinAddr: 0x100006BC4, symSize: 0x14 }
  - { offsetInCU: 0xD720, offset: 0xD720, size: 0x8, addend: 0x0, symName: __ZSt29__lexicographical_compare_auxIPKiS1_EbT_S2_T0_S3_, symObjAddr: 0x33F0, symBinAddr: 0x100006BD8, symSize: 0x74 }
  - { offsetInCU: 0xD815, offset: 0xD815, size: 0x8, addend: 0x0, symName: __ZSt25__unguarded_linear_insertIN9__gnu_cxx17__normal_iteratorIPSt5arrayIiLm3EESt6vectorIS3_SaIS3_EEEENS0_5__ops14_Val_comp_iterIZ4mainEUlS3_S3_E_EEEvT_T0_, symObjAddr: 0x32FC, symBinAddr: 0x100006AE4, symSize: 0xE0 }
  - { offsetInCU: 0xD81D, offset: 0xD81D, size: 0x8, addend: 0x0, symName: __ZNKSt5arrayIiLm2EE4dataEv, symObjAddr: 0x33DC, symBinAddr: 0x100006BC4, symSize: 0x14 }
  - { offsetInCU: 0xD81D, offset: 0xD81D, size: 0x8, addend: 0x0, symName: __ZN9__gnu_cxx5__ops15__val_comp_iterIZ4mainEUlSt5arrayIiLm3EES3_E_EENS0_14_Val_comp_iterIT_EENS0_15_Iter_comp_iterIS6_EE, symObjAddr: 0x32C4, symBinAddr: 0x100006AAC, symSize: 0x38 }
  - { offsetInCU: 0xD825, offset: 0xD825, size: 0x8, addend: 0x0, symName: __ZSt25__unguarded_linear_insertIN9__gnu_cxx17__normal_iteratorIPSt5arrayIiLm3EESt6vectorIS3_SaIS3_EEEENS0_5__ops14_Val_comp_iterIZ4mainEUlS3_S3_E_EEEvT_T0_, symObjAddr: 0x32FC, symBinAddr: 0x100006AE4, symSize: 0xE0 }
  - { offsetInCU: 0xD93E, offset: 0xD93E, size: 0x8, addend: 0x0, symName: __ZSt13move_backwardIN9__gnu_cxx17__normal_iteratorIPSt5arrayIiLm3EESt6vectorIS3_SaIS3_EEEES8_ET0_T_SA_S9_, symObjAddr: 0x327C, symBinAddr: 0x100006A64, symSize: 0x48 }
  - { offsetInCU: 0xD946, offset: 0xD946, size: 0x8, addend: 0x0, symName: __ZN9__gnu_cxx5__ops15__val_comp_iterIZ4mainEUlSt5arrayIiLm3EES3_E_EENS0_14_Val_comp_iterIT_EENS0_15_Iter_comp_iterIS6_EE, symObjAddr: 0x32C4, symBinAddr: 0x100006AAC, symSize: 0x38 }
  - { offsetInCU: 0xD8F3, offset: 0xD8F3, size: 0x8, addend: 0x0, symName: __ZSt4moveIRSt5arrayIiLm3EEEONSt16remove_referenceIT_E4typeEOS4_, symObjAddr: 0x3268, symBinAddr: 0x100006A50, symSize: 0x14 }
  - { offsetInCU: 0xD8FB, offset: 0xD8FB, size: 0x8, addend: 0x0, symName: __ZSt13move_backwardIN9__gnu_cxx17__normal_iteratorIPSt5arrayIiLm3EESt6vectorIS3_SaIS3_EEEES8_ET0_T_SA_S9_, symObjAddr: 0x327C, symBinAddr: 0x100006A64, symSize: 0x48 }
  - { offsetInCU: 0xD8E9, offset: 0xD8E9, size: 0x8, addend: 0x0, symName: __ZNK9__gnu_cxx17__normal_iteratorIPSt5arrayIiLm3EESt6vectorIS2_SaIS2_EEEdeEv, symObjAddr: 0x3250, symBinAddr: 0x100006A38, symSize: 0x18 }
  - { offsetInCU: 0xD8F1, offset: 0xD8F1, size: 0x8, addend: 0x0, symName: __ZSt4moveIRSt5arrayIiLm3EEEONSt16remove_referenceIT_E4typeEOS4_, symObjAddr: 0x3268, symBinAddr: 0x100006A50, symSize: 0x14 }
  - { offsetInCU: 0xD918, offset: 0xD918, size: 0x8, addend: 0x0, symName: __ZN9__gnu_cxx5__ops15_Iter_comp_iterIZ4mainEUlSt5arrayIiLm3EES3_E_EclINS_17__normal_iteratorIPS3_St6vectorIS3_SaIS3_EEEESC_EEbT_T0_, symObjAddr: 0x31F0, symBinAddr: 0x1000069D8, symSize: 0x60 }
  - { offsetInCU: 0xD920, offset: 0xD920, size: 0x8, addend: 0x0, symName: __ZNK9__gnu_cxx17__normal_iteratorIPSt5arrayIiLm3EESt6vectorIS2_SaIS2_EEEdeEv, symObjAddr: 0x3250, symBinAddr: 0x100006A38, symSize: 0x18 }
  - { offsetInCU: 0xD987, offset: 0xD987, size: 0x8, addend: 0x0, symName: __ZN9__gnu_cxx17__normal_iteratorIPSt5arrayIiLm3EESt6vectorIS2_SaIS2_EEEppEv, symObjAddr: 0x31C8, symBinAddr: 0x1000069B0, symSize: 0x28 }
  - { offsetInCU: 0xD98F, offset: 0xD98F, size: 0x8, addend: 0x0, symName: __ZN9__gnu_cxx5__ops15_Iter_comp_iterIZ4mainEUlSt5arrayIiLm3EES3_E_EclINS_17__normal_iteratorIPS3_St6vectorIS3_SaIS3_EEEESC_EEbT_T0_, symObjAddr: 0x31F0, symBinAddr: 0x1000069D8, symSize: 0x60 }
  - { offsetInCU: 0xDA5A, offset: 0xDA5A, size: 0x8, addend: 0x0, symName: __ZN9__gnu_cxxeqIPSt5arrayIiLm3EESt6vectorIS2_SaIS2_EEEEbRKNS_17__normal_iteratorIT_T0_EESC_, symObjAddr: 0x3184, symBinAddr: 0x10000696C, symSize: 0x44 }
  - { offsetInCU: 0xDA62, offset: 0xDA62, size: 0x8, addend: 0x0, symName: __ZN9__gnu_cxx17__normal_iteratorIPSt5arrayIiLm3EESt6vectorIS2_SaIS2_EEEppEv, symObjAddr: 0x31C8, symBinAddr: 0x1000069B0, symSize: 0x28 }
  - { offsetInCU: 0xDAF3, offset: 0xDAF3, size: 0x8, addend: 0x0, symName: __ZSt21__unguarded_partitionIN9__gnu_cxx17__normal_iteratorIPSt5arrayIiLm3EESt6vectorIS3_SaIS3_EEEENS0_5__ops15_Iter_comp_iterIZ4mainEUlS3_S3_E_EEET_SD_SD_SD_T0_, symObjAddr: 0x30C0, symBinAddr: 0x1000068A8, symSize: 0xC4 }
  - { offsetInCU: 0xDAFB, offset: 0xDAFB, size: 0x8, addend: 0x0, symName: __ZN9__gnu_cxxeqIPSt5arrayIiLm3EESt6vectorIS2_SaIS2_EEEEbRKNS_17__normal_iteratorIT_T0_EESC_, symObjAddr: 0x3184, symBinAddr: 0x10000696C, symSize: 0x44 }
  - { offsetInCU: 0xDB7F, offset: 0xDB7F, size: 0x8, addend: 0x0, symName: __ZSt22__move_median_to_firstIN9__gnu_cxx17__normal_iteratorIPSt5arrayIiLm3EESt6vectorIS3_SaIS3_EEEENS0_5__ops15_Iter_comp_iterIZ4mainEUlS3_S3_E_EEEvT_SD_SD_SD_T0_, symObjAddr: 0x2F9C, symBinAddr: 0x100006784, symSize: 0x124 }
  - { offsetInCU: 0xDB87, offset: 0xDB87, size: 0x8, addend: 0x0, symName: __ZSt21__unguarded_partitionIN9__gnu_cxx17__normal_iteratorIPSt5arrayIiLm3EESt6vectorIS3_SaIS3_EEEENS0_5__ops15_Iter_comp_iterIZ4mainEUlS3_S3_E_EEET_SD_SD_SD_T0_, symObjAddr: 0x30C0, symBinAddr: 0x1000068A8, symSize: 0xC4 }
  - { offsetInCU: 0xDB4A, offset: 0xDB4A, size: 0x8, addend: 0x0, symName: __ZNK9__gnu_cxx17__normal_iteratorIPSt5arrayIiLm3EESt6vectorIS2_SaIS2_EEEmiEl, symObjAddr: 0x2F4C, symBinAddr: 0x100006734, symSize: 0x50 }
  - { offsetInCU: 0xDB52, offset: 0xDB52, size: 0x8, addend: 0x0, symName: __ZSt22__move_median_to_firstIN9__gnu_cxx17__normal_iteratorIPSt5arrayIiLm3EESt6vectorIS3_SaIS3_EEEENS0_5__ops15_Iter_comp_iterIZ4mainEUlS3_S3_E_EEEvT_SD_SD_SD_T0_, symObjAddr: 0x2F9C, symBinAddr: 0x100006784, symSize: 0x124 }
  - { offsetInCU: 0xDC4E, offset: 0xDC4E, size: 0x8, addend: 0x0, symName: __ZSt11__sort_heapIN9__gnu_cxx17__normal_iteratorIPSt5arrayIiLm3EESt6vectorIS3_SaIS3_EEEENS0_5__ops15_Iter_comp_iterIZ4mainEUlS3_S3_E_EEEvT_SD_RT0_, symObjAddr: 0x2EE4, symBinAddr: 0x1000066CC, symSize: 0x68 }
  - { offsetInCU: 0xDC56, offset: 0xDC56, size: 0x8, addend: 0x0, symName: __ZNK9__gnu_cxx17__normal_iteratorIPSt5arrayIiLm3EESt6vectorIS2_SaIS2_EEEmiEl, symObjAddr: 0x2F4C, symBinAddr: 0x100006734, symSize: 0x50 }
  - { offsetInCU: 0xDCC4, offset: 0xDCC4, size: 0x8, addend: 0x0, symName: __ZSt13__heap_selectIN9__gnu_cxx17__normal_iteratorIPSt5arrayIiLm3EESt6vectorIS3_SaIS3_EEEENS0_5__ops15_Iter_comp_iterIZ4mainEUlS3_S3_E_EEEvT_SD_SD_T0_, symObjAddr: 0x2E40, symBinAddr: 0x100006628, symSize: 0xA4 }
  - { offsetInCU: 0xDCCC, offset: 0xDCCC, size: 0x8, addend: 0x0, symName: __ZSt11__sort_heapIN9__gnu_cxx17__normal_iteratorIPSt5arrayIiLm3EESt6vectorIS3_SaIS3_EEEENS0_5__ops15_Iter_comp_iterIZ4mainEUlS3_S3_E_EEEvT_SD_RT0_, symObjAddr: 0x2EE4, symBinAddr: 0x1000066CC, symSize: 0x68 }
  - { offsetInCU: 0xDCEE, offset: 0xDCEE, size: 0x8, addend: 0x0, symName: __ZSt13__countl_zeroImEiT_, symObjAddr: 0x2DEC, symBinAddr: 0x1000065D4, symSize: 0x54 }
  - { offsetInCU: 0xDCF6, offset: 0xDCF6, size: 0x8, addend: 0x0, symName: __ZSt13__heap_selectIN9__gnu_cxx17__normal_iteratorIPSt5arrayIiLm3EESt6vectorIS3_SaIS3_EEEENS0_5__ops15_Iter_comp_iterIZ4mainEUlS3_S3_E_EEEvT_SD_SD_T0_, symObjAddr: 0x2E40, symBinAddr: 0x100006628, symSize: 0xA4 }
  - { offsetInCU: 0xDD6A, offset: 0xDD6A, size: 0x8, addend: 0x0, symName: __ZNSt27__uninitialized_default_n_1ILb1EE18__uninit_default_nIPimEET_S3_T0_, symObjAddr: 0x2D88, symBinAddr: 0x100006570, symSize: 0x64 }
  - { offsetInCU: 0xDD72, offset: 0xDD72, size: 0x8, addend: 0x0, symName: __ZSt13__countl_zeroImEiT_, symObjAddr: 0x2DEC, symBinAddr: 0x1000065D4, symSize: 0x54 }
  - { offsetInCU: 0xDDFA, offset: 0xDDFA, size: 0x8, addend: 0x0, symName: __ZNSt15__new_allocatorIiE10deallocateEPim, symObjAddr: 0x2D58, symBinAddr: 0x100006540, symSize: 0x30 }
  - { offsetInCU: 0xDE02, offset: 0xDE02, size: 0x8, addend: 0x0, symName: __ZNSt27__uninitialized_default_n_1ILb1EE18__uninit_default_nIPimEET_S3_T0_, symObjAddr: 0x2D88, symBinAddr: 0x100006570, symSize: 0x64 }
  - { offsetInCU: 0xDE97, offset: 0xDE97, size: 0x8, addend: 0x0, symName: __ZNSt27__uninitialized_default_n_1ILb1EE18__uninit_default_nIPSt5arrayIiLm3EEmEET_S5_T0_, symObjAddr: 0x2CF4, symBinAddr: 0x1000064DC, symSize: 0x64 }
  - { offsetInCU: 0xDE9F, offset: 0xDE9F, size: 0x8, addend: 0x0, symName: __ZNSt15__new_allocatorIiE10deallocateEPim, symObjAddr: 0x2D58, symBinAddr: 0x100006540, symSize: 0x30 }
  - { offsetInCU: 0xDF27, offset: 0xDF27, size: 0x8, addend: 0x0, symName: __ZNSt15__new_allocatorISt5arrayIiLm3EEE10deallocateEPS1_m, symObjAddr: 0x2CB8, symBinAddr: 0x1000064A0, symSize: 0x3C }
  - { offsetInCU: 0xDF2F, offset: 0xDF2F, size: 0x8, addend: 0x0, symName: __ZNSt27__uninitialized_default_n_1ILb1EE18__uninit_default_nIPSt5arrayIiLm3EEmEET_S5_T0_, symObjAddr: 0x2CF4, symBinAddr: 0x1000064DC, symSize: 0x64 }
  - { offsetInCU: 0xE043, offset: 0xE043, size: 0x8, addend: 0x0, symName: __ZNSt15__new_allocatorIN10__gnu_pbds6detail13rb_tree_node_ISt5arrayIiLm2EEmSaIcEEEED2Ev, symObjAddr: 0x2CA4, symBinAddr: 0x10000648C, symSize: 0x14 }
  - { offsetInCU: 0xE04B, offset: 0xE04B, size: 0x8, addend: 0x0, symName: __ZNSt15__new_allocatorISt5arrayIiLm3EEE10deallocateEPS1_m, symObjAddr: 0x2CB8, symBinAddr: 0x1000064A0, symSize: 0x3C }
  - { offsetInCU: 0xE032, offset: 0xE032, size: 0x8, addend: 0x0, symName: __ZN10__gnu_pbds6detail19bin_search_tree_setISt5arrayIiLm2EENS_9null_typeESt4lessIS3_ENS0_11tree_traitsIS3_S4_S6_NS_33tree_order_statistics_node_updateENS_11rb_tree_tagESaIcEEESA_E9clear_impEPNS0_13rb_tree_node_IS3_mSA_EE, symObjAddr: 0x2C50, symBinAddr: 0x100006438, symSize: 0x54 }
  - { offsetInCU: 0xE03A, offset: 0xE03A, size: 0x8, addend: 0x0, symName: __ZNSt15__new_allocatorIN10__gnu_pbds6detail13rb_tree_node_ISt5arrayIiLm2EEmSaIcEEEED2Ev, symObjAddr: 0x2CA4, symBinAddr: 0x10000648C, symSize: 0x14 }
  - { offsetInCU: 0xE063, offset: 0xE063, size: 0x8, addend: 0x0, symName: __ZN10__gnu_pbds6detail19bin_search_tree_setISt5arrayIiLm2EENS_9null_typeESt4lessIS3_ENS0_11tree_traitsIS3_S4_S6_NS_33tree_order_statistics_node_updateENS_11rb_tree_tagESaIcEEESA_E10initializeEv, symObjAddr: 0x2C00, symBinAddr: 0x1000063E8, symSize: 0x50 }
  - { offsetInCU: 0xE06B, offset: 0xE06B, size: 0x8, addend: 0x0, symName: __ZN10__gnu_pbds6detail19bin_search_tree_setISt5arrayIiLm2EENS_9null_typeESt4lessIS3_ENS0_11tree_traitsIS3_S4_S6_NS_33tree_order_statistics_node_updateENS_11rb_tree_tagESaIcEEESA_E9clear_impEPNS0_13rb_tree_node_IS3_mSA_EE, symObjAddr: 0x2C50, symBinAddr: 0x100006438, symSize: 0x54 }
  - { offsetInCU: 0xE184, offset: 0xE184, size: 0x8, addend: 0x0, symName: __ZN10__gnu_pbds6detail13branch_policyINS0_30bin_search_tree_const_node_it_INS0_13rb_tree_node_ISt5arrayIiLm2EEmSaIcEEENS0_25bin_search_tree_const_it_IPS7_S5_PS5_PKS5_RS5_RSB_Lb1ES6_EESF_S6_EESG_S6_ED2Ev, symObjAddr: 0x2BD8, symBinAddr: 0x1000063C0, symSize: 0x28 }
  - { offsetInCU: 0xE18C, offset: 0xE18C, size: 0x8, addend: 0x0, symName: __ZN10__gnu_pbds6detail19bin_search_tree_setISt5arrayIiLm2EENS_9null_typeESt4lessIS3_ENS0_11tree_traitsIS3_S4_S6_NS_33tree_order_statistics_node_updateENS_11rb_tree_tagESaIcEEESA_E10initializeEv, symObjAddr: 0x2C00, symBinAddr: 0x1000063E8, symSize: 0x50 }
  - { offsetInCU: 0xE0E7, offset: 0xE0E7, size: 0x8, addend: 0x0, symName: __ZNSt15__new_allocatorIN10__gnu_pbds6detail13rb_tree_node_ISt5arrayIiLm2EEmSaIcEEEE8allocateEmPKv, symObjAddr: 0x2B48, symBinAddr: 0x100006330, symSize: 0x90 }
  - { offsetInCU: 0xE0EF, offset: 0xE0EF, size: 0x8, addend: 0x0, symName: __ZN10__gnu_pbds6detail13branch_policyINS0_30bin_search_tree_const_node_it_INS0_13rb_tree_node_ISt5arrayIiLm2EEmSaIcEEENS0_25bin_search_tree_const_it_IPS7_S5_PS5_PKS5_RS5_RSB_Lb1ES6_EESF_S6_EESG_S6_ED2Ev, symObjAddr: 0x2BD8, symBinAddr: 0x1000063C0, symSize: 0x28 }
  - { offsetInCU: 0xE16F, offset: 0xE16F, size: 0x8, addend: 0x0, symName: __ZN10__gnu_pbds6detail19bin_search_tree_setISt5arrayIiLm2EENS_9null_typeESt4lessIS3_ENS0_11tree_traitsIS3_S4_S6_NS_33tree_order_statistics_node_updateENS_11rb_tree_tagESaIcEEESA_E12apply_updateINS8_INS0_30bin_search_tree_const_node_it_INS0_13rb_tree_node_IS3_mSA_EENS0_25bin_search_tree_const_it_IPSG_S3_PS3_PKS3_RS3_RSK_Lb1ESA_EESO_SA_EESP_S6_SA_EEEEvSI_PT_, symObjAddr: 0x2AF4, symBinAddr: 0x1000062DC, symSize: 0x54 }
  - { offsetInCU: 0xE177, offset: 0xE177, size: 0x8, addend: 0x0, symName: __ZNSt15__new_allocatorIN10__gnu_pbds6detail13rb_tree_node_ISt5arrayIiLm2EEmSaIcEEEE8allocateEmPKv, symObjAddr: 0x2B48, symBinAddr: 0x100006330, symSize: 0x90 }
  - { offsetInCU: 0xE2A7, offset: 0xE2A7, size: 0x8, addend: 0x0, symName: __ZSt7forwardIPN10__gnu_pbds6detail13rb_tree_node_ISt5arrayIiLm2EEmSaIcEEEEOT_RNSt16remove_referenceIS8_E4typeE, symObjAddr: 0x2AE0, symBinAddr: 0x1000062C8, symSize: 0x14 }
  - { offsetInCU: 0xE2AF, offset: 0xE2AF, size: 0x8, addend: 0x0, symName: __ZN10__gnu_pbds6detail19bin_search_tree_setISt5arrayIiLm2EENS_9null_typeESt4lessIS3_ENS0_11tree_traitsIS3_S4_S6_NS_33tree_order_statistics_node_updateENS_11rb_tree_tagESaIcEEESA_E12apply_updateINS8_INS0_30bin_search_tree_const_node_it_INS0_13rb_tree_node_IS3_mSA_EENS0_25bin_search_tree_const_it_IPSG_S3_PS3_PKS3_RS3_RSK_Lb1ESA_EESO_SA_EESP_S6_SA_EEEEvSI_PT_, symObjAddr: 0x2AF4, symBinAddr: 0x1000062DC, symSize: 0x54 }
  - { offsetInCU: 0xE2D4, offset: 0xE2D4, size: 0x8, addend: 0x0, symName: __ZNSt4pairIPN10__gnu_pbds6detail13rb_tree_node_ISt5arrayIiLm2EEmSaIcEEEbEC1IRS7_bLb1EEEOT_OT0_, symObjAddr: 0x2A98, symBinAddr: 0x100006280, symSize: 0x48 }
  - { offsetInCU: 0xE2DC, offset: 0xE2DC, size: 0x8, addend: 0x0, symName: __ZSt7forwardIPN10__gnu_pbds6detail13rb_tree_node_ISt5arrayIiLm2EEmSaIcEEEEOT_RNSt16remove_referenceIS8_E4typeE, symObjAddr: 0x2AE0, symBinAddr: 0x1000062C8, symSize: 0x14 }
  - { offsetInCU: 0xE3B4, offset: 0xE3B4, size: 0x8, addend: 0x0, symName: __ZSt7forwardIRPN10__gnu_pbds6detail13rb_tree_node_ISt5arrayIiLm2EEmSaIcEEEEOT_RNSt16remove_referenceIS9_E4typeE, symObjAddr: 0x2A84, symBinAddr: 0x10000626C, symSize: 0x14 }
  - { offsetInCU: 0xE3BC, offset: 0xE3BC, size: 0x8, addend: 0x0, symName: __ZNSt4pairIPN10__gnu_pbds6detail13rb_tree_node_ISt5arrayIiLm2EEmSaIcEEEbEC1IRS7_bLb1EEEOT_OT0_, symObjAddr: 0x2A98, symBinAddr: 0x100006280, symSize: 0x48 }
  - { offsetInCU: 0xE41B, offset: 0xE41B, size: 0x8, addend: 0x0, symName: __ZNSt4pairIN10__gnu_pbds6detail25bin_search_tree_const_it_IPNS1_13rb_tree_node_ISt5arrayIiLm2EEmSaIcEEES5_PS5_PKS5_RS5_RSA_Lb1ES6_EEbEC1ISE_bLb1EEEOT_OT0_, symObjAddr: 0x2A38, symBinAddr: 0x100006220, symSize: 0x4C }
  - { offsetInCU: 0xE423, offset: 0xE423, size: 0x8, addend: 0x0, symName: __ZSt7forwardIRPN10__gnu_pbds6detail13rb_tree_node_ISt5arrayIiLm2EEmSaIcEEEEOT_RNSt16remove_referenceIS9_E4typeE, symObjAddr: 0x2A84, symBinAddr: 0x10000626C, symSize: 0x14 }
  - { offsetInCU: 0xE5BB, offset: 0xE5BB, size: 0x8, addend: 0x0, symName: __ZSt7forwardIN10__gnu_pbds6detail25bin_search_tree_const_it_IPNS1_13rb_tree_node_ISt5arrayIiLm2EEmSaIcEEES5_PS5_PKS5_RS5_RSA_Lb1ES6_EEEOT_RNSt16remove_referenceISF_E4typeE, symObjAddr: 0x2A24, symBinAddr: 0x10000620C, symSize: 0x14 }
  - { offsetInCU: 0xE5C3, offset: 0xE5C3, size: 0x8, addend: 0x0, symName: __ZNSt4pairIN10__gnu_pbds6detail25bin_search_tree_const_it_IPNS1_13rb_tree_node_ISt5arrayIiLm2EEmSaIcEEES5_PS5_PKS5_RS5_RSA_Lb1ES6_EEbEC1ISE_bLb1EEEOT_OT0_, symObjAddr: 0x2A38, symBinAddr: 0x100006220, symSize: 0x4C }
  - { offsetInCU: 0xE434, offset: 0xE434, size: 0x8, addend: 0x0, symName: __ZN10__gnu_pbds6detail19bin_search_tree_setISt5arrayIiLm2EENS_9null_typeESt4lessIS3_ENS0_11tree_traitsIS3_S4_S6_NS_33tree_order_statistics_node_updateENS_11rb_tree_tagESaIcEEESA_E28get_new_node_for_leaf_insertERKS3_NSt3tr117integral_constantIiLi0EEE, symObjAddr: 0x2974, symBinAddr: 0x10000615C, symSize: 0xB0 }
  - { offsetInCU: 0xE43C, offset: 0xE43C, size: 0x8, addend: 0x0, symName: __ZSt7forwardIN10__gnu_pbds6detail25bin_search_tree_const_it_IPNS1_13rb_tree_node_ISt5arrayIiLm2EEmSaIcEEES5_PS5_PKS5_RS5_RSA_Lb1ES6_EEEOT_RNSt16remove_referenceISF_E4typeE, symObjAddr: 0x2A24, symBinAddr: 0x10000620C, symSize: 0x14 }
  - { offsetInCU: 0xE50F, offset: 0xE50F, size: 0x8, addend: 0x0, symName: __ZSt23lexicographical_compareIPKiS1_EbT_S2_T0_S3_, symObjAddr: 0x293C, symBinAddr: 0x100006124, symSize: 0x38 }
  - { offsetInCU: 0xE517, offset: 0xE517, size: 0x8, addend: 0x0, symName: __ZN10__gnu_pbds6detail19bin_search_tree_setISt5arrayIiLm2EENS_9null_typeESt4lessIS3_ENS0_11tree_traitsIS3_S4_S6_NS_33tree_order_statistics_node_updateENS_11rb_tree_tagESaIcEEESA_E28get_new_node_for_leaf_insertERKS3_NSt3tr117integral_constantIiLi0EEE, symObjAddr: 0x2974, symBinAddr: 0x10000615C, symSize: 0xB0 }
  - { offsetInCU: 0xE53D, offset: 0xE53D, size: 0x8, addend: 0x0, symName: __ZNKSt5arrayIiLm2EE3endEv, symObjAddr: 0x291C, symBinAddr: 0x100006104, symSize: 0x20 }
  - { offsetInCU: 0xE545, offset: 0xE545, size: 0x8, addend: 0x0, symName: __ZSt23lexicographical_compareIPKiS1_EbT_S2_T0_S3_, symObjAddr: 0x293C, symBinAddr: 0x100006124, symSize: 0x38 }
  - { offsetInCU: 0xE56C, offset: 0xE56C, size: 0x8, addend: 0x0, symName: __ZNKSt5arrayIiLm2EE5beginEv, symObjAddr: 0x2900, symBinAddr: 0x1000060E8, symSize: 0x1C }
  - { offsetInCU: 0xE574, offset: 0xE574, size: 0x8, addend: 0x0, symName: __ZNKSt5arrayIiLm2EE3endEv, symObjAddr: 0x291C, symBinAddr: 0x100006104, symSize: 0x20 }
  - { offsetInCU: 0xE66B, offset: 0xE66B, size: 0x8, addend: 0x0, symName: __ZSt26__unguarded_insertion_sortIN9__gnu_cxx17__normal_iteratorIPSt5arrayIiLm3EESt6vectorIS3_SaIS3_EEEENS0_5__ops15_Iter_comp_iterIZ4mainEUlS3_S3_E_EEEvT_SD_T0_, symObjAddr: 0x2890, symBinAddr: 0x100006078, symSize: 0x70 }
  - { offsetInCU: 0xE673, offset: 0xE673, size: 0x8, addend: 0x0, symName: __ZNKSt5arrayIiLm2EE5beginEv, symObjAddr: 0x2900, symBinAddr: 0x1000060E8, symSize: 0x1C }
  - { offsetInCU: 0xE6FB, offset: 0xE6FB, size: 0x8, addend: 0x0, symName: __ZSt16__insertion_sortIN9__gnu_cxx17__normal_iteratorIPSt5arrayIiLm3EESt6vectorIS3_SaIS3_EEEENS0_5__ops15_Iter_comp_iterIZ4mainEUlS3_S3_E_EEEvT_SD_T0_, symObjAddr: 0x2770, symBinAddr: 0x100005F58, symSize: 0x120 }
  - { offsetInCU: 0xE703, offset: 0xE703, size: 0x8, addend: 0x0, symName: __ZSt26__unguarded_insertion_sortIN9__gnu_cxx17__normal_iteratorIPSt5arrayIiLm3EESt6vectorIS3_SaIS3_EEEENS0_5__ops15_Iter_comp_iterIZ4mainEUlS3_S3_E_EEEvT_SD_T0_, symObjAddr: 0x2890, symBinAddr: 0x100006078, symSize: 0x70 }
  - { offsetInCU: 0xE6F5, offset: 0xE6F5, size: 0x8, addend: 0x0, symName: __ZNK9__gnu_cxx17__normal_iteratorIPSt5arrayIiLm3EESt6vectorIS2_SaIS2_EEEplEl, symObjAddr: 0x2724, symBinAddr: 0x100005F0C, symSize: 0x4C }
  - { offsetInCU: 0xE6FD, offset: 0xE6FD, size: 0x8, addend: 0x0, symName: __ZSt16__insertion_sortIN9__gnu_cxx17__normal_iteratorIPSt5arrayIiLm3EESt6vectorIS3_SaIS3_EEEENS0_5__ops15_Iter_comp_iterIZ4mainEUlS3_S3_E_EEEvT_SD_T0_, symObjAddr: 0x2770, symBinAddr: 0x100005F58, symSize: 0x120 }
  - { offsetInCU: 0xE80E, offset: 0xE80E, size: 0x8, addend: 0x0, symName: __ZSt27__unguarded_partition_pivotIN9__gnu_cxx17__normal_iteratorIPSt5arrayIiLm3EESt6vectorIS3_SaIS3_EEEENS0_5__ops15_Iter_comp_iterIZ4mainEUlS3_S3_E_EEET_SD_SD_T0_, symObjAddr: 0x2688, symBinAddr: 0x100005E70, symSize: 0x9C }
  - { offsetInCU: 0xE816, offset: 0xE816, size: 0x8, addend: 0x0, symName: __ZNK9__gnu_cxx17__normal_iteratorIPSt5arrayIiLm3EESt6vectorIS2_SaIS2_EEEplEl, symObjAddr: 0x2724, symBinAddr: 0x100005F0C, symSize: 0x4C }
  - { offsetInCU: 0xE88D, offset: 0xE88D, size: 0x8, addend: 0x0, symName: __ZSt14__partial_sortIN9__gnu_cxx17__normal_iteratorIPSt5arrayIiLm3EESt6vectorIS3_SaIS3_EEEENS0_5__ops15_Iter_comp_iterIZ4mainEUlS3_S3_E_EEEvT_SD_SD_T0_, symObjAddr: 0x263C, symBinAddr: 0x100005E24, symSize: 0x4C }
  - { offsetInCU: 0xE895, offset: 0xE895, size: 0x8, addend: 0x0, symName: __ZSt27__unguarded_partition_pivotIN9__gnu_cxx17__normal_iteratorIPSt5arrayIiLm3EESt6vectorIS3_SaIS3_EEEENS0_5__ops15_Iter_comp_iterIZ4mainEUlS3_S3_E_EEET_SD_SD_T0_, symObjAddr: 0x2688, symBinAddr: 0x100005E70, symSize: 0x9C }
  - { offsetInCU: 0xE88D, offset: 0xE88D, size: 0x8, addend: 0x0, symName: __ZSt11__bit_widthImEiT_, symObjAddr: 0x260C, symBinAddr: 0x100005DF4, symSize: 0x30 }
  - { offsetInCU: 0xE895, offset: 0xE895, size: 0x8, addend: 0x0, symName: __ZSt14__partial_sortIN9__gnu_cxx17__normal_iteratorIPSt5arrayIiLm3EESt6vectorIS3_SaIS3_EEEENS0_5__ops15_Iter_comp_iterIZ4mainEUlS3_S3_E_EEEvT_SD_SD_T0_, symObjAddr: 0x263C, symBinAddr: 0x100005E24, symSize: 0x4C }
  - { offsetInCU: 0xE8B1, offset: 0xE8B1, size: 0x8, addend: 0x0, symName: __ZNK9__gnu_cxx17__normal_iteratorIPSt5arrayIiLm3EESt6vectorIS2_SaIS2_EEE4baseEv, symObjAddr: 0x25F8, symBinAddr: 0x100005DE0, symSize: 0x14 }
  - { offsetInCU: 0xE8B9, offset: 0xE8B9, size: 0x8, addend: 0x0, symName: __ZSt11__bit_widthImEiT_, symObjAddr: 0x260C, symBinAddr: 0x100005DF4, symSize: 0x30 }
  - { offsetInCU: 0xE8E0, offset: 0xE8E0, size: 0x8, addend: 0x0, symName: __ZNSt12_Destroy_auxILb1EE9__destroyIPiEEvT_S3_, symObjAddr: 0x25E0, symBinAddr: 0x100005DC8, symSize: 0x18 }
  - { offsetInCU: 0xE8E8, offset: 0xE8E8, size: 0x8, addend: 0x0, symName: __ZNK9__gnu_cxx17__normal_iteratorIPSt5arrayIiLm3EESt6vectorIS2_SaIS2_EEE4baseEv, symObjAddr: 0x25F8, symBinAddr: 0x100005DE0, symSize: 0x14 }
  - { offsetInCU: 0xE988, offset: 0xE988, size: 0x8, addend: 0x0, symName: __ZSt25__uninitialized_default_nIPimET_S1_T0_, symObjAddr: 0x25B4, symBinAddr: 0x100005D9C, symSize: 0x2C }
  - { offsetInCU: 0xE990, offset: 0xE990, size: 0x8, addend: 0x0, symName: __ZNSt12_Destroy_auxILb1EE9__destroyIPiEEvT_S3_, symObjAddr: 0x25E0, symBinAddr: 0x100005DC8, symSize: 0x18 }
  - { offsetInCU: 0xE9E5, offset: 0xE9E5, size: 0x8, addend: 0x0, symName: __ZNSt12_Vector_baseIiSaIiEE11_M_allocateEm, symObjAddr: 0x2564, symBinAddr: 0x100005D4C, symSize: 0x50 }
  - { offsetInCU: 0xE9ED, offset: 0xE9ED, size: 0x8, addend: 0x0, symName: __ZSt25__uninitialized_default_nIPimET_S1_T0_, symObjAddr: 0x25B4, symBinAddr: 0x100005D9C, symSize: 0x2C }
  - { offsetInCU: 0xEAA6, offset: 0xEAA6, size: 0x8, addend: 0x0, symName: __ZNSt12_Vector_baseIiSaIiEE17_Vector_impl_dataC2Ev, symObjAddr: 0x2538, symBinAddr: 0x100005D20, symSize: 0x2C }
  - { offsetInCU: 0xEAAE, offset: 0xEAAE, size: 0x8, addend: 0x0, symName: __ZNSt12_Vector_baseIiSaIiEE11_M_allocateEm, symObjAddr: 0x2564, symBinAddr: 0x100005D4C, symSize: 0x50 }
  - { offsetInCU: 0xEAE0, offset: 0xEAE0, size: 0x8, addend: 0x0, symName: __ZNSt12_Destroy_auxILb1EE9__destroyIPSt5arrayIiLm3EEEEvT_S5_, symObjAddr: 0x2520, symBinAddr: 0x100005D08, symSize: 0x18 }
  - { offsetInCU: 0xEAE8, offset: 0xEAE8, size: 0x8, addend: 0x0, symName: __ZNSt12_Vector_baseIiSaIiEE17_Vector_impl_dataC2Ev, symObjAddr: 0x2538, symBinAddr: 0x100005D20, symSize: 0x2C }
  - { offsetInCU: 0xEBA5, offset: 0xEBA5, size: 0x8, addend: 0x0, symName: __ZSt25__uninitialized_default_nIPSt5arrayIiLm3EEmET_S3_T0_, symObjAddr: 0x24F4, symBinAddr: 0x100005CDC, symSize: 0x2C }
  - { offsetInCU: 0xEBAD, offset: 0xEBAD, size: 0x8, addend: 0x0, symName: __ZNSt12_Destroy_auxILb1EE9__destroyIPSt5arrayIiLm3EEEEvT_S5_, symObjAddr: 0x2520, symBinAddr: 0x100005D08, symSize: 0x18 }
  - { offsetInCU: 0xEBE5, offset: 0xEBE5, size: 0x8, addend: 0x0, symName: __ZNSt12_Vector_baseISt5arrayIiLm3EESaIS1_EE11_M_allocateEm, symObjAddr: 0x24A4, symBinAddr: 0x100005C8C, symSize: 0x50 }
  - { offsetInCU: 0xEBED, offset: 0xEBED, size: 0x8, addend: 0x0, symName: __ZSt25__uninitialized_default_nIPSt5arrayIiLm3EEmET_S3_T0_, symObjAddr: 0x24F4, symBinAddr: 0x100005CDC, symSize: 0x2C }
  - { offsetInCU: 0xECB6, offset: 0xECB6, size: 0x8, addend: 0x0, symName: __ZNSt12_Vector_baseISt5arrayIiLm3EESaIS1_EE17_Vector_impl_dataC2Ev, symObjAddr: 0x2478, symBinAddr: 0x100005C60, symSize: 0x2C }
  - { offsetInCU: 0xECBE, offset: 0xECBE, size: 0x8, addend: 0x0, symName: __ZNSt12_Vector_baseISt5arrayIiLm3EESaIS1_EE11_M_allocateEm, symObjAddr: 0x24A4, symBinAddr: 0x100005C8C, symSize: 0x50 }
  - { offsetInCU: 0xECE0, offset: 0xECE0, size: 0x8, addend: 0x0, symName: __ZNSt15__new_allocatorIN10__gnu_pbds6detail13rb_tree_node_ISt5arrayIiLm2EEmSaIcEEEE10deallocateEPS6_m, symObjAddr: 0x243C, symBinAddr: 0x100005C24, symSize: 0x3C }
  - { offsetInCU: 0xECE8, offset: 0xECE8, size: 0x8, addend: 0x0, symName: __ZNSt12_Vector_baseISt5arrayIiLm3EESaIS1_EE17_Vector_impl_dataC2Ev, symObjAddr: 0x2478, symBinAddr: 0x100005C60, symSize: 0x2C }
  - { offsetInCU: 0xED4E, offset: 0xED4E, size: 0x8, addend: 0x0, symName: __ZN10__gnu_pbds6detail19bin_search_tree_setISt5arrayIiLm2EENS_9null_typeESt4lessIS3_ENS0_11tree_traitsIS3_S4_S6_NS_33tree_order_statistics_node_updateENS_11rb_tree_tagESaIcEEESA_E5clearEv, symObjAddr: 0x2404, symBinAddr: 0x100005BEC, symSize: 0x38 }
  - { offsetInCU: 0xED56, offset: 0xED56, size: 0x8, addend: 0x0, symName: __ZNSt15__new_allocatorIN10__gnu_pbds6detail13rb_tree_node_ISt5arrayIiLm2EEmSaIcEEEE10deallocateEPS6_m, symObjAddr: 0x243C, symBinAddr: 0x100005C24, symSize: 0x3C }
  - { offsetInCU: 0xEE8E, offset: 0xEE8E, size: 0x8, addend: 0x0, symName: __ZN10__gnu_pbds33tree_order_statistics_node_updateINS_6detail30bin_search_tree_const_node_it_INS1_13rb_tree_node_ISt5arrayIiLm2EEmSaIcEEENS1_25bin_search_tree_const_it_IPS7_S5_PS5_PKS5_RS5_RSB_Lb1ES6_EESF_S6_EESG_St4lessIS5_ES6_ED2Ev, symObjAddr: 0x23D0, symBinAddr: 0x100005BB8, symSize: 0x34 }
  - { offsetInCU: 0xEE96, offset: 0xEE96, size: 0x8, addend: 0x0, symName: __ZN10__gnu_pbds6detail19bin_search_tree_setISt5arrayIiLm2EENS_9null_typeESt4lessIS3_ENS0_11tree_traitsIS3_S4_S6_NS_33tree_order_statistics_node_updateENS_11rb_tree_tagESaIcEEESA_E5clearEv, symObjAddr: 0x2404, symBinAddr: 0x100005BEC, symSize: 0x38 }
  - { offsetInCU: 0xEDD2, offset: 0xEDD2, size: 0x8, addend: 0x0, symName: __ZN10__gnu_pbds6detail11rb_tree_setISt5arrayIiLm2EENS_9null_typeESt4lessIS3_ENS0_11tree_traitsIS3_S4_S6_NS_33tree_order_statistics_node_updateENS_11rb_tree_tagESaIcEEESA_E10initializeEv, symObjAddr: 0x23AC, symBinAddr: 0x100005B94, symSize: 0x24 }
  - { offsetInCU: 0xEDDA, offset: 0xEDDA, size: 0x8, addend: 0x0, symName: __ZN10__gnu_pbds33tree_order_statistics_node_updateINS_6detail30bin_search_tree_const_node_it_INS1_13rb_tree_node_ISt5arrayIiLm2EEmSaIcEEENS1_25bin_search_tree_const_it_IPS7_S5_PS5_PKS5_RS5_RSB_Lb1ES6_EESF_S6_EESG_St4lessIS5_ES6_ED2Ev, symObjAddr: 0x23D0, symBinAddr: 0x100005BB8, symSize: 0x34 }
  - { offsetInCU: 0xEED2, offset: 0xEED2, size: 0x8, addend: 0x0, symName: __ZN10__gnu_pbds6detail19bin_search_tree_setISt5arrayIiLm2EENS_9null_typeESt4lessIS3_ENS0_11tree_traitsIS3_S4_S6_NS_33tree_order_statistics_node_updateENS_11rb_tree_tagESaIcEEESA_EC2Ev, symObjAddr: 0x232C, symBinAddr: 0x100005B14, symSize: 0x80 }
  - { offsetInCU: 0xEEDA, offset: 0xEEDA, size: 0x8, addend: 0x0, symName: __ZN10__gnu_pbds6detail11rb_tree_setISt5arrayIiLm2EENS_9null_typeESt4lessIS3_ENS0_11tree_traitsIS3_S4_S6_NS_33tree_order_statistics_node_updateENS_11rb_tree_tagESaIcEEESA_E10initializeEv, symObjAddr: 0x23AC, symBinAddr: 0x100005B94, symSize: 0x24 }
  - { offsetInCU: 0xEF4F, offset: 0xEF4F, size: 0x8, addend: 0x0, symName: __ZN10__gnu_pbds33tree_order_statistics_node_updateINS_6detail30bin_search_tree_const_node_it_INS1_13rb_tree_node_ISt5arrayIiLm2EEmSaIcEEENS1_25bin_search_tree_const_it_IPS7_S5_PS5_PKS5_RS5_RSB_Lb1ES6_EESF_S6_EESG_St4lessIS5_ES6_EC2Ev, symObjAddr: 0x22F8, symBinAddr: 0x100005AE0, symSize: 0x34 }
  - { offsetInCU: 0xEF57, offset: 0xEF57, size: 0x8, addend: 0x0, symName: __ZN10__gnu_pbds6detail19bin_search_tree_setISt5arrayIiLm2EENS_9null_typeESt4lessIS3_ENS0_11tree_traitsIS3_S4_S6_NS_33tree_order_statistics_node_updateENS_11rb_tree_tagESaIcEEESA_EC2Ev, symObjAddr: 0x232C, symBinAddr: 0x100005B14, symSize: 0x80 }
  - { offsetInCU: 0xEF7B, offset: 0xEF7B, size: 0x8, addend: 0x0, symName: __ZN10__gnu_pbds6detail13branch_policyINS0_30bin_search_tree_const_node_it_INS0_13rb_tree_node_ISt5arrayIiLm2EEmSaIcEEENS0_25bin_search_tree_const_it_IPS7_S5_PS5_PKS5_RS5_RSB_Lb1ES6_EESF_S6_EESG_S6_EC2Ev, symObjAddr: 0x22D0, symBinAddr: 0x100005AB8, symSize: 0x28 }
  - { offsetInCU: 0xEF83, offset: 0xEF83, size: 0x8, addend: 0x0, symName: __ZN10__gnu_pbds33tree_order_statistics_node_updateINS_6detail30bin_search_tree_const_node_it_INS1_13rb_tree_node_ISt5arrayIiLm2EEmSaIcEEENS1_25bin_search_tree_const_it_IPS7_S5_PS5_PKS5_RS5_RSB_Lb1ES6_EESF_S6_EESG_St4lessIS5_ES6_EC2Ev, symObjAddr: 0x22F8, symBinAddr: 0x100005AE0, symSize: 0x34 }
  - { offsetInCU: 0xEEDE, offset: 0xEEDE, size: 0x8, addend: 0x0, symName: __ZN10__gnu_pbds6detail19bin_search_tree_setISt5arrayIiLm2EENS_9null_typeESt4lessIS3_ENS0_11tree_traitsIS3_S4_S6_NS_33tree_order_statistics_node_updateENS_11rb_tree_tagESaIcEEESA_E13update_to_topINS8_INS0_30bin_search_tree_const_node_it_INS0_13rb_tree_node_IS3_mSA_EENS0_25bin_search_tree_const_it_IPSG_S3_PS3_PKS3_RS3_RSK_Lb1ESA_EESO_SA_EESP_S6_SA_EEEEvSI_PT_, symObjAddr: 0x2278, symBinAddr: 0x100005A60, symSize: 0x58 }
  - { offsetInCU: 0xEEE6, offset: 0xEEE6, size: 0x8, addend: 0x0, symName: __ZN10__gnu_pbds6detail13branch_policyINS0_30bin_search_tree_const_node_it_INS0_13rb_tree_node_ISt5arrayIiLm2EEmSaIcEEENS0_25bin_search_tree_const_it_IPS7_S5_PS5_PKS5_RS5_RSB_Lb1ES6_EESF_S6_EESG_S6_EC2Ev, symObjAddr: 0x22D0, symBinAddr: 0x100005AB8, symSize: 0x28 }
  - { offsetInCU: 0xEF40, offset: 0xEF40, size: 0x8, addend: 0x0, symName: __ZN10__gnu_pbds6detail19bin_search_tree_setISt5arrayIiLm2EENS_9null_typeESt4lessIS3_ENS0_11tree_traitsIS3_S4_S6_NS_33tree_order_statistics_node_updateENS_11rb_tree_tagESaIcEEESA_E12rotate_rightEPNS0_13rb_tree_node_IS3_mSA_EE, symObjAddr: 0x2160, symBinAddr: 0x100005948, symSize: 0x118 }
  - { offsetInCU: 0xEF48, offset: 0xEF48, size: 0x8, addend: 0x0, symName: __ZN10__gnu_pbds6detail19bin_search_tree_setISt5arrayIiLm2EENS_9null_typeESt4lessIS3_ENS0_11tree_traitsIS3_S4_S6_NS_33tree_order_statistics_node_updateENS_11rb_tree_tagESaIcEEESA_E13update_to_topINS8_INS0_30bin_search_tree_const_node_it_INS0_13rb_tree_node_IS3_mSA_EENS0_25bin_search_tree_const_it_IPSG_S3_PS3_PKS3_RS3_RSK_Lb1ESA_EESO_SA_EESP_S6_SA_EEEEvSI_PT_, symObjAddr: 0x2278, symBinAddr: 0x100005A60, symSize: 0x58 }
  - { offsetInCU: 0xEF95, offset: 0xEF95, size: 0x8, addend: 0x0, symName: __ZN10__gnu_pbds6detail19bin_search_tree_setISt5arrayIiLm2EENS_9null_typeESt4lessIS3_ENS0_11tree_traitsIS3_S4_S6_NS_33tree_order_statistics_node_updateENS_11rb_tree_tagESaIcEEESA_E11rotate_leftEPNS0_13rb_tree_node_IS3_mSA_EE, symObjAddr: 0x2048, symBinAddr: 0x100005830, symSize: 0x118 }
  - { offsetInCU: 0xEF9D, offset: 0xEF9D, size: 0x8, addend: 0x0, symName: __ZN10__gnu_pbds6detail19bin_search_tree_setISt5arrayIiLm2EENS_9null_typeESt4lessIS3_ENS0_11tree_traitsIS3_S4_S6_NS_33tree_order_statistics_node_updateENS_11rb_tree_tagESaIcEEESA_E12rotate_rightEPNS0_13rb_tree_node_IS3_mSA_EE, symObjAddr: 0x2160, symBinAddr: 0x100005948, symSize: 0x118 }
  - { offsetInCU: 0xF0CD, offset: 0xF0CD, size: 0x8, addend: 0x0, symName: __ZNSt4pairIN10__gnu_pbds6detail25bin_search_tree_const_it_IPNS1_13rb_tree_node_ISt5arrayIiLm2EEmSaIcEEES5_PS5_PKS5_RS5_RSA_Lb1ES6_EEbEC1IS8_bLb1EEEOS_IT_T0_E, symObjAddr: 0x1FF0, symBinAddr: 0x1000057D8, symSize: 0x58 }
  - { offsetInCU: 0xF0D5, offset: 0xF0D5, size: 0x8, addend: 0x0, symName: __ZN10__gnu_pbds6detail19bin_search_tree_setISt5arrayIiLm2EENS_9null_typeESt4lessIS3_ENS0_11tree_traitsIS3_S4_S6_NS_33tree_order_statistics_node_updateENS_11rb_tree_tagESaIcEEESA_E11rotate_leftEPNS0_13rb_tree_node_IS3_mSA_EE, symObjAddr: 0x2048, symBinAddr: 0x100005830, symSize: 0x118 }
  - { offsetInCU: 0xF1B3, offset: 0xF1B3, size: 0x8, addend: 0x0, symName: __ZSt9make_pairIRPN10__gnu_pbds6detail13rb_tree_node_ISt5arrayIiLm2EEmSaIcEEEbESt4pairINSt25__strip_reference_wrapperINSt5decayIT_E4typeEE6__typeENSA_INSB_IT0_E4typeEE6__typeEEOSC_OSH_, symObjAddr: 0x1FA4, symBinAddr: 0x10000578C, symSize: 0x4C }
  - { offsetInCU: 0xF1BB, offset: 0xF1BB, size: 0x8, addend: 0x0, symName: __ZNSt4pairIN10__gnu_pbds6detail25bin_search_tree_const_it_IPNS1_13rb_tree_node_ISt5arrayIiLm2EEmSaIcEEES5_PS5_PKS5_RS5_RSA_Lb1ES6_EEbEC1IS8_bLb1EEEOS_IT_T0_E, symObjAddr: 0x1FF0, symBinAddr: 0x1000057D8, symSize: 0x58 }
  - { offsetInCU: 0xF0F0, offset: 0xF0F0, size: 0x8, addend: 0x0, symName: __ZN10__gnu_pbds6detail19bin_search_tree_setISt5arrayIiLm2EENS_9null_typeESt4lessIS3_ENS0_11tree_traitsIS3_S4_S6_NS_33tree_order_statistics_node_updateENS_11rb_tree_tagESaIcEEESA_E15insert_leaf_newERKS3_PNS0_13rb_tree_node_IS3_mSA_EEb, symObjAddr: 0x1EAC, symBinAddr: 0x100005694, symSize: 0xF8 }
  - { offsetInCU: 0xF0F8, offset: 0xF0F8, size: 0x8, addend: 0x0, symName: __ZSt9make_pairIRPN10__gnu_pbds6detail13rb_tree_node_ISt5arrayIiLm2EEmSaIcEEEbESt4pairINSt25__strip_reference_wrapperINSt5decayIT_E4typeEE6__typeENSA_INSB_IT0_E4typeEE6__typeEEOSC_OSH_, symObjAddr: 0x1FA4, symBinAddr: 0x10000578C, symSize: 0x4C }
  - { offsetInCU: 0xF396, offset: 0xF396, size: 0x8, addend: 0x0, symName: __ZSt9make_pairIN10__gnu_pbds6detail25bin_search_tree_const_it_IPNS1_13rb_tree_node_ISt5arrayIiLm2EEmSaIcEEES5_PS5_PKS5_RS5_RSA_Lb1ES6_EEbESt4pairINSt25__strip_reference_wrapperINSt5decayIT_E4typeEE6__typeENSG_INSH_IT0_E4typeEE6__typeEEOSI_OSN_, symObjAddr: 0x1E60, symBinAddr: 0x100005648, symSize: 0x4C }
  - { offsetInCU: 0xF39E, offset: 0xF39E, size: 0x8, addend: 0x0, symName: __ZN10__gnu_pbds6detail19bin_search_tree_setISt5arrayIiLm2EENS_9null_typeESt4lessIS3_ENS0_11tree_traitsIS3_S4_S6_NS_33tree_order_statistics_node_updateENS_11rb_tree_tagESaIcEEESA_E15insert_leaf_newERKS3_PNS0_13rb_tree_node_IS3_mSA_EEb, symObjAddr: 0x1EAC, symBinAddr: 0x100005694, symSize: 0xF8 }
  - { offsetInCU: 0xF1D8, offset: 0xF1D8, size: 0x8, addend: 0x0, symName: __ZN10__gnu_pbds6detail19bin_search_tree_setISt5arrayIiLm2EENS_9null_typeESt4lessIS3_ENS0_11tree_traitsIS3_S4_S6_NS_33tree_order_statistics_node_updateENS_11rb_tree_tagESaIcEEESA_E16insert_imp_emptyERKS3_, symObjAddr: 0x1DB0, symBinAddr: 0x100005598, symSize: 0xB0 }
  - { offsetInCU: 0xF1E0, offset: 0xF1E0, size: 0x8, addend: 0x0, symName: __ZSt9make_pairIN10__gnu_pbds6detail25bin_search_tree_const_it_IPNS1_13rb_tree_node_ISt5arrayIiLm2EEmSaIcEEES5_PS5_PKS5_RS5_RSA_Lb1ES6_EEbESt4pairINSt25__strip_reference_wrapperINSt5decayIT_E4typeEE6__typeENSG_INSH_IT0_E4typeEE6__typeEEOSI_OSN_, symObjAddr: 0x1E60, symBinAddr: 0x100005648, symSize: 0x4C }
  - { offsetInCU: 0xF22D, offset: 0xF22D, size: 0x8, addend: 0x0, symName: __ZN10__gnu_pbds6detail13rb_tree_node_ISt5arrayIiLm2EEmSaIcEE12get_metadataEv, symObjAddr: 0x1D98, symBinAddr: 0x100005580, symSize: 0x18 }
  - { offsetInCU: 0xF235, offset: 0xF235, size: 0x8, addend: 0x0, symName: __ZN10__gnu_pbds6detail19bin_search_tree_setISt5arrayIiLm2EENS_9null_typeESt4lessIS3_ENS0_11tree_traitsIS3_S4_S6_NS_33tree_order_statistics_node_updateENS_11rb_tree_tagESaIcEEESA_E16insert_imp_emptyERKS3_, symObjAddr: 0x1DB0, symBinAddr: 0x100005598, symSize: 0xB0 }
  - { offsetInCU: 0xF299, offset: 0xF299, size: 0x8, addend: 0x0, symName: __ZStltIiLm2EEbRKSt5arrayIT_XT0_EES4_, symObjAddr: 0x1D2C, symBinAddr: 0x100005514, symSize: 0x6C }
  - { offsetInCU: 0xF2A1, offset: 0xF2A1, size: 0x8, addend: 0x0, symName: __ZN10__gnu_pbds6detail13rb_tree_node_ISt5arrayIiLm2EEmSaIcEE12get_metadataEv, symObjAddr: 0x1D98, symBinAddr: 0x100005580, symSize: 0x18 }
  - { offsetInCU: 0xF374, offset: 0xF374, size: 0x8, addend: 0x0, symName: __ZN10__gnu_pbds6detail25bin_search_tree_const_it_IPNS0_13rb_tree_node_ISt5arrayIiLm2EEmSaIcEEES4_PS4_PKS4_RS4_RS9_Lb1ES5_EC1ES7_, symObjAddr: 0x1D08, symBinAddr: 0x1000054F0, symSize: 0x24 }
  - { offsetInCU: 0xF37C, offset: 0xF37C, size: 0x8, addend: 0x0, symName: __ZStltIiLm2EEbRKSt5arrayIT_XT0_EES4_, symObjAddr: 0x1D2C, symBinAddr: 0x100005514, symSize: 0x6C }
  - { offsetInCU: 0xF407, offset: 0xF407, size: 0x8, addend: 0x0, symName: __ZN10__gnu_pbds6detail30bin_search_tree_const_node_it_INS0_13rb_tree_node_ISt5arrayIiLm2EEmSaIcEEENS0_25bin_search_tree_const_it_IPS6_S4_PS4_PKS4_RS4_RSA_Lb1ES5_EESE_S5_EC1ES8_, symObjAddr: 0x1CE4, symBinAddr: 0x1000054CC, symSize: 0x24 }
  - { offsetInCU: 0xF40F, offset: 0xF40F, size: 0x8, addend: 0x0, symName: __ZN10__gnu_pbds6detail25bin_search_tree_const_it_IPNS0_13rb_tree_node_ISt5arrayIiLm2EEmSaIcEEES4_PS4_PKS4_RS4_RS9_Lb1ES5_EC1ES7_, symObjAddr: 0x1D08, symBinAddr: 0x1000054F0, symSize: 0x24 }
  - { offsetInCU: 0xF45C, offset: 0xF45C, size: 0x8, addend: 0x0, symName: __ZSt22__final_insertion_sortIN9__gnu_cxx17__normal_iteratorIPSt5arrayIiLm3EESt6vectorIS3_SaIS3_EEEENS0_5__ops15_Iter_comp_iterIZ4mainEUlS3_S3_E_EEEvT_SD_T0_, symObjAddr: 0x1C58, symBinAddr: 0x100005440, symSize: 0x8C }
  - { offsetInCU: 0xF464, offset: 0xF464, size: 0x8, addend: 0x0, symName: __ZN10__gnu_pbds6detail30bin_search_tree_const_node_it_INS0_13rb_tree_node_ISt5arrayIiLm2EEmSaIcEEENS0_25bin_search_tree_const_it_IPS6_S4_PS4_PKS4_RS4_RSA_Lb1ES5_EESE_S5_EC1ES8_, symObjAddr: 0x1CE4, symBinAddr: 0x1000054CC, symSize: 0x24 }
  - { offsetInCU: 0xF4D4, offset: 0xF4D4, size: 0x8, addend: 0x0, symName: __ZSt16__introsort_loopIN9__gnu_cxx17__normal_iteratorIPSt5arrayIiLm3EESt6vectorIS3_SaIS3_EEEElNS0_5__ops15_Iter_comp_iterIZ4mainEUlS3_S3_E_EEEvT_SD_T0_T1_, symObjAddr: 0x1BB0, symBinAddr: 0x100005398, symSize: 0xA8 }
  - { offsetInCU: 0xF4DC, offset: 0xF4DC, size: 0x8, addend: 0x0, symName: __ZSt22__final_insertion_sortIN9__gnu_cxx17__normal_iteratorIPSt5arrayIiLm3EESt6vectorIS3_SaIS3_EEEENS0_5__ops15_Iter_comp_iterIZ4mainEUlS3_S3_E_EEEvT_SD_T0_, symObjAddr: 0x1C58, symBinAddr: 0x100005440, symSize: 0x8C }
  - { offsetInCU: 0xF4E5, offset: 0xF4E5, size: 0x8, addend: 0x0, symName: __ZSt4__lgIlET_S0_, symObjAddr: 0x1B8C, symBinAddr: 0x100005374, symSize: 0x24 }
  - { offsetInCU: 0xF4ED, offset: 0xF4ED, size: 0x8, addend: 0x0, symName: __ZSt16__introsort_loopIN9__gnu_cxx17__normal_iteratorIPSt5arrayIiLm3EESt6vectorIS3_SaIS3_EEEElNS0_5__ops15_Iter_comp_iterIZ4mainEUlS3_S3_E_EEEvT_SD_T0_T1_, symObjAddr: 0x1BB0, symBinAddr: 0x100005398, symSize: 0xA8 }
  - { offsetInCU: 0xF5C1, offset: 0xF5C1, size: 0x8, addend: 0x0, symName: __ZN9__gnu_cxxmiIPSt5arrayIiLm3EESt6vectorIS2_SaIS2_EEEENS_17__normal_iteratorIT_T0_E15difference_typeERKSA_SD_, symObjAddr: 0x1B40, symBinAddr: 0x100005328, symSize: 0x4C }
  - { offsetInCU: 0xF5C9, offset: 0xF5C9, size: 0x8, addend: 0x0, symName: __ZSt4__lgIlET_S0_, symObjAddr: 0x1B8C, symBinAddr: 0x100005374, symSize: 0x24 }
  - { offsetInCU: 0xF61C, offset: 0xF61C, size: 0x8, addend: 0x0, symName: __ZN9__gnu_cxxneIPSt5arrayIiLm3EESt6vectorIS2_SaIS2_EEEEbRKNS_17__normal_iteratorIT_T0_EESC_, symObjAddr: 0x1AFC, symBinAddr: 0x1000052E4, symSize: 0x44 }
  - { offsetInCU: 0xF624, offset: 0xF624, size: 0x8, addend: 0x0, symName: __ZN9__gnu_cxxmiIPSt5arrayIiLm3EESt6vectorIS2_SaIS2_EEEENS_17__normal_iteratorIT_T0_E15difference_typeERKSA_SD_, symObjAddr: 0x1B40, symBinAddr: 0x100005328, symSize: 0x4C }
  - { offsetInCU: 0xF60F, offset: 0xF60F, size: 0x8, addend: 0x0, symName: __ZN9__gnu_cxx5__ops15_Iter_comp_iterIZ4mainEUlSt5arrayIiLm3EES3_E_EC1ES4_, symObjAddr: 0x1AD8, symBinAddr: 0x1000052C0, symSize: 0x24 }
  - { offsetInCU: 0xF617, offset: 0xF617, size: 0x8, addend: 0x0, symName: __ZN9__gnu_cxxneIPSt5arrayIiLm3EESt6vectorIS2_SaIS2_EEEEbRKNS_17__normal_iteratorIT_T0_EESC_, symObjAddr: 0x1AFC, symBinAddr: 0x1000052E4, symSize: 0x44 }
  - { offsetInCU: 0xF687, offset: 0xF687, size: 0x8, addend: 0x0, symName: __ZSt4moveIRZ4mainEUlSt5arrayIiLm3EES1_E_EONSt16remove_referenceIT_E4typeEOS5_, symObjAddr: 0x1AC4, symBinAddr: 0x1000052AC, symSize: 0x14 }
  - { offsetInCU: 0xF68F, offset: 0xF68F, size: 0x8, addend: 0x0, symName: __ZN9__gnu_cxx5__ops15_Iter_comp_iterIZ4mainEUlSt5arrayIiLm3EES3_E_EC1ES4_, symObjAddr: 0x1AD8, symBinAddr: 0x1000052C0, symSize: 0x24 }
  - { offsetInCU: 0xF6C4, offset: 0xF6C4, size: 0x8, addend: 0x0, symName: __ZSt8_DestroyIPiEvT_S1_, symObjAddr: 0x1A9C, symBinAddr: 0x100005284, symSize: 0x28 }
  - { offsetInCU: 0xF6CC, offset: 0xF6CC, size: 0x8, addend: 0x0, symName: __ZSt4moveIRZ4mainEUlSt5arrayIiLm3EES1_E_EONSt16remove_referenceIT_E4typeEOS5_, symObjAddr: 0x1AC4, symBinAddr: 0x1000052AC, symSize: 0x14 }
  - { offsetInCU: 0xF769, offset: 0xF769, size: 0x8, addend: 0x0, symName: __ZSt27__uninitialized_default_n_aIPimiET_S1_T0_RSaIT1_E, symObjAddr: 0x1A74, symBinAddr: 0x10000525C, symSize: 0x28 }
  - { offsetInCU: 0xF771, offset: 0xF771, size: 0x8, addend: 0x0, symName: __ZSt8_DestroyIPiEvT_S1_, symObjAddr: 0x1A9C, symBinAddr: 0x100005284, symSize: 0x28 }
  - { offsetInCU: 0xF778, offset: 0xF778, size: 0x8, addend: 0x0, symName: __ZNSt12_Vector_baseIiSaIiEE13_M_deallocateEPim, symObjAddr: 0x1A1C, symBinAddr: 0x100005204, symSize: 0x58 }
  - { offsetInCU: 0xF780, offset: 0xF780, size: 0x8, addend: 0x0, symName: __ZSt27__uninitialized_default_n_aIPimiET_S1_T0_RSaIT1_E, symObjAddr: 0x1A74, symBinAddr: 0x10000525C, symSize: 0x28 }
  - { offsetInCU: 0xF80D, offset: 0xF80D, size: 0x8, addend: 0x0, symName: __ZNSt12_Vector_baseIiSaIiEE17_M_create_storageEm, symObjAddr: 0x19BC, symBinAddr: 0x1000051A4, symSize: 0x60 }
  - { offsetInCU: 0xF815, offset: 0xF815, size: 0x8, addend: 0x0, symName: __ZNSt12_Vector_baseIiSaIiEE13_M_deallocateEPim, symObjAddr: 0x1A1C, symBinAddr: 0x100005204, symSize: 0x58 }
  - { offsetInCU: 0xF8AB, offset: 0xF8AB, size: 0x8, addend: 0x0, symName: __ZNSt12_Vector_baseIiSaIiEE12_Vector_implC1ERKS0_, symObjAddr: 0x1970, symBinAddr: 0x100005158, symSize: 0x4C }
  - { offsetInCU: 0xF8B3, offset: 0xF8B3, size: 0x8, addend: 0x0, symName: __ZNSt12_Vector_baseIiSaIiEE17_M_create_storageEm, symObjAddr: 0x19BC, symBinAddr: 0x1000051A4, symSize: 0x60 }
  - { offsetInCU: 0xF940, offset: 0xF940, size: 0x8, addend: 0x0, symName: __ZNSt6vectorIiSaIiEE11_S_max_sizeERKS0_, symObjAddr: 0x191C, symBinAddr: 0x100005104, symSize: 0x54 }
  - { offsetInCU: 0xF948, offset: 0xF948, size: 0x8, addend: 0x0, symName: __ZNSt12_Vector_baseIiSaIiEE12_Vector_implC1ERKS0_, symObjAddr: 0x1970, symBinAddr: 0x100005158, symSize: 0x4C }
  - { offsetInCU: 0xFA50, offset: 0xFA50, size: 0x8, addend: 0x0, symName: __ZSt8_DestroyIPSt5arrayIiLm3EEEvT_S3_, symObjAddr: 0x18F4, symBinAddr: 0x1000050DC, symSize: 0x28 }
  - { offsetInCU: 0xFA58, offset: 0xFA58, size: 0x8, addend: 0x0, symName: __ZNSt6vectorIiSaIiEE11_S_max_sizeERKS0_, symObjAddr: 0x191C, symBinAddr: 0x100005104, symSize: 0x54 }
  - { offsetInCU: 0xFB07, offset: 0xFB07, size: 0x8, addend: 0x0, symName: __ZSt27__uninitialized_default_n_aIPSt5arrayIiLm3EEmS1_ET_S3_T0_RSaIT1_E, symObjAddr: 0x18CC, symBinAddr: 0x1000050B4, symSize: 0x28 }
  - { offsetInCU: 0xFB0F, offset: 0xFB0F, size: 0x8, addend: 0x0, symName: __ZSt8_DestroyIPSt5arrayIiLm3EEEvT_S3_, symObjAddr: 0x18F4, symBinAddr: 0x1000050DC, symSize: 0x28 }
  - { offsetInCU: 0xFAE7, offset: 0xFAE7, size: 0x8, addend: 0x0, symName: __ZNSt12_Vector_baseISt5arrayIiLm3EESaIS1_EE13_M_deallocateEPS1_m, symObjAddr: 0x1874, symBinAddr: 0x10000505C, symSize: 0x58 }
  - { offsetInCU: 0xFAEF, offset: 0xFAEF, size: 0x8, addend: 0x0, symName: __ZSt27__uninitialized_default_n_aIPSt5arrayIiLm3EEmS1_ET_S3_T0_RSaIT1_E, symObjAddr: 0x18CC, symBinAddr: 0x1000050B4, symSize: 0x28 }
  - { offsetInCU: 0xFB7C, offset: 0xFB7C, size: 0x8, addend: 0x0, symName: __ZNSt12_Vector_baseISt5arrayIiLm3EESaIS1_EE17_M_create_storageEm, symObjAddr: 0x1808, symBinAddr: 0x100004FF0, symSize: 0x6C }
  - { offsetInCU: 0xFB84, offset: 0xFB84, size: 0x8, addend: 0x0, symName: __ZNSt12_Vector_baseISt5arrayIiLm3EESaIS1_EE13_M_deallocateEPS1_m, symObjAddr: 0x1874, symBinAddr: 0x10000505C, symSize: 0x58 }
  - { offsetInCU: 0xFC2A, offset: 0xFC2A, size: 0x8, addend: 0x0, symName: __ZNSt12_Vector_baseISt5arrayIiLm3EESaIS1_EE12_Vector_implC1ERKS2_, symObjAddr: 0x17BC, symBinAddr: 0x100004FA4, symSize: 0x4C }
  - { offsetInCU: 0xFC32, offset: 0xFC32, size: 0x8, addend: 0x0, symName: __ZNSt12_Vector_baseISt5arrayIiLm3EESaIS1_EE17_M_create_storageEm, symObjAddr: 0x1808, symBinAddr: 0x100004FF0, symSize: 0x6C }
  - { offsetInCU: 0xFCAF, offset: 0xFCAF, size: 0x8, addend: 0x0, symName: __ZNSt6vectorISt5arrayIiLm3EESaIS1_EE11_S_max_sizeERKS2_, symObjAddr: 0x1760, symBinAddr: 0x100004F48, symSize: 0x5C }
  - { offsetInCU: 0xFCB7, offset: 0xFCB7, size: 0x8, addend: 0x0, symName: __ZNSt12_Vector_baseISt5arrayIiLm3EESaIS1_EE12_Vector_implC1ERKS2_, symObjAddr: 0x17BC, symBinAddr: 0x100004FA4, symSize: 0x4C }
  - { offsetInCU: 0xFE5A, offset: 0xFE5A, size: 0x8, addend: 0x0, symName: __ZN10__gnu_pbds6detail19bin_search_tree_setISt5arrayIiLm2EENS_9null_typeESt4lessIS3_ENS0_11tree_traitsIS3_S4_S6_NS_33tree_order_statistics_node_updateENS_11rb_tree_tagESaIcEEESA_ED0Ev, symObjAddr: 0x1738, symBinAddr: 0x100004F20, symSize: 0x28 }
  - { offsetInCU: 0xFE62, offset: 0xFE62, size: 0x8, addend: 0x0, symName: __ZNSt6vectorISt5arrayIiLm3EESaIS1_EE11_S_max_sizeERKS2_, symObjAddr: 0x1760, symBinAddr: 0x100004F48, symSize: 0x5C }
  - { offsetInCU: 0xFE88, offset: 0xFE88, size: 0x8, addend: 0x0, symName: __ZN10__gnu_pbds6detail19bin_search_tree_setISt5arrayIiLm2EENS_9null_typeESt4lessIS3_ENS0_11tree_traitsIS3_S4_S6_NS_33tree_order_statistics_node_updateENS_11rb_tree_tagESaIcEEESA_ED1Ev, symObjAddr: 0x16E0, symBinAddr: 0x100004EC8, symSize: 0x58 }
  - { offsetInCU: 0xFE90, offset: 0xFE90, size: 0x8, addend: 0x0, symName: __ZN10__gnu_pbds6detail19bin_search_tree_setISt5arrayIiLm2EENS_9null_typeESt4lessIS3_ENS0_11tree_traitsIS3_S4_S6_NS_33tree_order_statistics_node_updateENS_11rb_tree_tagESaIcEEESA_ED0Ev, symObjAddr: 0x1738, symBinAddr: 0x100004F20, symSize: 0x28 }
  - { offsetInCU: 0xFEB6, offset: 0xFEB6, size: 0x8, addend: 0x0, symName: __ZN10__gnu_pbds6detail19bin_search_tree_setISt5arrayIiLm2EENS_9null_typeESt4lessIS3_ENS0_11tree_traitsIS3_S4_S6_NS_33tree_order_statistics_node_updateENS_11rb_tree_tagESaIcEEESA_ED2Ev, symObjAddr: 0x1688, symBinAddr: 0x100004E70, symSize: 0x58 }
  - { offsetInCU: 0xFEBE, offset: 0xFEBE, size: 0x8, addend: 0x0, symName: __ZN10__gnu_pbds6detail19bin_search_tree_setISt5arrayIiLm2EENS_9null_typeESt4lessIS3_ENS0_11tree_traitsIS3_S4_S6_NS_33tree_order_statistics_node_updateENS_11rb_tree_tagESaIcEEESA_ED1Ev, symObjAddr: 0x16E0, symBinAddr: 0x100004EC8, symSize: 0x58 }
  - { offsetInCU: 0xFEF5, offset: 0xFEF5, size: 0x8, addend: 0x0, symName: __ZN10__gnu_pbds6detail11rb_tree_setISt5arrayIiLm2EENS_9null_typeESt4lessIS3_ENS0_11tree_traitsIS3_S4_S6_NS_33tree_order_statistics_node_updateENS_11rb_tree_tagESaIcEEESA_EC2Ev, symObjAddr: 0x164C, symBinAddr: 0x100004E34, symSize: 0x3C }
  - { offsetInCU: 0xFEFD, offset: 0xFEFD, size: 0x8, addend: 0x0, symName: __ZN10__gnu_pbds6detail19bin_search_tree_setISt5arrayIiLm2EENS_9null_typeESt4lessIS3_ENS0_11tree_traitsIS3_S4_S6_NS_33tree_order_statistics_node_updateENS_11rb_tree_tagESaIcEEESA_ED2Ev, symObjAddr: 0x1688, symBinAddr: 0x100004E70, symSize: 0x58 }
  - { offsetInCU: 0xFE73, offset: 0xFE73, size: 0x8, addend: 0x0, symName: __ZN10__gnu_pbds6detail11rb_tree_setISt5arrayIiLm2EENS_9null_typeESt4lessIS3_ENS0_11tree_traitsIS3_S4_S6_NS_33tree_order_statistics_node_updateENS_11rb_tree_tagESaIcEEESA_E12insert_fixupEPNS0_13rb_tree_node_IS3_mSA_EE, symObjAddr: 0x13FC, symBinAddr: 0x100004BE4, symSize: 0x250 }
  - { offsetInCU: 0xFE7B, offset: 0xFE7B, size: 0x8, addend: 0x0, symName: __ZN10__gnu_pbds6detail11rb_tree_setISt5arrayIiLm2EENS_9null_typeESt4lessIS3_ENS0_11tree_traitsIS3_S4_S6_NS_33tree_order_statistics_node_updateENS_11rb_tree_tagESaIcEEESA_EC2Ev, symObjAddr: 0x164C, symBinAddr: 0x100004E34, symSize: 0x3C }
  - { offsetInCU: 0xFEFF, offset: 0xFEFF, size: 0x8, addend: 0x0, symName: __ZN10__gnu_pbds6detail19bin_search_tree_setISt5arrayIiLm2EENS_9null_typeESt4lessIS3_ENS0_11tree_traitsIS3_S4_S6_NS_33tree_order_statistics_node_updateENS_11rb_tree_tagESaIcEEESA_E11insert_leafERKS3_, symObjAddr: 0x11EC, symBinAddr: 0x1000049D4, symSize: 0x210 }
  - { offsetInCU: 0xFF07, offset: 0xFF07, size: 0x8, addend: 0x0, symName: __ZN10__gnu_pbds6detail11rb_tree_setISt5arrayIiLm2EENS_9null_typeESt4lessIS3_ENS0_11tree_traitsIS3_S4_S6_NS_33tree_order_statistics_node_updateENS_11rb_tree_tagESaIcEEESA_E12insert_fixupEPNS0_13rb_tree_node_IS3_mSA_EE, symObjAddr: 0x13FC, symBinAddr: 0x100004BE4, symSize: 0x250 }
  - { offsetInCU: 0xFF6A, offset: 0xFF6A, size: 0x8, addend: 0x0, symName: __ZNK10__gnu_pbds6detail30bin_search_tree_const_node_it_INS0_13rb_tree_node_ISt5arrayIiLm2EEmSaIcEEENS0_25bin_search_tree_const_it_IPS6_S4_PS4_PKS4_RS4_RSA_Lb1ES5_EESE_S5_E11get_r_childEv, symObjAddr: 0x11C0, symBinAddr: 0x1000049A8, symSize: 0x2C }
  - { offsetInCU: 0xFF72, offset: 0xFF72, size: 0x8, addend: 0x0, symName: __ZN10__gnu_pbds6detail19bin_search_tree_setISt5arrayIiLm2EENS_9null_typeESt4lessIS3_ENS0_11tree_traitsIS3_S4_S6_NS_33tree_order_statistics_node_updateENS_11rb_tree_tagESaIcEEESA_E11insert_leafERKS3_, symObjAddr: 0x11EC, symBinAddr: 0x1000049D4, symSize: 0x210 }
  - { offsetInCU: 0xFF99, offset: 0xFF99, size: 0x8, addend: 0x0, symName: __ZNK10__gnu_pbds6detail30bin_search_tree_const_node_it_INS0_13rb_tree_node_ISt5arrayIiLm2EEmSaIcEEENS0_25bin_search_tree_const_it_IPS6_S4_PS4_PKS4_RS4_RSA_Lb1ES5_EESE_S5_E12get_metadataEv, symObjAddr: 0x11A0, symBinAddr: 0x100004988, symSize: 0x20 }
  - { offsetInCU: 0xFFA1, offset: 0xFFA1, size: 0x8, addend: 0x0, symName: __ZNK10__gnu_pbds6detail30bin_search_tree_const_node_it_INS0_13rb_tree_node_ISt5arrayIiLm2EEmSaIcEEENS0_25bin_search_tree_const_it_IPS6_S4_PS4_PKS4_RS4_RSA_Lb1ES5_EESE_S5_E11get_r_childEv, symObjAddr: 0x11C0, symBinAddr: 0x1000049A8, symSize: 0x2C }
  - { offsetInCU: 0xFFC8, offset: 0xFFC8, size: 0x8, addend: 0x0, symName: __ZNK10__gnu_pbds6detail30bin_search_tree_const_node_it_INS0_13rb_tree_node_ISt5arrayIiLm2EEmSaIcEEENS0_25bin_search_tree_const_it_IPS6_S4_PS4_PKS4_RS4_RSA_Lb1ES5_EESE_S5_EeqERKSF_, symObjAddr: 0x1170, symBinAddr: 0x100004958, symSize: 0x30 }
  - { offsetInCU: 0xFFD0, offset: 0xFFD0, size: 0x8, addend: 0x0, symName: __ZNK10__gnu_pbds6detail30bin_search_tree_const_node_it_INS0_13rb_tree_node_ISt5arrayIiLm2EEmSaIcEEENS0_25bin_search_tree_const_it_IPS6_S4_PS4_PKS4_RS4_RSA_Lb1ES5_EESE_S5_E12get_metadataEv, symObjAddr: 0x11A0, symBinAddr: 0x100004988, symSize: 0x20 }
  - { offsetInCU: 0x1000A, offset: 0x1000A, size: 0x8, addend: 0x0, symName: __ZNKSt4lessISt5arrayIiLm2EEEclERKS1_S4_, symObjAddr: 0x1144, symBinAddr: 0x10000492C, symSize: 0x2C }
  - { offsetInCU: 0x10012, offset: 0x10012, size: 0x8, addend: 0x0, symName: __ZNK10__gnu_pbds6detail30bin_search_tree_const_node_it_INS0_13rb_tree_node_ISt5arrayIiLm2EEmSaIcEEENS0_25bin_search_tree_const_it_IPS6_S4_PS4_PKS4_RS4_RSA_Lb1ES5_EESE_S5_EeqERKSF_, symObjAddr: 0x1170, symBinAddr: 0x100004958, symSize: 0x30 }
  - { offsetInCU: 0x10061, offset: 0x10061, size: 0x8, addend: 0x0, symName: __ZN10__gnu_pbds6detail13branch_policyINS0_30bin_search_tree_const_node_it_INS0_13rb_tree_node_ISt5arrayIiLm2EEmSaIcEEENS0_25bin_search_tree_const_it_IPS7_S5_PS5_PKS5_RS5_RSB_Lb1ES6_EESF_S6_EESG_S6_E11extract_keyESE_, symObjAddr: 0x1130, symBinAddr: 0x100004918, symSize: 0x14 }
  - { offsetInCU: 0x10069, offset: 0x10069, size: 0x8, addend: 0x0, symName: __ZNKSt4lessISt5arrayIiLm2EEEclERKS1_S4_, symObjAddr: 0x1144, symBinAddr: 0x10000492C, symSize: 0x2C }
  - { offsetInCU: 0x10092, offset: 0x10092, size: 0x8, addend: 0x0, symName: __ZNK10__gnu_pbds6detail25bin_search_tree_const_it_IPNS0_13rb_tree_node_ISt5arrayIiLm2EEmSaIcEEES4_PS4_PKS4_RS4_RS9_Lb1ES5_EdeEv, symObjAddr: 0x1114, symBinAddr: 0x1000048FC, symSize: 0x1C }
  - { offsetInCU: 0x1009A, offset: 0x1009A, size: 0x8, addend: 0x0, symName: __ZN10__gnu_pbds6detail13branch_policyINS0_30bin_search_tree_const_node_it_INS0_13rb_tree_node_ISt5arrayIiLm2EEmSaIcEEENS0_25bin_search_tree_const_it_IPS7_S5_PS5_PKS5_RS5_RSB_Lb1ES6_EESF_S6_EESG_S6_E11extract_keyESE_, symObjAddr: 0x1130, symBinAddr: 0x100004918, symSize: 0x14 }
  - { offsetInCU: 0x100C1, offset: 0x100C1, size: 0x8, addend: 0x0, symName: __ZNK10__gnu_pbds6detail30bin_search_tree_const_node_it_INS0_13rb_tree_node_ISt5arrayIiLm2EEmSaIcEEENS0_25bin_search_tree_const_it_IPS6_S4_PS4_PKS4_RS4_RSA_Lb1ES5_EESE_S5_EdeEv, symObjAddr: 0x10EC, symBinAddr: 0x1000048D4, symSize: 0x28 }
  - { offsetInCU: 0x100C9, offset: 0x100C9, size: 0x8, addend: 0x0, symName: __ZNK10__gnu_pbds6detail25bin_search_tree_const_it_IPNS0_13rb_tree_node_ISt5arrayIiLm2EEmSaIcEEES4_PS4_PKS4_RS4_RS9_Lb1ES5_EdeEv, symObjAddr: 0x1114, symBinAddr: 0x1000048FC, symSize: 0x1C }
  - { offsetInCU: 0x100F0, offset: 0x100F0, size: 0x8, addend: 0x0, symName: __ZNK10__gnu_pbds6detail30bin_search_tree_const_node_it_INS0_13rb_tree_node_ISt5arrayIiLm2EEmSaIcEEENS0_25bin_search_tree_const_it_IPS6_S4_PS4_PKS4_RS4_RSA_Lb1ES5_EESE_S5_E11get_l_childEv, symObjAddr: 0x10C0, symBinAddr: 0x1000048A8, symSize: 0x2C }
  - { offsetInCU: 0x100F8, offset: 0x100F8, size: 0x8, addend: 0x0, symName: __ZNK10__gnu_pbds6detail30bin_search_tree_const_node_it_INS0_13rb_tree_node_ISt5arrayIiLm2EEmSaIcEEENS0_25bin_search_tree_const_it_IPS6_S4_PS4_PKS4_RS4_RSA_Lb1ES5_EESE_S5_EdeEv, symObjAddr: 0x10EC, symBinAddr: 0x1000048D4, symSize: 0x28 }
  - { offsetInCU: 0x1011F, offset: 0x1011F, size: 0x8, addend: 0x0, symName: __ZNK10__gnu_pbds6detail30bin_search_tree_const_node_it_INS0_13rb_tree_node_ISt5arrayIiLm2EEmSaIcEEENS0_25bin_search_tree_const_it_IPS6_S4_PS4_PKS4_RS4_RSA_Lb1ES5_EESE_S5_EneERKSF_, symObjAddr: 0x1090, symBinAddr: 0x100004878, symSize: 0x30 }
  - { offsetInCU: 0x10127, offset: 0x10127, size: 0x8, addend: 0x0, symName: __ZNK10__gnu_pbds6detail30bin_search_tree_const_node_it_INS0_13rb_tree_node_ISt5arrayIiLm2EEmSaIcEEENS0_25bin_search_tree_const_it_IPS6_S4_PS4_PKS4_RS4_RSA_Lb1ES5_EESE_S5_E11get_l_childEv, symObjAddr: 0x10C0, symBinAddr: 0x1000048A8, symSize: 0x2C }
  - { offsetInCU: 0x1021D, offset: 0x1021D, size: 0x8, addend: 0x0, symName: __ZSt6__sortIN9__gnu_cxx17__normal_iteratorIPSt5arrayIiLm3EESt6vectorIS3_SaIS3_EEEENS0_5__ops15_Iter_comp_iterIZ4mainEUlS3_S3_E_EEEvT_SD_T0_, symObjAddr: 0x101C, symBinAddr: 0x100004804, symSize: 0x74 }
  - { offsetInCU: 0x10225, offset: 0x10225, size: 0x8, addend: 0x0, symName: __ZNK10__gnu_pbds6detail30bin_search_tree_const_node_it_INS0_13rb_tree_node_ISt5arrayIiLm2EEmSaIcEEENS0_25bin_search_tree_const_it_IPS6_S4_PS4_PKS4_RS4_RSA_Lb1ES5_EESE_S5_EneERKSF_, symObjAddr: 0x1090, symBinAddr: 0x100004878, symSize: 0x30 }
  - { offsetInCU: 0x10224, offset: 0x10224, size: 0x8, addend: 0x0, symName: __ZN9__gnu_cxx5__ops16__iter_comp_iterIZ4mainEUlSt5arrayIiLm3EES3_E_EENS0_15_Iter_comp_iterIT_EES6_, symObjAddr: 0xFE4, symBinAddr: 0x1000047CC, symSize: 0x38 }
  - { offsetInCU: 0x1022C, offset: 0x1022C, size: 0x8, addend: 0x0, symName: __ZSt6__sortIN9__gnu_cxx17__normal_iteratorIPSt5arrayIiLm3EESt6vectorIS3_SaIS3_EEEENS0_5__ops15_Iter_comp_iterIZ4mainEUlS3_S3_E_EEEvT_SD_T0_, symObjAddr: 0x101C, symBinAddr: 0x100004804, symSize: 0x74 }
  - { offsetInCU: 0x10295, offset: 0x10295, size: 0x8, addend: 0x0, symName: __ZN9__gnu_cxx17__normal_iteratorIPSt5arrayIiLm3EESt6vectorIS2_SaIS2_EEEC1ERKS3_, symObjAddr: 0xFBC, symBinAddr: 0x1000047A4, symSize: 0x28 }
  - { offsetInCU: 0x1029D, offset: 0x1029D, size: 0x8, addend: 0x0, symName: __ZN9__gnu_cxx5__ops16__iter_comp_iterIZ4mainEUlSt5arrayIiLm3EES3_E_EENS0_15_Iter_comp_iterIT_EES6_, symObjAddr: 0xFE4, symBinAddr: 0x1000047CC, symSize: 0x38 }
  - { offsetInCU: 0x102D7, offset: 0x102D7, size: 0x8, addend: 0x0, symName: __ZNSt12_Vector_baseIiSaIiEE19_M_get_Tp_allocatorEv, symObjAddr: 0xFA8, symBinAddr: 0x100004790, symSize: 0x14 }
  - { offsetInCU: 0x102DF, offset: 0x102DF, size: 0x8, addend: 0x0, symName: __ZN9__gnu_cxx17__normal_iteratorIPSt5arrayIiLm3EESt6vectorIS2_SaIS2_EEEC1ERKS3_, symObjAddr: 0xFBC, symBinAddr: 0x1000047A4, symSize: 0x28 }
  - { offsetInCU: 0x10306, offset: 0x10306, size: 0x8, addend: 0x0, symName: __ZNSt6vectorIiSaIiEE21_M_default_initializeEm, symObjAddr: 0xF58, symBinAddr: 0x100004740, symSize: 0x50 }
  - { offsetInCU: 0x1030E, offset: 0x1030E, size: 0x8, addend: 0x0, symName: __ZNSt12_Vector_baseIiSaIiEE19_M_get_Tp_allocatorEv, symObjAddr: 0xFA8, symBinAddr: 0x100004790, symSize: 0x14 }
  - { offsetInCU: 0x10390, offset: 0x10390, size: 0x8, addend: 0x0, symName: __ZNSt12_Vector_baseIiSaIiEED2Ev, symObjAddr: 0xF08, symBinAddr: 0x1000046F0, symSize: 0x50 }
  - { offsetInCU: 0x10398, offset: 0x10398, size: 0x8, addend: 0x0, symName: __ZNSt6vectorIiSaIiEE21_M_default_initializeEm, symObjAddr: 0xF58, symBinAddr: 0x100004740, symSize: 0x50 }
  - { offsetInCU: 0x10400, offset: 0x10400, size: 0x8, addend: 0x0, symName: __ZNSt12_Vector_baseIiSaIiEEC2EmRKS0_, symObjAddr: 0xEB4, symBinAddr: 0x10000469C, symSize: 0x54 }
  - { offsetInCU: 0x10408, offset: 0x10408, size: 0x8, addend: 0x0, symName: __ZNSt12_Vector_baseIiSaIiEED2Ev, symObjAddr: 0xF08, symBinAddr: 0x1000046F0, symSize: 0x50 }
  - { offsetInCU: 0x1047A, offset: 0x1047A, size: 0x8, addend: 0x0, symName: __ZNSt12_Vector_baseIiSaIiEE12_Vector_implD1Ev, symObjAddr: 0xE88, symBinAddr: 0x100004670, symSize: 0x2C }
  - { offsetInCU: 0x10482, offset: 0x10482, size: 0x8, addend: 0x0, symName: __ZNSt12_Vector_baseIiSaIiEEC2EmRKS0_, symObjAddr: 0xEB4, symBinAddr: 0x10000469C, symSize: 0x54 }
  - { offsetInCU: 0x104A0, offset: 0x104A0, size: 0x8, addend: 0x0, symName: __ZNSt6vectorIiSaIiEE17_S_check_init_lenEmRKS0_, symObjAddr: 0xE04, symBinAddr: 0x1000045EC, symSize: 0x84 }
  - { offsetInCU: 0x104A8, offset: 0x104A8, size: 0x8, addend: 0x0, symName: __ZNSt12_Vector_baseIiSaIiEE12_Vector_implD1Ev, symObjAddr: 0xE88, symBinAddr: 0x100004670, symSize: 0x2C }
  - { offsetInCU: 0x105AF, offset: 0x105AF, size: 0x8, addend: 0x0, symName: __ZNSt15__new_allocatorIiED2Ev, symObjAddr: 0xDF0, symBinAddr: 0x1000045D8, symSize: 0x14 }
  - { offsetInCU: 0x105B7, offset: 0x105B7, size: 0x8, addend: 0x0, symName: __ZNSt6vectorIiSaIiEE17_S_check_init_lenEmRKS0_, symObjAddr: 0xE04, symBinAddr: 0x1000045EC, symSize: 0x84 }
  - { offsetInCU: 0x10630, offset: 0x10630, size: 0x8, addend: 0x0, symName: __ZNSt12_Vector_baseISt5arrayIiLm3EESaIS1_EE19_M_get_Tp_allocatorEv, symObjAddr: 0xDDC, symBinAddr: 0x1000045C4, symSize: 0x14 }
  - { offsetInCU: 0x10638, offset: 0x10638, size: 0x8, addend: 0x0, symName: __ZNSt15__new_allocatorIiED2Ev, symObjAddr: 0xDF0, symBinAddr: 0x1000045D8, symSize: 0x14 }
  - { offsetInCU: 0x1065F, offset: 0x1065F, size: 0x8, addend: 0x0, symName: __ZNSt6vectorISt5arrayIiLm3EESaIS1_EE21_M_default_initializeEm, symObjAddr: 0xD8C, symBinAddr: 0x100004574, symSize: 0x50 }
  - { offsetInCU: 0x10667, offset: 0x10667, size: 0x8, addend: 0x0, symName: __ZNSt12_Vector_baseISt5arrayIiLm3EESaIS1_EE19_M_get_Tp_allocatorEv, symObjAddr: 0xDDC, symBinAddr: 0x1000045C4, symSize: 0x14 }
  - { offsetInCU: 0x106F9, offset: 0x106F9, size: 0x8, addend: 0x0, symName: __ZNSt12_Vector_baseISt5arrayIiLm3EESaIS1_EED2Ev, symObjAddr: 0xD30, symBinAddr: 0x100004518, symSize: 0x5C }
  - { offsetInCU: 0x10701, offset: 0x10701, size: 0x8, addend: 0x0, symName: __ZNSt6vectorISt5arrayIiLm3EESaIS1_EE21_M_default_initializeEm, symObjAddr: 0xD8C, symBinAddr: 0x100004574, symSize: 0x50 }
  - { offsetInCU: 0x10769, offset: 0x10769, size: 0x8, addend: 0x0, symName: __ZNSt12_Vector_baseISt5arrayIiLm3EESaIS1_EEC2EmRKS2_, symObjAddr: 0xCDC, symBinAddr: 0x1000044C4, symSize: 0x54 }
  - { offsetInCU: 0x10771, offset: 0x10771, size: 0x8, addend: 0x0, symName: __ZNSt12_Vector_baseISt5arrayIiLm3EESaIS1_EED2Ev, symObjAddr: 0xD30, symBinAddr: 0x100004518, symSize: 0x5C }
  - { offsetInCU: 0x107E3, offset: 0x107E3, size: 0x8, addend: 0x0, symName: __ZNSt12_Vector_baseISt5arrayIiLm3EESaIS1_EE12_Vector_implD1Ev, symObjAddr: 0xCB0, symBinAddr: 0x100004498, symSize: 0x2C }
  - { offsetInCU: 0x107EB, offset: 0x107EB, size: 0x8, addend: 0x0, symName: __ZNSt12_Vector_baseISt5arrayIiLm3EESaIS1_EEC2EmRKS2_, symObjAddr: 0xCDC, symBinAddr: 0x1000044C4, symSize: 0x54 }
  - { offsetInCU: 0x107F9, offset: 0x107F9, size: 0x8, addend: 0x0, symName: __ZNSt6vectorISt5arrayIiLm3EESaIS1_EE17_S_check_init_lenEmRKS2_, symObjAddr: 0xC2C, symBinAddr: 0x100004414, symSize: 0x84 }
  - { offsetInCU: 0x10801, offset: 0x10801, size: 0x8, addend: 0x0, symName: __ZNSt12_Vector_baseISt5arrayIiLm3EESaIS1_EE12_Vector_implD1Ev, symObjAddr: 0xCB0, symBinAddr: 0x100004498, symSize: 0x2C }
  - { offsetInCU: 0x10916, offset: 0x10916, size: 0x8, addend: 0x0, symName: __ZNSt15__new_allocatorISt5arrayIiLm3EEED2Ev, symObjAddr: 0xC18, symBinAddr: 0x100004400, symSize: 0x14 }
  - { offsetInCU: 0x1091E, offset: 0x1091E, size: 0x8, addend: 0x0, symName: __ZNSt6vectorISt5arrayIiLm3EESaIS1_EE17_S_check_init_lenEmRKS2_, symObjAddr: 0xC2C, symBinAddr: 0x100004414, symSize: 0x84 }
  - { offsetInCU: 0x10AE3, offset: 0x10AE3, size: 0x8, addend: 0x0, symName: __ZN10__gnu_pbds12basic_branchISt5arrayIiLm2EENS_9null_typeENS_11rb_tree_tagENS_33tree_order_statistics_node_updateINS_6detail30bin_search_tree_const_node_it_INS6_13rb_tree_node_IS2_mSaIcEEENS6_25bin_search_tree_const_it_IPSA_S2_PS2_PKS2_RS2_RSE_Lb1ES9_EESI_S9_EESJ_St4lessIS2_ES9_EEN9__gnu_cxx8typelist4nodeINSO_5chainISL_NSQ_INS6_11tree_traitsIS2_S3_SL_S5_S4_S9_EENSO_9null_typeEEEEEEES9_ED0Ev, symObjAddr: 0xBF0, symBinAddr: 0x1000043D8, symSize: 0x28 }
  - { offsetInCU: 0x10AEB, offset: 0x10AEB, size: 0x8, addend: 0x0, symName: __ZNSt15__new_allocatorISt5arrayIiLm3EEED2Ev, symObjAddr: 0xC18, symBinAddr: 0x100004400, symSize: 0x14 }
  - { offsetInCU: 0x10B11, offset: 0x10B11, size: 0x8, addend: 0x0, symName: __ZN10__gnu_pbds12basic_branchISt5arrayIiLm2EENS_9null_typeENS_11rb_tree_tagENS_33tree_order_statistics_node_updateINS_6detail30bin_search_tree_const_node_it_INS6_13rb_tree_node_IS2_mSaIcEEENS6_25bin_search_tree_const_it_IPSA_S2_PS2_PKS2_RS2_RSE_Lb1ES9_EESI_S9_EESJ_St4lessIS2_ES9_EEN9__gnu_cxx8typelist4nodeINSO_5chainISL_NSQ_INS6_11tree_traitsIS2_S3_SL_S5_S4_S9_EENSO_9null_typeEEEEEEES9_ED1Ev, symObjAddr: 0xBBC, symBinAddr: 0x1000043A4, symSize: 0x34 }
  - { offsetInCU: 0x10B19, offset: 0x10B19, size: 0x8, addend: 0x0, symName: __ZN10__gnu_pbds12basic_branchISt5arrayIiLm2EENS_9null_typeENS_11rb_tree_tagENS_33tree_order_statistics_node_updateINS_6detail30bin_search_tree_const_node_it_INS6_13rb_tree_node_IS2_mSaIcEEENS6_25bin_search_tree_const_it_IPSA_S2_PS2_PKS2_RS2_RSE_Lb1ES9_EESI_S9_EESJ_St4lessIS2_ES9_EEN9__gnu_cxx8typelist4nodeINSO_5chainISL_NSQ_INS6_11tree_traitsIS2_S3_SL_S5_S4_S9_EENSO_9null_typeEEEEEEES9_ED0Ev, symObjAddr: 0xBF0, symBinAddr: 0x1000043D8, symSize: 0x28 }
  - { offsetInCU: 0x10B3F, offset: 0x10B3F, size: 0x8, addend: 0x0, symName: __ZN10__gnu_pbds12basic_branchISt5arrayIiLm2EENS_9null_typeENS_11rb_tree_tagENS_33tree_order_statistics_node_updateINS_6detail30bin_search_tree_const_node_it_INS6_13rb_tree_node_IS2_mSaIcEEENS6_25bin_search_tree_const_it_IPSA_S2_PS2_PKS2_RS2_RSE_Lb1ES9_EESI_S9_EESJ_St4lessIS2_ES9_EEN9__gnu_cxx8typelist4nodeINSO_5chainISL_NSQ_INS6_11tree_traitsIS2_S3_SL_S5_S4_S9_EENSO_9null_typeEEEEEEES9_ED2Ev, symObjAddr: 0xB88, symBinAddr: 0x100004370, symSize: 0x34 }
  - { offsetInCU: 0x10B47, offset: 0x10B47, size: 0x8, addend: 0x0, symName: __ZN10__gnu_pbds12basic_branchISt5arrayIiLm2EENS_9null_typeENS_11rb_tree_tagENS_33tree_order_statistics_node_updateINS_6detail30bin_search_tree_const_node_it_INS6_13rb_tree_node_IS2_mSaIcEEENS6_25bin_search_tree_const_it_IPSA_S2_PS2_PKS2_RS2_RSE_Lb1ES9_EESI_S9_EESJ_St4lessIS2_ES9_EEN9__gnu_cxx8typelist4nodeINSO_5chainISL_NSQ_INS6_11tree_traitsIS2_S3_SL_S5_S4_S9_EENSO_9null_typeEEEEEEES9_ED1Ev, symObjAddr: 0xBBC, symBinAddr: 0x1000043A4, symSize: 0x34 }
  - { offsetInCU: 0x10B86, offset: 0x10B86, size: 0x8, addend: 0x0, symName: __ZN10__gnu_pbds12basic_branchISt5arrayIiLm2EENS_9null_typeENS_11rb_tree_tagENS_33tree_order_statistics_node_updateINS_6detail30bin_search_tree_const_node_it_INS6_13rb_tree_node_IS2_mSaIcEEENS6_25bin_search_tree_const_it_IPSA_S2_PS2_PKS2_RS2_RSE_Lb1ES9_EESI_S9_EESJ_St4lessIS2_ES9_EEN9__gnu_cxx8typelist4nodeINSO_5chainISL_NSQ_INS6_11tree_traitsIS2_S3_SL_S5_S4_S9_EENSO_9null_typeEEEEEEES9_EC2Ev, symObjAddr: 0xB54, symBinAddr: 0x10000433C, symSize: 0x34 }
  - { offsetInCU: 0x10B8E, offset: 0x10B8E, size: 0x8, addend: 0x0, symName: __ZN10__gnu_pbds12basic_branchISt5arrayIiLm2EENS_9null_typeENS_11rb_tree_tagENS_33tree_order_statistics_node_updateINS_6detail30bin_search_tree_const_node_it_INS6_13rb_tree_node_IS2_mSaIcEEENS6_25bin_search_tree_const_it_IPSA_S2_PS2_PKS2_RS2_RSE_Lb1ES9_EESI_S9_EESJ_St4lessIS2_ES9_EEN9__gnu_cxx8typelist4nodeINSO_5chainISL_NSQ_INS6_11tree_traitsIS2_S3_SL_S5_S4_S9_EENSO_9null_typeEEEEEEES9_ED2Ev, symObjAddr: 0xB88, symBinAddr: 0x100004370, symSize: 0x34 }
  - { offsetInCU: 0x10B04, offset: 0x10B04, size: 0x8, addend: 0x0, symName: __ZN10__gnu_pbds6detail11rb_tree_setISt5arrayIiLm2EENS_9null_typeESt4lessIS3_ENS0_11tree_traitsIS3_S4_S6_NS_33tree_order_statistics_node_updateENS_11rb_tree_tagESaIcEEESA_ED0Ev, symObjAddr: 0xB2C, symBinAddr: 0x100004314, symSize: 0x28 }
  - { offsetInCU: 0x10B0C, offset: 0x10B0C, size: 0x8, addend: 0x0, symName: __ZN10__gnu_pbds12basic_branchISt5arrayIiLm2EENS_9null_typeENS_11rb_tree_tagENS_33tree_order_statistics_node_updateINS_6detail30bin_search_tree_const_node_it_INS6_13rb_tree_node_IS2_mSaIcEEENS6_25bin_search_tree_const_it_IPSA_S2_PS2_PKS2_RS2_RSE_Lb1ES9_EESI_S9_EESJ_St4lessIS2_ES9_EEN9__gnu_cxx8typelist4nodeINSO_5chainISL_NSQ_INS6_11tree_traitsIS2_S3_SL_S5_S4_S9_EENSO_9null_typeEEEEEEES9_EC2Ev, symObjAddr: 0xB54, symBinAddr: 0x10000433C, symSize: 0x34 }
  - { offsetInCU: 0x10B32, offset: 0x10B32, size: 0x8, addend: 0x0, symName: __ZN10__gnu_pbds6detail11rb_tree_setISt5arrayIiLm2EENS_9null_typeESt4lessIS3_ENS0_11tree_traitsIS3_S4_S6_NS_33tree_order_statistics_node_updateENS_11rb_tree_tagESaIcEEESA_ED1Ev, symObjAddr: 0xAF8, symBinAddr: 0x1000042E0, symSize: 0x34 }
  - { offsetInCU: 0x10B3A, offset: 0x10B3A, size: 0x8, addend: 0x0, symName: __ZN10__gnu_pbds6detail11rb_tree_setISt5arrayIiLm2EENS_9null_typeESt4lessIS3_ENS0_11tree_traitsIS3_S4_S6_NS_33tree_order_statistics_node_updateENS_11rb_tree_tagESaIcEEESA_ED0Ev, symObjAddr: 0xB2C, symBinAddr: 0x100004314, symSize: 0x28 }
  - { offsetInCU: 0x10B60, offset: 0x10B60, size: 0x8, addend: 0x0, symName: __ZN10__gnu_pbds6detail11rb_tree_setISt5arrayIiLm2EENS_9null_typeESt4lessIS3_ENS0_11tree_traitsIS3_S4_S6_NS_33tree_order_statistics_node_updateENS_11rb_tree_tagESaIcEEESA_ED2Ev, symObjAddr: 0xAC4, symBinAddr: 0x1000042AC, symSize: 0x34 }
  - { offsetInCU: 0x10B68, offset: 0x10B68, size: 0x8, addend: 0x0, symName: __ZN10__gnu_pbds6detail11rb_tree_setISt5arrayIiLm2EENS_9null_typeESt4lessIS3_ENS0_11tree_traitsIS3_S4_S6_NS_33tree_order_statistics_node_updateENS_11rb_tree_tagESaIcEEESA_ED1Ev, symObjAddr: 0xAF8, symBinAddr: 0x1000042E0, symSize: 0x34 }
  - { offsetInCU: 0x10B24, offset: 0x10B24, size: 0x8, addend: 0x0, symName: __ZSt7forwardIbEOT_RNSt16remove_referenceIS0_E4typeE, symObjAddr: 0xAB0, symBinAddr: 0x100004298, symSize: 0x14 }
  - { offsetInCU: 0x10B2C, offset: 0x10B2C, size: 0x8, addend: 0x0, symName: __ZN10__gnu_pbds6detail11rb_tree_setISt5arrayIiLm2EENS_9null_typeESt4lessIS3_ENS0_11tree_traitsIS3_S4_S6_NS_33tree_order_statistics_node_updateENS_11rb_tree_tagESaIcEEESA_ED2Ev, symObjAddr: 0xAC4, symBinAddr: 0x1000042AC, symSize: 0x34 }
  - { offsetInCU: 0x10B32, offset: 0x10B32, size: 0x8, addend: 0x0, symName: __ZN10__gnu_pbds6detail11rb_tree_setISt5arrayIiLm2EENS_9null_typeESt4lessIS3_ENS0_11tree_traitsIS3_S4_S6_NS_33tree_order_statistics_node_updateENS_11rb_tree_tagESaIcEEESA_E6insertERKS3_, symObjAddr: 0xA5C, symBinAddr: 0x100004244, symSize: 0x54 }
  - { offsetInCU: 0x10B3A, offset: 0x10B3A, size: 0x8, addend: 0x0, symName: __ZSt7forwardIbEOT_RNSt16remove_referenceIS0_E4typeE, symObjAddr: 0xAB0, symBinAddr: 0x100004298, symSize: 0x14 }
  - { offsetInCU: 0x10B87, offset: 0x10B87, size: 0x8, addend: 0x0, symName: __ZNK10__gnu_pbds33tree_order_statistics_node_updateINS_6detail30bin_search_tree_const_node_it_INS1_13rb_tree_node_ISt5arrayIiLm2EEmSaIcEEENS1_25bin_search_tree_const_it_IPS7_S5_PS5_PKS5_RS5_RSB_Lb1ES6_EESF_S6_EESG_St4lessIS5_ES6_E12order_of_keyESE_, symObjAddr: 0x8AC, symBinAddr: 0x100004094, symSize: 0x1B0 }
  - { offsetInCU: 0x10B8F, offset: 0x10B8F, size: 0x8, addend: 0x0, symName: __ZN10__gnu_pbds6detail11rb_tree_setISt5arrayIiLm2EENS_9null_typeESt4lessIS3_ENS0_11tree_traitsIS3_S4_S6_NS_33tree_order_statistics_node_updateENS_11rb_tree_tagESaIcEEESA_E6insertERKS3_, symObjAddr: 0xA5C, symBinAddr: 0x100004244, symSize: 0x54 }
  - { offsetInCU: 0x10C46, offset: 0x10C46, size: 0x8, addend: 0x0, symName: __ZNSt6vectorIiSaIiEEixEm, symObjAddr: 0x884, symBinAddr: 0x10000406C, symSize: 0x28 }
  - { offsetInCU: 0x10C4E, offset: 0x10C4E, size: 0x8, addend: 0x0, symName: __ZNK10__gnu_pbds33tree_order_statistics_node_updateINS_6detail30bin_search_tree_const_node_it_INS1_13rb_tree_node_ISt5arrayIiLm2EEmSaIcEEENS1_25bin_search_tree_const_it_IPS7_S5_PS5_PKS5_RS5_RSB_Lb1ES6_EESF_S6_EESG_St4lessIS5_ES6_E12order_of_keyESE_, symObjAddr: 0x8AC, symBinAddr: 0x100004094, symSize: 0x1B0 }
  - { offsetInCU: 0x10D1F, offset: 0x10D1F, size: 0x8, addend: 0x0, symName: __ZSt4sortIN9__gnu_cxx17__normal_iteratorIPSt5arrayIiLm3EESt6vectorIS3_SaIS3_EEEEZ4mainEUlS3_S3_E_EvT_SA_T0_, symObjAddr: 0x844, symBinAddr: 0x10000402C, symSize: 0x40 }
  - { offsetInCU: 0x10D27, offset: 0x10D27, size: 0x8, addend: 0x0, symName: __ZNSt6vectorIiSaIiEEixEm, symObjAddr: 0x884, symBinAddr: 0x10000406C, symSize: 0x28 }
  - { offsetInCU: 0x10CFD, offset: 0x10CFD, size: 0x8, addend: 0x0, symName: __ZNSt6vectorISt5arrayIiLm3EESaIS1_EE3endEv, symObjAddr: 0x81C, symBinAddr: 0x100004004, symSize: 0x28 }
  - { offsetInCU: 0x10D05, offset: 0x10D05, size: 0x8, addend: 0x0, symName: __ZSt4sortIN9__gnu_cxx17__normal_iteratorIPSt5arrayIiLm3EESt6vectorIS3_SaIS3_EEEEZ4mainEUlS3_S3_E_EvT_SA_T0_, symObjAddr: 0x844, symBinAddr: 0x10000402C, symSize: 0x40 }
  - { offsetInCU: 0x10D2C, offset: 0x10D2C, size: 0x8, addend: 0x0, symName: __ZNSt6vectorISt5arrayIiLm3EESaIS1_EE5beginEv, symObjAddr: 0x7F8, symBinAddr: 0x100003FE0, symSize: 0x24 }
  - { offsetInCU: 0x10D34, offset: 0x10D34, size: 0x8, addend: 0x0, symName: __ZNSt6vectorISt5arrayIiLm3EESaIS1_EE3endEv, symObjAddr: 0x81C, symBinAddr: 0x100004004, symSize: 0x28 }
  - { offsetInCU: 0x10D5B, offset: 0x10D5B, size: 0x8, addend: 0x0, symName: __ZNSt5arrayIiLm3EEixEm, symObjAddr: 0x7D4, symBinAddr: 0x100003FBC, symSize: 0x24 }
  - { offsetInCU: 0x10D63, offset: 0x10D63, size: 0x8, addend: 0x0, symName: __ZNSt6vectorISt5arrayIiLm3EESaIS1_EE5beginEv, symObjAddr: 0x7F8, symBinAddr: 0x100003FE0, symSize: 0x24 }
  - { offsetInCU: 0x10D9D, offset: 0x10D9D, size: 0x8, addend: 0x0, symName: __ZNSt6vectorISt5arrayIiLm3EESaIS1_EEixEm, symObjAddr: 0x7A0, symBinAddr: 0x100003F88, symSize: 0x34 }
  - { offsetInCU: 0x10DA5, offset: 0x10DA5, size: 0x8, addend: 0x0, symName: __ZNSt5arrayIiLm3EEixEm, symObjAddr: 0x7D4, symBinAddr: 0x100003FBC, symSize: 0x24 }
  - { offsetInCU: 0x10E20, offset: 0x10E20, size: 0x8, addend: 0x0, symName: __ZNSt6vectorIiSaIiEED1Ev, symObjAddr: 0x744, symBinAddr: 0x100003F2C, symSize: 0x5C }
  - { offsetInCU: 0x10E28, offset: 0x10E28, size: 0x8, addend: 0x0, symName: __ZNSt6vectorISt5arrayIiLm3EESaIS1_EEixEm, symObjAddr: 0x7A0, symBinAddr: 0x100003F88, symSize: 0x34 }
  - { offsetInCU: 0x10ECE, offset: 0x10ECE, size: 0x8, addend: 0x0, symName: __ZNSt6vectorIiSaIiEEC1EmRKS0_, symObjAddr: 0x6DC, symBinAddr: 0x100003EC4, symSize: 0x68 }
  - { offsetInCU: 0x10ED6, offset: 0x10ED6, size: 0x8, addend: 0x0, symName: __ZNSt6vectorIiSaIiEED1Ev, symObjAddr: 0x744, symBinAddr: 0x100003F2C, symSize: 0x5C }
  - { offsetInCU: 0x10F86, offset: 0x10F86, size: 0x8, addend: 0x0, symName: __ZNSt6vectorISt5arrayIiLm3EESaIS1_EED1Ev, symObjAddr: 0x680, symBinAddr: 0x100003E68, symSize: 0x5C }
  - { offsetInCU: 0x10F8E, offset: 0x10F8E, size: 0x8, addend: 0x0, symName: __ZNSt6vectorIiSaIiEEC1EmRKS0_, symObjAddr: 0x6DC, symBinAddr: 0x100003EC4, symSize: 0x68 }
  - { offsetInCU: 0x11034, offset: 0x11034, size: 0x8, addend: 0x0, symName: __ZNSt6vectorISt5arrayIiLm3EESaIS1_EEC1EmRKS2_, symObjAddr: 0x618, symBinAddr: 0x100003E00, symSize: 0x68 }
  - { offsetInCU: 0x1103C, offset: 0x1103C, size: 0x8, addend: 0x0, symName: __ZNSt6vectorISt5arrayIiLm3EESaIS1_EED1Ev, symObjAddr: 0x680, symBinAddr: 0x100003E68, symSize: 0x5C }
  - { offsetInCU: 0x11134, offset: 0x11134, size: 0x8, addend: 0x0, symName: __ZN10__gnu_pbds4treeISt5arrayIiLm2EENS_9null_typeESt4lessIS2_ENS_11rb_tree_tagENS_33tree_order_statistics_node_updateESaIcEED0Ev, symObjAddr: 0x5F0, symBinAddr: 0x100003DD8, symSize: 0x28 }
  - { offsetInCU: 0x1113C, offset: 0x1113C, size: 0x8, addend: 0x0, symName: __ZNSt6vectorISt5arrayIiLm3EESaIS1_EEC1EmRKS2_, symObjAddr: 0x618, symBinAddr: 0x100003E00, symSize: 0x68 }
  - { offsetInCU: 0x11162, offset: 0x11162, size: 0x8, addend: 0x0, symName: __ZN10__gnu_pbds4treeISt5arrayIiLm2EENS_9null_typeESt4lessIS2_ENS_11rb_tree_tagENS_33tree_order_statistics_node_updateESaIcEED1Ev, symObjAddr: 0x5BC, symBinAddr: 0x100003DA4, symSize: 0x34 }
  - { offsetInCU: 0x1116A, offset: 0x1116A, size: 0x8, addend: 0x0, symName: __ZN10__gnu_pbds4treeISt5arrayIiLm2EENS_9null_typeESt4lessIS2_ENS_11rb_tree_tagENS_33tree_order_statistics_node_updateESaIcEED0Ev, symObjAddr: 0x5F0, symBinAddr: 0x100003DD8, symSize: 0x28 }
  - { offsetInCU: 0x111A9, offset: 0x111A9, size: 0x8, addend: 0x0, symName: __ZN10__gnu_pbds4treeISt5arrayIiLm2EENS_9null_typeESt4lessIS2_ENS_11rb_tree_tagENS_33tree_order_statistics_node_updateESaIcEEC1Ev, symObjAddr: 0x588, symBinAddr: 0x100003D70, symSize: 0x34 }
  - { offsetInCU: 0x111B1, offset: 0x111B1, size: 0x8, addend: 0x0, symName: __ZN10__gnu_pbds4treeISt5arrayIiLm2EENS_9null_typeESt4lessIS2_ENS_11rb_tree_tagENS_33tree_order_statistics_node_updateESaIcEED1Ev, symObjAddr: 0x5BC, symBinAddr: 0x100003DA4, symSize: 0x34 }
  - { offsetInCU: 0x11160, offset: 0x11160, size: 0x8, addend: 0x0, symName: _main, symObjAddr: 0x160, symBinAddr: 0x100003948, symSize: 0x428 }
  - { offsetInCU: 0x11168, offset: 0x11168, size: 0x8, addend: 0x0, symName: __ZN10__gnu_pbds4treeISt5arrayIiLm2EENS_9null_typeESt4lessIS2_ENS_11rb_tree_tagENS_33tree_order_statistics_node_updateESaIcEEC1Ev, symObjAddr: 0x588, symBinAddr: 0x100003D70, symSize: 0x34 }
  - { offsetInCU: 0x11271, offset: 0x11271, size: 0x8, addend: 0x0, symName: __ZZ4mainENKUlSt5arrayIiLm3EES0_E_clES0_S0_, symObjAddr: 0x90, symBinAddr: 0x100003878, symSize: 0xD0 }
  - { offsetInCU: 0x11279, offset: 0x11279, size: 0x8, addend: 0x0, symName: _main, symObjAddr: 0x160, symBinAddr: 0x100003948, symSize: 0x428 }
  - { offsetInCU: 0x11535, offset: 0x11535, size: 0x8, addend: 0x0, symName: __ZNKSt5arrayIiLm3EEixEm, symObjAddr: 0x6C, symBinAddr: 0x100003854, symSize: 0x24 }
  - { offsetInCU: 0x1153D, offset: 0x1153D, size: 0x8, addend: 0x0, symName: __ZZ4mainENKUlSt5arrayIiLm3EES0_E_clES0_S0_, symObjAddr: 0x90, symBinAddr: 0x100003878, symSize: 0xD0 }
  - { offsetInCU: 0x115A8, offset: 0x115A8, size: 0x8, addend: 0x0, symName: __ZSt3minImERKT_S2_S2_, symObjAddr: 0x34, symBinAddr: 0x10000381C, symSize: 0x38 }
  - { offsetInCU: 0x115B0, offset: 0x115B0, size: 0x8, addend: 0x0, symName: __ZNKSt5arrayIiLm3EEixEm, symObjAddr: 0x6C, symBinAddr: 0x100003854, symSize: 0x24 }
  - { offsetInCU: 0x11604, offset: 0x11604, size: 0x8, addend: 0x0, symName: __ZSt17__size_to_integerm, symObjAddr: 0x20, symBinAddr: 0x100003808, symSize: 0x14 }
  - { offsetInCU: 0x1160C, offset: 0x1160C, size: 0x8, addend: 0x0, symName: __ZSt3minImERKT_S2_S2_, symObjAddr: 0x34, symBinAddr: 0x10000381C, symSize: 0x38 }
  - { offsetInCU: 0x11651, offset: 0x11651, size: 0x8, addend: 0x0, symName: __ZN9__gnu_cxx5__ops16__iter_less_iterEv, symObjAddr: 0x18, symBinAddr: 0x100003800, symSize: 0x8 }
  - { offsetInCU: 0x11659, offset: 0x11659, size: 0x8, addend: 0x0, symName: __ZSt17__size_to_integerm, symObjAddr: 0x20, symBinAddr: 0x100003808, symSize: 0x14 }
  - { offsetInCU: 0x1164D, offset: 0x1164D, size: 0x8, addend: 0x0, symName: __ZnwmPv, symObjAddr: 0x0, symBinAddr: 0x1000037E8, symSize: 0x18 }
  - { offsetInCU: 0x11655, offset: 0x11655, size: 0x8, addend: 0x0, symName: __ZN9__gnu_cxx5__ops16__iter_less_iterEv, symObjAddr: 0x18, symBinAddr: 0x100003800, symSize: 0x8 }
...
