---
triple:          'arm64-apple-darwin'
binary-path:     '/Users/dingkai/Code/IOI2024/LiyudongCodeTrainingClub/leecode.out'
relocations:
  - { offsetInCU: 0x8033, offset: 0x8033, size: 0x8, addend: 0x0, symName: __ZNSt3__14endlB7v160006IcNS_11char_traitsIcEEEERNS_13basic_ostreamIT_T0_EES7_, symObjAddr: 0x3C4, symBinAddr: 0x100002168, symSize: 0x58 }
  - { offsetInCU: 0x8073, offset: 0x8073, size: 0x8, addend: 0x0, symName: __ZNSt3__1neB7v160006IPiEEbRKNS_11__wrap_iterIT_EES6_, symObjAddr: 0x86C, symBinAddr: 0x100002610, symSize: 0x34 }
  - { offsetInCU: 0x80B6, offset: 0x80B6, size: 0x8, addend: 0x0, symName: __ZNSt3__13maxB7v160006IiEERKT_S3_S3_, symObjAddr: 0x930, symBinAddr: 0x1000026D4, symSize: 0x2C }
  - { offsetInCU: 0x80F9, offset: 0x80F9, size: 0x8, addend: 0x0, symName: __ZNSt3__1eqB7v160006IPiEEbRKNS_11__wrap_iterIT_EES6_, symObjAddr: 0xA34, symBinAddr: 0x1000027D8, symSize: 0x48 }
  - { offsetInCU: 0x813C, offset: 0x813C, size: 0x8, addend: 0x0, symName: __ZNSt3__13maxB7v160006ImEERKT_S3_S3_, symObjAddr: 0x19A0, symBinAddr: 0x100003744, symSize: 0x2C }
  - { offsetInCU: 0x85D8, offset: 0x85D8, size: 0x8, addend: 0x0, symName: __ZNSt3__14swapB7v160006IPPN8Solution9RectangleEEENS_9enable_ifIXaasr21is_move_constructibleIT_EE5valuesr18is_move_assignableIS6_EE5valueEvE4typeERS6_S9_, symObjAddr: 0x2008, symBinAddr: 0x100003DAC, symSize: 0x3C }
  - { offsetInCU: 0x8629, offset: 0x8629, size: 0x8, addend: 0x0, symName: __ZNSt3__14moveB7v160006IPPN8Solution9RectangleES4_EET0_T_S6_S5_, symObjAddr: 0x2138, symBinAddr: 0x100003EDC, symSize: 0x40 }
  - { offsetInCU: 0x869F, offset: 0x869F, size: 0x8, addend: 0x0, symName: __ZNSt3__112__to_addressB7v160006IPN8Solution9RectangleEEEPT_S5_, symObjAddr: 0x22DC, symBinAddr: 0x100004080, symSize: 0x14 }
  - { offsetInCU: 0x86D4, offset: 0x86D4, size: 0x8, addend: 0x0, symName: __ZNSt3__16__moveB7v160006INS_17_ClassicAlgPolicyEPPN8Solution9RectangleES5_S5_EENS_4pairIT0_T2_EES7_T1_S8_, symObjAddr: 0x22F0, symBinAddr: 0x100004094, symSize: 0x44 }
  - { offsetInCU: 0x8740, offset: 0x8740, size: 0x8, addend: 0x0, symName: __ZNSt3__123__dispatch_copy_or_moveB7v160006INS_17_ClassicAlgPolicyENS_11__move_loopIS1_EENS_14__move_trivialEPPN8Solution9RectangleES8_S8_EENS_4pairIT2_T4_EESA_T3_SB_, symObjAddr: 0x2334, symBinAddr: 0x1000040D8, symSize: 0x44 }
  - { offsetInCU: 0x87BE, offset: 0x87BE, size: 0x8, addend: 0x0, symName: __ZNSt3__121__unwrap_and_dispatchB7v160006INS_10__overloadINS_11__move_loopINS_17_ClassicAlgPolicyEEENS_14__move_trivialEEEPPN8Solution9RectangleESA_SA_Li0EEENS_4pairIT0_T2_EESC_T1_SD_, symObjAddr: 0x2378, symBinAddr: 0x10000411C, symSize: 0xB4 }
  - { offsetInCU: 0x884C, offset: 0x884C, size: 0x8, addend: 0x0, symName: __ZNSt3__114__unwrap_rangeB7v160006IPPN8Solution9RectangleES4_EENS_4pairIT0_S6_EET_S8_, symObjAddr: 0x242C, symBinAddr: 0x1000041D0, symSize: 0x60 }
  - { offsetInCU: 0x8A10, offset: 0x8A10, size: 0x8, addend: 0x0, symName: __ZNSt3__113__unwrap_iterB7v160006IPPN8Solution9RectangleENS_18__unwrap_iter_implIS4_Lb1EEELi0EEEDTclsrT0_8__unwrapclsr3stdE7declvalIT_EEEES8_, symObjAddr: 0x24D4, symBinAddr: 0x100004278, symSize: 0x24 }
  - { offsetInCU: 0x8A54, offset: 0x8A54, size: 0x8, addend: 0x0, symName: __ZNSt3__19make_pairB7v160006IPPN8Solution9RectangleES4_EENS_4pairINS_18__unwrap_ref_decayIT_E4typeENS6_IT0_E4typeEEEOS7_OSA_, symObjAddr: 0x24F8, symBinAddr: 0x10000429C, symSize: 0x38 }
  - { offsetInCU: 0x8AA3, offset: 0x8AA3, size: 0x8, addend: 0x0, symName: __ZNSt3__114__rewrap_rangeB7v160006IPPN8Solution9RectangleES4_EET_S5_T0_, symObjAddr: 0x2530, symBinAddr: 0x1000042D4, symSize: 0x2C }
  - { offsetInCU: 0x8AEF, offset: 0x8AEF, size: 0x8, addend: 0x0, symName: __ZNSt3__113__rewrap_iterB7v160006IPPN8Solution9RectangleES4_NS_18__unwrap_iter_implIS4_Lb1EEEEET_S7_T0_, symObjAddr: 0x255C, symBinAddr: 0x100004300, symSize: 0x3C }
  - { offsetInCU: 0x8B44, offset: 0x8B44, size: 0x8, addend: 0x0, symName: __ZNSt3__119__copy_trivial_implB7v160006IPN8Solution9RectangleES3_EENS_4pairIPT_PT0_EES6_S6_S8_, symObjAddr: 0x2598, symBinAddr: 0x10000433C, symSize: 0x84 }
  - { offsetInCU: 0x8BAC, offset: 0x8BAC, size: 0x8, addend: 0x0, symName: __ZNSt3__19make_pairB7v160006IRPPN8Solution9RectangleES4_EENS_4pairINS_18__unwrap_ref_decayIT_E4typeENS7_IT0_E4typeEEEOS8_OSB_, symObjAddr: 0x261C, symBinAddr: 0x1000043C0, symSize: 0x38 }
  - { offsetInCU: 0x8C4E, offset: 0x8C4E, size: 0x8, addend: 0x0, symName: __ZNSt3__18distanceB7v160006INS_13move_iteratorIPPN8Solution9RectangleEEEEENS_15iterator_traitsIT_E15difference_typeES8_S8_, symObjAddr: 0x27A8, symBinAddr: 0x10000454C, symSize: 0x3C }
  - { offsetInCU: 0x8C91, offset: 0x8C91, size: 0x8, addend: 0x0, symName: __ZNSt3__110__distanceB7v160006INS_13move_iteratorIPPN8Solution9RectangleEEEEENS_15iterator_traitsIT_E15difference_typeES8_S8_NS_26random_access_iterator_tagE, symObjAddr: 0x28E0, symBinAddr: 0x100004684, symSize: 0x30 }
  - { offsetInCU: 0x8CDE, offset: 0x8CDE, size: 0x8, addend: 0x0, symName: __ZNSt3__1miB7v160006IPPN8Solution9RectangleES4_EEDTmicldtfp_4baseEcldtfp0_4baseEERKNS_13move_iteratorIT_EERKNS6_IT0_EE, symObjAddr: 0x2910, symBinAddr: 0x1000046B4, symSize: 0x48 }
  - { offsetInCU: 0x8D2D, offset: 0x8D2D, size: 0x8, addend: 0x0, symName: __ZNSt3__117__libcpp_allocateB7v160006Emm, symObjAddr: 0x2B94, symBinAddr: 0x100004938, symSize: 0x60 }
  - { offsetInCU: 0x8D87, offset: 0x8D87, size: 0x8, addend: 0x0, symName: __ZNSt3__124__is_overaligned_for_newB7v160006Em, symObjAddr: 0x2C08, symBinAddr: 0x1000049AC, symSize: 0x20 }
  - { offsetInCU: 0x8DB5, offset: 0x8DB5, size: 0x8, addend: 0x0, symName: __ZNSt3__121__libcpp_operator_newB7v160006IJmSt11align_val_tEEEPvDpT_, symObjAddr: 0x2C28, symBinAddr: 0x1000049CC, symSize: 0x2C }
  - { offsetInCU: 0x8E02, offset: 0x8E02, size: 0x8, addend: 0x0, symName: __ZNSt3__121__libcpp_operator_newB7v160006IJmEEEPvDpT_, symObjAddr: 0x2C54, symBinAddr: 0x1000049F8, symSize: 0x24 }
  - { offsetInCU: 0x8E3B, offset: 0x8E3B, size: 0x8, addend: 0x0, symName: __ZNSt3__113move_backwardB7v160006IPPN8Solution9RectangleES4_EET0_T_S6_S5_, symObjAddr: 0x2C78, symBinAddr: 0x100004A1C, symSize: 0x40 }
  - { offsetInCU: 0x8E95, offset: 0x8E95, size: 0x8, addend: 0x0, symName: __ZNSt3__115__move_backwardB7v160006INS_17_ClassicAlgPolicyEPPN8Solution9RectangleES5_S5_EENS_4pairIT0_T2_EES7_T1_S8_, symObjAddr: 0x2CB8, symBinAddr: 0x100004A5C, symSize: 0x44 }
  - { offsetInCU: 0x8F01, offset: 0x8F01, size: 0x8, addend: 0x0, symName: __ZNSt3__123__dispatch_copy_or_moveB7v160006INS_17_ClassicAlgPolicyENS_20__move_backward_loopIS1_EENS_23__move_backward_trivialEPPN8Solution9RectangleES8_S8_EENS_4pairIT2_T4_EESA_T3_SB_, symObjAddr: 0x2CFC, symBinAddr: 0x100004AA0, symSize: 0x44 }
  - { offsetInCU: 0x8F7F, offset: 0x8F7F, size: 0x8, addend: 0x0, symName: __ZNSt3__121__unwrap_and_dispatchB7v160006INS_10__overloadINS_20__move_backward_loopINS_17_ClassicAlgPolicyEEENS_23__move_backward_trivialEEEPPN8Solution9RectangleESA_SA_Li0EEENS_4pairIT0_T2_EESC_T1_SD_, symObjAddr: 0x2D40, symBinAddr: 0x100004AE4, symSize: 0xB4 }
  - { offsetInCU: 0x9053, offset: 0x9053, size: 0x8, addend: 0x0, symName: __ZNSt3__128__copy_backward_trivial_implB7v160006IPN8Solution9RectangleES3_EENS_4pairIPT_PT0_EES6_S6_S8_, symObjAddr: 0x2E3C, symBinAddr: 0x100004BE0, symSize: 0x94 }
  - { offsetInCU: 0x90BB, offset: 0x90BB, size: 0x8, addend: 0x0, symName: __ZNSt3__19make_pairB7v160006IRPPN8Solution9RectangleES5_EENS_4pairINS_18__unwrap_ref_decayIT_E4typeENS7_IT0_E4typeEEEOS8_OSB_, symObjAddr: 0x2ED0, symBinAddr: 0x100004C74, symSize: 0x38 }
  - { offsetInCU: 0x910A, offset: 0x910A, size: 0x8, addend: 0x0, symName: __ZNSt3__13maxB7v160006ImNS_6__lessImmEEEERKT_S5_S5_T0_, symObjAddr: 0x2F78, symBinAddr: 0x100004D1C, symSize: 0x54 }
  - { offsetInCU: 0x919F, offset: 0x919F, size: 0x8, addend: 0x0, symName: __ZNSt3__119__allocate_at_leastB7v160006INS_9allocatorIPN8Solution9RectangleEEEEENS_19__allocation_resultINS_16allocator_traitsIT_E7pointerEEERS8_m, symObjAddr: 0x3148, symBinAddr: 0x100004EEC, symSize: 0x40 }
  - { offsetInCU: 0x91E2, offset: 0x91E2, size: 0x8, addend: 0x0, symName: __ZNSt3__119__libcpp_deallocateB7v160006EPvmm, symObjAddr: 0x3618, symBinAddr: 0x1000053BC, symSize: 0x60 }
  - { offsetInCU: 0x9247, offset: 0x9247, size: 0x8, addend: 0x0, symName: __ZNSt3__127__do_deallocate_handle_sizeB7v160006IJSt11align_val_tEEEvPvmDpT_, symObjAddr: 0x3678, symBinAddr: 0x10000541C, symSize: 0x30 }
  - { offsetInCU: 0x929A, offset: 0x929A, size: 0x8, addend: 0x0, symName: __ZNSt3__127__do_deallocate_handle_sizeB7v160006IJEEEvPvmDpT_, symObjAddr: 0x36A8, symBinAddr: 0x10000544C, symSize: 0x28 }
  - { offsetInCU: 0x92D8, offset: 0x92D8, size: 0x8, addend: 0x0, symName: __ZNSt3__124__libcpp_operator_deleteB7v160006IJPvSt11align_val_tEEEvDpT_, symObjAddr: 0x36D0, symBinAddr: 0x100005474, symSize: 0x2C }
  - { offsetInCU: 0x9321, offset: 0x9321, size: 0x8, addend: 0x0, symName: __ZNSt3__124__libcpp_operator_deleteB7v160006IJPvEEEvDpT_, symObjAddr: 0x36FC, symBinAddr: 0x1000054A0, symSize: 0x24 }
  - { offsetInCU: 0x9356, offset: 0x9356, size: 0x8, addend: 0x0, symName: __ZNSt3__13maxB7v160006IiNS_6__lessIiiEEEERKT_S5_S5_T0_, symObjAddr: 0x3B18, symBinAddr: 0x1000058BC, symSize: 0x54 }
  - { offsetInCU: 0x93EB, offset: 0x93EB, size: 0x8, addend: 0x0, symName: __ZNSt3__112__to_addressB7v160006IN8Solution9RectangleEEEPT_S4_, symObjAddr: 0x3C84, symBinAddr: 0x100005A28, symSize: 0x14 }
  - { offsetInCU: 0x9420, offset: 0x9420, size: 0x8, addend: 0x0, symName: __ZNSt3__1neB7v160006ERKNS_16__deque_iteratorIN8Solution9RectangleEPS2_RS2_PS3_lLl512EEES8_, symObjAddr: 0x4214, symBinAddr: 0x100005FB8, symSize: 0x34 }
  - { offsetInCU: 0x945D, offset: 0x945D, size: 0x8, addend: 0x0, symName: __ZNSt3__1eqB7v160006ERKNS_16__deque_iteratorIN8Solution9RectangleEPS2_RS2_PS3_lLl512EEES8_, symObjAddr: 0x42B8, symBinAddr: 0x10000605C, symSize: 0x30 }
  - { offsetInCU: 0x949A, offset: 0x949A, size: 0x8, addend: 0x0, symName: __ZNSt3__122__make_exception_guardB7v160006INS_6vectorIiNS_9allocatorIiEEE16__destroy_vectorEEENS_28__exception_guard_exceptionsIT_EES7_, symObjAddr: 0x44F0, symBinAddr: 0x100006294, symSize: 0x40 }
  - { offsetInCU: 0x94CF, offset: 0x94CF, size: 0x8, addend: 0x0, symName: __ZNSt3__119__debug_db_insert_cB7v160006INS_6vectorIiNS_9allocatorIiEEEEEEvPT_, symObjAddr: 0x4564, symBinAddr: 0x100006308, symSize: 0x10 }
  - { offsetInCU: 0x9500, offset: 0x9500, size: 0x8, addend: 0x0, symName: __ZNSt3__119__allocate_at_leastB7v160006INS_9allocatorIiEEEENS_19__allocation_resultINS_16allocator_traitsIT_E7pointerEEERS5_m, symObjAddr: 0x4900, symBinAddr: 0x1000066A4, symSize: 0x40 }
  - { offsetInCU: 0x9543, offset: 0x9543, size: 0x8, addend: 0x0, symName: __ZNSt3__13minB7v160006ImEERKT_S3_S3_, symObjAddr: 0x4A3C, symBinAddr: 0x1000067E0, symSize: 0x2C }
  - { offsetInCU: 0x9770, offset: 0x9770, size: 0x8, addend: 0x0, symName: __ZNSt3__13minB7v160006ImNS_6__lessImmEEEERKT_S5_S5_T0_, symObjAddr: 0x4AC8, symBinAddr: 0x10000686C, symSize: 0x54 }
  - { offsetInCU: 0x97CA, offset: 0x97CA, size: 0x8, addend: 0x0, symName: __ZNSt3__120__throw_length_errorB7v160006EPKc, symObjAddr: 0x4B70, symBinAddr: 0x100006914, symSize: 0x64 }
  - { offsetInCU: 0x97F2, offset: 0x97F2, size: 0x8, addend: 0x0, symName: __ZNSt3__112__to_addressB7v160006IiEEPT_S2_, symObjAddr: 0x4DA4, symBinAddr: 0x100006B48, symSize: 0x14 }
  - { offsetInCU: 0x9827, offset: 0x9827, size: 0x8, addend: 0x0, symName: __ZNSt3__130__uninitialized_allocator_copyB7v160006INS_9allocatorIiEEiiLPv0EEEPT0_RT_PKS4_S9_S5_, symObjAddr: 0x4E54, symBinAddr: 0x100006BF8, symSize: 0x38 }
  - { offsetInCU: 0x989F, offset: 0x989F, size: 0x8, addend: 0x0, symName: __ZNSt3__14copyB7v160006IPKiPiEET0_T_S5_S4_, symObjAddr: 0x4EFC, symBinAddr: 0x100006CA0, symSize: 0x40 }
  - { offsetInCU: 0x98F9, offset: 0x98F9, size: 0x8, addend: 0x0, symName: __ZNSt3__16__copyB7v160006INS_17_ClassicAlgPolicyEPKiS3_PiEENS_4pairIT0_T2_EES6_T1_S7_, symObjAddr: 0x4F3C, symBinAddr: 0x100006CE0, symSize: 0x44 }
  - { offsetInCU: 0x9965, offset: 0x9965, size: 0x8, addend: 0x0, symName: __ZNSt3__123__dispatch_copy_or_moveB7v160006INS_17_ClassicAlgPolicyENS_11__copy_loopIS1_EENS_14__copy_trivialEPKiS6_PiEENS_4pairIT2_T4_EES9_T3_SA_, symObjAddr: 0x4F80, symBinAddr: 0x100006D24, symSize: 0x44 }
  - { offsetInCU: 0x99E3, offset: 0x99E3, size: 0x8, addend: 0x0, symName: __ZNSt3__121__unwrap_and_dispatchB7v160006INS_10__overloadINS_11__copy_loopINS_17_ClassicAlgPolicyEEENS_14__copy_trivialEEEPKiS8_PiLi0EEENS_4pairIT0_T2_EESB_T1_SC_, symObjAddr: 0x4FC4, symBinAddr: 0x100006D68, symSize: 0xB4 }
  - { offsetInCU: 0x9A71, offset: 0x9A71, size: 0x8, addend: 0x0, symName: __ZNSt3__114__unwrap_rangeB7v160006IPKiS2_EENS_4pairIT0_S4_EET_S6_, symObjAddr: 0x5078, symBinAddr: 0x100006E1C, symSize: 0x60 }
  - { offsetInCU: 0x9C06, offset: 0x9C06, size: 0x8, addend: 0x0, symName: __ZNSt3__113__unwrap_iterB7v160006IPiNS_18__unwrap_iter_implIS1_Lb1EEELi0EEEDTclsrT0_8__unwrapclsr3stdE7declvalIT_EEEES5_, symObjAddr: 0x5120, symBinAddr: 0x100006EC4, symSize: 0x24 }
  - { offsetInCU: 0x9C4A, offset: 0x9C4A, size: 0x8, addend: 0x0, symName: __ZNSt3__19make_pairB7v160006IPKiPiEENS_4pairINS_18__unwrap_ref_decayIT_E4typeENS5_IT0_E4typeEEEOS6_OS9_, symObjAddr: 0x5144, symBinAddr: 0x100006EE8, symSize: 0x38 }
  - { offsetInCU: 0x9C99, offset: 0x9C99, size: 0x8, addend: 0x0, symName: __ZNSt3__114__rewrap_rangeB7v160006IPKiS2_EET_S3_T0_, symObjAddr: 0x517C, symBinAddr: 0x100006F20, symSize: 0x2C }
  - { offsetInCU: 0x9CE5, offset: 0x9CE5, size: 0x8, addend: 0x0, symName: __ZNSt3__113__rewrap_iterB7v160006IPiS1_NS_18__unwrap_iter_implIS1_Lb1EEEEET_S4_T0_, symObjAddr: 0x51A8, symBinAddr: 0x100006F4C, symSize: 0x3C }
  - { offsetInCU: 0x9D3A, offset: 0x9D3A, size: 0x8, addend: 0x0, symName: __ZNSt3__19make_pairB7v160006IPKiS2_EENS_4pairINS_18__unwrap_ref_decayIT_E4typeENS4_IT0_E4typeEEEOS5_OS8_, symObjAddr: 0x51E4, symBinAddr: 0x100006F88, symSize: 0x38 }
  - { offsetInCU: 0x9D89, offset: 0x9D89, size: 0x8, addend: 0x0, symName: __ZNSt3__113__unwrap_iterB7v160006IPKiNS_18__unwrap_iter_implIS2_Lb1EEELi0EEEDTclsrT0_8__unwrapclsr3stdE7declvalIT_EEEES6_, symObjAddr: 0x521C, symBinAddr: 0x100006FC0, symSize: 0x24 }
  - { offsetInCU: 0x9EF4, offset: 0x9EF4, size: 0x8, addend: 0x0, symName: __ZNSt3__112__to_addressB7v160006IKiEEPT_S3_, symObjAddr: 0x52D4, symBinAddr: 0x100007078, symSize: 0x14 }
  - { offsetInCU: 0x9F29, offset: 0x9F29, size: 0x8, addend: 0x0, symName: __ZNSt3__119__copy_trivial_implB7v160006IKiiEENS_4pairIPT_PT0_EES4_S4_S6_, symObjAddr: 0x52E8, symBinAddr: 0x10000708C, symSize: 0x84 }
  - { offsetInCU: 0x9F91, offset: 0x9F91, size: 0x8, addend: 0x0, symName: __ZNSt3__19make_pairB7v160006IRPKiPiEENS_4pairINS_18__unwrap_ref_decayIT_E4typeENS6_IT0_E4typeEEEOS7_OSA_, symObjAddr: 0x536C, symBinAddr: 0x100007110, symSize: 0x38 }
  - { offsetInCU: 0xA033, offset: 0xA033, size: 0x8, addend: 0x0, symName: __ZNSt3__113__rewrap_iterB7v160006IPKiS2_NS_18__unwrap_iter_implIS2_Lb1EEEEET_S5_T0_, symObjAddr: 0x54A8, symBinAddr: 0x10000724C, symSize: 0x3C }
  - { offsetInCU: 0xA088, offset: 0xA088, size: 0x8, addend: 0x0, symName: __ZNSt3__118__debug_db_erase_cB7v160006INS_6vectorIiNS_9allocatorIiEEEEEEvPT_, symObjAddr: 0x5748, symBinAddr: 0x1000074EC, symSize: 0x10 }
  - { offsetInCU: 0xA0B9, offset: 0xA0B9, size: 0x8, addend: 0x0, symName: __ZNSt3__19use_facetB7v160006INS_5ctypeIcEEEERKT_RKNS_6localeE, symObjAddr: 0x59B0, symBinAddr: 0x100007754, symSize: 0x2C }
  - { offsetInCU: 0xA9B1, offset: 0xA9B1, size: 0x8, addend: 0x0, symName: __ZSt28__throw_bad_array_new_lengthB7v160006v, symObjAddr: 0x2B60, symBinAddr: 0x100004904, symSize: 0x34 }
  - { offsetInCU: 0xD31F, offset: 0xD31F, size: 0x8, addend: 0x0, symName: _main, symObjAddr: 0x0, symBinAddr: 0x100001DA4, symSize: 0x130 }
  - { offsetInCU: 0xD357, offset: 0xD357, size: 0x8, addend: 0x0, symName: __ZN8SolutionC1Ev, symObjAddr: 0x130, symBinAddr: 0x100001ED4, symSize: 0x2C }
  - { offsetInCU: 0xD383, offset: 0xD383, size: 0x8, addend: 0x0, symName: __ZNSt3__16vectorIiNS_9allocatorIiEEEC1B7v160006ESt16initializer_listIiE, symObjAddr: 0x15C, symBinAddr: 0x100001F00, symSize: 0x3C }
  - { offsetInCU: 0xD3BE, offset: 0xD3BE, size: 0x8, addend: 0x0, symName: __ZN8Solution20largestRectangleAreaERNSt3__16vectorIiNS0_9allocatorIiEEEE, symObjAddr: 0x198, symBinAddr: 0x100001F3C, symSize: 0x200 }
  - { offsetInCU: 0xD50F, offset: 0xD50F, size: 0x8, addend: 0x0, symName: __ZNSt3__113basic_ostreamIcNS_11char_traitsIcEEElsB7v160006EPFRS3_S4_E, symObjAddr: 0x398, symBinAddr: 0x10000213C, symSize: 0x2C }
  - { offsetInCU: 0xD543, offset: 0xD543, size: 0x8, addend: 0x0, symName: __ZNSt3__16vectorIiNS_9allocatorIiEEED1B7v160006Ev, symObjAddr: 0x41C, symBinAddr: 0x1000021C0, symSize: 0x2C }
  - { offsetInCU: 0xD56D, offset: 0xD56D, size: 0x8, addend: 0x0, symName: __ZN8SolutionD1Ev, symObjAddr: 0x448, symBinAddr: 0x1000021EC, symSize: 0x2C }
  - { offsetInCU: 0xD599, offset: 0xD599, size: 0x8, addend: 0x0, symName: __ZN8SolutionC2Ev, symObjAddr: 0x474, symBinAddr: 0x100002218, symSize: 0x2C }
  - { offsetInCU: 0xD5C5, offset: 0xD5C5, size: 0x8, addend: 0x0, symName: __ZNSt3__15stackIN8Solution9RectangleENS_5dequeIS2_NS_9allocatorIS2_EEEEEC1B7v160006Ev, symObjAddr: 0x4A0, symBinAddr: 0x100002244, symSize: 0x2C }
  - { offsetInCU: 0xD5EF, offset: 0xD5EF, size: 0x8, addend: 0x0, symName: __ZNSt3__15stackIN8Solution9RectangleENS_5dequeIS2_NS_9allocatorIS2_EEEEEC2B7v160006Ev, symObjAddr: 0x4CC, symBinAddr: 0x100002270, symSize: 0x2C }
  - { offsetInCU: 0xD619, offset: 0xD619, size: 0x8, addend: 0x0, symName: __ZNSt3__15dequeIN8Solution9RectangleENS_9allocatorIS2_EEEC1B7v160006Ev, symObjAddr: 0x4F8, symBinAddr: 0x10000229C, symSize: 0x2C }
  - { offsetInCU: 0xD643, offset: 0xD643, size: 0x8, addend: 0x0, symName: __ZNSt3__15dequeIN8Solution9RectangleENS_9allocatorIS2_EEEC2B7v160006Ev, symObjAddr: 0x524, symBinAddr: 0x1000022C8, symSize: 0x50 }
  - { offsetInCU: 0xD66D, offset: 0xD66D, size: 0x8, addend: 0x0, symName: __ZNSt3__114__split_bufferIPN8Solution9RectangleENS_9allocatorIS3_EEEC1Ev, symObjAddr: 0x574, symBinAddr: 0x100002318, symSize: 0x2C }
  - { offsetInCU: 0xD6A3, offset: 0xD6A3, size: 0x8, addend: 0x0, symName: __ZNSt3__117__compressed_pairImNS_9allocatorIN8Solution9RectangleEEEEC1B7v160006IiNS_18__default_init_tagEEEOT_OT0_, symObjAddr: 0x5A0, symBinAddr: 0x100002344, symSize: 0x3C }
  - { offsetInCU: 0xD6FB, offset: 0xD6FB, size: 0x8, addend: 0x0, symName: __ZNSt3__114__split_bufferIPN8Solution9RectangleENS_9allocatorIS3_EEEC2Ev, symObjAddr: 0x5E8, symBinAddr: 0x10000238C, symSize: 0x50 }
  - { offsetInCU: 0xD72C, offset: 0xD72C, size: 0x8, addend: 0x0, symName: __ZNSt3__117__compressed_pairIPPN8Solution9RectangleENS_9allocatorIS3_EEEC1B7v160006IDnNS_18__default_init_tagEEEOT_OT0_, symObjAddr: 0x638, symBinAddr: 0x1000023DC, symSize: 0x3C }
  - { offsetInCU: 0xD784, offset: 0xD784, size: 0x8, addend: 0x0, symName: __ZNSt3__117__compressed_pairIPPN8Solution9RectangleENS_9allocatorIS3_EEEC2B7v160006IDnNS_18__default_init_tagEEEOT_OT0_, symObjAddr: 0x674, symBinAddr: 0x100002418, symSize: 0x40 }
  - { offsetInCU: 0xD7DC, offset: 0xD7DC, size: 0x8, addend: 0x0, symName: __ZNSt3__122__compressed_pair_elemIPPN8Solution9RectangleELi0ELb0EEC2B7v160006IDnvEEOT_, symObjAddr: 0x6B4, symBinAddr: 0x100002458, symSize: 0x1C }
  - { offsetInCU: 0xD81E, offset: 0xD81E, size: 0x8, addend: 0x0, symName: __ZNSt3__122__compressed_pair_elemINS_9allocatorIPN8Solution9RectangleEEELi1ELb1EEC2B7v160006ENS_18__default_init_tagE, symObjAddr: 0x6D0, symBinAddr: 0x100002474, symSize: 0x2C }
  - { offsetInCU: 0xD852, offset: 0xD852, size: 0x8, addend: 0x0, symName: __ZNSt3__19allocatorIPN8Solution9RectangleEEC2B7v160006Ev, symObjAddr: 0x6FC, symBinAddr: 0x1000024A0, symSize: 0x2C }
  - { offsetInCU: 0xD87C, offset: 0xD87C, size: 0x8, addend: 0x0, symName: __ZNSt3__116__non_trivial_ifILb1ENS_9allocatorIPN8Solution9RectangleEEEEC2B7v160006Ev, symObjAddr: 0x728, symBinAddr: 0x1000024CC, symSize: 0x14 }
  - { offsetInCU: 0xD8A6, offset: 0xD8A6, size: 0x8, addend: 0x0, symName: __ZNSt3__117__compressed_pairImNS_9allocatorIN8Solution9RectangleEEEEC2B7v160006IiNS_18__default_init_tagEEEOT_OT0_, symObjAddr: 0x73C, symBinAddr: 0x1000024E0, symSize: 0x40 }
  - { offsetInCU: 0xD8FE, offset: 0xD8FE, size: 0x8, addend: 0x0, symName: __ZNSt3__122__compressed_pair_elemImLi0ELb0EEC2B7v160006IivEEOT_, symObjAddr: 0x77C, symBinAddr: 0x100002520, symSize: 0x24 }
  - { offsetInCU: 0xD940, offset: 0xD940, size: 0x8, addend: 0x0, symName: __ZNSt3__122__compressed_pair_elemINS_9allocatorIN8Solution9RectangleEEELi1ELb1EEC2B7v160006ENS_18__default_init_tagE, symObjAddr: 0x7A0, symBinAddr: 0x100002544, symSize: 0x2C }
  - { offsetInCU: 0xD974, offset: 0xD974, size: 0x8, addend: 0x0, symName: __ZNSt3__19allocatorIN8Solution9RectangleEEC2B7v160006Ev, symObjAddr: 0x7CC, symBinAddr: 0x100002570, symSize: 0x2C }
  - { offsetInCU: 0xD99E, offset: 0xD99E, size: 0x8, addend: 0x0, symName: __ZNSt3__116__non_trivial_ifILb1ENS_9allocatorIN8Solution9RectangleEEEEC2B7v160006Ev, symObjAddr: 0x7F8, symBinAddr: 0x10000259C, symSize: 0x14 }
  - { offsetInCU: 0xD9C8, offset: 0xD9C8, size: 0x8, addend: 0x0, symName: __ZNSt3__16vectorIiNS_9allocatorIiEEE5beginB7v160006Ev, symObjAddr: 0x80C, symBinAddr: 0x1000025B0, symSize: 0x30 }
  - { offsetInCU: 0xD9F0, offset: 0xD9F0, size: 0x8, addend: 0x0, symName: __ZNSt3__16vectorIiNS_9allocatorIiEEE3endB7v160006Ev, symObjAddr: 0x83C, symBinAddr: 0x1000025E0, symSize: 0x30 }
  - { offsetInCU: 0xDA18, offset: 0xDA18, size: 0x8, addend: 0x0, symName: __ZNKSt3__111__wrap_iterIPiEdeB7v160006Ev, symObjAddr: 0x8A0, symBinAddr: 0x100002644, symSize: 0x18 }
  - { offsetInCU: 0xDA3E, offset: 0xDA3E, size: 0x8, addend: 0x0, symName: __ZNKSt3__15stackIN8Solution9RectangleENS_5dequeIS2_NS_9allocatorIS2_EEEEE5emptyB7v160006Ev, symObjAddr: 0x8B8, symBinAddr: 0x10000265C, symSize: 0x28 }
  - { offsetInCU: 0xDA64, offset: 0xDA64, size: 0x8, addend: 0x0, symName: __ZNSt3__15stackIN8Solution9RectangleENS_5dequeIS2_NS_9allocatorIS2_EEEEE4pushB7v160006EOS2_, symObjAddr: 0x8E0, symBinAddr: 0x100002684, symSize: 0x2C }
  - { offsetInCU: 0xDA98, offset: 0xDA98, size: 0x8, addend: 0x0, symName: __ZNSt3__15stackIN8Solution9RectangleENS_5dequeIS2_NS_9allocatorIS2_EEEEE3topB7v160006Ev, symObjAddr: 0x90C, symBinAddr: 0x1000026B0, symSize: 0x24 }
  - { offsetInCU: 0xDABE, offset: 0xDABE, size: 0x8, addend: 0x0, symName: __ZNSt3__15stackIN8Solution9RectangleENS_5dequeIS2_NS_9allocatorIS2_EEEEE3popB7v160006Ev, symObjAddr: 0x95C, symBinAddr: 0x100002700, symSize: 0x24 }
  - { offsetInCU: 0xDAE4, offset: 0xDAE4, size: 0x8, addend: 0x0, symName: __ZNSt3__111__wrap_iterIPiEppB7v160006Ev, symObjAddr: 0x980, symBinAddr: 0x100002724, symSize: 0x20 }
  - { offsetInCU: 0xDB0A, offset: 0xDB0A, size: 0x8, addend: 0x0, symName: __ZNSt3__16vectorIiNS_9allocatorIiEEE11__make_iterB7v160006EPi, symObjAddr: 0x9A0, symBinAddr: 0x100002744, symSize: 0x34 }
  - { offsetInCU: 0xDB3F, offset: 0xDB3F, size: 0x8, addend: 0x0, symName: __ZNSt3__111__wrap_iterIPiEC1B7v160006EPKvS1_, symObjAddr: 0x9D4, symBinAddr: 0x100002778, symSize: 0x3C }
  - { offsetInCU: 0xDB85, offset: 0xDB85, size: 0x8, addend: 0x0, symName: __ZNSt3__111__wrap_iterIPiEC2B7v160006EPKvS1_, symObjAddr: 0xA10, symBinAddr: 0x1000027B4, symSize: 0x24 }
  - { offsetInCU: 0xDBCB, offset: 0xDBCB, size: 0x8, addend: 0x0, symName: __ZNKSt3__111__wrap_iterIPiE4baseB7v160006Ev, symObjAddr: 0xA7C, symBinAddr: 0x100002820, symSize: 0x18 }
  - { offsetInCU: 0xDBF1, offset: 0xDBF1, size: 0x8, addend: 0x0, symName: __ZNKSt3__15dequeIN8Solution9RectangleENS_9allocatorIS2_EEE5emptyB7v160006Ev, symObjAddr: 0xA94, symBinAddr: 0x100002838, symSize: 0x30 }
  - { offsetInCU: 0xDC17, offset: 0xDC17, size: 0x8, addend: 0x0, symName: __ZNKSt3__15dequeIN8Solution9RectangleENS_9allocatorIS2_EEE4sizeB7v160006Ev, symObjAddr: 0xAC4, symBinAddr: 0x100002868, symSize: 0x28 }
  - { offsetInCU: 0xDC3D, offset: 0xDC3D, size: 0x8, addend: 0x0, symName: __ZNKSt3__15dequeIN8Solution9RectangleENS_9allocatorIS2_EEE6__sizeB7v160006Ev, symObjAddr: 0xAEC, symBinAddr: 0x100002890, symSize: 0x28 }
  - { offsetInCU: 0xDC63, offset: 0xDC63, size: 0x8, addend: 0x0, symName: __ZNKSt3__117__compressed_pairImNS_9allocatorIN8Solution9RectangleEEEE5firstB7v160006Ev, symObjAddr: 0xB14, symBinAddr: 0x1000028B8, symSize: 0x24 }
  - { offsetInCU: 0xDC89, offset: 0xDC89, size: 0x8, addend: 0x0, symName: __ZNKSt3__122__compressed_pair_elemImLi0ELb0EE5__getB7v160006Ev, symObjAddr: 0xB38, symBinAddr: 0x1000028DC, symSize: 0x14 }
  - { offsetInCU: 0xDCAF, offset: 0xDCAF, size: 0x8, addend: 0x0, symName: __ZNSt3__15dequeIN8Solution9RectangleENS_9allocatorIS2_EEE9push_backEOS2_, symObjAddr: 0xB4C, symBinAddr: 0x1000028F0, symSize: 0xA0 }
  - { offsetInCU: 0xDCF5, offset: 0xDCF5, size: 0x8, addend: 0x0, symName: __ZNSt3__15dequeIN8Solution9RectangleENS_9allocatorIS2_EEE7__allocB7v160006Ev, symObjAddr: 0xBEC, symBinAddr: 0x100002990, symSize: 0x28 }
  - { offsetInCU: 0xDD1B, offset: 0xDD1B, size: 0x8, addend: 0x0, symName: __ZNKSt3__15dequeIN8Solution9RectangleENS_9allocatorIS2_EEE12__back_spareB7v160006Ev, symObjAddr: 0xC14, symBinAddr: 0x1000029B8, symSize: 0x54 }
  - { offsetInCU: 0xDD41, offset: 0xDD41, size: 0x8, addend: 0x0, symName: __ZNSt3__15dequeIN8Solution9RectangleENS_9allocatorIS2_EEE19__add_back_capacityEv, symObjAddr: 0xC68, symBinAddr: 0x100002A0C, symSize: 0x314 }
  - { offsetInCU: 0xDDFC, offset: 0xDDFC, size: 0x8, addend: 0x0, symName: __ZNSt3__116allocator_traitsINS_9allocatorIN8Solution9RectangleEEEE9constructB7v160006IS3_JS3_EvEEvRS4_PT_DpOT0_, symObjAddr: 0xF7C, symBinAddr: 0x100002D20, symSize: 0x34 }
  - { offsetInCU: 0xDE53, offset: 0xDE53, size: 0x8, addend: 0x0, symName: __ZNSt3__15dequeIN8Solution9RectangleENS_9allocatorIS2_EEE3endB7v160006Ev, symObjAddr: 0xFB0, symBinAddr: 0x100002D54, symSize: 0xCC }
  - { offsetInCU: 0xDE97, offset: 0xDE97, size: 0x8, addend: 0x0, symName: __ZNKSt3__116__deque_iteratorIN8Solution9RectangleEPS2_RS2_PS3_lLl512EEdeB7v160006Ev, symObjAddr: 0x107C, symBinAddr: 0x100002E20, symSize: 0x18 }
  - { offsetInCU: 0xDEBD, offset: 0xDEBD, size: 0x8, addend: 0x0, symName: __ZNSt3__15dequeIN8Solution9RectangleENS_9allocatorIS2_EEE6__sizeB7v160006Ev, symObjAddr: 0x1094, symBinAddr: 0x100002E38, symSize: 0x28 }
  - { offsetInCU: 0xDEE3, offset: 0xDEE3, size: 0x8, addend: 0x0, symName: __ZNSt3__117__compressed_pairImNS_9allocatorIN8Solution9RectangleEEEE6secondB7v160006Ev, symObjAddr: 0x10BC, symBinAddr: 0x100002E60, symSize: 0x24 }
  - { offsetInCU: 0xDF09, offset: 0xDF09, size: 0x8, addend: 0x0, symName: __ZNSt3__122__compressed_pair_elemINS_9allocatorIN8Solution9RectangleEEELi1ELb1EE5__getB7v160006Ev, symObjAddr: 0x10E0, symBinAddr: 0x100002E84, symSize: 0x14 }
  - { offsetInCU: 0xDF2F, offset: 0xDF2F, size: 0x8, addend: 0x0, symName: __ZNKSt3__15dequeIN8Solution9RectangleENS_9allocatorIS2_EEE10__capacityB7v160006Ev, symObjAddr: 0x10F4, symBinAddr: 0x100002E98, symSize: 0x60 }
  - { offsetInCU: 0xDF55, offset: 0xDF55, size: 0x8, addend: 0x0, symName: __ZNKSt3__114__split_bufferIPN8Solution9RectangleENS_9allocatorIS3_EEE4sizeB7v160006Ev, symObjAddr: 0x1154, symBinAddr: 0x100002EF8, symSize: 0x28 }
  - { offsetInCU: 0xDF7B, offset: 0xDF7B, size: 0x8, addend: 0x0, symName: __ZNKSt3__15dequeIN8Solution9RectangleENS_9allocatorIS2_EEE13__front_spareB7v160006Ev, symObjAddr: 0x117C, symBinAddr: 0x100002F20, symSize: 0x18 }
  - { offsetInCU: 0xDFA1, offset: 0xDFA1, size: 0x8, addend: 0x0, symName: __ZNSt3__114__split_bufferIPN8Solution9RectangleENS_9allocatorIS3_EEE5frontB7v160006Ev, symObjAddr: 0x1194, symBinAddr: 0x100002F38, symSize: 0x18 }
  - { offsetInCU: 0xDFC7, offset: 0xDFC7, size: 0x8, addend: 0x0, symName: __ZNSt3__114__split_bufferIPN8Solution9RectangleENS_9allocatorIS3_EEE9pop_frontB7v160006Ev, symObjAddr: 0x11AC, symBinAddr: 0x100002F50, symSize: 0x2C }
  - { offsetInCU: 0xDFED, offset: 0xDFED, size: 0x8, addend: 0x0, symName: __ZNSt3__114__split_bufferIPN8Solution9RectangleENS_9allocatorIS3_EEE9push_backB7v160006ERKS3_, symObjAddr: 0x11D8, symBinAddr: 0x100002F7C, symSize: 0x260 }
  - { offsetInCU: 0xE066, offset: 0xE066, size: 0x8, addend: 0x0, symName: __ZNKSt3__114__split_bufferIPN8Solution9RectangleENS_9allocatorIS3_EEE8capacityB7v160006Ev, symObjAddr: 0x1438, symBinAddr: 0x1000031DC, symSize: 0x40 }
  - { offsetInCU: 0xE08C, offset: 0xE08C, size: 0x8, addend: 0x0, symName: __ZNKSt3__114__split_bufferIPN8Solution9RectangleENS_9allocatorIS3_EEE12__back_spareB7v160006Ev, symObjAddr: 0x1478, symBinAddr: 0x10000321C, symSize: 0x40 }
  - { offsetInCU: 0xE0B2, offset: 0xE0B2, size: 0x8, addend: 0x0, symName: __ZNSt3__114__split_bufferIPN8Solution9RectangleENS_9allocatorIS3_EEE9push_backEOS3_, symObjAddr: 0x14B8, symBinAddr: 0x10000325C, symSize: 0x260 }
  - { offsetInCU: 0xE12B, offset: 0xE12B, size: 0x8, addend: 0x0, symName: __ZNSt3__116allocator_traitsINS_9allocatorIN8Solution9RectangleEEEE8allocateB7v160006ERS4_m, symObjAddr: 0x1718, symBinAddr: 0x1000034BC, symSize: 0x2C }
  - { offsetInCU: 0xE15E, offset: 0xE15E, size: 0x8, addend: 0x0, symName: __ZNSt3__114__split_bufferIPN8Solution9RectangleENS_9allocatorIS3_EEE10push_frontEOS3_, symObjAddr: 0x1744, symBinAddr: 0x1000034E8, symSize: 0x25C }
  - { offsetInCU: 0xE1D7, offset: 0xE1D7, size: 0x8, addend: 0x0, symName: __ZNSt3__114__split_bufferIPN8Solution9RectangleENS_9allocatorIS3_EEE7__allocB7v160006Ev, symObjAddr: 0x19CC, symBinAddr: 0x100003770, symSize: 0x28 }
  - { offsetInCU: 0xE1FD, offset: 0xE1FD, size: 0x8, addend: 0x0, symName: __ZNSt3__114__split_bufferIPN8Solution9RectangleERNS_9allocatorIS3_EEEC1EmmS6_, symObjAddr: 0x19F4, symBinAddr: 0x100003798, symSize: 0x44 }
  - { offsetInCU: 0xE258, offset: 0xE258, size: 0x8, addend: 0x0, symName: __ZNSt3__122__allocator_destructorINS_9allocatorIN8Solution9RectangleEEEEC1B7v160006ERS4_m, symObjAddr: 0x1A38, symBinAddr: 0x1000037DC, symSize: 0x3C }
  - { offsetInCU: 0xE31B, offset: 0xE31B, size: 0x8, addend: 0x0, symName: __ZNSt3__110unique_ptrIPN8Solution9RectangleENS_22__allocator_destructorINS_9allocatorIS2_EEEEEC1B7v160006ILb1EvEES3_NS_16__dependent_typeINS_27__unique_ptr_deleter_sfinaeIS7_EEXT_EE20__good_rval_ref_typeE, symObjAddr: 0x1A74, symBinAddr: 0x100003818, symSize: 0x3C }
  - { offsetInCU: 0xE36C, offset: 0xE36C, size: 0x8, addend: 0x0, symName: __ZNSt3__114__split_bufferIPN8Solution9RectangleERNS_9allocatorIS3_EEE9push_backEOS3_, symObjAddr: 0x1AB0, symBinAddr: 0x100003854, symSize: 0x260 }
  - { offsetInCU: 0xE3E5, offset: 0xE3E5, size: 0x8, addend: 0x0, symName: __ZNKSt3__110unique_ptrIPN8Solution9RectangleENS_22__allocator_destructorINS_9allocatorIS2_EEEEE3getB7v160006Ev, symObjAddr: 0x1D10, symBinAddr: 0x100003AB4, symSize: 0x28 }
  - { offsetInCU: 0xE40B, offset: 0xE40B, size: 0x8, addend: 0x0, symName: __ZNSt3__110unique_ptrIPN8Solution9RectangleENS_22__allocator_destructorINS_9allocatorIS2_EEEEE7releaseB7v160006Ev, symObjAddr: 0x1D38, symBinAddr: 0x100003ADC, symSize: 0x44 }
  - { offsetInCU: 0xE440, offset: 0xE440, size: 0x8, addend: 0x0, symName: __ZNSt3__114__split_bufferIPN8Solution9RectangleENS_9allocatorIS3_EEE3endB7v160006Ev, symObjAddr: 0x1D7C, symBinAddr: 0x100003B20, symSize: 0x18 }
  - { offsetInCU: 0xE466, offset: 0xE466, size: 0x8, addend: 0x0, symName: __ZNSt3__114__split_bufferIPN8Solution9RectangleENS_9allocatorIS3_EEE5beginB7v160006Ev, symObjAddr: 0x1D94, symBinAddr: 0x100003B38, symSize: 0x18 }
  - { offsetInCU: 0xE48C, offset: 0xE48C, size: 0x8, addend: 0x0, symName: __ZNSt3__114__split_bufferIPN8Solution9RectangleERNS_9allocatorIS3_EEE10push_frontERKS3_, symObjAddr: 0x1DAC, symBinAddr: 0x100003B50, symSize: 0x25C }
  - { offsetInCU: 0xE505, offset: 0xE505, size: 0x8, addend: 0x0, symName: __ZNSt3__114__split_bufferIPN8Solution9RectangleENS_9allocatorIS3_EEE9__end_capB7v160006Ev, symObjAddr: 0x2044, symBinAddr: 0x100003DE8, symSize: 0x28 }
  - { offsetInCU: 0xE52B, offset: 0xE52B, size: 0x8, addend: 0x0, symName: __ZNSt3__114__split_bufferIPN8Solution9RectangleERNS_9allocatorIS3_EEE9__end_capB7v160006Ev, symObjAddr: 0x206C, symBinAddr: 0x100003E10, symSize: 0x28 }
  - { offsetInCU: 0xE551, offset: 0xE551, size: 0x8, addend: 0x0, symName: __ZNSt3__110unique_ptrIPN8Solution9RectangleENS_22__allocator_destructorINS_9allocatorIS2_EEEEED1B7v160006Ev, symObjAddr: 0x2094, symBinAddr: 0x100003E38, symSize: 0x2C }
  - { offsetInCU: 0xE57B, offset: 0xE57B, size: 0x8, addend: 0x0, symName: __ZNSt3__114__split_bufferIPN8Solution9RectangleERNS_9allocatorIS3_EEED1Ev, symObjAddr: 0x20C0, symBinAddr: 0x100003E64, symSize: 0x2C }
  - { offsetInCU: 0xE5A7, offset: 0xE5A7, size: 0x8, addend: 0x0, symName: __ZNSt3__114__split_bufferIPN8Solution9RectangleENS_9allocatorIS3_EEE19__destruct_at_beginB7v160006EPS3_, symObjAddr: 0x20EC, symBinAddr: 0x100003E90, symSize: 0x2C }
  - { offsetInCU: 0xE5DB, offset: 0xE5DB, size: 0x8, addend: 0x0, symName: __ZNSt3__114__split_bufferIPN8Solution9RectangleENS_9allocatorIS3_EEE19__destruct_at_beginEPS3_NS_17integral_constantIbLb1EEE, symObjAddr: 0x2118, symBinAddr: 0x100003EBC, symSize: 0x20 }
  - { offsetInCU: 0xE61B, offset: 0xE61B, size: 0x8, addend: 0x0, symName: __ZNSt3__114__split_bufferIPN8Solution9RectangleERNS_9allocatorIS3_EEE18__construct_at_endINS_13move_iteratorIPS3_EEEENS_9enable_ifIXsr27__is_cpp17_forward_iteratorIT_EE5valueEvE4typeESD_SD_, symObjAddr: 0x2178, symBinAddr: 0x100003F1C, symSize: 0xFC }
  - { offsetInCU: 0xE677, offset: 0xE677, size: 0x8, addend: 0x0, symName: __ZNSt3__113move_iteratorIPPN8Solution9RectangleEEC1B7v160006ES4_, symObjAddr: 0x2274, symBinAddr: 0x100004018, symSize: 0x34 }
  - { offsetInCU: 0xE6AF, offset: 0xE6AF, size: 0x8, addend: 0x0, symName: __ZNSt3__116allocator_traitsINS_9allocatorIPN8Solution9RectangleEEEE9constructB7v160006IS4_JRKS4_EvEEvRS5_PT_DpOT0_, symObjAddr: 0x22A8, symBinAddr: 0x10000404C, symSize: 0x34 }
  - { offsetInCU: 0xE729, offset: 0xE729, size: 0x8, addend: 0x0, symName: __ZNKSt3__114__move_trivialclB7v160006IPN8Solution9RectangleES4_Li0EEENS_4pairIPT_PT0_EES7_S7_S9_, symObjAddr: 0x248C, symBinAddr: 0x100004230, symSize: 0x48 }
  - { offsetInCU: 0xE796, offset: 0xE796, size: 0x8, addend: 0x0, symName: __ZNSt3__14pairIPPN8Solution9RectangleES4_EC1B7v160006IRS4_S4_LPv0EEEOT_OT0_, symObjAddr: 0x2654, symBinAddr: 0x1000043F8, symSize: 0x3C }
  - { offsetInCU: 0xE7F4, offset: 0xE7F4, size: 0x8, addend: 0x0, symName: __ZNSt3__14pairIPPN8Solution9RectangleES4_EC2B7v160006IRS4_S4_LPv0EEEOT_OT0_, symObjAddr: 0x2690, symBinAddr: 0x100004434, symSize: 0x34 }
  - { offsetInCU: 0xE852, offset: 0xE852, size: 0x8, addend: 0x0, symName: __ZNSt3__118__unwrap_iter_implIPPN8Solution9RectangleELb1EE8__unwrapB7v160006ES4_, symObjAddr: 0x26C4, symBinAddr: 0x100004468, symSize: 0x24 }
  - { offsetInCU: 0xE875, offset: 0xE875, size: 0x8, addend: 0x0, symName: __ZNSt3__14pairIPPN8Solution9RectangleES4_EC1B7v160006IS4_S4_LPv0EEEOT_OT0_, symObjAddr: 0x26E8, symBinAddr: 0x10000448C, symSize: 0x3C }
  - { offsetInCU: 0xE8D3, offset: 0xE8D3, size: 0x8, addend: 0x0, symName: __ZNSt3__14pairIPPN8Solution9RectangleES4_EC2B7v160006IS4_S4_LPv0EEEOT_OT0_, symObjAddr: 0x2724, symBinAddr: 0x1000044C8, symSize: 0x34 }
  - { offsetInCU: 0xE931, offset: 0xE931, size: 0x8, addend: 0x0, symName: __ZNSt3__118__unwrap_iter_implIPPN8Solution9RectangleELb1EE8__rewrapB7v160006ES4_S4_, symObjAddr: 0x2758, symBinAddr: 0x1000044FC, symSize: 0x50 }
  - { offsetInCU: 0xE96C, offset: 0xE96C, size: 0x8, addend: 0x0, symName: __ZNSt3__114__split_bufferIPN8Solution9RectangleERNS_9allocatorIS3_EEE21_ConstructTransactionC1B7v160006EPPS3_m, symObjAddr: 0x27E4, symBinAddr: 0x100004588, symSize: 0x3C }
  - { offsetInCU: 0xE9B2, offset: 0xE9B2, size: 0x8, addend: 0x0, symName: __ZNSt3__116allocator_traitsINS_9allocatorIPN8Solution9RectangleEEEE9constructB7v160006IS4_JS4_EvEEvRS5_PT_DpOT0_, symObjAddr: 0x2820, symBinAddr: 0x1000045C4, symSize: 0x34 }
  - { offsetInCU: 0xEA09, offset: 0xEA09, size: 0x8, addend: 0x0, symName: __ZNSt3__114__split_bufferIPN8Solution9RectangleERNS_9allocatorIS3_EEE7__allocB7v160006Ev, symObjAddr: 0x2854, symBinAddr: 0x1000045F8, symSize: 0x28 }
  - { offsetInCU: 0xEA2F, offset: 0xEA2F, size: 0x8, addend: 0x0, symName: __ZNKSt3__113move_iteratorIPPN8Solution9RectangleEEdeB7v160006Ev, symObjAddr: 0x287C, symBinAddr: 0x100004620, symSize: 0x18 }
  - { offsetInCU: 0xEA55, offset: 0xEA55, size: 0x8, addend: 0x0, symName: __ZNSt3__113move_iteratorIPPN8Solution9RectangleEEppB7v160006Ev, symObjAddr: 0x2894, symBinAddr: 0x100004638, symSize: 0x20 }
  - { offsetInCU: 0xEA7B, offset: 0xEA7B, size: 0x8, addend: 0x0, symName: __ZNSt3__114__split_bufferIPN8Solution9RectangleERNS_9allocatorIS3_EEE21_ConstructTransactionD1B7v160006Ev, symObjAddr: 0x28B4, symBinAddr: 0x100004658, symSize: 0x2C }
  - { offsetInCU: 0xEAA5, offset: 0xEAA5, size: 0x8, addend: 0x0, symName: __ZNKSt3__113move_iteratorIPPN8Solution9RectangleEE4baseB7v160006Ev, symObjAddr: 0x2958, symBinAddr: 0x1000046FC, symSize: 0x18 }
  - { offsetInCU: 0xEACB, offset: 0xEACB, size: 0x8, addend: 0x0, symName: __ZNSt3__114__split_bufferIPN8Solution9RectangleERNS_9allocatorIS3_EEE21_ConstructTransactionC2B7v160006EPPS3_m, symObjAddr: 0x2970, symBinAddr: 0x100004714, symSize: 0x44 }
  - { offsetInCU: 0xEB11, offset: 0xEB11, size: 0x8, addend: 0x0, symName: __ZNSt3__19allocatorIPN8Solution9RectangleEE9constructB7v160006IS3_JS3_EEEvPT_DpOT0_, symObjAddr: 0x29B4, symBinAddr: 0x100004758, symSize: 0x28 }
  - { offsetInCU: 0xEB67, offset: 0xEB67, size: 0x8, addend: 0x0, symName: __ZNSt3__117__compressed_pairIPPN8Solution9RectangleERNS_9allocatorIS3_EEE6secondB7v160006Ev, symObjAddr: 0x29DC, symBinAddr: 0x100004780, symSize: 0x28 }
  - { offsetInCU: 0xEB8D, offset: 0xEB8D, size: 0x8, addend: 0x0, symName: __ZNSt3__122__compressed_pair_elemIRNS_9allocatorIPN8Solution9RectangleEEELi1ELb0EE5__getB7v160006Ev, symObjAddr: 0x2A04, symBinAddr: 0x1000047A8, symSize: 0x18 }
  - { offsetInCU: 0xEBB3, offset: 0xEBB3, size: 0x8, addend: 0x0, symName: __ZNSt3__114__split_bufferIPN8Solution9RectangleERNS_9allocatorIS3_EEE21_ConstructTransactionD2B7v160006Ev, symObjAddr: 0x2A1C, symBinAddr: 0x1000047C0, symSize: 0x20 }
  - { offsetInCU: 0xEBDD, offset: 0xEBDD, size: 0x8, addend: 0x0, symName: __ZNSt3__113move_iteratorIPPN8Solution9RectangleEEC2B7v160006ES4_, symObjAddr: 0x2A3C, symBinAddr: 0x1000047E0, symSize: 0x20 }
  - { offsetInCU: 0xEC15, offset: 0xEC15, size: 0x8, addend: 0x0, symName: __ZNSt3__19allocatorIPN8Solution9RectangleEE9constructB7v160006IS3_JRKS3_EEEvPT_DpOT0_, symObjAddr: 0x2A5C, symBinAddr: 0x100004800, symSize: 0x28 }
  - { offsetInCU: 0xEC6B, offset: 0xEC6B, size: 0x8, addend: 0x0, symName: __ZNKSt3__114__split_bufferIPN8Solution9RectangleENS_9allocatorIS3_EEE9__end_capB7v160006Ev, symObjAddr: 0x2A84, symBinAddr: 0x100004828, symSize: 0x28 }
  - { offsetInCU: 0xEC91, offset: 0xEC91, size: 0x8, addend: 0x0, symName: __ZNKSt3__117__compressed_pairIPPN8Solution9RectangleENS_9allocatorIS3_EEE5firstB7v160006Ev, symObjAddr: 0x2AAC, symBinAddr: 0x100004850, symSize: 0x24 }
  - { offsetInCU: 0xECB7, offset: 0xECB7, size: 0x8, addend: 0x0, symName: __ZNKSt3__122__compressed_pair_elemIPPN8Solution9RectangleELi0ELb0EE5__getB7v160006Ev, symObjAddr: 0x2AD0, symBinAddr: 0x100004874, symSize: 0x14 }
  - { offsetInCU: 0xECDD, offset: 0xECDD, size: 0x8, addend: 0x0, symName: __ZNSt3__19allocatorIN8Solution9RectangleEE8allocateB7v160006Em, symObjAddr: 0x2AE4, symBinAddr: 0x100004888, symSize: 0x58 }
  - { offsetInCU: 0xED1B, offset: 0xED1B, size: 0x8, addend: 0x0, symName: __ZNSt3__116allocator_traitsINS_9allocatorIN8Solution9RectangleEEEE8max_sizeB7v160006IS4_vEEmRKS4_, symObjAddr: 0x2B3C, symBinAddr: 0x1000048E0, symSize: 0x24 }
  - { offsetInCU: 0xED49, offset: 0xED49, size: 0x8, addend: 0x0, symName: __ZNKSt3__19allocatorIN8Solution9RectangleEE8max_sizeB7v160006Ev, symObjAddr: 0x2BF4, symBinAddr: 0x100004998, symSize: 0x14 }
  - { offsetInCU: 0xED79, offset: 0xED79, size: 0x8, addend: 0x0, symName: __ZNKSt3__123__move_backward_trivialclB7v160006IPN8Solution9RectangleES4_Li0EEENS_4pairIPT_PT0_EES7_S7_S9_, symObjAddr: 0x2DF4, symBinAddr: 0x100004B98, symSize: 0x48 }
  - { offsetInCU: 0xEDE1, offset: 0xEDE1, size: 0x8, addend: 0x0, symName: __ZNSt3__14pairIPPN8Solution9RectangleES4_EC1B7v160006IRS4_S7_LPv0EEEOT_OT0_, symObjAddr: 0x2F08, symBinAddr: 0x100004CAC, symSize: 0x3C }
  - { offsetInCU: 0xEE3F, offset: 0xEE3F, size: 0x8, addend: 0x0, symName: __ZNSt3__14pairIPPN8Solution9RectangleES4_EC2B7v160006IRS4_S7_LPv0EEEOT_OT0_, symObjAddr: 0x2F44, symBinAddr: 0x100004CE8, symSize: 0x34 }
  - { offsetInCU: 0xEEA7, offset: 0xEEA7, size: 0x8, addend: 0x0, symName: __ZNKSt3__16__lessImmEclB7v160006ERKmS3_, symObjAddr: 0x2FCC, symBinAddr: 0x100004D70, symSize: 0x34 }
  - { offsetInCU: 0xEEE9, offset: 0xEEE9, size: 0x8, addend: 0x0, symName: __ZNSt3__117__compressed_pairIPPN8Solution9RectangleENS_9allocatorIS3_EEE6secondB7v160006Ev, symObjAddr: 0x3000, symBinAddr: 0x100004DA4, symSize: 0x24 }
  - { offsetInCU: 0xEF0F, offset: 0xEF0F, size: 0x8, addend: 0x0, symName: __ZNSt3__122__compressed_pair_elemINS_9allocatorIPN8Solution9RectangleEEELi1ELb1EE5__getB7v160006Ev, symObjAddr: 0x3024, symBinAddr: 0x100004DC8, symSize: 0x14 }
  - { offsetInCU: 0xEF35, offset: 0xEF35, size: 0x8, addend: 0x0, symName: __ZNSt3__114__split_bufferIPN8Solution9RectangleERNS_9allocatorIS3_EEEC2EmmS6_, symObjAddr: 0x3038, symBinAddr: 0x100004DDC, symSize: 0xD4 }
  - { offsetInCU: 0xEFA8, offset: 0xEFA8, size: 0x8, addend: 0x0, symName: __ZNSt3__117__compressed_pairIPPN8Solution9RectangleERNS_9allocatorIS3_EEEC1B7v160006IDnS7_EEOT_OT0_, symObjAddr: 0x310C, symBinAddr: 0x100004EB0, symSize: 0x3C }
  - { offsetInCU: 0xF000, offset: 0xF000, size: 0x8, addend: 0x0, symName: __ZNSt3__117__compressed_pairIPPN8Solution9RectangleERNS_9allocatorIS3_EEEC2B7v160006IDnS7_EEOT_OT0_, symObjAddr: 0x3188, symBinAddr: 0x100004F2C, symSize: 0x48 }
  - { offsetInCU: 0xF058, offset: 0xF058, size: 0x8, addend: 0x0, symName: __ZNSt3__122__compressed_pair_elemIRNS_9allocatorIPN8Solution9RectangleEEELi1ELb0EEC2B7v160006IS6_vEEOT_, symObjAddr: 0x31D0, symBinAddr: 0x100004F74, symSize: 0x20 }
  - { offsetInCU: 0xF09A, offset: 0xF09A, size: 0x8, addend: 0x0, symName: __ZNSt3__19allocatorIPN8Solution9RectangleEE8allocateB7v160006Em, symObjAddr: 0x31F0, symBinAddr: 0x100004F94, symSize: 0x58 }
  - { offsetInCU: 0xF0D8, offset: 0xF0D8, size: 0x8, addend: 0x0, symName: __ZNSt3__116allocator_traitsINS_9allocatorIPN8Solution9RectangleEEEE8max_sizeB7v160006IS5_vEEmRKS5_, symObjAddr: 0x3248, symBinAddr: 0x100004FEC, symSize: 0x24 }
  - { offsetInCU: 0xF106, offset: 0xF106, size: 0x8, addend: 0x0, symName: __ZNKSt3__19allocatorIPN8Solution9RectangleEE8max_sizeB7v160006Ev, symObjAddr: 0x326C, symBinAddr: 0x100005010, symSize: 0x14 }
  - { offsetInCU: 0xF12C, offset: 0xF12C, size: 0x8, addend: 0x0, symName: __ZNSt3__122__allocator_destructorINS_9allocatorIN8Solution9RectangleEEEEC2B7v160006ERS4_m, symObjAddr: 0x3280, symBinAddr: 0x100005024, symSize: 0x2C }
  - { offsetInCU: 0xF172, offset: 0xF172, size: 0x8, addend: 0x0, symName: __ZNSt3__110unique_ptrIPN8Solution9RectangleENS_22__allocator_destructorINS_9allocatorIS2_EEEEEC2B7v160006ILb1EvEES3_NS_16__dependent_typeINS_27__unique_ptr_deleter_sfinaeIS7_EEXT_EE20__good_rval_ref_typeE, symObjAddr: 0x32AC, symBinAddr: 0x100005050, symSize: 0x48 }
  - { offsetInCU: 0xF1C3, offset: 0xF1C3, size: 0x8, addend: 0x0, symName: __ZNSt3__117__compressed_pairIPN8Solution9RectangleENS_22__allocator_destructorINS_9allocatorIS2_EEEEEC1B7v160006IRS3_S7_EEOT_OT0_, symObjAddr: 0x32F4, symBinAddr: 0x100005098, symSize: 0x3C }
  - { offsetInCU: 0xF21B, offset: 0xF21B, size: 0x8, addend: 0x0, symName: __ZNSt3__117__compressed_pairIPN8Solution9RectangleENS_22__allocator_destructorINS_9allocatorIS2_EEEEEC2B7v160006IRS3_S7_EEOT_OT0_, symObjAddr: 0x3330, symBinAddr: 0x1000050D4, symSize: 0x48 }
  - { offsetInCU: 0xF273, offset: 0xF273, size: 0x8, addend: 0x0, symName: __ZNSt3__122__compressed_pair_elemIPN8Solution9RectangleELi0ELb0EEC2B7v160006IRS3_vEEOT_, symObjAddr: 0x3378, symBinAddr: 0x10000511C, symSize: 0x24 }
  - { offsetInCU: 0xF2B5, offset: 0xF2B5, size: 0x8, addend: 0x0, symName: __ZNSt3__122__compressed_pair_elemINS_22__allocator_destructorINS_9allocatorIN8Solution9RectangleEEEEELi1ELb0EEC2B7v160006IS6_vEEOT_, symObjAddr: 0x339C, symBinAddr: 0x100005140, symSize: 0x24 }
  - { offsetInCU: 0xF2F7, offset: 0xF2F7, size: 0x8, addend: 0x0, symName: __ZNKSt3__117__compressed_pairIPN8Solution9RectangleENS_22__allocator_destructorINS_9allocatorIS2_EEEEE5firstB7v160006Ev, symObjAddr: 0x33C0, symBinAddr: 0x100005164, symSize: 0x24 }
  - { offsetInCU: 0xF31D, offset: 0xF31D, size: 0x8, addend: 0x0, symName: __ZNKSt3__122__compressed_pair_elemIPN8Solution9RectangleELi0ELb0EE5__getB7v160006Ev, symObjAddr: 0x33E4, symBinAddr: 0x100005188, symSize: 0x14 }
  - { offsetInCU: 0xF343, offset: 0xF343, size: 0x8, addend: 0x0, symName: __ZNSt3__117__compressed_pairIPN8Solution9RectangleENS_22__allocator_destructorINS_9allocatorIS2_EEEEE5firstB7v160006Ev, symObjAddr: 0x33F8, symBinAddr: 0x10000519C, symSize: 0x24 }
  - { offsetInCU: 0xF369, offset: 0xF369, size: 0x8, addend: 0x0, symName: __ZNSt3__122__compressed_pair_elemIPN8Solution9RectangleELi0ELb0EE5__getB7v160006Ev, symObjAddr: 0x341C, symBinAddr: 0x1000051C0, symSize: 0x14 }
  - { offsetInCU: 0xF38F, offset: 0xF38F, size: 0x8, addend: 0x0, symName: __ZNSt3__117__compressed_pairIPPN8Solution9RectangleENS_9allocatorIS3_EEE5firstB7v160006Ev, symObjAddr: 0x3430, symBinAddr: 0x1000051D4, symSize: 0x24 }
  - { offsetInCU: 0xF3B5, offset: 0xF3B5, size: 0x8, addend: 0x0, symName: __ZNSt3__122__compressed_pair_elemIPPN8Solution9RectangleELi0ELb0EE5__getB7v160006Ev, symObjAddr: 0x3454, symBinAddr: 0x1000051F8, symSize: 0x14 }
  - { offsetInCU: 0xF3DB, offset: 0xF3DB, size: 0x8, addend: 0x0, symName: __ZNSt3__117__compressed_pairIPPN8Solution9RectangleERNS_9allocatorIS3_EEE5firstB7v160006Ev, symObjAddr: 0x3468, symBinAddr: 0x10000520C, symSize: 0x24 }
  - { offsetInCU: 0xF401, offset: 0xF401, size: 0x8, addend: 0x0, symName: __ZNSt3__110unique_ptrIPN8Solution9RectangleENS_22__allocator_destructorINS_9allocatorIS2_EEEEED2B7v160006Ev, symObjAddr: 0x348C, symBinAddr: 0x100005230, symSize: 0x30 }
  - { offsetInCU: 0xF42B, offset: 0xF42B, size: 0x8, addend: 0x0, symName: __ZNSt3__110unique_ptrIPN8Solution9RectangleENS_22__allocator_destructorINS_9allocatorIS2_EEEEE5resetB7v160006ES3_, symObjAddr: 0x34BC, symBinAddr: 0x100005260, symSize: 0x78 }
  - { offsetInCU: 0xF46F, offset: 0xF46F, size: 0x8, addend: 0x0, symName: __ZNSt3__117__compressed_pairIPN8Solution9RectangleENS_22__allocator_destructorINS_9allocatorIS2_EEEEE6secondB7v160006Ev, symObjAddr: 0x3534, symBinAddr: 0x1000052D8, symSize: 0x28 }
  - { offsetInCU: 0xF495, offset: 0xF495, size: 0x8, addend: 0x0, symName: __ZNSt3__122__allocator_destructorINS_9allocatorIN8Solution9RectangleEEEEclB7v160006EPS3_, symObjAddr: 0x355C, symBinAddr: 0x100005300, symSize: 0x34 }
  - { offsetInCU: 0xF4C9, offset: 0xF4C9, size: 0x8, addend: 0x0, symName: __ZNSt3__122__compressed_pair_elemINS_22__allocator_destructorINS_9allocatorIN8Solution9RectangleEEEEELi1ELb0EE5__getB7v160006Ev, symObjAddr: 0x3590, symBinAddr: 0x100005334, symSize: 0x14 }
  - { offsetInCU: 0xF4EF, offset: 0xF4EF, size: 0x8, addend: 0x0, symName: __ZNSt3__116allocator_traitsINS_9allocatorIN8Solution9RectangleEEEE10deallocateB7v160006ERS4_PS3_m, symObjAddr: 0x35A4, symBinAddr: 0x100005348, symSize: 0x34 }
  - { offsetInCU: 0xF531, offset: 0xF531, size: 0x8, addend: 0x0, symName: __ZNSt3__19allocatorIN8Solution9RectangleEE10deallocateB7v160006EPS2_m, symObjAddr: 0x35D8, symBinAddr: 0x10000537C, symSize: 0x40 }
  - { offsetInCU: 0xF573, offset: 0xF573, size: 0x8, addend: 0x0, symName: __ZNSt3__114__split_bufferIPN8Solution9RectangleERNS_9allocatorIS3_EEED2Ev, symObjAddr: 0x3720, symBinAddr: 0x1000054C4, symSize: 0x8C }
  - { offsetInCU: 0xF59F, offset: 0xF59F, size: 0x8, addend: 0x0, symName: __ZNSt3__114__split_bufferIPN8Solution9RectangleERNS_9allocatorIS3_EEE5clearB7v160006Ev, symObjAddr: 0x37AC, symBinAddr: 0x100005550, symSize: 0x28 }
  - { offsetInCU: 0xF5C5, offset: 0xF5C5, size: 0x8, addend: 0x0, symName: __ZNSt3__116allocator_traitsINS_9allocatorIPN8Solution9RectangleEEEE10deallocateB7v160006ERS5_PS4_m, symObjAddr: 0x37D4, symBinAddr: 0x100005578, symSize: 0x34 }
  - { offsetInCU: 0xF607, offset: 0xF607, size: 0x8, addend: 0x0, symName: __ZNKSt3__114__split_bufferIPN8Solution9RectangleERNS_9allocatorIS3_EEE8capacityB7v160006Ev, symObjAddr: 0x3808, symBinAddr: 0x1000055AC, symSize: 0x40 }
  - { offsetInCU: 0xF62D, offset: 0xF62D, size: 0x8, addend: 0x0, symName: __ZNSt3__114__split_bufferIPN8Solution9RectangleERNS_9allocatorIS3_EEE17__destruct_at_endB7v160006EPS3_, symObjAddr: 0x3848, symBinAddr: 0x1000055EC, symSize: 0x2C }
  - { offsetInCU: 0xF661, offset: 0xF661, size: 0x8, addend: 0x0, symName: __ZNSt3__114__split_bufferIPN8Solution9RectangleERNS_9allocatorIS3_EEE17__destruct_at_endB7v160006EPS3_NS_17integral_constantIbLb0EEE, symObjAddr: 0x3874, symBinAddr: 0x100005618, symSize: 0x80 }
  - { offsetInCU: 0xF6A1, offset: 0xF6A1, size: 0x8, addend: 0x0, symName: __ZNSt3__116allocator_traitsINS_9allocatorIPN8Solution9RectangleEEEE7destroyB7v160006IS4_vEEvRS5_PT_, symObjAddr: 0x38F4, symBinAddr: 0x100005698, symSize: 0x2C }
  - { offsetInCU: 0xF6DE, offset: 0xF6DE, size: 0x8, addend: 0x0, symName: __ZNSt3__19allocatorIPN8Solution9RectangleEE7destroyB7v160006EPS3_, symObjAddr: 0x3920, symBinAddr: 0x1000056C4, symSize: 0x14 }
  - { offsetInCU: 0xF712, offset: 0xF712, size: 0x8, addend: 0x0, symName: __ZNSt3__19allocatorIPN8Solution9RectangleEE10deallocateB7v160006EPS3_m, symObjAddr: 0x3934, symBinAddr: 0x1000056D8, symSize: 0x40 }
  - { offsetInCU: 0xF754, offset: 0xF754, size: 0x8, addend: 0x0, symName: __ZNKSt3__114__split_bufferIPN8Solution9RectangleERNS_9allocatorIS3_EEE9__end_capB7v160006Ev, symObjAddr: 0x3974, symBinAddr: 0x100005718, symSize: 0x28 }
  - { offsetInCU: 0xF77A, offset: 0xF77A, size: 0x8, addend: 0x0, symName: __ZNKSt3__117__compressed_pairIPPN8Solution9RectangleERNS_9allocatorIS3_EEE5firstB7v160006Ev, symObjAddr: 0x399C, symBinAddr: 0x100005740, symSize: 0x24 }
  - { offsetInCU: 0xF7A0, offset: 0xF7A0, size: 0x8, addend: 0x0, symName: __ZNSt3__19allocatorIN8Solution9RectangleEE9constructB7v160006IS2_JS2_EEEvPT_DpOT0_, symObjAddr: 0x39C0, symBinAddr: 0x100005764, symSize: 0x28 }
  - { offsetInCU: 0xF7F6, offset: 0xF7F6, size: 0x8, addend: 0x0, symName: __ZNKSt3__114__split_bufferIPN8Solution9RectangleENS_9allocatorIS3_EEE5emptyB7v160006Ev, symObjAddr: 0x39E8, symBinAddr: 0x10000578C, symSize: 0x28 }
  - { offsetInCU: 0xF81C, offset: 0xF81C, size: 0x8, addend: 0x0, symName: __ZNSt3__116__deque_iteratorIN8Solution9RectangleEPS2_RS2_PS3_lLl512EEC1B7v160006ES5_S3_, symObjAddr: 0x3A10, symBinAddr: 0x1000057B4, symSize: 0x3C }
  - { offsetInCU: 0xF864, offset: 0xF864, size: 0x8, addend: 0x0, symName: __ZNSt3__116__deque_iteratorIN8Solution9RectangleEPS2_RS2_PS3_lLl512EEC2B7v160006ES5_S3_, symObjAddr: 0x3A4C, symBinAddr: 0x1000057F0, symSize: 0x2C }
  - { offsetInCU: 0xF8AC, offset: 0xF8AC, size: 0x8, addend: 0x0, symName: __ZNSt3__117__compressed_pairImNS_9allocatorIN8Solution9RectangleEEEE5firstB7v160006Ev, symObjAddr: 0x3A78, symBinAddr: 0x10000581C, symSize: 0x24 }
  - { offsetInCU: 0xF8D2, offset: 0xF8D2, size: 0x8, addend: 0x0, symName: __ZNSt3__122__compressed_pair_elemImLi0ELb0EE5__getB7v160006Ev, symObjAddr: 0x3A9C, symBinAddr: 0x100005840, symSize: 0x14 }
  - { offsetInCU: 0xF8F8, offset: 0xF8F8, size: 0x8, addend: 0x0, symName: __ZNSt3__15dequeIN8Solution9RectangleENS_9allocatorIS2_EEE4backEv, symObjAddr: 0x3AB0, symBinAddr: 0x100005854, symSize: 0x68 }
  - { offsetInCU: 0xF939, offset: 0xF939, size: 0x8, addend: 0x0, symName: __ZNKSt3__16__lessIiiEclB7v160006ERKiS3_, symObjAddr: 0x3B6C, symBinAddr: 0x100005910, symSize: 0x34 }
  - { offsetInCU: 0xF97B, offset: 0xF97B, size: 0x8, addend: 0x0, symName: __ZNSt3__15dequeIN8Solution9RectangleENS_9allocatorIS2_EEE8pop_backEv, symObjAddr: 0x3BA0, symBinAddr: 0x100005944, symSize: 0xB8 }
  - { offsetInCU: 0xF9C1, offset: 0xF9C1, size: 0x8, addend: 0x0, symName: __ZNSt3__116allocator_traitsINS_9allocatorIN8Solution9RectangleEEEE7destroyB7v160006IS3_vEEvRS4_PT_, symObjAddr: 0x3C58, symBinAddr: 0x1000059FC, symSize: 0x2C }
  - { offsetInCU: 0xF9FE, offset: 0xF9FE, size: 0x8, addend: 0x0, symName: __ZNSt3__15dequeIN8Solution9RectangleENS_9allocatorIS2_EEE25__maybe_remove_back_spareB7v160006Eb, symObjAddr: 0x3C98, symBinAddr: 0x100005A3C, symSize: 0xCC }
  - { offsetInCU: 0xFA33, offset: 0xFA33, size: 0x8, addend: 0x0, symName: __ZNSt3__19allocatorIN8Solution9RectangleEE7destroyB7v160006EPS2_, symObjAddr: 0x3D64, symBinAddr: 0x100005B08, symSize: 0x14 }
  - { offsetInCU: 0xFA67, offset: 0xFA67, size: 0x8, addend: 0x0, symName: __ZNKSt3__15dequeIN8Solution9RectangleENS_9allocatorIS2_EEE19__back_spare_blocksB7v160006Ev, symObjAddr: 0x3D78, symBinAddr: 0x100005B1C, symSize: 0x2C }
  - { offsetInCU: 0xFA8D, offset: 0xFA8D, size: 0x8, addend: 0x0, symName: __ZNSt3__114__split_bufferIPN8Solution9RectangleENS_9allocatorIS3_EEE4backB7v160006Ev, symObjAddr: 0x3DA4, symBinAddr: 0x100005B48, symSize: 0x1C }
  - { offsetInCU: 0xFAB3, offset: 0xFAB3, size: 0x8, addend: 0x0, symName: __ZNSt3__114__split_bufferIPN8Solution9RectangleENS_9allocatorIS3_EEE8pop_backB7v160006Ev, symObjAddr: 0x3DC0, symBinAddr: 0x100005B64, symSize: 0x2C }
  - { offsetInCU: 0xFAD9, offset: 0xFAD9, size: 0x8, addend: 0x0, symName: __ZNSt3__114__split_bufferIPN8Solution9RectangleENS_9allocatorIS3_EEE17__destruct_at_endB7v160006EPS3_, symObjAddr: 0x3DEC, symBinAddr: 0x100005B90, symSize: 0x2C }
  - { offsetInCU: 0xFB0D, offset: 0xFB0D, size: 0x8, addend: 0x0, symName: __ZNSt3__114__split_bufferIPN8Solution9RectangleENS_9allocatorIS3_EEE17__destruct_at_endB7v160006EPS3_NS_17integral_constantIbLb0EEE, symObjAddr: 0x3E18, symBinAddr: 0x100005BBC, symSize: 0x80 }
  - { offsetInCU: 0xFB4D, offset: 0xFB4D, size: 0x8, addend: 0x0, symName: __ZN8SolutionD2Ev, symObjAddr: 0x3E98, symBinAddr: 0x100005C3C, symSize: 0x2C }
  - { offsetInCU: 0xFB79, offset: 0xFB79, size: 0x8, addend: 0x0, symName: __ZNSt3__15stackIN8Solution9RectangleENS_5dequeIS2_NS_9allocatorIS2_EEEEED1Ev, symObjAddr: 0x3EC4, symBinAddr: 0x100005C68, symSize: 0x2C }
  - { offsetInCU: 0xFBA5, offset: 0xFBA5, size: 0x8, addend: 0x0, symName: __ZNSt3__15stackIN8Solution9RectangleENS_5dequeIS2_NS_9allocatorIS2_EEEEED2Ev, symObjAddr: 0x3EF0, symBinAddr: 0x100005C94, symSize: 0x2C }
  - { offsetInCU: 0xFBD1, offset: 0xFBD1, size: 0x8, addend: 0x0, symName: __ZNSt3__15dequeIN8Solution9RectangleENS_9allocatorIS2_EEED1B7v160006Ev, symObjAddr: 0x3F1C, symBinAddr: 0x100005CC0, symSize: 0x2C }
  - { offsetInCU: 0xFBFB, offset: 0xFBFB, size: 0x8, addend: 0x0, symName: __ZNSt3__15dequeIN8Solution9RectangleENS_9allocatorIS2_EEED2B7v160006Ev, symObjAddr: 0x3F48, symBinAddr: 0x100005CEC, symSize: 0x9C }
  - { offsetInCU: 0xFC51, offset: 0xFC51, size: 0x8, addend: 0x0, symName: __ZNSt3__15dequeIN8Solution9RectangleENS_9allocatorIS2_EEE5clearEv, symObjAddr: 0x3FE4, symBinAddr: 0x100005D88, symSize: 0x15C }
  - { offsetInCU: 0xFCAD, offset: 0xFCAD, size: 0x8, addend: 0x0, symName: __ZNSt3__114__split_bufferIPN8Solution9RectangleENS_9allocatorIS3_EEED1Ev, symObjAddr: 0x4140, symBinAddr: 0x100005EE4, symSize: 0x2C }
  - { offsetInCU: 0xFCD9, offset: 0xFCD9, size: 0x8, addend: 0x0, symName: __ZNSt3__15dequeIN8Solution9RectangleENS_9allocatorIS2_EEE5beginB7v160006Ev, symObjAddr: 0x416C, symBinAddr: 0x100005F10, symSize: 0xA8 }
  - { offsetInCU: 0xFD0E, offset: 0xFD0E, size: 0x8, addend: 0x0, symName: __ZNSt3__116__deque_iteratorIN8Solution9RectangleEPS2_RS2_PS3_lLl512EEppB7v160006Ev, symObjAddr: 0x4248, symBinAddr: 0x100005FEC, symSize: 0x70 }
  - { offsetInCU: 0xFD34, offset: 0xFD34, size: 0x8, addend: 0x0, symName: __ZNSt3__114__split_bufferIPN8Solution9RectangleENS_9allocatorIS3_EEED2Ev, symObjAddr: 0x42E8, symBinAddr: 0x10000608C, symSize: 0x80 }
  - { offsetInCU: 0xFD60, offset: 0xFD60, size: 0x8, addend: 0x0, symName: __ZNSt3__114__split_bufferIPN8Solution9RectangleENS_9allocatorIS3_EEE5clearB7v160006Ev, symObjAddr: 0x4368, symBinAddr: 0x10000610C, symSize: 0x28 }
  - { offsetInCU: 0xFD86, offset: 0xFD86, size: 0x8, addend: 0x0, symName: __ZNSt3__16vectorIiNS_9allocatorIiEEEC2B7v160006ESt16initializer_listIiE, symObjAddr: 0x4390, symBinAddr: 0x100006134, symSize: 0x124 }
  - { offsetInCU: 0xFDD8, offset: 0xFDD8, size: 0x8, addend: 0x0, symName: __ZNSt3__117__compressed_pairIPiNS_9allocatorIiEEEC1B7v160006IDnNS_18__default_init_tagEEEOT_OT0_, symObjAddr: 0x44B4, symBinAddr: 0x100006258, symSize: 0x3C }
  - { offsetInCU: 0xFE30, offset: 0xFE30, size: 0x8, addend: 0x0, symName: __ZNSt3__16vectorIiNS_9allocatorIiEEE16__destroy_vectorC1ERS3_, symObjAddr: 0x4530, symBinAddr: 0x1000062D4, symSize: 0x34 }
  - { offsetInCU: 0xFE69, offset: 0xFE69, size: 0x8, addend: 0x0, symName: __ZNKSt16initializer_listIiE4sizeB7v160006Ev, symObjAddr: 0x4574, symBinAddr: 0x100006318, symSize: 0x18 }
  - { offsetInCU: 0xFE8F, offset: 0xFE8F, size: 0x8, addend: 0x0, symName: __ZNSt3__16vectorIiNS_9allocatorIiEEE11__vallocateB7v160006Em, symObjAddr: 0x458C, symBinAddr: 0x100006330, symSize: 0xAC }
  - { offsetInCU: 0xFED3, offset: 0xFED3, size: 0x8, addend: 0x0, symName: __ZNSt3__16vectorIiNS_9allocatorIiEEE18__construct_at_endIPKiLi0EEEvT_S7_m, symObjAddr: 0x4638, symBinAddr: 0x1000063DC, symSize: 0x8C }
  - { offsetInCU: 0xFF46, offset: 0xFF46, size: 0x8, addend: 0x0, symName: __ZNKSt16initializer_listIiE5beginB7v160006Ev, symObjAddr: 0x46C4, symBinAddr: 0x100006468, symSize: 0x18 }
  - { offsetInCU: 0xFF6C, offset: 0xFF6C, size: 0x8, addend: 0x0, symName: __ZNKSt16initializer_listIiE3endB7v160006Ev, symObjAddr: 0x46DC, symBinAddr: 0x100006480, symSize: 0x20 }
  - { offsetInCU: 0xFF92, offset: 0xFF92, size: 0x8, addend: 0x0, symName: __ZNSt3__128__exception_guard_exceptionsINS_6vectorIiNS_9allocatorIiEEE16__destroy_vectorEE10__completeB7v160006Ev, symObjAddr: 0x46FC, symBinAddr: 0x1000064A0, symSize: 0x1C }
  - { offsetInCU: 0xFFB8, offset: 0xFFB8, size: 0x8, addend: 0x0, symName: __ZNSt3__128__exception_guard_exceptionsINS_6vectorIiNS_9allocatorIiEEE16__destroy_vectorEED1B7v160006Ev, symObjAddr: 0x4718, symBinAddr: 0x1000064BC, symSize: 0x2C }
  - { offsetInCU: 0xFFE2, offset: 0xFFE2, size: 0x8, addend: 0x0, symName: __ZNSt3__117__compressed_pairIPiNS_9allocatorIiEEEC2B7v160006IDnNS_18__default_init_tagEEEOT_OT0_, symObjAddr: 0x4744, symBinAddr: 0x1000064E8, symSize: 0x40 }
  - { offsetInCU: 0x1003A, offset: 0x1003A, size: 0x8, addend: 0x0, symName: __ZNSt3__122__compressed_pair_elemIPiLi0ELb0EEC2B7v160006IDnvEEOT_, symObjAddr: 0x4784, symBinAddr: 0x100006528, symSize: 0x1C }
  - { offsetInCU: 0x1007C, offset: 0x1007C, size: 0x8, addend: 0x0, symName: __ZNSt3__122__compressed_pair_elemINS_9allocatorIiEELi1ELb1EEC2B7v160006ENS_18__default_init_tagE, symObjAddr: 0x47A0, symBinAddr: 0x100006544, symSize: 0x2C }
  - { offsetInCU: 0x100B0, offset: 0x100B0, size: 0x8, addend: 0x0, symName: __ZNSt3__19allocatorIiEC2B7v160006Ev, symObjAddr: 0x47CC, symBinAddr: 0x100006570, symSize: 0x2C }
  - { offsetInCU: 0x100DA, offset: 0x100DA, size: 0x8, addend: 0x0, symName: __ZNSt3__116__non_trivial_ifILb1ENS_9allocatorIiEEEC2B7v160006Ev, symObjAddr: 0x47F8, symBinAddr: 0x10000659C, symSize: 0x14 }
  - { offsetInCU: 0x10104, offset: 0x10104, size: 0x8, addend: 0x0, symName: __ZNSt3__128__exception_guard_exceptionsINS_6vectorIiNS_9allocatorIiEEE16__destroy_vectorEEC1B7v160006ES5_, symObjAddr: 0x480C, symBinAddr: 0x1000065B0, symSize: 0x34 }
  - { offsetInCU: 0x1013C, offset: 0x1013C, size: 0x8, addend: 0x0, symName: __ZNSt3__128__exception_guard_exceptionsINS_6vectorIiNS_9allocatorIiEEE16__destroy_vectorEEC2B7v160006ES5_, symObjAddr: 0x4840, symBinAddr: 0x1000065E4, symSize: 0x24 }
  - { offsetInCU: 0x10174, offset: 0x10174, size: 0x8, addend: 0x0, symName: __ZNSt3__16vectorIiNS_9allocatorIiEEE16__destroy_vectorC2ERS3_, symObjAddr: 0x4864, symBinAddr: 0x100006608, symSize: 0x20 }
  - { offsetInCU: 0x101AD, offset: 0x101AD, size: 0x8, addend: 0x0, symName: __ZNKSt3__16vectorIiNS_9allocatorIiEEE8max_sizeEv, symObjAddr: 0x4884, symBinAddr: 0x100006628, symSize: 0x60 }
  - { offsetInCU: 0x101D5, offset: 0x101D5, size: 0x8, addend: 0x0, symName: __ZNKSt3__16vectorIiNS_9allocatorIiEEE20__throw_length_errorB7v160006Ev, symObjAddr: 0x48E4, symBinAddr: 0x100006688, symSize: 0x1C }
  - { offsetInCU: 0x101FB, offset: 0x101FB, size: 0x8, addend: 0x0, symName: __ZNSt3__16vectorIiNS_9allocatorIiEEE7__allocB7v160006Ev, symObjAddr: 0x4940, symBinAddr: 0x1000066E4, symSize: 0x28 }
  - { offsetInCU: 0x10221, offset: 0x10221, size: 0x8, addend: 0x0, symName: __ZNSt3__16vectorIiNS_9allocatorIiEEE9__end_capB7v160006Ev, symObjAddr: 0x4968, symBinAddr: 0x10000670C, symSize: 0x28 }
  - { offsetInCU: 0x10247, offset: 0x10247, size: 0x8, addend: 0x0, symName: __ZNKSt3__16vectorIiNS_9allocatorIiEEE14__annotate_newB7v160006Em, symObjAddr: 0x4990, symBinAddr: 0x100006734, symSize: 0xAC }
  - { offsetInCU: 0x10286, offset: 0x10286, size: 0x8, addend: 0x0, symName: __ZNSt3__116allocator_traitsINS_9allocatorIiEEE8max_sizeB7v160006IS2_vEEmRKS2_, symObjAddr: 0x4A68, symBinAddr: 0x10000680C, symSize: 0x24 }
  - { offsetInCU: 0x102B4, offset: 0x102B4, size: 0x8, addend: 0x0, symName: __ZNKSt3__16vectorIiNS_9allocatorIiEEE7__allocB7v160006Ev, symObjAddr: 0x4A8C, symBinAddr: 0x100006830, symSize: 0x28 }
  - { offsetInCU: 0x102DA, offset: 0x102DA, size: 0x8, addend: 0x0, symName: __ZNSt3__114numeric_limitsIlE3maxB7v160006Ev, symObjAddr: 0x4AB4, symBinAddr: 0x100006858, symSize: 0x14 }
  - { offsetInCU: 0x102EE, offset: 0x102EE, size: 0x8, addend: 0x0, symName: __ZNKSt3__19allocatorIiE8max_sizeB7v160006Ev, symObjAddr: 0x4B1C, symBinAddr: 0x1000068C0, symSize: 0x14 }
  - { offsetInCU: 0x10314, offset: 0x10314, size: 0x8, addend: 0x0, symName: __ZNKSt3__117__compressed_pairIPiNS_9allocatorIiEEE6secondB7v160006Ev, symObjAddr: 0x4B30, symBinAddr: 0x1000068D4, symSize: 0x24 }
  - { offsetInCU: 0x1033A, offset: 0x1033A, size: 0x8, addend: 0x0, symName: __ZNKSt3__122__compressed_pair_elemINS_9allocatorIiEELi1ELb1EE5__getB7v160006Ev, symObjAddr: 0x4B54, symBinAddr: 0x1000068F8, symSize: 0x14 }
  - { offsetInCU: 0x10360, offset: 0x10360, size: 0x8, addend: 0x0, symName: __ZNSt3__123__libcpp_numeric_limitsIlLb1EE3maxB7v160006Ev, symObjAddr: 0x4B68, symBinAddr: 0x10000690C, symSize: 0x8 }
  - { offsetInCU: 0x10374, offset: 0x10374, size: 0x8, addend: 0x0, symName: __ZNSt12length_errorC1B7v160006EPKc, symObjAddr: 0x4BD4, symBinAddr: 0x100006978, symSize: 0x34 }
  - { offsetInCU: 0x103AC, offset: 0x103AC, size: 0x8, addend: 0x0, symName: __ZNSt12length_errorC2B7v160006EPKc, symObjAddr: 0x4C08, symBinAddr: 0x1000069AC, symSize: 0x4C }
  - { offsetInCU: 0x103E4, offset: 0x103E4, size: 0x8, addend: 0x0, symName: __ZNSt3__19allocatorIiE8allocateB7v160006Em, symObjAddr: 0x4C54, symBinAddr: 0x1000069F8, symSize: 0x58 }
  - { offsetInCU: 0x10418, offset: 0x10418, size: 0x8, addend: 0x0, symName: __ZNSt3__117__compressed_pairIPiNS_9allocatorIiEEE6secondB7v160006Ev, symObjAddr: 0x4CAC, symBinAddr: 0x100006A50, symSize: 0x24 }
  - { offsetInCU: 0x1043E, offset: 0x1043E, size: 0x8, addend: 0x0, symName: __ZNSt3__122__compressed_pair_elemINS_9allocatorIiEELi1ELb1EE5__getB7v160006Ev, symObjAddr: 0x4CD0, symBinAddr: 0x100006A74, symSize: 0x14 }
  - { offsetInCU: 0x10464, offset: 0x10464, size: 0x8, addend: 0x0, symName: __ZNSt3__117__compressed_pairIPiNS_9allocatorIiEEE5firstB7v160006Ev, symObjAddr: 0x4CE4, symBinAddr: 0x100006A88, symSize: 0x24 }
  - { offsetInCU: 0x1048A, offset: 0x1048A, size: 0x8, addend: 0x0, symName: __ZNSt3__122__compressed_pair_elemIPiLi0ELb0EE5__getB7v160006Ev, symObjAddr: 0x4D08, symBinAddr: 0x100006AAC, symSize: 0x14 }
  - { offsetInCU: 0x104B0, offset: 0x104B0, size: 0x8, addend: 0x0, symName: __ZNKSt3__16vectorIiNS_9allocatorIiEEE31__annotate_contiguous_containerB7v160006EPKvS5_S5_S5_, symObjAddr: 0x4D1C, symBinAddr: 0x100006AC0, symSize: 0x20 }
  - { offsetInCU: 0x10502, offset: 0x10502, size: 0x8, addend: 0x0, symName: __ZNKSt3__16vectorIiNS_9allocatorIiEEE4dataB7v160006Ev, symObjAddr: 0x4D3C, symBinAddr: 0x100006AE0, symSize: 0x28 }
  - { offsetInCU: 0x10528, offset: 0x10528, size: 0x8, addend: 0x0, symName: __ZNKSt3__16vectorIiNS_9allocatorIiEEE8capacityB7v160006Ev, symObjAddr: 0x4D64, symBinAddr: 0x100006B08, symSize: 0x40 }
  - { offsetInCU: 0x1054E, offset: 0x1054E, size: 0x8, addend: 0x0, symName: __ZNKSt3__16vectorIiNS_9allocatorIiEEE9__end_capB7v160006Ev, symObjAddr: 0x4DB8, symBinAddr: 0x100006B5C, symSize: 0x28 }
  - { offsetInCU: 0x10574, offset: 0x10574, size: 0x8, addend: 0x0, symName: __ZNKSt3__117__compressed_pairIPiNS_9allocatorIiEEE5firstB7v160006Ev, symObjAddr: 0x4DE0, symBinAddr: 0x100006B84, symSize: 0x24 }
  - { offsetInCU: 0x1059A, offset: 0x1059A, size: 0x8, addend: 0x0, symName: __ZNKSt3__122__compressed_pair_elemIPiLi0ELb0EE5__getB7v160006Ev, symObjAddr: 0x4E04, symBinAddr: 0x100006BA8, symSize: 0x14 }
  - { offsetInCU: 0x105D9, offset: 0x105D9, size: 0x8, addend: 0x0, symName: __ZNSt3__16vectorIiNS_9allocatorIiEEE21_ConstructTransactionC1B7v160006ERS3_m, symObjAddr: 0x4E18, symBinAddr: 0x100006BBC, symSize: 0x3C }
  - { offsetInCU: 0x10621, offset: 0x10621, size: 0x8, addend: 0x0, symName: __ZNSt3__16vectorIiNS_9allocatorIiEEE21_ConstructTransactionD1B7v160006Ev, symObjAddr: 0x4E8C, symBinAddr: 0x100006C30, symSize: 0x2C }
  - { offsetInCU: 0x1064B, offset: 0x1064B, size: 0x8, addend: 0x0, symName: __ZNSt3__16vectorIiNS_9allocatorIiEEE21_ConstructTransactionC2B7v160006ERS3_m, symObjAddr: 0x4EB8, symBinAddr: 0x100006C5C, symSize: 0x44 }
  - { offsetInCU: 0x106B6, offset: 0x106B6, size: 0x8, addend: 0x0, symName: __ZNKSt3__114__copy_trivialclB7v160006IKiiLi0EEENS_4pairIPT_PT0_EES5_S5_S7_, symObjAddr: 0x50D8, symBinAddr: 0x100006E7C, symSize: 0x48 }
  - { offsetInCU: 0x1073C, offset: 0x1073C, size: 0x8, addend: 0x0, symName: __ZNSt3__14pairIPKiS2_EC1B7v160006IS2_S2_LPv0EEEOT_OT0_, symObjAddr: 0x5240, symBinAddr: 0x100006FE4, symSize: 0x3C }
  - { offsetInCU: 0x1079A, offset: 0x1079A, size: 0x8, addend: 0x0, symName: __ZNSt3__14pairIPKiS2_EC2B7v160006IS2_S2_LPv0EEEOT_OT0_, symObjAddr: 0x527C, symBinAddr: 0x100007020, symSize: 0x34 }
  - { offsetInCU: 0x107F8, offset: 0x107F8, size: 0x8, addend: 0x0, symName: __ZNSt3__118__unwrap_iter_implIPKiLb1EE8__unwrapB7v160006ES2_, symObjAddr: 0x52B0, symBinAddr: 0x100007054, symSize: 0x24 }
  - { offsetInCU: 0x10825, offset: 0x10825, size: 0x8, addend: 0x0, symName: __ZNSt3__14pairIPKiPiEC1B7v160006IRS2_S3_LPv0EEEOT_OT0_, symObjAddr: 0x53A4, symBinAddr: 0x100007148, symSize: 0x3C }
  - { offsetInCU: 0x10883, offset: 0x10883, size: 0x8, addend: 0x0, symName: __ZNSt3__14pairIPKiPiEC2B7v160006IRS2_S3_LPv0EEEOT_OT0_, symObjAddr: 0x53E0, symBinAddr: 0x100007184, symSize: 0x34 }
  - { offsetInCU: 0x108E1, offset: 0x108E1, size: 0x8, addend: 0x0, symName: __ZNSt3__118__unwrap_iter_implIPiLb1EE8__unwrapB7v160006ES1_, symObjAddr: 0x5414, symBinAddr: 0x1000071B8, symSize: 0x24 }
  - { offsetInCU: 0x10904, offset: 0x10904, size: 0x8, addend: 0x0, symName: __ZNSt3__14pairIPKiPiEC1B7v160006IS2_S3_LPv0EEEOT_OT0_, symObjAddr: 0x5438, symBinAddr: 0x1000071DC, symSize: 0x3C }
  - { offsetInCU: 0x10962, offset: 0x10962, size: 0x8, addend: 0x0, symName: __ZNSt3__14pairIPKiPiEC2B7v160006IS2_S3_LPv0EEEOT_OT0_, symObjAddr: 0x5474, symBinAddr: 0x100007218, symSize: 0x34 }
  - { offsetInCU: 0x109C0, offset: 0x109C0, size: 0x8, addend: 0x0, symName: __ZNSt3__118__unwrap_iter_implIPKiLb1EE8__rewrapB7v160006ES2_S2_, symObjAddr: 0x54E4, symBinAddr: 0x100007288, symSize: 0x50 }
  - { offsetInCU: 0x109F1, offset: 0x109F1, size: 0x8, addend: 0x0, symName: __ZNSt3__118__unwrap_iter_implIPiLb1EE8__rewrapB7v160006ES1_S1_, symObjAddr: 0x5534, symBinAddr: 0x1000072D8, symSize: 0x50 }
  - { offsetInCU: 0x10A22, offset: 0x10A22, size: 0x8, addend: 0x0, symName: __ZNSt3__16vectorIiNS_9allocatorIiEEE21_ConstructTransactionD2B7v160006Ev, symObjAddr: 0x5584, symBinAddr: 0x100007328, symSize: 0x20 }
  - { offsetInCU: 0x10A4C, offset: 0x10A4C, size: 0x8, addend: 0x0, symName: __ZNSt3__128__exception_guard_exceptionsINS_6vectorIiNS_9allocatorIiEEE16__destroy_vectorEED2B7v160006Ev, symObjAddr: 0x55A4, symBinAddr: 0x100007348, symSize: 0x50 }
  - { offsetInCU: 0x10A76, offset: 0x10A76, size: 0x8, addend: 0x0, symName: __ZNSt3__16vectorIiNS_9allocatorIiEEE16__destroy_vectorclB7v160006Ev, symObjAddr: 0x55F4, symBinAddr: 0x100007398, symSize: 0x9C }
  - { offsetInCU: 0x10A9C, offset: 0x10A9C, size: 0x8, addend: 0x0, symName: __ZNKSt3__16vectorIiNS_9allocatorIiEEE17__annotate_deleteB7v160006Ev, symObjAddr: 0x5690, symBinAddr: 0x100007434, symSize: 0xB8 }
  - { offsetInCU: 0x10AC2, offset: 0x10AC2, size: 0x8, addend: 0x0, symName: __ZNSt3__16vectorIiNS_9allocatorIiEEE7__clearB7v160006Ev, symObjAddr: 0x5758, symBinAddr: 0x1000074FC, symSize: 0x28 }
  - { offsetInCU: 0x10AE8, offset: 0x10AE8, size: 0x8, addend: 0x0, symName: __ZNSt3__116allocator_traitsINS_9allocatorIiEEE10deallocateB7v160006ERS2_Pim, symObjAddr: 0x5780, symBinAddr: 0x100007524, symSize: 0x34 }
  - { offsetInCU: 0x10B2A, offset: 0x10B2A, size: 0x8, addend: 0x0, symName: __ZNKSt3__16vectorIiNS_9allocatorIiEEE4sizeB7v160006Ev, symObjAddr: 0x57B4, symBinAddr: 0x100007558, symSize: 0x28 }
  - { offsetInCU: 0x10B50, offset: 0x10B50, size: 0x8, addend: 0x0, symName: __ZNSt3__16vectorIiNS_9allocatorIiEEE22__base_destruct_at_endB7v160006EPi, symObjAddr: 0x57DC, symBinAddr: 0x100007580, symSize: 0x8C }
  - { offsetInCU: 0x10B94, offset: 0x10B94, size: 0x8, addend: 0x0, symName: __ZNSt3__116allocator_traitsINS_9allocatorIiEEE7destroyB7v160006IivEEvRS2_PT_, symObjAddr: 0x5868, symBinAddr: 0x10000760C, symSize: 0x2C }
  - { offsetInCU: 0x10BD1, offset: 0x10BD1, size: 0x8, addend: 0x0, symName: __ZNSt3__19allocatorIiE7destroyB7v160006EPi, symObjAddr: 0x5894, symBinAddr: 0x100007638, symSize: 0x14 }
  - { offsetInCU: 0x10C05, offset: 0x10C05, size: 0x8, addend: 0x0, symName: __ZNSt3__19allocatorIiE10deallocateB7v160006EPim, symObjAddr: 0x58A8, symBinAddr: 0x10000764C, symSize: 0x40 }
  - { offsetInCU: 0x10C47, offset: 0x10C47, size: 0x8, addend: 0x0, symName: __ZNSt3__16vectorIiNS_9allocatorIiEEED2B7v160006Ev, symObjAddr: 0x58E8, symBinAddr: 0x10000768C, symSize: 0x44 }
  - { offsetInCU: 0x10C71, offset: 0x10C71, size: 0x8, addend: 0x0, symName: __ZNKSt3__19basic_iosIcNS_11char_traitsIcEEE5widenB7v160006Ec, symObjAddr: 0x592C, symBinAddr: 0x1000076D0, symSize: 0x84 }
  - { offsetInCU: 0x10CDF, offset: 0x10CDF, size: 0x8, addend: 0x0, symName: __ZNKSt3__15ctypeIcE5widenB7v160006Ec, symObjAddr: 0x59DC, symBinAddr: 0x100007780, symSize: 0x38 }
...
