---
triple:          'arm64-apple-darwin'
binary-path:     '/Users/dingkai/Code/IOI2024/test/queen2.out'
relocations:
  - { offsetInCU: 0x4556, offset: 0x4556, size: 0x8, addend: 0x0, symName: __ZNSt3__113__fill_n_trueB7v160006INS_6vectorIbNS_9allocatorIbEEEEEEvNS_14__bit_iteratorIT_Lb0EXLi0EEEENS6_9size_typeE, symObjAddr: 0x15E0, symBinAddr: 0x100002C08, symSize: 0x160 }
  - { offsetInCU: 0x461B, offset: 0x461B, size: 0x8, addend: 0x0, symName: __ZNSt3__114__fill_n_falseB7v160006INS_6vectorIbNS_9allocatorIbEEEEEEvNS_14__bit_iteratorIT_Lb0EXLi0EEEENS6_9size_typeE, symObjAddr: 0x1774, symBinAddr: 0x100002D9C, symSize: 0x15C }
  - { offsetInCU: 0x572F, offset: 0x572F, size: 0x8, addend: 0x0, symName: __ZNSt3__114__copy_alignedB7v160006INS_6vectorIbNS_9allocatorIbEEEELb1EEENS_14__bit_iteratorIT_Lb0EXLi0EEEENS5_IS6_XT0_EXLi0EEEES8_S7_, symObjAddr: 0x2D84, symBinAddr: 0x1000043AC, symSize: 0x268 }
  - { offsetInCU: 0x585B, offset: 0x585B, size: 0x8, addend: 0x0, symName: __ZNSt3__16copy_nB7v160006IPKmmPmEENS_9enable_ifIXsr33__is_cpp17_random_access_iteratorIT_EE5valueET1_E4typeES5_T0_S6_, symObjAddr: 0x3538, symBinAddr: 0x100004B60, symSize: 0x44 }
  - { offsetInCU: 0x5902, offset: 0x5902, size: 0x8, addend: 0x0, symName: __ZNSt3__116__copy_unalignedB7v160006INS_6vectorIbNS_9allocatorIbEEEELb1EEENS_14__bit_iteratorIT_Lb0EXLi0EEEENS5_IS6_XT0_EXLi0EEEES8_S7_, symObjAddr: 0x2FEC, symBinAddr: 0x100004614, symSize: 0x520 }
  - { offsetInCU: 0x81F6, offset: 0x81F6, size: 0x8, addend: 0x0, symName: __ZNSt3__1rsB7v160006IcNS_11char_traitsIcEENS_9allocatorIcEEEERNS_13basic_istreamIT_T0_EES9_RNS_12basic_stringIS6_S7_T1_EE, symObjAddr: 0x620, symBinAddr: 0x100001C48, symSize: 0x31C }
  - { offsetInCU: 0x82C5, offset: 0x82C5, size: 0x8, addend: 0x0, symName: __ZNSt3__14iotaB7v160006INS_11__wrap_iterIPiEEiEEvT_S4_T0_, symObjAddr: 0xA74, symBinAddr: 0x10000209C, symSize: 0x70 }
  - { offsetInCU: 0x831B, offset: 0x831B, size: 0x8, addend: 0x0, symName: __ZNSt3__116next_permutationB7v160006INS_11__wrap_iterIPiEEEEbT_S4_, symObjAddr: 0xBC8, symBinAddr: 0x1000021F0, symSize: 0x40 }
  - { offsetInCU: 0x8A1D, offset: 0x8A1D, size: 0x8, addend: 0x0, symName: __ZNSt3__14endlB7v160006IcNS_11char_traitsIcEEEERNS_13basic_ostreamIT_T0_EES7_, symObjAddr: 0xC34, symBinAddr: 0x10000225C, symSize: 0x58 }
  - { offsetInCU: 0x8A5D, offset: 0x8A5D, size: 0x8, addend: 0x0, symName: __ZNSt3__119__allocate_at_leastB7v160006INS_9allocatorImEEEENS_19__allocation_resultINS_16allocator_traitsIT_E7pointerEEERS5_m, symObjAddr: 0x10B8, symBinAddr: 0x1000026E0, symSize: 0x40 }
  - { offsetInCU: 0x8C8C, offset: 0x8C8C, size: 0x8, addend: 0x0, symName: __ZNSt3__120__throw_length_errorB7v160006EPKc, symObjAddr: 0x1238, symBinAddr: 0x100002860, symSize: 0x64 }
  - { offsetInCU: 0x8CB4, offset: 0x8CB4, size: 0x8, addend: 0x0, symName: __ZNSt3__117__libcpp_allocateB7v160006Emm, symObjAddr: 0x13A8, symBinAddr: 0x1000029D0, symSize: 0x60 }
  - { offsetInCU: 0x8D0E, offset: 0x8D0E, size: 0x8, addend: 0x0, symName: __ZNSt3__124__is_overaligned_for_newB7v160006Em, symObjAddr: 0x1408, symBinAddr: 0x100002A30, symSize: 0x20 }
  - { offsetInCU: 0x8D3C, offset: 0x8D3C, size: 0x8, addend: 0x0, symName: __ZNSt3__121__libcpp_operator_newB7v160006IJmSt11align_val_tEEEPvDpT_, symObjAddr: 0x1428, symBinAddr: 0x100002A50, symSize: 0x2C }
  - { offsetInCU: 0x8D89, offset: 0x8D89, size: 0x8, addend: 0x0, symName: __ZNSt3__121__libcpp_operator_newB7v160006IJmEEEPvDpT_, symObjAddr: 0x1454, symBinAddr: 0x100002A7C, symSize: 0x24 }
  - { offsetInCU: 0x8DC2, offset: 0x8DC2, size: 0x8, addend: 0x0, symName: __ZNSt3__16fill_nB7v160006INS_6vectorIbNS_9allocatorIbEEEEEEvNS_14__bit_iteratorIT_Lb0EXLi0EEEENS6_9size_typeEb, symObjAddr: 0x14E8, symBinAddr: 0x100002B10, symSize: 0x94 }
  - { offsetInCU: 0x8E14, offset: 0x8E14, size: 0x8, addend: 0x0, symName: __ZNSt3__13minB7v160006ImEERKT_S3_S3_, symObjAddr: 0x18D0, symBinAddr: 0x100002EF8, symSize: 0x2C }
  - { offsetInCU: 0x8E57, offset: 0x8E57, size: 0x8, addend: 0x0, symName: __ZNSt3__16fill_nB7v160006IPmmmEET_S2_T0_RKT1_, symObjAddr: 0x18FC, symBinAddr: 0x100002F24, symSize: 0x44 }
  - { offsetInCU: 0x8EBA, offset: 0x8EBA, size: 0x8, addend: 0x0, symName: __ZNSt3__112__to_addressB7v160006ImEEPT_S2_, symObjAddr: 0x1940, symBinAddr: 0x100002F68, symSize: 0x14 }
  - { offsetInCU: 0x8EEF, offset: 0x8EEF, size: 0x8, addend: 0x0, symName: __ZNSt3__13minB7v160006ImNS_6__lessImmEEEERKT_S5_S5_T0_, symObjAddr: 0x1954, symBinAddr: 0x100002F7C, symSize: 0x54 }
  - { offsetInCU: 0x8F84, offset: 0x8F84, size: 0x8, addend: 0x0, symName: __ZNSt3__18__fill_nB7v160006IPmmmEET_S2_T0_RKT1_, symObjAddr: 0x19DC, symBinAddr: 0x100003004, symSize: 0x64 }
  - { offsetInCU: 0x8FE7, offset: 0x8FE7, size: 0x8, addend: 0x0, symName: __ZNSt3__121__convert_to_integralB7v160006Em, symObjAddr: 0x1A40, symBinAddr: 0x100003068, symSize: 0x14 }
  - { offsetInCU: 0x9013, offset: 0x9013, size: 0x8, addend: 0x0, symName: __ZNSt3__16fill_nB7v160006IPmmiEET_S2_T0_RKT1_, symObjAddr: 0x1A84, symBinAddr: 0x1000030AC, symSize: 0x44 }
  - { offsetInCU: 0x9076, offset: 0x9076, size: 0x8, addend: 0x0, symName: __ZNSt3__18__fill_nB7v160006IPmmiEET_S2_T0_RKT1_, symObjAddr: 0x1AC8, symBinAddr: 0x1000030F0, symSize: 0x64 }
  - { offsetInCU: 0x90D9, offset: 0x90D9, size: 0x8, addend: 0x0, symName: __ZNSt3__125__debug_db_invalidate_allB7v160006INS_6vectorIbNS_9allocatorIbEEE16__destroy_vectorEEEvPT_, symObjAddr: 0x1CF0, symBinAddr: 0x100003318, symSize: 0x10 }
  - { offsetInCU: 0x910A, offset: 0x910A, size: 0x8, addend: 0x0, symName: __ZNSt3__119__libcpp_deallocateB7v160006EPvmm, symObjAddr: 0x1D40, symBinAddr: 0x100003368, symSize: 0x60 }
  - { offsetInCU: 0x916F, offset: 0x916F, size: 0x8, addend: 0x0, symName: __ZNSt3__127__do_deallocate_handle_sizeB7v160006IJSt11align_val_tEEEvPvmDpT_, symObjAddr: 0x1DA0, symBinAddr: 0x1000033C8, symSize: 0x30 }
  - { offsetInCU: 0x91C2, offset: 0x91C2, size: 0x8, addend: 0x0, symName: __ZNSt3__127__do_deallocate_handle_sizeB7v160006IJEEEvPvmDpT_, symObjAddr: 0x1DD0, symBinAddr: 0x1000033F8, symSize: 0x28 }
  - { offsetInCU: 0x9200, offset: 0x9200, size: 0x8, addend: 0x0, symName: __ZNSt3__124__libcpp_operator_deleteB7v160006IJPvSt11align_val_tEEEvDpT_, symObjAddr: 0x1DF8, symBinAddr: 0x100003420, symSize: 0x2C }
  - { offsetInCU: 0x9249, offset: 0x9249, size: 0x8, addend: 0x0, symName: __ZNSt3__124__libcpp_operator_deleteB7v160006IJPvEEEvDpT_, symObjAddr: 0x1E24, symBinAddr: 0x10000344C, symSize: 0x24 }
  - { offsetInCU: 0x927E, offset: 0x927E, size: 0x8, addend: 0x0, symName: __ZNSt3__122__make_exception_guardB7v160006INS_6vectorINS1_IbNS_9allocatorIbEEEENS2_IS4_EEE16__destroy_vectorEEENS_28__exception_guard_exceptionsIT_EES9_, symObjAddr: 0x1F6C, symBinAddr: 0x100003594, symSize: 0x40 }
  - { offsetInCU: 0x92B3, offset: 0x92B3, size: 0x8, addend: 0x0, symName: __ZNSt3__119__debug_db_insert_cB7v160006INS_6vectorINS1_IbNS_9allocatorIbEEEENS2_IS4_EEEEEEvPT_, symObjAddr: 0x1FE0, symBinAddr: 0x100003608, symSize: 0x10 }
  - { offsetInCU: 0x92E4, offset: 0x92E4, size: 0x8, addend: 0x0, symName: __ZNSt3__119__allocate_at_leastB7v160006INS_9allocatorINS_6vectorIbNS1_IbEEEEEEEENS_19__allocation_resultINS_16allocator_traitsIT_E7pointerEEERS8_m, symObjAddr: 0x2378, symBinAddr: 0x1000039A0, symSize: 0x40 }
  - { offsetInCU: 0x9511, offset: 0x9511, size: 0x8, addend: 0x0, symName: __ZNSt3__112__to_addressB7v160006INS_6vectorIbNS_9allocatorIbEEEEEEPT_S6_, symObjAddr: 0x26DC, symBinAddr: 0x100003D04, symSize: 0x14 }
  - { offsetInCU: 0x9562, offset: 0x9562, size: 0x8, addend: 0x0, symName: __ZNSt3__18distanceB7v160006INS_14__bit_iteratorINS_6vectorIbNS_9allocatorIbEEEELb1ELm0EEEEENS_15iterator_traitsIT_E15difference_typeES8_S8_, symObjAddr: 0x2BE4, symBinAddr: 0x10000420C, symSize: 0x4C }
  - { offsetInCU: 0x95A5, offset: 0x95A5, size: 0x8, addend: 0x0, symName: __ZNSt3__14copyB7v160006INS_6vectorIbNS_9allocatorIbEEEELb1EEENS_14__bit_iteratorIT_Lb0EXLi0EEEENS5_IS6_XT0_EXLi0EEEES8_S7_, symObjAddr: 0x2C30, symBinAddr: 0x100004258, symSize: 0xD4 }
  - { offsetInCU: 0x9605, offset: 0x9605, size: 0x8, addend: 0x0, symName: __ZNSt3__110__distanceB7v160006INS_14__bit_iteratorINS_6vectorIbNS_9allocatorIbEEEELb1ELm0EEEEENS_15iterator_traitsIT_E15difference_typeES8_S8_NS_26random_access_iterator_tagE, symObjAddr: 0x2D04, symBinAddr: 0x10000432C, symSize: 0x38 }
  - { offsetInCU: 0x9652, offset: 0x9652, size: 0x8, addend: 0x0, symName: __ZNSt3__1miB7v160006ERKNS_14__bit_iteratorINS_6vectorIbNS_9allocatorIbEEEELb1ELm0EEES7_, symObjAddr: 0x2D3C, symBinAddr: 0x100004364, symSize: 0x48 }
  - { offsetInCU: 0x968F, offset: 0x968F, size: 0x8, addend: 0x0, symName: __ZNSt3__13minB7v160006IlEERKT_S3_S3_, symObjAddr: 0x350C, symBinAddr: 0x100004B34, symSize: 0x2C }
  - { offsetInCU: 0x96D2, offset: 0x96D2, size: 0x8, addend: 0x0, symName: __ZNSt3__112__to_addressB7v160006IKmEEPT_S3_, symObjAddr: 0x357C, symBinAddr: 0x100004BA4, symSize: 0x14 }
  - { offsetInCU: 0x9707, offset: 0x9707, size: 0x8, addend: 0x0, symName: __ZNSt3__13minB7v160006IlNS_6__lessIllEEEERKT_S5_S5_T0_, symObjAddr: 0x3590, symBinAddr: 0x100004BB8, symSize: 0x54 }
  - { offsetInCU: 0x979C, offset: 0x979C, size: 0x8, addend: 0x0, symName: __ZNSt3__14copyB7v160006IPKmPmEET0_T_S5_S4_, symObjAddr: 0x3618, symBinAddr: 0x100004C40, symSize: 0x40 }
  - { offsetInCU: 0x97F6, offset: 0x97F6, size: 0x8, addend: 0x0, symName: __ZNSt3__16__copyB7v160006INS_17_ClassicAlgPolicyEPKmS3_PmEENS_4pairIT0_T2_EES6_T1_S7_, symObjAddr: 0x3658, symBinAddr: 0x100004C80, symSize: 0x44 }
  - { offsetInCU: 0x9862, offset: 0x9862, size: 0x8, addend: 0x0, symName: __ZNSt3__123__dispatch_copy_or_moveB7v160006INS_17_ClassicAlgPolicyENS_11__copy_loopIS1_EENS_14__copy_trivialEPKmS6_PmEENS_4pairIT2_T4_EES9_T3_SA_, symObjAddr: 0x369C, symBinAddr: 0x100004CC4, symSize: 0x44 }
  - { offsetInCU: 0x98E0, offset: 0x98E0, size: 0x8, addend: 0x0, symName: __ZNSt3__121__unwrap_and_dispatchB7v160006INS_10__overloadINS_11__copy_loopINS_17_ClassicAlgPolicyEEENS_14__copy_trivialEEEPKmS8_PmLi0EEENS_4pairIT0_T2_EESB_T1_SC_, symObjAddr: 0x36E0, symBinAddr: 0x100004D08, symSize: 0xB4 }
  - { offsetInCU: 0x996E, offset: 0x996E, size: 0x8, addend: 0x0, symName: __ZNSt3__114__unwrap_rangeB7v160006IPKmS2_EENS_4pairIT0_S4_EET_S6_, symObjAddr: 0x3794, symBinAddr: 0x100004DBC, symSize: 0x60 }
  - { offsetInCU: 0x9B03, offset: 0x9B03, size: 0x8, addend: 0x0, symName: __ZNSt3__113__unwrap_iterB7v160006IPmNS_18__unwrap_iter_implIS1_Lb1EEELi0EEEDTclsrT0_8__unwrapclsr3stdE7declvalIT_EEEES5_, symObjAddr: 0x383C, symBinAddr: 0x100004E64, symSize: 0x24 }
  - { offsetInCU: 0x9B47, offset: 0x9B47, size: 0x8, addend: 0x0, symName: __ZNSt3__19make_pairB7v160006IPKmPmEENS_4pairINS_18__unwrap_ref_decayIT_E4typeENS5_IT0_E4typeEEEOS6_OS9_, symObjAddr: 0x3860, symBinAddr: 0x100004E88, symSize: 0x38 }
  - { offsetInCU: 0x9B96, offset: 0x9B96, size: 0x8, addend: 0x0, symName: __ZNSt3__114__rewrap_rangeB7v160006IPKmS2_EET_S3_T0_, symObjAddr: 0x3898, symBinAddr: 0x100004EC0, symSize: 0x2C }
  - { offsetInCU: 0x9BE2, offset: 0x9BE2, size: 0x8, addend: 0x0, symName: __ZNSt3__113__rewrap_iterB7v160006IPmS1_NS_18__unwrap_iter_implIS1_Lb1EEEEET_S4_T0_, symObjAddr: 0x38C4, symBinAddr: 0x100004EEC, symSize: 0x3C }
  - { offsetInCU: 0x9C37, offset: 0x9C37, size: 0x8, addend: 0x0, symName: __ZNSt3__19make_pairB7v160006IPKmS2_EENS_4pairINS_18__unwrap_ref_decayIT_E4typeENS4_IT0_E4typeEEEOS5_OS8_, symObjAddr: 0x3900, symBinAddr: 0x100004F28, symSize: 0x38 }
  - { offsetInCU: 0x9C86, offset: 0x9C86, size: 0x8, addend: 0x0, symName: __ZNSt3__113__unwrap_iterB7v160006IPKmNS_18__unwrap_iter_implIS2_Lb1EEELi0EEEDTclsrT0_8__unwrapclsr3stdE7declvalIT_EEEES6_, symObjAddr: 0x3938, symBinAddr: 0x100004F60, symSize: 0x24 }
  - { offsetInCU: 0x9DF1, offset: 0x9DF1, size: 0x8, addend: 0x0, symName: __ZNSt3__119__copy_trivial_implB7v160006IKmmEENS_4pairIPT_PT0_EES4_S4_S6_, symObjAddr: 0x39F0, symBinAddr: 0x100005018, symSize: 0x84 }
  - { offsetInCU: 0x9E59, offset: 0x9E59, size: 0x8, addend: 0x0, symName: __ZNSt3__19make_pairB7v160006IRPKmPmEENS_4pairINS_18__unwrap_ref_decayIT_E4typeENS6_IT0_E4typeEEEOS7_OSA_, symObjAddr: 0x3A74, symBinAddr: 0x10000509C, symSize: 0x38 }
  - { offsetInCU: 0x9EFB, offset: 0x9EFB, size: 0x8, addend: 0x0, symName: __ZNSt3__113__rewrap_iterB7v160006IPKmS2_NS_18__unwrap_iter_implIS2_Lb1EEEEET_S5_T0_, symObjAddr: 0x3BB0, symBinAddr: 0x1000051D8, symSize: 0x3C }
  - { offsetInCU: 0x9F50, offset: 0x9F50, size: 0x8, addend: 0x0, symName: __ZNSt3__118__debug_db_erase_cB7v160006INS_6vectorINS1_IbNS_9allocatorIbEEEENS2_IS4_EEEEEEvPT_, symObjAddr: 0x3F30, symBinAddr: 0x100005558, symSize: 0x10 }
  - { offsetInCU: 0x9F81, offset: 0x9F81, size: 0x8, addend: 0x0, symName: __ZNSt3__119__debug_db_insert_cB7v160006INS_12basic_stringIcNS_11char_traitsIcEENS_9allocatorIcEEEEEEvPT_, symObjAddr: 0x41BC, symBinAddr: 0x1000057E4, symSize: 0x10 }
  - { offsetInCU: 0xA547, offset: 0xA547, size: 0x8, addend: 0x0, symName: __ZNSt3__19use_facetB7v160006INS_5ctypeIcEEEERKT_RKNS_6localeE, symObjAddr: 0x4468, symBinAddr: 0x100005A90, symSize: 0x2C }
  - { offsetInCU: 0xA927, offset: 0xA927, size: 0x8, addend: 0x0, symName: __ZNSt3__125__debug_db_invalidate_allB7v160006INS_12basic_stringIcNS_11char_traitsIcEENS_9allocatorIcEEEEEEvPT_, symObjAddr: 0x4744, symBinAddr: 0x100005D6C, symSize: 0x10 }
  - { offsetInCU: 0xA98B, offset: 0xA98B, size: 0x8, addend: 0x0, symName: __ZNSt3__122__make_exception_guardB7v160006INS_6vectorIiNS_9allocatorIiEEE16__destroy_vectorEEENS_28__exception_guard_exceptionsIT_EES7_, symObjAddr: 0x4C64, symBinAddr: 0x10000628C, symSize: 0x40 }
  - { offsetInCU: 0xA9C0, offset: 0xA9C0, size: 0x8, addend: 0x0, symName: __ZNSt3__119__debug_db_insert_cB7v160006INS_6vectorIiNS_9allocatorIiEEEEEEvPT_, symObjAddr: 0x4CD8, symBinAddr: 0x100006300, symSize: 0x10 }
  - { offsetInCU: 0xA9F1, offset: 0xA9F1, size: 0x8, addend: 0x0, symName: __ZNSt3__119__allocate_at_leastB7v160006INS_9allocatorIiEEEENS_19__allocation_resultINS_16allocator_traitsIT_E7pointerEEERS5_m, symObjAddr: 0x5060, symBinAddr: 0x100006688, symSize: 0x40 }
  - { offsetInCU: 0xAA34, offset: 0xAA34, size: 0x8, addend: 0x0, symName: __ZNSt3__112__to_addressB7v160006IiEEPT_S2_, symObjAddr: 0x5384, symBinAddr: 0x1000069AC, symSize: 0x14 }
  - { offsetInCU: 0xAA69, offset: 0xAA69, size: 0x8, addend: 0x0, symName: __ZNSt3__118__debug_db_erase_cB7v160006INS_6vectorIiNS_9allocatorIiEEEEEEvPT_, symObjAddr: 0x56B0, symBinAddr: 0x100006CD8, symSize: 0x10 }
  - { offsetInCU: 0xAA9A, offset: 0xAA9A, size: 0x8, addend: 0x0, symName: __ZNSt3__1neB7v160006IPiEEbRKNS_11__wrap_iterIT_EES6_, symObjAddr: 0x5928, symBinAddr: 0x100006F50, symSize: 0x34 }
  - { offsetInCU: 0xAADD, offset: 0xAADD, size: 0x8, addend: 0x0, symName: __ZNSt3__1eqB7v160006IPiEEbRKNS_11__wrap_iterIT_EES6_, symObjAddr: 0x5994, symBinAddr: 0x100006FBC, symSize: 0x48 }
  - { offsetInCU: 0xAB20, offset: 0xAB20, size: 0x8, addend: 0x0, symName: __ZNSt3__125__debug_db_invalidate_allB7v160006INS_6vectorIbNS_9allocatorIbEEEEEEvPT_, symObjAddr: 0x5B4C, symBinAddr: 0x100007174, symSize: 0x10 }
  - { offsetInCU: 0xAB51, offset: 0xAB51, size: 0x8, addend: 0x0, symName: __ZNSt3__116next_permutationB7v160006INS_11__wrap_iterIPiEENS_6__lessIiiEEEEbT_S6_T0_, symObjAddr: 0x5B94, symBinAddr: 0x1000071BC, symSize: 0x50 }
  - { offsetInCU: 0xABAB, offset: 0xABAB, size: 0x8, addend: 0x0, symName: __ZNSt3__118__next_permutationB7v160006INS_17_ClassicAlgPolicyERNS_6__lessIiiEENS_11__wrap_iterIPiEES7_EENS_4pairIT1_bEES9_T2_OT0_, symObjAddr: 0x5BE4, symBinAddr: 0x10000720C, symSize: 0x1E8 }
  - { offsetInCU: 0xADE4, offset: 0xADE4, size: 0x8, addend: 0x0, symName: __ZNSt3__19__reverseB7v160006INS_17_ClassicAlgPolicyENS_11__wrap_iterIPiEES4_EEvT0_T1_, symObjAddr: 0x5EC0, symBinAddr: 0x1000074E8, symSize: 0x3C }
  - { offsetInCU: 0xAE35, offset: 0xAE35, size: 0x8, addend: 0x0, symName: __ZNSt3__19iter_swapB7v160006INS_11__wrap_iterIPiEES3_EEvT_T0_, symObjAddr: 0x5F34, symBinAddr: 0x10000755C, symSize: 0x50 }
  - { offsetInCU: 0xAE7D, offset: 0xAE7D, size: 0x8, addend: 0x0, symName: __ZNSt3__14swapB7v160006IiEENS_9enable_ifIXaasr21is_move_constructibleIT_EE5valuesr18is_move_assignableIS2_EE5valueEvE4typeERS2_S5_, symObjAddr: 0x5F84, symBinAddr: 0x1000075AC, symSize: 0x3C }
  - { offsetInCU: 0xAECE, offset: 0xAECE, size: 0x8, addend: 0x0, symName: __ZNSt3__114__reverse_implB7v160006INS_17_ClassicAlgPolicyENS_11__wrap_iterIPiEEEEvT0_S5_NS_26random_access_iterator_tagE, symObjAddr: 0x5FC0, symBinAddr: 0x1000075E8, symSize: 0x7C }
  - { offsetInCU: 0xAF20, offset: 0xAF20, size: 0x8, addend: 0x0, symName: __ZNSt3__1ltB7v160006IPiEEbRKNS_11__wrap_iterIT_EES6_, symObjAddr: 0x603C, symBinAddr: 0x100007664, symSize: 0x48 }
  - { offsetInCU: 0xB47C, offset: 0xB47C, size: 0x8, addend: 0x0, symName: __ZSt28__throw_bad_array_new_lengthB7v160006v, symObjAddr: 0x1374, symBinAddr: 0x10000299C, symSize: 0x34 }
  - { offsetInCU: 0xDD6F, offset: 0xDD6F, size: 0x8, addend: 0x0, symName: _main, symObjAddr: 0x0, symBinAddr: 0x100001628, symSize: 0x558 }
  - { offsetInCU: 0xDE68, offset: 0xDE68, size: 0x8, addend: 0x0, symName: __ZNSt3__16vectorIbNS_9allocatorIbEEEC1Em, symObjAddr: 0x558, symBinAddr: 0x100001B80, symSize: 0x34 }
  - { offsetInCU: 0xDEA3, offset: 0xDEA3, size: 0x8, addend: 0x0, symName: __ZNSt3__16vectorINS0_IbNS_9allocatorIbEEEENS1_IS3_EEEC1EmRKS3_, symObjAddr: 0x58C, symBinAddr: 0x100001BB4, symSize: 0x3C }
  - { offsetInCU: 0xDEED, offset: 0xDEED, size: 0x8, addend: 0x0, symName: __ZNSt3__16vectorIbNS_9allocatorIbEEED1B7v160006Ev, symObjAddr: 0x5C8, symBinAddr: 0x100001BF0, symSize: 0x2C }
  - { offsetInCU: 0xDF17, offset: 0xDF17, size: 0x8, addend: 0x0, symName: __ZNSt3__112basic_stringIcNS_11char_traitsIcEENS_9allocatorIcEEEC1B7v160006Ev, symObjAddr: 0x5F4, symBinAddr: 0x100001C1C, symSize: 0x2C }
  - { offsetInCU: 0xDF41, offset: 0xDF41, size: 0x8, addend: 0x0, symName: __ZNSt3__112basic_stringIcNS_11char_traitsIcEENS_9allocatorIcEEEixB7v160006Em, symObjAddr: 0x93C, symBinAddr: 0x100001F64, symSize: 0x30 }
  - { offsetInCU: 0xDF76, offset: 0xDF76, size: 0x8, addend: 0x0, symName: __ZNSt3__16vectorINS0_IbNS_9allocatorIbEEEENS1_IS3_EEEixB7v160006Em, symObjAddr: 0x96C, symBinAddr: 0x100001F94, symSize: 0x2C }
  - { offsetInCU: 0xDFAD, offset: 0xDFAD, size: 0x8, addend: 0x0, symName: __ZNSt3__16vectorIbNS_9allocatorIbEEEixB7v160006Em, symObjAddr: 0x998, symBinAddr: 0x100001FC0, symSize: 0x3C }
  - { offsetInCU: 0xDFE2, offset: 0xDFE2, size: 0x8, addend: 0x0, symName: __ZNSt3__115__bit_referenceINS_6vectorIbNS_9allocatorIbEEEELb1EEaSB7v160006Eb, symObjAddr: 0x9D4, symBinAddr: 0x100001FFC, symSize: 0x6C }
  - { offsetInCU: 0xE016, offset: 0xE016, size: 0x8, addend: 0x0, symName: __ZNSt3__16vectorIiNS_9allocatorIiEEEC1Em, symObjAddr: 0xA40, symBinAddr: 0x100002068, symSize: 0x34 }
  - { offsetInCU: 0xE051, offset: 0xE051, size: 0x8, addend: 0x0, symName: __ZNSt3__16vectorIiNS_9allocatorIiEEE5beginB7v160006Ev, symObjAddr: 0xAE4, symBinAddr: 0x10000210C, symSize: 0x30 }
  - { offsetInCU: 0xE079, offset: 0xE079, size: 0x8, addend: 0x0, symName: __ZNSt3__16vectorIiNS_9allocatorIiEEE3endB7v160006Ev, symObjAddr: 0xB14, symBinAddr: 0x10000213C, symSize: 0x30 }
  - { offsetInCU: 0xE0A1, offset: 0xE0A1, size: 0x8, addend: 0x0, symName: __ZNSt3__16vectorIiNS_9allocatorIiEEEixB7v160006Em, symObjAddr: 0xB44, symBinAddr: 0x10000216C, symSize: 0x24 }
  - { offsetInCU: 0xE0D8, offset: 0xE0D8, size: 0x8, addend: 0x0, symName: __ZNKSt3__115__bit_referenceINS_6vectorIbNS_9allocatorIbEEEELb1EEcvbB7v160006Ev, symObjAddr: 0xB68, symBinAddr: 0x100002190, symSize: 0x2C }
  - { offsetInCU: 0xE0FE, offset: 0xE0FE, size: 0x8, addend: 0x0, symName: __ZNSt3__16vectorIbNS_9allocatorIbEEEaSB7v160006EOS3_, symObjAddr: 0xB94, symBinAddr: 0x1000021BC, symSize: 0x34 }
  - { offsetInCU: 0xE1AE, offset: 0xE1AE, size: 0x8, addend: 0x0, symName: __ZNSt3__113basic_ostreamIcNS_11char_traitsIcEEElsB7v160006EPFRS3_S4_E, symObjAddr: 0xC08, symBinAddr: 0x100002230, symSize: 0x2C }
  - { offsetInCU: 0xE1E2, offset: 0xE1E2, size: 0x8, addend: 0x0, symName: __ZNSt3__16vectorIiNS_9allocatorIiEEED1B7v160006Ev, symObjAddr: 0xC8C, symBinAddr: 0x1000022B4, symSize: 0x2C }
  - { offsetInCU: 0xE20C, offset: 0xE20C, size: 0x8, addend: 0x0, symName: __ZNSt3__16vectorINS0_IbNS_9allocatorIbEEEENS1_IS3_EEED1B7v160006Ev, symObjAddr: 0xCB8, symBinAddr: 0x1000022E0, symSize: 0x2C }
  - { offsetInCU: 0xE236, offset: 0xE236, size: 0x8, addend: 0x0, symName: __ZNSt3__16vectorIbNS_9allocatorIbEEEC2Em, symObjAddr: 0xCE4, symBinAddr: 0x10000230C, symSize: 0x88 }
  - { offsetInCU: 0xE27B, offset: 0xE27B, size: 0x8, addend: 0x0, symName: __ZNSt3__117__compressed_pairImNS_9allocatorImEEEC1B7v160006IiNS_18__default_init_tagEEEOT_OT0_, symObjAddr: 0xD6C, symBinAddr: 0x100002394, symSize: 0x3C }
  - { offsetInCU: 0xE2D3, offset: 0xE2D3, size: 0x8, addend: 0x0, symName: __ZNSt3__16vectorIbNS_9allocatorIbEEE11__vallocateB7v160006Em, symObjAddr: 0xDA8, symBinAddr: 0x1000023D0, symSize: 0xA0 }
  - { offsetInCU: 0xE317, offset: 0xE317, size: 0x8, addend: 0x0, symName: __ZNSt3__16vectorIbNS_9allocatorIbEEE18__construct_at_endB7v160006Emb, symObjAddr: 0xE48, symBinAddr: 0x100002470, symSize: 0x108 }
  - { offsetInCU: 0xE36C, offset: 0xE36C, size: 0x8, addend: 0x0, symName: __ZNSt3__117__compressed_pairImNS_9allocatorImEEEC2B7v160006IiNS_18__default_init_tagEEEOT_OT0_, symObjAddr: 0xF50, symBinAddr: 0x100002578, symSize: 0x40 }
  - { offsetInCU: 0xE3C4, offset: 0xE3C4, size: 0x8, addend: 0x0, symName: __ZNSt3__122__compressed_pair_elemImLi0ELb0EEC2B7v160006IivEEOT_, symObjAddr: 0xF90, symBinAddr: 0x1000025B8, symSize: 0x24 }
  - { offsetInCU: 0xE406, offset: 0xE406, size: 0x8, addend: 0x0, symName: __ZNSt3__122__compressed_pair_elemINS_9allocatorImEELi1ELb1EEC2B7v160006ENS_18__default_init_tagE, symObjAddr: 0xFB4, symBinAddr: 0x1000025DC, symSize: 0x2C }
  - { offsetInCU: 0xE43A, offset: 0xE43A, size: 0x8, addend: 0x0, symName: __ZNSt3__19allocatorImEC2B7v160006Ev, symObjAddr: 0xFE0, symBinAddr: 0x100002608, symSize: 0x2C }
  - { offsetInCU: 0xE464, offset: 0xE464, size: 0x8, addend: 0x0, symName: __ZNSt3__116__non_trivial_ifILb1ENS_9allocatorImEEEC2B7v160006Ev, symObjAddr: 0x100C, symBinAddr: 0x100002634, symSize: 0x14 }
  - { offsetInCU: 0xE48E, offset: 0xE48E, size: 0x8, addend: 0x0, symName: __ZNKSt3__16vectorIbNS_9allocatorIbEEE8max_sizeEv, symObjAddr: 0x1020, symBinAddr: 0x100002648, symSize: 0x7C }
  - { offsetInCU: 0xE4D4, offset: 0xE4D4, size: 0x8, addend: 0x0, symName: __ZNKSt3__16vectorIbNS_9allocatorIbEEE20__throw_length_errorB7v160006Ev, symObjAddr: 0x109C, symBinAddr: 0x1000026C4, symSize: 0x1C }
  - { offsetInCU: 0xE4FA, offset: 0xE4FA, size: 0x8, addend: 0x0, symName: __ZNSt3__16vectorIbNS_9allocatorIbEEE7__allocB7v160006Ev, symObjAddr: 0x10F8, symBinAddr: 0x100002720, symSize: 0x28 }
  - { offsetInCU: 0xE520, offset: 0xE520, size: 0x8, addend: 0x0, symName: __ZNSt3__16vectorIbNS_9allocatorIbEEE26__external_cap_to_internalB7v160006Em, symObjAddr: 0x1120, symBinAddr: 0x100002748, symSize: 0x24 }
  - { offsetInCU: 0xE544, offset: 0xE544, size: 0x8, addend: 0x0, symName: __ZNSt3__16vectorIbNS_9allocatorIbEEE5__capB7v160006Ev, symObjAddr: 0x1144, symBinAddr: 0x10000276C, symSize: 0x28 }
  - { offsetInCU: 0xE574, offset: 0xE574, size: 0x8, addend: 0x0, symName: __ZNSt3__116allocator_traitsINS_9allocatorImEEE8max_sizeB7v160006IS2_vEEmRKS2_, symObjAddr: 0x116C, symBinAddr: 0x100002794, symSize: 0x24 }
  - { offsetInCU: 0xE5A2, offset: 0xE5A2, size: 0x8, addend: 0x0, symName: __ZNKSt3__16vectorIbNS_9allocatorIbEEE7__allocB7v160006Ev, symObjAddr: 0x1190, symBinAddr: 0x1000027B8, symSize: 0x28 }
  - { offsetInCU: 0xE5C8, offset: 0xE5C8, size: 0x8, addend: 0x0, symName: __ZNSt3__114numeric_limitsImE3maxB7v160006Ev, symObjAddr: 0x11B8, symBinAddr: 0x1000027E0, symSize: 0x14 }
  - { offsetInCU: 0xE5DC, offset: 0xE5DC, size: 0x8, addend: 0x0, symName: __ZNSt3__16vectorIbNS_9allocatorIbEEE26__internal_cap_to_externalB7v160006Em, symObjAddr: 0x11CC, symBinAddr: 0x1000027F4, symSize: 0x18 }
  - { offsetInCU: 0xE600, offset: 0xE600, size: 0x8, addend: 0x0, symName: __ZNKSt3__19allocatorImE8max_sizeB7v160006Ev, symObjAddr: 0x11E4, symBinAddr: 0x10000280C, symSize: 0x14 }
  - { offsetInCU: 0xE626, offset: 0xE626, size: 0x8, addend: 0x0, symName: __ZNKSt3__117__compressed_pairImNS_9allocatorImEEE6secondB7v160006Ev, symObjAddr: 0x11F8, symBinAddr: 0x100002820, symSize: 0x24 }
  - { offsetInCU: 0xE64C, offset: 0xE64C, size: 0x8, addend: 0x0, symName: __ZNKSt3__122__compressed_pair_elemINS_9allocatorImEELi1ELb1EE5__getB7v160006Ev, symObjAddr: 0x121C, symBinAddr: 0x100002844, symSize: 0x14 }
  - { offsetInCU: 0xE672, offset: 0xE672, size: 0x8, addend: 0x0, symName: __ZNSt3__123__libcpp_numeric_limitsImLb1EE3maxB7v160006Ev, symObjAddr: 0x1230, symBinAddr: 0x100002858, symSize: 0x8 }
  - { offsetInCU: 0xE686, offset: 0xE686, size: 0x8, addend: 0x0, symName: __ZNSt12length_errorC1B7v160006EPKc, symObjAddr: 0x129C, symBinAddr: 0x1000028C4, symSize: 0x34 }
  - { offsetInCU: 0xE6BE, offset: 0xE6BE, size: 0x8, addend: 0x0, symName: __ZNSt12length_errorC2B7v160006EPKc, symObjAddr: 0x12D0, symBinAddr: 0x1000028F8, symSize: 0x4C }
  - { offsetInCU: 0xE6F6, offset: 0xE6F6, size: 0x8, addend: 0x0, symName: __ZNSt3__19allocatorImE8allocateB7v160006Em, symObjAddr: 0x131C, symBinAddr: 0x100002944, symSize: 0x58 }
  - { offsetInCU: 0xE72A, offset: 0xE72A, size: 0x8, addend: 0x0, symName: __ZNSt3__117__compressed_pairImNS_9allocatorImEEE6secondB7v160006Ev, symObjAddr: 0x1478, symBinAddr: 0x100002AA0, symSize: 0x24 }
  - { offsetInCU: 0xE750, offset: 0xE750, size: 0x8, addend: 0x0, symName: __ZNSt3__122__compressed_pair_elemINS_9allocatorImEELi1ELb1EE5__getB7v160006Ev, symObjAddr: 0x149C, symBinAddr: 0x100002AC4, symSize: 0x14 }
  - { offsetInCU: 0xE776, offset: 0xE776, size: 0x8, addend: 0x0, symName: __ZNSt3__117__compressed_pairImNS_9allocatorImEEE5firstB7v160006Ev, symObjAddr: 0x14B0, symBinAddr: 0x100002AD8, symSize: 0x24 }
  - { offsetInCU: 0xE79C, offset: 0xE79C, size: 0x8, addend: 0x0, symName: __ZNSt3__122__compressed_pair_elemImLi0ELb0EE5__getB7v160006Ev, symObjAddr: 0x14D4, symBinAddr: 0x100002AFC, symSize: 0x14 }
  - { offsetInCU: 0xE7C2, offset: 0xE7C2, size: 0x8, addend: 0x0, symName: __ZNSt3__16vectorIbNS_9allocatorIbEEE11__make_iterB7v160006Em, symObjAddr: 0x157C, symBinAddr: 0x100002BA4, symSize: 0x64 }
  - { offsetInCU: 0xE7F7, offset: 0xE7F7, size: 0x8, addend: 0x0, symName: __ZNSt3__114__bit_iteratorINS_6vectorIbNS_9allocatorIbEEEELb0ELm0EEC1B7v160006ERKS5_, symObjAddr: 0x1740, symBinAddr: 0x100002D68, symSize: 0x34 }
  - { offsetInCU: 0xE83A, offset: 0xE83A, size: 0x8, addend: 0x0, symName: __ZNKSt3__16__lessImmEclB7v160006ERKmS3_, symObjAddr: 0x19A8, symBinAddr: 0x100002FD0, symSize: 0x34 }
  - { offsetInCU: 0xE87C, offset: 0xE87C, size: 0x8, addend: 0x0, symName: __ZNSt3__114__bit_iteratorINS_6vectorIbNS_9allocatorIbEEEELb0ELm0EEC2B7v160006ERKS5_, symObjAddr: 0x1A54, symBinAddr: 0x10000307C, symSize: 0x30 }
  - { offsetInCU: 0xE8B5, offset: 0xE8B5, size: 0x8, addend: 0x0, symName: __ZNSt3__114__bit_iteratorINS_6vectorIbNS_9allocatorIbEEEELb0ELm0EEC1B7v160006EPmj, symObjAddr: 0x1B2C, symBinAddr: 0x100003154, symSize: 0x3C }
  - { offsetInCU: 0xE8FD, offset: 0xE8FD, size: 0x8, addend: 0x0, symName: __ZNSt3__114__bit_iteratorINS_6vectorIbNS_9allocatorIbEEEELb0ELm0EEC2B7v160006EPmj, symObjAddr: 0x1B68, symBinAddr: 0x100003190, symSize: 0x2C }
  - { offsetInCU: 0xE945, offset: 0xE945, size: 0x8, addend: 0x0, symName: __ZNSt3__16vectorIbNS_9allocatorIbEEED2B7v160006Ev, symObjAddr: 0x1B94, symBinAddr: 0x1000031BC, symSize: 0x44 }
  - { offsetInCU: 0xE96F, offset: 0xE96F, size: 0x8, addend: 0x0, symName: __ZNSt3__16vectorIbNS_9allocatorIbEEE16__destroy_vectorC1ERS3_, symObjAddr: 0x1BD8, symBinAddr: 0x100003200, symSize: 0x34 }
  - { offsetInCU: 0xE9A8, offset: 0xE9A8, size: 0x8, addend: 0x0, symName: __ZNSt3__16vectorIbNS_9allocatorIbEEE16__destroy_vectorclB7v160006Ev, symObjAddr: 0x1C18, symBinAddr: 0x100003240, symSize: 0x84 }
  - { offsetInCU: 0xE9CE, offset: 0xE9CE, size: 0x8, addend: 0x0, symName: __ZNSt3__16vectorIbNS_9allocatorIbEEE16__destroy_vectorC2ERS3_, symObjAddr: 0x1C9C, symBinAddr: 0x1000032C4, symSize: 0x20 }
  - { offsetInCU: 0xEA07, offset: 0xEA07, size: 0x8, addend: 0x0, symName: __ZNSt3__116allocator_traitsINS_9allocatorImEEE10deallocateB7v160006ERS2_Pmm, symObjAddr: 0x1CBC, symBinAddr: 0x1000032E4, symSize: 0x34 }
  - { offsetInCU: 0xEA49, offset: 0xEA49, size: 0x8, addend: 0x0, symName: __ZNSt3__19allocatorImE10deallocateB7v160006EPmm, symObjAddr: 0x1D00, symBinAddr: 0x100003328, symSize: 0x40 }
  - { offsetInCU: 0xEA8B, offset: 0xEA8B, size: 0x8, addend: 0x0, symName: __ZNSt3__16vectorINS0_IbNS_9allocatorIbEEEENS1_IS3_EEEC2EmRKS3_, symObjAddr: 0x1E48, symBinAddr: 0x100003470, symSize: 0xE8 }
  - { offsetInCU: 0xEAEF, offset: 0xEAEF, size: 0x8, addend: 0x0, symName: __ZNSt3__117__compressed_pairIPNS_6vectorIbNS_9allocatorIbEEEENS2_IS4_EEEC1B7v160006IDnNS_18__default_init_tagEEEOT_OT0_, symObjAddr: 0x1F30, symBinAddr: 0x100003558, symSize: 0x3C }
  - { offsetInCU: 0xEB47, offset: 0xEB47, size: 0x8, addend: 0x0, symName: __ZNSt3__16vectorINS0_IbNS_9allocatorIbEEEENS1_IS3_EEE16__destroy_vectorC1ERS5_, symObjAddr: 0x1FAC, symBinAddr: 0x1000035D4, symSize: 0x34 }
  - { offsetInCU: 0xEB80, offset: 0xEB80, size: 0x8, addend: 0x0, symName: __ZNSt3__16vectorINS0_IbNS_9allocatorIbEEEENS1_IS3_EEE11__vallocateB7v160006Em, symObjAddr: 0x1FF0, symBinAddr: 0x100003618, symSize: 0xB4 }
  - { offsetInCU: 0xEBC4, offset: 0xEBC4, size: 0x8, addend: 0x0, symName: __ZNSt3__16vectorINS0_IbNS_9allocatorIbEEEENS1_IS3_EEE18__construct_at_endEmRKS3_, symObjAddr: 0x20A4, symBinAddr: 0x1000036CC, symSize: 0xD0 }
  - { offsetInCU: 0xEC45, offset: 0xEC45, size: 0x8, addend: 0x0, symName: __ZNSt3__128__exception_guard_exceptionsINS_6vectorINS1_IbNS_9allocatorIbEEEENS2_IS4_EEE16__destroy_vectorEE10__completeB7v160006Ev, symObjAddr: 0x2174, symBinAddr: 0x10000379C, symSize: 0x1C }
  - { offsetInCU: 0xEC6B, offset: 0xEC6B, size: 0x8, addend: 0x0, symName: __ZNSt3__128__exception_guard_exceptionsINS_6vectorINS1_IbNS_9allocatorIbEEEENS2_IS4_EEE16__destroy_vectorEED1B7v160006Ev, symObjAddr: 0x2190, symBinAddr: 0x1000037B8, symSize: 0x2C }
  - { offsetInCU: 0xEC95, offset: 0xEC95, size: 0x8, addend: 0x0, symName: __ZNSt3__117__compressed_pairIPNS_6vectorIbNS_9allocatorIbEEEENS2_IS4_EEEC2B7v160006IDnNS_18__default_init_tagEEEOT_OT0_, symObjAddr: 0x21BC, symBinAddr: 0x1000037E4, symSize: 0x40 }
  - { offsetInCU: 0xECED, offset: 0xECED, size: 0x8, addend: 0x0, symName: __ZNSt3__122__compressed_pair_elemIPNS_6vectorIbNS_9allocatorIbEEEELi0ELb0EEC2B7v160006IDnvEEOT_, symObjAddr: 0x21FC, symBinAddr: 0x100003824, symSize: 0x1C }
  - { offsetInCU: 0xED2F, offset: 0xED2F, size: 0x8, addend: 0x0, symName: __ZNSt3__122__compressed_pair_elemINS_9allocatorINS_6vectorIbNS1_IbEEEEEELi1ELb1EEC2B7v160006ENS_18__default_init_tagE, symObjAddr: 0x2218, symBinAddr: 0x100003840, symSize: 0x2C }
  - { offsetInCU: 0xED63, offset: 0xED63, size: 0x8, addend: 0x0, symName: __ZNSt3__19allocatorINS_6vectorIbNS0_IbEEEEEC2B7v160006Ev, symObjAddr: 0x2244, symBinAddr: 0x10000386C, symSize: 0x2C }
  - { offsetInCU: 0xED8D, offset: 0xED8D, size: 0x8, addend: 0x0, symName: __ZNSt3__116__non_trivial_ifILb1ENS_9allocatorINS_6vectorIbNS1_IbEEEEEEEC2B7v160006Ev, symObjAddr: 0x2270, symBinAddr: 0x100003898, symSize: 0x14 }
  - { offsetInCU: 0xEDB7, offset: 0xEDB7, size: 0x8, addend: 0x0, symName: __ZNSt3__128__exception_guard_exceptionsINS_6vectorINS1_IbNS_9allocatorIbEEEENS2_IS4_EEE16__destroy_vectorEEC1B7v160006ES7_, symObjAddr: 0x2284, symBinAddr: 0x1000038AC, symSize: 0x34 }
  - { offsetInCU: 0xEDEF, offset: 0xEDEF, size: 0x8, addend: 0x0, symName: __ZNSt3__128__exception_guard_exceptionsINS_6vectorINS1_IbNS_9allocatorIbEEEENS2_IS4_EEE16__destroy_vectorEEC2B7v160006ES7_, symObjAddr: 0x22B8, symBinAddr: 0x1000038E0, symSize: 0x24 }
  - { offsetInCU: 0xEE27, offset: 0xEE27, size: 0x8, addend: 0x0, symName: __ZNSt3__16vectorINS0_IbNS_9allocatorIbEEEENS1_IS3_EEE16__destroy_vectorC2ERS5_, symObjAddr: 0x22DC, symBinAddr: 0x100003904, symSize: 0x20 }
  - { offsetInCU: 0xEE60, offset: 0xEE60, size: 0x8, addend: 0x0, symName: __ZNKSt3__16vectorINS0_IbNS_9allocatorIbEEEENS1_IS3_EEE8max_sizeEv, symObjAddr: 0x22FC, symBinAddr: 0x100003924, symSize: 0x60 }
  - { offsetInCU: 0xEE88, offset: 0xEE88, size: 0x8, addend: 0x0, symName: __ZNKSt3__16vectorINS0_IbNS_9allocatorIbEEEENS1_IS3_EEE20__throw_length_errorB7v160006Ev, symObjAddr: 0x235C, symBinAddr: 0x100003984, symSize: 0x1C }
  - { offsetInCU: 0xEEAE, offset: 0xEEAE, size: 0x8, addend: 0x0, symName: __ZNSt3__16vectorINS0_IbNS_9allocatorIbEEEENS1_IS3_EEE7__allocB7v160006Ev, symObjAddr: 0x23B8, symBinAddr: 0x1000039E0, symSize: 0x28 }
  - { offsetInCU: 0xEED4, offset: 0xEED4, size: 0x8, addend: 0x0, symName: __ZNSt3__16vectorINS0_IbNS_9allocatorIbEEEENS1_IS3_EEE9__end_capB7v160006Ev, symObjAddr: 0x23E0, symBinAddr: 0x100003A08, symSize: 0x28 }
  - { offsetInCU: 0xEEFA, offset: 0xEEFA, size: 0x8, addend: 0x0, symName: __ZNKSt3__16vectorINS0_IbNS_9allocatorIbEEEENS1_IS3_EEE14__annotate_newB7v160006Em, symObjAddr: 0x2408, symBinAddr: 0x100003A30, symSize: 0xC8 }
  - { offsetInCU: 0xEF39, offset: 0xEF39, size: 0x8, addend: 0x0, symName: __ZNSt3__116allocator_traitsINS_9allocatorINS_6vectorIbNS1_IbEEEEEEE8max_sizeB7v160006IS5_vEEmRKS5_, symObjAddr: 0x24D0, symBinAddr: 0x100003AF8, symSize: 0x24 }
  - { offsetInCU: 0xEF67, offset: 0xEF67, size: 0x8, addend: 0x0, symName: __ZNKSt3__16vectorINS0_IbNS_9allocatorIbEEEENS1_IS3_EEE7__allocB7v160006Ev, symObjAddr: 0x24F4, symBinAddr: 0x100003B1C, symSize: 0x28 }
  - { offsetInCU: 0xEF8D, offset: 0xEF8D, size: 0x8, addend: 0x0, symName: __ZNSt3__114numeric_limitsIlE3maxB7v160006Ev, symObjAddr: 0x251C, symBinAddr: 0x100003B44, symSize: 0x14 }
  - { offsetInCU: 0xEFA1, offset: 0xEFA1, size: 0x8, addend: 0x0, symName: __ZNKSt3__19allocatorINS_6vectorIbNS0_IbEEEEE8max_sizeB7v160006Ev, symObjAddr: 0x2530, symBinAddr: 0x100003B58, symSize: 0x18 }
  - { offsetInCU: 0xEFC7, offset: 0xEFC7, size: 0x8, addend: 0x0, symName: __ZNKSt3__117__compressed_pairIPNS_6vectorIbNS_9allocatorIbEEEENS2_IS4_EEE6secondB7v160006Ev, symObjAddr: 0x2548, symBinAddr: 0x100003B70, symSize: 0x24 }
  - { offsetInCU: 0xEFED, offset: 0xEFED, size: 0x8, addend: 0x0, symName: __ZNKSt3__122__compressed_pair_elemINS_9allocatorINS_6vectorIbNS1_IbEEEEEELi1ELb1EE5__getB7v160006Ev, symObjAddr: 0x256C, symBinAddr: 0x100003B94, symSize: 0x14 }
  - { offsetInCU: 0xF013, offset: 0xF013, size: 0x8, addend: 0x0, symName: __ZNSt3__123__libcpp_numeric_limitsIlLb1EE3maxB7v160006Ev, symObjAddr: 0x2580, symBinAddr: 0x100003BA8, symSize: 0x8 }
  - { offsetInCU: 0xF027, offset: 0xF027, size: 0x8, addend: 0x0, symName: __ZNSt3__19allocatorINS_6vectorIbNS0_IbEEEEE8allocateB7v160006Em, symObjAddr: 0x2588, symBinAddr: 0x100003BB0, symSize: 0x5C }
  - { offsetInCU: 0xF05B, offset: 0xF05B, size: 0x8, addend: 0x0, symName: __ZNSt3__117__compressed_pairIPNS_6vectorIbNS_9allocatorIbEEEENS2_IS4_EEE6secondB7v160006Ev, symObjAddr: 0x25E4, symBinAddr: 0x100003C0C, symSize: 0x24 }
  - { offsetInCU: 0xF081, offset: 0xF081, size: 0x8, addend: 0x0, symName: __ZNSt3__122__compressed_pair_elemINS_9allocatorINS_6vectorIbNS1_IbEEEEEELi1ELb1EE5__getB7v160006Ev, symObjAddr: 0x2608, symBinAddr: 0x100003C30, symSize: 0x14 }
  - { offsetInCU: 0xF0A7, offset: 0xF0A7, size: 0x8, addend: 0x0, symName: __ZNSt3__117__compressed_pairIPNS_6vectorIbNS_9allocatorIbEEEENS2_IS4_EEE5firstB7v160006Ev, symObjAddr: 0x261C, symBinAddr: 0x100003C44, symSize: 0x24 }
  - { offsetInCU: 0xF0CD, offset: 0xF0CD, size: 0x8, addend: 0x0, symName: __ZNSt3__122__compressed_pair_elemIPNS_6vectorIbNS_9allocatorIbEEEELi0ELb0EE5__getB7v160006Ev, symObjAddr: 0x2640, symBinAddr: 0x100003C68, symSize: 0x14 }
  - { offsetInCU: 0xF0F3, offset: 0xF0F3, size: 0x8, addend: 0x0, symName: __ZNKSt3__16vectorINS0_IbNS_9allocatorIbEEEENS1_IS3_EEE31__annotate_contiguous_containerB7v160006EPKvS7_S7_S7_, symObjAddr: 0x2654, symBinAddr: 0x100003C7C, symSize: 0x20 }
  - { offsetInCU: 0xF149, offset: 0xF149, size: 0x8, addend: 0x0, symName: __ZNKSt3__16vectorINS0_IbNS_9allocatorIbEEEENS1_IS3_EEE4dataB7v160006Ev, symObjAddr: 0x2674, symBinAddr: 0x100003C9C, symSize: 0x28 }
  - { offsetInCU: 0xF16F, offset: 0xF16F, size: 0x8, addend: 0x0, symName: __ZNKSt3__16vectorINS0_IbNS_9allocatorIbEEEENS1_IS3_EEE8capacityB7v160006Ev, symObjAddr: 0x269C, symBinAddr: 0x100003CC4, symSize: 0x40 }
  - { offsetInCU: 0xF195, offset: 0xF195, size: 0x8, addend: 0x0, symName: __ZNKSt3__16vectorINS0_IbNS_9allocatorIbEEEENS1_IS3_EEE9__end_capB7v160006Ev, symObjAddr: 0x26F0, symBinAddr: 0x100003D18, symSize: 0x28 }
  - { offsetInCU: 0xF1BB, offset: 0xF1BB, size: 0x8, addend: 0x0, symName: __ZNKSt3__117__compressed_pairIPNS_6vectorIbNS_9allocatorIbEEEENS2_IS4_EEE5firstB7v160006Ev, symObjAddr: 0x2718, symBinAddr: 0x100003D40, symSize: 0x24 }
  - { offsetInCU: 0xF1E1, offset: 0xF1E1, size: 0x8, addend: 0x0, symName: __ZNKSt3__122__compressed_pair_elemIPNS_6vectorIbNS_9allocatorIbEEEELi0ELb0EE5__getB7v160006Ev, symObjAddr: 0x273C, symBinAddr: 0x100003D64, symSize: 0x14 }
  - { offsetInCU: 0xF220, offset: 0xF220, size: 0x8, addend: 0x0, symName: __ZNSt3__16vectorINS0_IbNS_9allocatorIbEEEENS1_IS3_EEE21_ConstructTransactionC1B7v160006ERS5_m, symObjAddr: 0x2750, symBinAddr: 0x100003D78, symSize: 0x3C }
  - { offsetInCU: 0xF268, offset: 0xF268, size: 0x8, addend: 0x0, symName: __ZNSt3__116allocator_traitsINS_9allocatorINS_6vectorIbNS1_IbEEEEEEE9constructB7v160006IS4_JRKS4_EvEEvRS5_PT_DpOT0_, symObjAddr: 0x278C, symBinAddr: 0x100003DB4, symSize: 0x34 }
  - { offsetInCU: 0xF2BF, offset: 0xF2BF, size: 0x8, addend: 0x0, symName: __ZNSt3__16vectorINS0_IbNS_9allocatorIbEEEENS1_IS3_EEE21_ConstructTransactionD1B7v160006Ev, symObjAddr: 0x27C0, symBinAddr: 0x100003DE8, symSize: 0x2C }
  - { offsetInCU: 0xF2E9, offset: 0xF2E9, size: 0x8, addend: 0x0, symName: __ZNSt3__16vectorINS0_IbNS_9allocatorIbEEEENS1_IS3_EEE21_ConstructTransactionC2B7v160006ERS5_m, symObjAddr: 0x27EC, symBinAddr: 0x100003E14, symSize: 0x4C }
  - { offsetInCU: 0xF331, offset: 0xF331, size: 0x8, addend: 0x0, symName: __ZNSt3__19allocatorINS_6vectorIbNS0_IbEEEEE9constructB7v160006IS3_JRKS3_EEEvPT_DpOT0_, symObjAddr: 0x2838, symBinAddr: 0x100003E60, symSize: 0x30 }
  - { offsetInCU: 0xF387, offset: 0xF387, size: 0x8, addend: 0x0, symName: __ZNSt3__16vectorIbNS_9allocatorIbEEEC1ERKS3_, symObjAddr: 0x2868, symBinAddr: 0x100003E90, symSize: 0x34 }
  - { offsetInCU: 0xF3C2, offset: 0xF3C2, size: 0x8, addend: 0x0, symName: __ZNSt3__16vectorIbNS_9allocatorIbEEEC2ERKS3_, symObjAddr: 0x289C, symBinAddr: 0x100003EC4, symSize: 0xD4 }
  - { offsetInCU: 0xF3FD, offset: 0xF3FD, size: 0x8, addend: 0x0, symName: __ZNSt3__116allocator_traitsINS_9allocatorImEEE37select_on_container_copy_constructionB7v160006IS2_vvEES2_RKS2_, symObjAddr: 0x2970, symBinAddr: 0x100003F98, symSize: 0x10 }
  - { offsetInCU: 0xF431, offset: 0xF431, size: 0x8, addend: 0x0, symName: __ZNSt3__117__compressed_pairImNS_9allocatorImEEEC1B7v160006IiS2_EEOT_OT0_, symObjAddr: 0x2980, symBinAddr: 0x100003FA8, symSize: 0x3C }
  - { offsetInCU: 0xF489, offset: 0xF489, size: 0x8, addend: 0x0, symName: __ZNKSt3__16vectorIbNS_9allocatorIbEEE4sizeB7v160006Ev, symObjAddr: 0x29BC, symBinAddr: 0x100003FE4, symSize: 0x18 }
  - { offsetInCU: 0xF4AF, offset: 0xF4AF, size: 0x8, addend: 0x0, symName: __ZNSt3__16vectorIbNS_9allocatorIbEEE18__construct_at_endINS_14__bit_iteratorIS3_Lb1ELm0EEEEENS_9enable_ifIXsr27__is_cpp17_forward_iteratorIT_EE5valueEvE4typeES8_S8_, symObjAddr: 0x29D4, symBinAddr: 0x100003FFC, symSize: 0x144 }
  - { offsetInCU: 0xF50D, offset: 0xF50D, size: 0x8, addend: 0x0, symName: __ZNKSt3__16vectorIbNS_9allocatorIbEEE5beginB7v160006Ev, symObjAddr: 0x2B18, symBinAddr: 0x100004140, symSize: 0x38 }
  - { offsetInCU: 0xF533, offset: 0xF533, size: 0x8, addend: 0x0, symName: __ZNKSt3__16vectorIbNS_9allocatorIbEEE3endB7v160006Ev, symObjAddr: 0x2B50, symBinAddr: 0x100004178, symSize: 0x38 }
  - { offsetInCU: 0xF559, offset: 0xF559, size: 0x8, addend: 0x0, symName: __ZNSt3__117__compressed_pairImNS_9allocatorImEEEC2B7v160006IiS2_EEOT_OT0_, symObjAddr: 0x2B88, symBinAddr: 0x1000041B0, symSize: 0x44 }
  - { offsetInCU: 0xF5B1, offset: 0xF5B1, size: 0x8, addend: 0x0, symName: __ZNSt3__122__compressed_pair_elemINS_9allocatorImEELi1ELb1EEC2B7v160006IS2_vEEOT_, symObjAddr: 0x2BCC, symBinAddr: 0x1000041F4, symSize: 0x18 }
  - { offsetInCU: 0xF607, offset: 0xF607, size: 0x8, addend: 0x0, symName: __ZNKSt3__16__lessIllEclB7v160006ERKlS3_, symObjAddr: 0x35E4, symBinAddr: 0x100004C0C, symSize: 0x34 }
  - { offsetInCU: 0xF66C, offset: 0xF66C, size: 0x8, addend: 0x0, symName: __ZNKSt3__114__copy_trivialclB7v160006IKmmLi0EEENS_4pairIPT_PT0_EES5_S5_S7_, symObjAddr: 0x37F4, symBinAddr: 0x100004E1C, symSize: 0x48 }
  - { offsetInCU: 0xF6F2, offset: 0xF6F2, size: 0x8, addend: 0x0, symName: __ZNSt3__14pairIPKmS2_EC1B7v160006IS2_S2_LPv0EEEOT_OT0_, symObjAddr: 0x395C, symBinAddr: 0x100004F84, symSize: 0x3C }
  - { offsetInCU: 0xF750, offset: 0xF750, size: 0x8, addend: 0x0, symName: __ZNSt3__14pairIPKmS2_EC2B7v160006IS2_S2_LPv0EEEOT_OT0_, symObjAddr: 0x3998, symBinAddr: 0x100004FC0, symSize: 0x34 }
  - { offsetInCU: 0xF7AE, offset: 0xF7AE, size: 0x8, addend: 0x0, symName: __ZNSt3__118__unwrap_iter_implIPKmLb1EE8__unwrapB7v160006ES2_, symObjAddr: 0x39CC, symBinAddr: 0x100004FF4, symSize: 0x24 }
  - { offsetInCU: 0xF7DB, offset: 0xF7DB, size: 0x8, addend: 0x0, symName: __ZNSt3__14pairIPKmPmEC1B7v160006IRS2_S3_LPv0EEEOT_OT0_, symObjAddr: 0x3AAC, symBinAddr: 0x1000050D4, symSize: 0x3C }
  - { offsetInCU: 0xF839, offset: 0xF839, size: 0x8, addend: 0x0, symName: __ZNSt3__14pairIPKmPmEC2B7v160006IRS2_S3_LPv0EEEOT_OT0_, symObjAddr: 0x3AE8, symBinAddr: 0x100005110, symSize: 0x34 }
  - { offsetInCU: 0xF897, offset: 0xF897, size: 0x8, addend: 0x0, symName: __ZNSt3__118__unwrap_iter_implIPmLb1EE8__unwrapB7v160006ES1_, symObjAddr: 0x3B1C, symBinAddr: 0x100005144, symSize: 0x24 }
  - { offsetInCU: 0xF8BA, offset: 0xF8BA, size: 0x8, addend: 0x0, symName: __ZNSt3__14pairIPKmPmEC1B7v160006IS2_S3_LPv0EEEOT_OT0_, symObjAddr: 0x3B40, symBinAddr: 0x100005168, symSize: 0x3C }
  - { offsetInCU: 0xF918, offset: 0xF918, size: 0x8, addend: 0x0, symName: __ZNSt3__14pairIPKmPmEC2B7v160006IS2_S3_LPv0EEEOT_OT0_, symObjAddr: 0x3B7C, symBinAddr: 0x1000051A4, symSize: 0x34 }
  - { offsetInCU: 0xF976, offset: 0xF976, size: 0x8, addend: 0x0, symName: __ZNSt3__118__unwrap_iter_implIPKmLb1EE8__rewrapB7v160006ES2_S2_, symObjAddr: 0x3BEC, symBinAddr: 0x100005214, symSize: 0x50 }
  - { offsetInCU: 0xF9A7, offset: 0xF9A7, size: 0x8, addend: 0x0, symName: __ZNSt3__118__unwrap_iter_implIPmLb1EE8__rewrapB7v160006ES1_S1_, symObjAddr: 0x3C3C, symBinAddr: 0x100005264, symSize: 0x50 }
  - { offsetInCU: 0xF9D8, offset: 0xF9D8, size: 0x8, addend: 0x0, symName: __ZNKSt3__16vectorIbNS_9allocatorIbEEE11__make_iterB7v160006Em, symObjAddr: 0x3C8C, symBinAddr: 0x1000052B4, symSize: 0x5C }
  - { offsetInCU: 0xFA0D, offset: 0xFA0D, size: 0x8, addend: 0x0, symName: __ZNSt3__114__bit_iteratorINS_6vectorIbNS_9allocatorIbEEEELb1ELm0EEC1B7v160006EPKmj, symObjAddr: 0x3CE8, symBinAddr: 0x100005310, symSize: 0x3C }
  - { offsetInCU: 0xFA55, offset: 0xFA55, size: 0x8, addend: 0x0, symName: __ZNSt3__114__bit_iteratorINS_6vectorIbNS_9allocatorIbEEEELb1ELm0EEC2B7v160006EPKmj, symObjAddr: 0x3D24, symBinAddr: 0x10000534C, symSize: 0x2C }
  - { offsetInCU: 0xFA9D, offset: 0xFA9D, size: 0x8, addend: 0x0, symName: __ZNSt3__16vectorINS0_IbNS_9allocatorIbEEEENS1_IS3_EEE21_ConstructTransactionD2B7v160006Ev, symObjAddr: 0x3D50, symBinAddr: 0x100005378, symSize: 0x20 }
  - { offsetInCU: 0xFAC7, offset: 0xFAC7, size: 0x8, addend: 0x0, symName: __ZNSt3__128__exception_guard_exceptionsINS_6vectorINS1_IbNS_9allocatorIbEEEENS2_IS4_EEE16__destroy_vectorEED2B7v160006Ev, symObjAddr: 0x3D70, symBinAddr: 0x100005398, symSize: 0x50 }
  - { offsetInCU: 0xFAF1, offset: 0xFAF1, size: 0x8, addend: 0x0, symName: __ZNSt3__16vectorINS0_IbNS_9allocatorIbEEEENS1_IS3_EEE16__destroy_vectorclB7v160006Ev, symObjAddr: 0x3DC0, symBinAddr: 0x1000053E8, symSize: 0x9C }
  - { offsetInCU: 0xFB17, offset: 0xFB17, size: 0x8, addend: 0x0, symName: __ZNKSt3__16vectorINS0_IbNS_9allocatorIbEEEENS1_IS3_EEE17__annotate_deleteB7v160006Ev, symObjAddr: 0x3E5C, symBinAddr: 0x100005484, symSize: 0xD4 }
  - { offsetInCU: 0xFB3D, offset: 0xFB3D, size: 0x8, addend: 0x0, symName: __ZNSt3__16vectorINS0_IbNS_9allocatorIbEEEENS1_IS3_EEE7__clearB7v160006Ev, symObjAddr: 0x3F40, symBinAddr: 0x100005568, symSize: 0x28 }
  - { offsetInCU: 0xFB63, offset: 0xFB63, size: 0x8, addend: 0x0, symName: __ZNSt3__116allocator_traitsINS_9allocatorINS_6vectorIbNS1_IbEEEEEEE10deallocateB7v160006ERS5_PS4_m, symObjAddr: 0x3F68, symBinAddr: 0x100005590, symSize: 0x34 }
  - { offsetInCU: 0xFBA5, offset: 0xFBA5, size: 0x8, addend: 0x0, symName: __ZNKSt3__16vectorINS0_IbNS_9allocatorIbEEEENS1_IS3_EEE4sizeB7v160006Ev, symObjAddr: 0x3F9C, symBinAddr: 0x1000055C4, symSize: 0x28 }
  - { offsetInCU: 0xFBCB, offset: 0xFBCB, size: 0x8, addend: 0x0, symName: __ZNSt3__16vectorINS0_IbNS_9allocatorIbEEEENS1_IS3_EEE22__base_destruct_at_endB7v160006EPS3_, symObjAddr: 0x3FC4, symBinAddr: 0x1000055EC, symSize: 0x8C }
  - { offsetInCU: 0xFC0F, offset: 0xFC0F, size: 0x8, addend: 0x0, symName: __ZNSt3__116allocator_traitsINS_9allocatorINS_6vectorIbNS1_IbEEEEEEE7destroyB7v160006IS4_vEEvRS5_PT_, symObjAddr: 0x4050, symBinAddr: 0x100005678, symSize: 0x2C }
  - { offsetInCU: 0xFC4C, offset: 0xFC4C, size: 0x8, addend: 0x0, symName: __ZNSt3__19allocatorINS_6vectorIbNS0_IbEEEEE7destroyB7v160006EPS3_, symObjAddr: 0x407C, symBinAddr: 0x1000056A4, symSize: 0x28 }
  - { offsetInCU: 0xFC80, offset: 0xFC80, size: 0x8, addend: 0x0, symName: __ZNSt3__19allocatorINS_6vectorIbNS0_IbEEEEE10deallocateB7v160006EPS3_m, symObjAddr: 0x40A4, symBinAddr: 0x1000056CC, symSize: 0x44 }
  - { offsetInCU: 0xFCC2, offset: 0xFCC2, size: 0x8, addend: 0x0, symName: __ZNSt3__16vectorINS0_IbNS_9allocatorIbEEEENS1_IS3_EEED2B7v160006Ev, symObjAddr: 0x40E8, symBinAddr: 0x100005710, symSize: 0x44 }
  - { offsetInCU: 0xFCEC, offset: 0xFCEC, size: 0x8, addend: 0x0, symName: __ZNSt3__112basic_stringIcNS_11char_traitsIcEENS_9allocatorIcEEEC2B7v160006Ev, symObjAddr: 0x412C, symBinAddr: 0x100005754, symSize: 0x54 }
  - { offsetInCU: 0xFD16, offset: 0xFD16, size: 0x8, addend: 0x0, symName: __ZNSt3__117__compressed_pairINS_12basic_stringIcNS_11char_traitsIcEENS_9allocatorIcEEE5__repES5_EC1B7v160006INS_18__default_init_tagESA_EEOT_OT0_, symObjAddr: 0x4180, symBinAddr: 0x1000057A8, symSize: 0x3C }
  - { offsetInCU: 0xFD6E, offset: 0xFD6E, size: 0x8, addend: 0x0, symName: __ZNSt3__112basic_stringIcNS_11char_traitsIcEENS_9allocatorIcEEE14__default_initB7v160006Ev, symObjAddr: 0x41CC, symBinAddr: 0x1000057F4, symSize: 0x40 }
  - { offsetInCU: 0xFD94, offset: 0xFD94, size: 0x8, addend: 0x0, symName: __ZNSt3__117__compressed_pairINS_12basic_stringIcNS_11char_traitsIcEENS_9allocatorIcEEE5__repES5_EC2B7v160006INS_18__default_init_tagESA_EEOT_OT0_, symObjAddr: 0x420C, symBinAddr: 0x100005834, symSize: 0x3C }
  - { offsetInCU: 0xFDEC, offset: 0xFDEC, size: 0x8, addend: 0x0, symName: __ZNSt3__122__compressed_pair_elemINS_12basic_stringIcNS_11char_traitsIcEENS_9allocatorIcEEE5__repELi0ELb0EEC2B7v160006ENS_18__default_init_tagE, symObjAddr: 0x4248, symBinAddr: 0x100005870, symSize: 0x14 }
  - { offsetInCU: 0xFE20, offset: 0xFE20, size: 0x8, addend: 0x0, symName: __ZNSt3__122__compressed_pair_elemINS_9allocatorIcEELi1ELb1EEC2B7v160006ENS_18__default_init_tagE, symObjAddr: 0x425C, symBinAddr: 0x100005884, symSize: 0x2C }
  - { offsetInCU: 0xFE54, offset: 0xFE54, size: 0x8, addend: 0x0, symName: __ZNSt3__19allocatorIcEC2B7v160006Ev, symObjAddr: 0x4288, symBinAddr: 0x1000058B0, symSize: 0x2C }
  - { offsetInCU: 0xFE7E, offset: 0xFE7E, size: 0x8, addend: 0x0, symName: __ZNSt3__116__non_trivial_ifILb1ENS_9allocatorIcEEEC2B7v160006Ev, symObjAddr: 0x42B4, symBinAddr: 0x1000058DC, symSize: 0x14 }
  - { offsetInCU: 0xFEA8, offset: 0xFEA8, size: 0x8, addend: 0x0, symName: __ZNSt3__117__compressed_pairINS_12basic_stringIcNS_11char_traitsIcEENS_9allocatorIcEEE5__repES5_E5firstB7v160006Ev, symObjAddr: 0x42C8, symBinAddr: 0x1000058F0, symSize: 0x24 }
  - { offsetInCU: 0xFECE, offset: 0xFECE, size: 0x8, addend: 0x0, symName: __ZNSt3__122__compressed_pair_elemINS_12basic_stringIcNS_11char_traitsIcEENS_9allocatorIcEEE5__repELi0ELb0EE5__getB7v160006Ev, symObjAddr: 0x42EC, symBinAddr: 0x100005914, symSize: 0x14 }
  - { offsetInCU: 0xFF8E, offset: 0xFF8E, size: 0x8, addend: 0x0, symName: __ZNKSt3__113basic_istreamIcNS_11char_traitsIcEEE6sentrycvbB7v160006Ev, symObjAddr: 0x4300, symBinAddr: 0x100005928, symSize: 0x1C }
  - { offsetInCU: 0xFFB4, offset: 0xFFB4, size: 0x8, addend: 0x0, symName: __ZNSt3__112basic_stringIcNS_11char_traitsIcEENS_9allocatorIcEEE5clearB7v160006Ev, symObjAddr: 0x431C, symBinAddr: 0x100005944, symSize: 0x88 }
  - { offsetInCU: 0xFFDC, offset: 0xFFDC, size: 0x8, addend: 0x0, symName: __ZNKSt3__18ios_base5widthB7v160006Ev, symObjAddr: 0x43A4, symBinAddr: 0x1000059CC, symSize: 0x18 }
  - { offsetInCU: 0x10004, offset: 0x10004, size: 0x8, addend: 0x0, symName: __ZNKSt3__112basic_stringIcNS_11char_traitsIcEENS_9allocatorIcEEE8max_sizeB7v160006Ev, symObjAddr: 0x43BC, symBinAddr: 0x1000059E4, symSize: 0xAC }
  - { offsetInCU: 0x10056, offset: 0x10056, size: 0x8, addend: 0x0, symName: __ZNKSt3__19basic_iosIcNS_11char_traitsIcEEE5rdbufB7v160006Ev, symObjAddr: 0x4494, symBinAddr: 0x100005ABC, symSize: 0x24 }
  - { offsetInCU: 0x1007E, offset: 0x1007E, size: 0x8, addend: 0x0, symName: __ZNSt3__115basic_streambufIcNS_11char_traitsIcEEE5sgetcB7v160006Ev, symObjAddr: 0x44B8, symBinAddr: 0x100005AE0, symSize: 0x70 }
  - { offsetInCU: 0x100A4, offset: 0x100A4, size: 0x8, addend: 0x0, symName: __ZNSt3__111char_traitsIcE11eq_int_typeEii, symObjAddr: 0x4528, symBinAddr: 0x100005B50, symSize: 0x28 }
  - { offsetInCU: 0x100D5, offset: 0x100D5, size: 0x8, addend: 0x0, symName: __ZNSt3__111char_traitsIcE3eofEv, symObjAddr: 0x4550, symBinAddr: 0x100005B78, symSize: 0x8 }
  - { offsetInCU: 0x100E9, offset: 0x100E9, size: 0x8, addend: 0x0, symName: __ZNSt3__111char_traitsIcE12to_char_typeEi, symObjAddr: 0x4558, symBinAddr: 0x100005B80, symSize: 0x18 }
  - { offsetInCU: 0x10139, offset: 0x10139, size: 0x8, addend: 0x0, symName: __ZNKSt3__15ctypeIcE2isB7v160006Ejc, symObjAddr: 0x4570, symBinAddr: 0x100005B98, symSize: 0x7C }
  - { offsetInCU: 0x1017D, offset: 0x1017D, size: 0x8, addend: 0x0, symName: __ZNSt3__115basic_streambufIcNS_11char_traitsIcEEE6sbumpcB7v160006Ev, symObjAddr: 0x45EC, symBinAddr: 0x100005C14, symSize: 0x78 }
  - { offsetInCU: 0x101A3, offset: 0x101A3, size: 0x8, addend: 0x0, symName: __ZNSt3__18ios_base5widthB7v160006El, symObjAddr: 0x4664, symBinAddr: 0x100005C8C, symSize: 0x2C }
  - { offsetInCU: 0x101E9, offset: 0x101E9, size: 0x8, addend: 0x0, symName: __ZNSt3__18ios_base18__setstate_nothrowB7v160006Ej, symObjAddr: 0x4690, symBinAddr: 0x100005CB8, symSize: 0x64 }
  - { offsetInCU: 0x1021E, offset: 0x1021E, size: 0x8, addend: 0x0, symName: __ZNKSt3__19basic_iosIcNS_11char_traitsIcEEE10exceptionsB7v160006Ev, symObjAddr: 0x46F4, symBinAddr: 0x100005D1C, symSize: 0x24 }
  - { offsetInCU: 0x10244, offset: 0x10244, size: 0x8, addend: 0x0, symName: __ZNSt3__19basic_iosIcNS_11char_traitsIcEEE8setstateB7v160006Ej, symObjAddr: 0x4718, symBinAddr: 0x100005D40, symSize: 0x2C }
  - { offsetInCU: 0x10279, offset: 0x10279, size: 0x8, addend: 0x0, symName: __ZNKSt3__112basic_stringIcNS_11char_traitsIcEENS_9allocatorIcEEE9__is_longB7v160006Ev, symObjAddr: 0x4754, symBinAddr: 0x100005D7C, symSize: 0x38 }
  - { offsetInCU: 0x1029F, offset: 0x1029F, size: 0x8, addend: 0x0, symName: __ZNSt3__111char_traitsIcE6assignERcRKc, symObjAddr: 0x478C, symBinAddr: 0x100005DB4, symSize: 0x24 }
  - { offsetInCU: 0x102D0, offset: 0x102D0, size: 0x8, addend: 0x0, symName: __ZNSt3__112basic_stringIcNS_11char_traitsIcEENS_9allocatorIcEEE18__get_long_pointerB7v160006Ev, symObjAddr: 0x47B0, symBinAddr: 0x100005DD8, symSize: 0x28 }
  - { offsetInCU: 0x102F6, offset: 0x102F6, size: 0x8, addend: 0x0, symName: __ZNSt3__112basic_stringIcNS_11char_traitsIcEENS_9allocatorIcEEE15__set_long_sizeB7v160006Em, symObjAddr: 0x47D8, symBinAddr: 0x100005E00, symSize: 0x38 }
  - { offsetInCU: 0x1032B, offset: 0x1032B, size: 0x8, addend: 0x0, symName: __ZNSt3__112basic_stringIcNS_11char_traitsIcEENS_9allocatorIcEEE19__get_short_pointerB7v160006Ev, symObjAddr: 0x4810, symBinAddr: 0x100005E38, symSize: 0x28 }
  - { offsetInCU: 0x10351, offset: 0x10351, size: 0x8, addend: 0x0, symName: __ZNSt3__112basic_stringIcNS_11char_traitsIcEENS_9allocatorIcEEE16__set_short_sizeB7v160006Em, symObjAddr: 0x4838, symBinAddr: 0x100005E60, symSize: 0x78 }
  - { offsetInCU: 0x10386, offset: 0x10386, size: 0x8, addend: 0x0, symName: __ZNKSt3__117__compressed_pairINS_12basic_stringIcNS_11char_traitsIcEENS_9allocatorIcEEE5__repES5_E5firstB7v160006Ev, symObjAddr: 0x48B0, symBinAddr: 0x100005ED8, symSize: 0x24 }
  - { offsetInCU: 0x103AC, offset: 0x103AC, size: 0x8, addend: 0x0, symName: __ZNKSt3__122__compressed_pair_elemINS_12basic_stringIcNS_11char_traitsIcEENS_9allocatorIcEEE5__repELi0ELb0EE5__getB7v160006Ev, symObjAddr: 0x48D4, symBinAddr: 0x100005EFC, symSize: 0x14 }
  - { offsetInCU: 0x103D2, offset: 0x103D2, size: 0x8, addend: 0x0, symName: __ZNSt3__114pointer_traitsIPcE10pointer_toB7v160006ERc, symObjAddr: 0x48E8, symBinAddr: 0x100005F10, symSize: 0x14 }
  - { offsetInCU: 0x103FF, offset: 0x103FF, size: 0x8, addend: 0x0, symName: __ZNSt3__116allocator_traitsINS_9allocatorIcEEE8max_sizeB7v160006IS2_vEEmRKS2_, symObjAddr: 0x48FC, symBinAddr: 0x100005F24, symSize: 0x24 }
  - { offsetInCU: 0x1042D, offset: 0x1042D, size: 0x8, addend: 0x0, symName: __ZNKSt3__112basic_stringIcNS_11char_traitsIcEENS_9allocatorIcEEE7__allocB7v160006Ev, symObjAddr: 0x4920, symBinAddr: 0x100005F48, symSize: 0x24 }
  - { offsetInCU: 0x10453, offset: 0x10453, size: 0x8, addend: 0x0, symName: __ZNKSt3__19allocatorIcE8max_sizeB7v160006Ev, symObjAddr: 0x4944, symBinAddr: 0x100005F6C, symSize: 0x14 }
  - { offsetInCU: 0x10479, offset: 0x10479, size: 0x8, addend: 0x0, symName: __ZNKSt3__117__compressed_pairINS_12basic_stringIcNS_11char_traitsIcEENS_9allocatorIcEEE5__repES5_E6secondB7v160006Ev, symObjAddr: 0x4958, symBinAddr: 0x100005F80, symSize: 0x24 }
  - { offsetInCU: 0x1049F, offset: 0x1049F, size: 0x8, addend: 0x0, symName: __ZNKSt3__122__compressed_pair_elemINS_9allocatorIcEELi1ELb1EE5__getB7v160006Ev, symObjAddr: 0x497C, symBinAddr: 0x100005FA4, symSize: 0x14 }
  - { offsetInCU: 0x104C5, offset: 0x104C5, size: 0x8, addend: 0x0, symName: __ZNKSt3__18ios_base5rdbufB7v160006Ev, symObjAddr: 0x4990, symBinAddr: 0x100005FB8, symSize: 0x18 }
  - { offsetInCU: 0x104EB, offset: 0x104EB, size: 0x8, addend: 0x0, symName: __ZNSt3__111char_traitsIcE11to_int_typeEc, symObjAddr: 0x49A8, symBinAddr: 0x100005FD0, symSize: 0x14 }
  - { offsetInCU: 0x1050D, offset: 0x1050D, size: 0x8, addend: 0x0, symName: __Z7isasciii, symObjAddr: 0x49BC, symBinAddr: 0x100005FE4, symSize: 0x24 }
  - { offsetInCU: 0x1053A, offset: 0x1053A, size: 0x8, addend: 0x0, symName: __ZNKSt3__18ios_base10exceptionsB7v160006Ev, symObjAddr: 0x49E0, symBinAddr: 0x100006008, symSize: 0x18 }
  - { offsetInCU: 0x10562, offset: 0x10562, size: 0x8, addend: 0x0, symName: __ZNSt3__18ios_base8setstateB7v160006Ej, symObjAddr: 0x49F8, symBinAddr: 0x100006020, symSize: 0x34 }
  - { offsetInCU: 0x10599, offset: 0x10599, size: 0x8, addend: 0x0, symName: __ZNSt3__16vectorIbNS_9allocatorIbEEE10__make_refB7v160006Em, symObjAddr: 0x4A2C, symBinAddr: 0x100006054, symSize: 0x60 }
  - { offsetInCU: 0x105CE, offset: 0x105CE, size: 0x8, addend: 0x0, symName: __ZNSt3__115__bit_referenceINS_6vectorIbNS_9allocatorIbEEEELb1EEC1B7v160006EPmm, symObjAddr: 0x4A8C, symBinAddr: 0x1000060B4, symSize: 0x3C }
  - { offsetInCU: 0x10614, offset: 0x10614, size: 0x8, addend: 0x0, symName: __ZNSt3__115__bit_referenceINS_6vectorIbNS_9allocatorIbEEEELb1EEC2B7v160006EPmm, symObjAddr: 0x4AC8, symBinAddr: 0x1000060F0, symSize: 0x2C }
  - { offsetInCU: 0x1065A, offset: 0x1065A, size: 0x8, addend: 0x0, symName: __ZNSt3__112basic_stringIcNS_11char_traitsIcEENS_9allocatorIcEEE13__get_pointerB7v160006Ev, symObjAddr: 0x4AF4, symBinAddr: 0x10000611C, symSize: 0x54 }
  - { offsetInCU: 0x10680, offset: 0x10680, size: 0x8, addend: 0x0, symName: __ZNSt3__16vectorIiNS_9allocatorIiEEEC2Em, symObjAddr: 0x4B48, symBinAddr: 0x100006170, symSize: 0xE0 }
  - { offsetInCU: 0x106D0, offset: 0x106D0, size: 0x8, addend: 0x0, symName: __ZNSt3__117__compressed_pairIPiNS_9allocatorIiEEEC1B7v160006IDnNS_18__default_init_tagEEEOT_OT0_, symObjAddr: 0x4C28, symBinAddr: 0x100006250, symSize: 0x3C }
  - { offsetInCU: 0x10728, offset: 0x10728, size: 0x8, addend: 0x0, symName: __ZNSt3__16vectorIiNS_9allocatorIiEEE16__destroy_vectorC1ERS3_, symObjAddr: 0x4CA4, symBinAddr: 0x1000062CC, symSize: 0x34 }
  - { offsetInCU: 0x10761, offset: 0x10761, size: 0x8, addend: 0x0, symName: __ZNSt3__16vectorIiNS_9allocatorIiEEE11__vallocateB7v160006Em, symObjAddr: 0x4CE8, symBinAddr: 0x100006310, symSize: 0xAC }
  - { offsetInCU: 0x107A5, offset: 0x107A5, size: 0x8, addend: 0x0, symName: __ZNSt3__16vectorIiNS_9allocatorIiEEE18__construct_at_endEm, symObjAddr: 0x4D94, symBinAddr: 0x1000063BC, symSize: 0xC8 }
  - { offsetInCU: 0x10817, offset: 0x10817, size: 0x8, addend: 0x0, symName: __ZNSt3__128__exception_guard_exceptionsINS_6vectorIiNS_9allocatorIiEEE16__destroy_vectorEE10__completeB7v160006Ev, symObjAddr: 0x4E5C, symBinAddr: 0x100006484, symSize: 0x1C }
  - { offsetInCU: 0x1083D, offset: 0x1083D, size: 0x8, addend: 0x0, symName: __ZNSt3__128__exception_guard_exceptionsINS_6vectorIiNS_9allocatorIiEEE16__destroy_vectorEED1B7v160006Ev, symObjAddr: 0x4E78, symBinAddr: 0x1000064A0, symSize: 0x2C }
  - { offsetInCU: 0x10867, offset: 0x10867, size: 0x8, addend: 0x0, symName: __ZNSt3__117__compressed_pairIPiNS_9allocatorIiEEEC2B7v160006IDnNS_18__default_init_tagEEEOT_OT0_, symObjAddr: 0x4EA4, symBinAddr: 0x1000064CC, symSize: 0x40 }
  - { offsetInCU: 0x108BF, offset: 0x108BF, size: 0x8, addend: 0x0, symName: __ZNSt3__122__compressed_pair_elemIPiLi0ELb0EEC2B7v160006IDnvEEOT_, symObjAddr: 0x4EE4, symBinAddr: 0x10000650C, symSize: 0x1C }
  - { offsetInCU: 0x10901, offset: 0x10901, size: 0x8, addend: 0x0, symName: __ZNSt3__122__compressed_pair_elemINS_9allocatorIiEELi1ELb1EEC2B7v160006ENS_18__default_init_tagE, symObjAddr: 0x4F00, symBinAddr: 0x100006528, symSize: 0x2C }
  - { offsetInCU: 0x10935, offset: 0x10935, size: 0x8, addend: 0x0, symName: __ZNSt3__19allocatorIiEC2B7v160006Ev, symObjAddr: 0x4F2C, symBinAddr: 0x100006554, symSize: 0x2C }
  - { offsetInCU: 0x1095F, offset: 0x1095F, size: 0x8, addend: 0x0, symName: __ZNSt3__116__non_trivial_ifILb1ENS_9allocatorIiEEEC2B7v160006Ev, symObjAddr: 0x4F58, symBinAddr: 0x100006580, symSize: 0x14 }
  - { offsetInCU: 0x10989, offset: 0x10989, size: 0x8, addend: 0x0, symName: __ZNSt3__128__exception_guard_exceptionsINS_6vectorIiNS_9allocatorIiEEE16__destroy_vectorEEC1B7v160006ES5_, symObjAddr: 0x4F6C, symBinAddr: 0x100006594, symSize: 0x34 }
  - { offsetInCU: 0x109C1, offset: 0x109C1, size: 0x8, addend: 0x0, symName: __ZNSt3__128__exception_guard_exceptionsINS_6vectorIiNS_9allocatorIiEEE16__destroy_vectorEEC2B7v160006ES5_, symObjAddr: 0x4FA0, symBinAddr: 0x1000065C8, symSize: 0x24 }
  - { offsetInCU: 0x109F9, offset: 0x109F9, size: 0x8, addend: 0x0, symName: __ZNSt3__16vectorIiNS_9allocatorIiEEE16__destroy_vectorC2ERS3_, symObjAddr: 0x4FC4, symBinAddr: 0x1000065EC, symSize: 0x20 }
  - { offsetInCU: 0x10A32, offset: 0x10A32, size: 0x8, addend: 0x0, symName: __ZNKSt3__16vectorIiNS_9allocatorIiEEE8max_sizeEv, symObjAddr: 0x4FE4, symBinAddr: 0x10000660C, symSize: 0x60 }
  - { offsetInCU: 0x10A5A, offset: 0x10A5A, size: 0x8, addend: 0x0, symName: __ZNKSt3__16vectorIiNS_9allocatorIiEEE20__throw_length_errorB7v160006Ev, symObjAddr: 0x5044, symBinAddr: 0x10000666C, symSize: 0x1C }
  - { offsetInCU: 0x10A80, offset: 0x10A80, size: 0x8, addend: 0x0, symName: __ZNSt3__16vectorIiNS_9allocatorIiEEE7__allocB7v160006Ev, symObjAddr: 0x50A0, symBinAddr: 0x1000066C8, symSize: 0x28 }
  - { offsetInCU: 0x10AA6, offset: 0x10AA6, size: 0x8, addend: 0x0, symName: __ZNSt3__16vectorIiNS_9allocatorIiEEE9__end_capB7v160006Ev, symObjAddr: 0x50C8, symBinAddr: 0x1000066F0, symSize: 0x28 }
  - { offsetInCU: 0x10ACC, offset: 0x10ACC, size: 0x8, addend: 0x0, symName: __ZNKSt3__16vectorIiNS_9allocatorIiEEE14__annotate_newB7v160006Em, symObjAddr: 0x50F0, symBinAddr: 0x100006718, symSize: 0xAC }
  - { offsetInCU: 0x10B0B, offset: 0x10B0B, size: 0x8, addend: 0x0, symName: __ZNSt3__116allocator_traitsINS_9allocatorIiEEE8max_sizeB7v160006IS2_vEEmRKS2_, symObjAddr: 0x519C, symBinAddr: 0x1000067C4, symSize: 0x24 }
  - { offsetInCU: 0x10B39, offset: 0x10B39, size: 0x8, addend: 0x0, symName: __ZNKSt3__16vectorIiNS_9allocatorIiEEE7__allocB7v160006Ev, symObjAddr: 0x51C0, symBinAddr: 0x1000067E8, symSize: 0x28 }
  - { offsetInCU: 0x10B5F, offset: 0x10B5F, size: 0x8, addend: 0x0, symName: __ZNKSt3__19allocatorIiE8max_sizeB7v160006Ev, symObjAddr: 0x51E8, symBinAddr: 0x100006810, symSize: 0x14 }
  - { offsetInCU: 0x10B85, offset: 0x10B85, size: 0x8, addend: 0x0, symName: __ZNKSt3__117__compressed_pairIPiNS_9allocatorIiEEE6secondB7v160006Ev, symObjAddr: 0x51FC, symBinAddr: 0x100006824, symSize: 0x24 }
  - { offsetInCU: 0x10BAB, offset: 0x10BAB, size: 0x8, addend: 0x0, symName: __ZNKSt3__122__compressed_pair_elemINS_9allocatorIiEELi1ELb1EE5__getB7v160006Ev, symObjAddr: 0x5220, symBinAddr: 0x100006848, symSize: 0x14 }
  - { offsetInCU: 0x10BD1, offset: 0x10BD1, size: 0x8, addend: 0x0, symName: __ZNSt3__19allocatorIiE8allocateB7v160006Em, symObjAddr: 0x5234, symBinAddr: 0x10000685C, symSize: 0x58 }
  - { offsetInCU: 0x10C05, offset: 0x10C05, size: 0x8, addend: 0x0, symName: __ZNSt3__117__compressed_pairIPiNS_9allocatorIiEEE6secondB7v160006Ev, symObjAddr: 0x528C, symBinAddr: 0x1000068B4, symSize: 0x24 }
  - { offsetInCU: 0x10C2B, offset: 0x10C2B, size: 0x8, addend: 0x0, symName: __ZNSt3__122__compressed_pair_elemINS_9allocatorIiEELi1ELb1EE5__getB7v160006Ev, symObjAddr: 0x52B0, symBinAddr: 0x1000068D8, symSize: 0x14 }
  - { offsetInCU: 0x10C51, offset: 0x10C51, size: 0x8, addend: 0x0, symName: __ZNSt3__117__compressed_pairIPiNS_9allocatorIiEEE5firstB7v160006Ev, symObjAddr: 0x52C4, symBinAddr: 0x1000068EC, symSize: 0x24 }
  - { offsetInCU: 0x10C77, offset: 0x10C77, size: 0x8, addend: 0x0, symName: __ZNSt3__122__compressed_pair_elemIPiLi0ELb0EE5__getB7v160006Ev, symObjAddr: 0x52E8, symBinAddr: 0x100006910, symSize: 0x14 }
  - { offsetInCU: 0x10C9D, offset: 0x10C9D, size: 0x8, addend: 0x0, symName: __ZNKSt3__16vectorIiNS_9allocatorIiEEE31__annotate_contiguous_containerB7v160006EPKvS5_S5_S5_, symObjAddr: 0x52FC, symBinAddr: 0x100006924, symSize: 0x20 }
  - { offsetInCU: 0x10CF3, offset: 0x10CF3, size: 0x8, addend: 0x0, symName: __ZNKSt3__16vectorIiNS_9allocatorIiEEE4dataB7v160006Ev, symObjAddr: 0x531C, symBinAddr: 0x100006944, symSize: 0x28 }
  - { offsetInCU: 0x10D19, offset: 0x10D19, size: 0x8, addend: 0x0, symName: __ZNKSt3__16vectorIiNS_9allocatorIiEEE8capacityB7v160006Ev, symObjAddr: 0x5344, symBinAddr: 0x10000696C, symSize: 0x40 }
  - { offsetInCU: 0x10D3F, offset: 0x10D3F, size: 0x8, addend: 0x0, symName: __ZNKSt3__16vectorIiNS_9allocatorIiEEE9__end_capB7v160006Ev, symObjAddr: 0x5398, symBinAddr: 0x1000069C0, symSize: 0x28 }
  - { offsetInCU: 0x10D65, offset: 0x10D65, size: 0x8, addend: 0x0, symName: __ZNKSt3__117__compressed_pairIPiNS_9allocatorIiEEE5firstB7v160006Ev, symObjAddr: 0x53C0, symBinAddr: 0x1000069E8, symSize: 0x24 }
  - { offsetInCU: 0x10D8B, offset: 0x10D8B, size: 0x8, addend: 0x0, symName: __ZNKSt3__122__compressed_pair_elemIPiLi0ELb0EE5__getB7v160006Ev, symObjAddr: 0x53E4, symBinAddr: 0x100006A0C, symSize: 0x14 }
  - { offsetInCU: 0x10DCA, offset: 0x10DCA, size: 0x8, addend: 0x0, symName: __ZNSt3__16vectorIiNS_9allocatorIiEEE21_ConstructTransactionC1B7v160006ERS3_m, symObjAddr: 0x53F8, symBinAddr: 0x100006A20, symSize: 0x3C }
  - { offsetInCU: 0x10E12, offset: 0x10E12, size: 0x8, addend: 0x0, symName: __ZNSt3__116allocator_traitsINS_9allocatorIiEEE9constructB7v160006IiJEvEEvRS2_PT_DpOT0_, symObjAddr: 0x5434, symBinAddr: 0x100006A5C, symSize: 0x2C }
  - { offsetInCU: 0x10E54, offset: 0x10E54, size: 0x8, addend: 0x0, symName: __ZNSt3__16vectorIiNS_9allocatorIiEEE21_ConstructTransactionD1B7v160006Ev, symObjAddr: 0x5460, symBinAddr: 0x100006A88, symSize: 0x2C }
  - { offsetInCU: 0x10E7E, offset: 0x10E7E, size: 0x8, addend: 0x0, symName: __ZNSt3__16vectorIiNS_9allocatorIiEEE21_ConstructTransactionC2B7v160006ERS3_m, symObjAddr: 0x548C, symBinAddr: 0x100006AB4, symSize: 0x44 }
  - { offsetInCU: 0x10EC6, offset: 0x10EC6, size: 0x8, addend: 0x0, symName: __ZNSt3__19allocatorIiE9constructB7v160006IiJEEEvPT_DpOT0_, symObjAddr: 0x54D0, symBinAddr: 0x100006AF8, symSize: 0x1C }
  - { offsetInCU: 0x10F08, offset: 0x10F08, size: 0x8, addend: 0x0, symName: __ZNSt3__16vectorIiNS_9allocatorIiEEE21_ConstructTransactionD2B7v160006Ev, symObjAddr: 0x54EC, symBinAddr: 0x100006B14, symSize: 0x20 }
  - { offsetInCU: 0x10F32, offset: 0x10F32, size: 0x8, addend: 0x0, symName: __ZNSt3__128__exception_guard_exceptionsINS_6vectorIiNS_9allocatorIiEEE16__destroy_vectorEED2B7v160006Ev, symObjAddr: 0x550C, symBinAddr: 0x100006B34, symSize: 0x50 }
  - { offsetInCU: 0x10F5C, offset: 0x10F5C, size: 0x8, addend: 0x0, symName: __ZNSt3__16vectorIiNS_9allocatorIiEEE16__destroy_vectorclB7v160006Ev, symObjAddr: 0x555C, symBinAddr: 0x100006B84, symSize: 0x9C }
  - { offsetInCU: 0x10F82, offset: 0x10F82, size: 0x8, addend: 0x0, symName: __ZNKSt3__16vectorIiNS_9allocatorIiEEE17__annotate_deleteB7v160006Ev, symObjAddr: 0x55F8, symBinAddr: 0x100006C20, symSize: 0xB8 }
  - { offsetInCU: 0x10FA8, offset: 0x10FA8, size: 0x8, addend: 0x0, symName: __ZNSt3__16vectorIiNS_9allocatorIiEEE7__clearB7v160006Ev, symObjAddr: 0x56C0, symBinAddr: 0x100006CE8, symSize: 0x28 }
  - { offsetInCU: 0x10FCE, offset: 0x10FCE, size: 0x8, addend: 0x0, symName: __ZNSt3__116allocator_traitsINS_9allocatorIiEEE10deallocateB7v160006ERS2_Pim, symObjAddr: 0x56E8, symBinAddr: 0x100006D10, symSize: 0x34 }
  - { offsetInCU: 0x11010, offset: 0x11010, size: 0x8, addend: 0x0, symName: __ZNKSt3__16vectorIiNS_9allocatorIiEEE4sizeB7v160006Ev, symObjAddr: 0x571C, symBinAddr: 0x100006D44, symSize: 0x28 }
  - { offsetInCU: 0x11036, offset: 0x11036, size: 0x8, addend: 0x0, symName: __ZNSt3__16vectorIiNS_9allocatorIiEEE22__base_destruct_at_endB7v160006EPi, symObjAddr: 0x5744, symBinAddr: 0x100006D6C, symSize: 0x8C }
  - { offsetInCU: 0x1107A, offset: 0x1107A, size: 0x8, addend: 0x0, symName: __ZNSt3__116allocator_traitsINS_9allocatorIiEEE7destroyB7v160006IivEEvRS2_PT_, symObjAddr: 0x57D0, symBinAddr: 0x100006DF8, symSize: 0x2C }
  - { offsetInCU: 0x110B7, offset: 0x110B7, size: 0x8, addend: 0x0, symName: __ZNSt3__19allocatorIiE7destroyB7v160006EPi, symObjAddr: 0x57FC, symBinAddr: 0x100006E24, symSize: 0x14 }
  - { offsetInCU: 0x110EB, offset: 0x110EB, size: 0x8, addend: 0x0, symName: __ZNSt3__19allocatorIiE10deallocateB7v160006EPim, symObjAddr: 0x5810, symBinAddr: 0x100006E38, symSize: 0x40 }
  - { offsetInCU: 0x1112D, offset: 0x1112D, size: 0x8, addend: 0x0, symName: __ZNSt3__16vectorIiNS_9allocatorIiEEED2B7v160006Ev, symObjAddr: 0x5850, symBinAddr: 0x100006E78, symSize: 0x44 }
  - { offsetInCU: 0x11157, offset: 0x11157, size: 0x8, addend: 0x0, symName: __ZNSt3__16vectorIiNS_9allocatorIiEEE11__make_iterB7v160006EPi, symObjAddr: 0x5894, symBinAddr: 0x100006EBC, symSize: 0x34 }
  - { offsetInCU: 0x1118C, offset: 0x1118C, size: 0x8, addend: 0x0, symName: __ZNSt3__111__wrap_iterIPiEC1B7v160006EPKvS1_, symObjAddr: 0x58C8, symBinAddr: 0x100006EF0, symSize: 0x3C }
  - { offsetInCU: 0x111D2, offset: 0x111D2, size: 0x8, addend: 0x0, symName: __ZNSt3__111__wrap_iterIPiEC2B7v160006EPKvS1_, symObjAddr: 0x5904, symBinAddr: 0x100006F2C, symSize: 0x24 }
  - { offsetInCU: 0x11218, offset: 0x11218, size: 0x8, addend: 0x0, symName: __ZNKSt3__111__wrap_iterIPiEdeB7v160006Ev, symObjAddr: 0x595C, symBinAddr: 0x100006F84, symSize: 0x18 }
  - { offsetInCU: 0x1123E, offset: 0x1123E, size: 0x8, addend: 0x0, symName: __ZNSt3__111__wrap_iterIPiEppB7v160006Ev, symObjAddr: 0x5974, symBinAddr: 0x100006F9C, symSize: 0x20 }
  - { offsetInCU: 0x11264, offset: 0x11264, size: 0x8, addend: 0x0, symName: __ZNKSt3__111__wrap_iterIPiE4baseB7v160006Ev, symObjAddr: 0x59DC, symBinAddr: 0x100007004, symSize: 0x18 }
  - { offsetInCU: 0x1128A, offset: 0x1128A, size: 0x8, addend: 0x0, symName: __ZNSt3__16vectorIbNS_9allocatorIbEEE13__move_assignERS3_NS_17integral_constantIbLb1EEE, symObjAddr: 0x59F4, symBinAddr: 0x10000701C, symSize: 0x94 }
  - { offsetInCU: 0x112CD, offset: 0x112CD, size: 0x8, addend: 0x0, symName: __ZNSt3__16vectorIbNS_9allocatorIbEEE13__vdeallocateEv, symObjAddr: 0x5A88, symBinAddr: 0x1000070B0, symSize: 0x98 }
  - { offsetInCU: 0x112F5, offset: 0x112F5, size: 0x8, addend: 0x0, symName: __ZNSt3__16vectorIbNS_9allocatorIbEEE19__move_assign_allocB7v160006ERS3_, symObjAddr: 0x5B20, symBinAddr: 0x100007148, symSize: 0x2C }
  - { offsetInCU: 0x1132A, offset: 0x1132A, size: 0x8, addend: 0x0, symName: __ZNSt3__16vectorIbNS_9allocatorIbEEE19__move_assign_allocB7v160006ERS3_NS_17integral_constantIbLb1EEE, symObjAddr: 0x5B5C, symBinAddr: 0x100007184, symSize: 0x38 }
  - { offsetInCU: 0x1136B, offset: 0x1136B, size: 0x8, addend: 0x0, symName: __ZNSt3__18_IterOpsINS_17_ClassicAlgPolicyEE4nextB7v160006INS_11__wrap_iterIPiEEEET_S7_S7_, symObjAddr: 0x5DCC, symBinAddr: 0x1000073F4, symSize: 0x20 }
  - { offsetInCU: 0x113A1, offset: 0x113A1, size: 0x8, addend: 0x0, symName: __ZNSt3__111__wrap_iterIPiEmmB7v160006Ev, symObjAddr: 0x5DEC, symBinAddr: 0x100007414, symSize: 0x20 }
  - { offsetInCU: 0x113EA, offset: 0x113EA, size: 0x8, addend: 0x0, symName: __ZNSt3__14pairINS_11__wrap_iterIPiEEbEC1B7v160006IS3_bLPv0EEEOT_OT0_, symObjAddr: 0x5E0C, symBinAddr: 0x100007434, symSize: 0x3C }
  - { offsetInCU: 0x11452, offset: 0x11452, size: 0x8, addend: 0x0, symName: __ZNKSt3__16__lessIiiEclB7v160006ERKiS3_, symObjAddr: 0x5E48, symBinAddr: 0x100007470, symSize: 0x34 }
  - { offsetInCU: 0x11494, offset: 0x11494, size: 0x8, addend: 0x0, symName: __ZNSt3__18_IterOpsINS_17_ClassicAlgPolicyEE9iter_swapB7v160006IRNS_11__wrap_iterIPiEES7_EEvOT_OT0_, symObjAddr: 0x5E7C, symBinAddr: 0x1000074A4, symSize: 0x44 }
  - { offsetInCU: 0x114D7, offset: 0x114D7, size: 0x8, addend: 0x0, symName: __ZNSt3__14pairINS_11__wrap_iterIPiEEbEC2B7v160006IS3_bLPv0EEEOT_OT0_, symObjAddr: 0x5EFC, symBinAddr: 0x100007524, symSize: 0x38 }
  - { offsetInCU: 0x11535, offset: 0x11535, size: 0x8, addend: 0x0, symName: __ZNKSt3__19basic_iosIcNS_11char_traitsIcEEE5widenB7v160006Ec, symObjAddr: 0x6084, symBinAddr: 0x1000076AC, symSize: 0x84 }
  - { offsetInCU: 0x1156C, offset: 0x1156C, size: 0x8, addend: 0x0, symName: __ZNKSt3__15ctypeIcE5widenB7v160006Ec, symObjAddr: 0x6108, symBinAddr: 0x100007730, symSize: 0x38 }
...
