---
triple:          'arm64-apple-darwin'
binary-path:     '/Users/dingkai/Code/IOI2024/cses/SortingAndSearch/Sliding Window Median.gout'
relocations:
  - { offsetInCU: 0xCA, offset: 0xCA, size: 0x8, addend: 0x0, symName: __ZnwmPv, symObjAddr: 0x0, symBinAddr: 0x100000B64, symSize: 0x18 }
  - { offsetInCU: 0xD2, offset: 0xD2, size: 0x8, addend: 0x0, symName: __ZN10__gnu_pbds6detailL9g_a_sizesE, symObjAddr: 0x1A40, symBinAddr: 0x1000028F0, symSize: 0x0 }
  - { offsetInCU: 0x33CD, offset: 0x33CD, size: 0x8, addend: 0x0, symName: __ZN10__gnu_pbds6detailL9g_a_sizesE, symObjAddr: 0x1A40, symBinAddr: 0x1000028F0, symSize: 0x0 }
  - { offsetInCU: 0x3592, offset: 0x3592, size: 0x8, addend: 0x0, symName: __ZNSt3tr112_GLOBAL__N_16ignoreE, symObjAddr: 0x42108, symBinAddr: 0x100008037, symSize: 0x0 }
  - { offsetInCU: 0x3BEC, offset: 0x3BEC, size: 0x8, addend: 0x0, symName: __ZStL8__ioinit, symObjAddr: 0x42109, symBinAddr: 0x100008038, symSize: 0x0 }
  - { offsetInCU: 0x6E40, offset: 0x6E40, size: 0x8, addend: 0x0, symName: __ZN10__gnu_pbds6detail19bin_search_tree_setIiNS_9null_typeESt4lessIiENS0_11tree_traitsIiS2_S4_NS_33tree_order_statistics_node_updateENS_11rb_tree_tagESaIcEEES8_E16s_node_allocatorE, symObjAddr: 0x2498, symBinAddr: 0x100008000, symSize: 0x0 }
  - { offsetInCU: 0x70B5, offset: 0x70B5, size: 0x8, addend: 0x0, symName: __ZNSt8__detail30__integer_to_chars_is_unsignedIjEE, symObjAddr: 0x20D8, symBinAddr: 0x100002F88, symSize: 0x0 }
  - { offsetInCU: 0x70CF, offset: 0x70CF, size: 0x8, addend: 0x0, symName: __ZNSt8__detail30__integer_to_chars_is_unsignedImEE, symObjAddr: 0x20D9, symBinAddr: 0x100002F89, symSize: 0x0 }
  - { offsetInCU: 0x70E9, offset: 0x70E9, size: 0x8, addend: 0x0, symName: __ZNSt8__detail30__integer_to_chars_is_unsignedIyEE, symObjAddr: 0x20DA, symBinAddr: 0x100002F8A, symSize: 0x0 }
  - { offsetInCU: 0x7121, offset: 0x7121, size: 0x8, addend: 0x0, symName: __GLOBAL__sub_I_Sliding_Window_Median.cpp, symObjAddr: 0x1A2C, symBinAddr: 0x100002590, symSize: 0x14 }
  - { offsetInCU: 0x7129, offset: 0x7129, size: 0x8, addend: 0x0, symName: __ZN10__gnu_pbds6detailL9g_a_sizesE, symObjAddr: 0x1A40, symBinAddr: 0x1000028F0, symSize: 0x0 }
  - { offsetInCU: 0x7174, offset: 0x7174, size: 0x8, addend: 0x0, symName: __ZNSaIN10__gnu_pbds6detail13rb_tree_node_IimSaIcEEEED1Ev, symObjAddr: 0x1A0C, symBinAddr: 0x100002570, symSize: 0x20 }
  - { offsetInCU: 0x717C, offset: 0x717C, size: 0x8, addend: 0x0, symName: __GLOBAL__sub_I_Sliding_Window_Median.cpp, symObjAddr: 0x1A2C, symBinAddr: 0x100002590, symSize: 0x14 }
  - { offsetInCU: 0x7169, offset: 0x7169, size: 0x8, addend: 0x0, symName: __ZN10__gnu_pbds6detail19bin_search_tree_setIiNS_9null_typeESt4lessIiENS0_11tree_traitsIiS2_S4_NS_33tree_order_statistics_node_updateENS_11rb_tree_tagESaIcEEES8_E10get_cmp_fnEv, symObjAddr: 0x19F8, symBinAddr: 0x10000255C, symSize: 0x14 }
  - { offsetInCU: 0x7171, offset: 0x7171, size: 0x8, addend: 0x0, symName: __ZNSaIN10__gnu_pbds6detail13rb_tree_node_IimSaIcEEEED1Ev, symObjAddr: 0x1A0C, symBinAddr: 0x100002570, symSize: 0x20 }
  - { offsetInCU: 0x7198, offset: 0x7198, size: 0x8, addend: 0x0, symName: __ZN10__gnu_pbds6detail19bin_search_tree_setIiNS_9null_typeESt4lessIiENS0_11tree_traitsIiS2_S4_NS_33tree_order_statistics_node_updateENS_11rb_tree_tagESaIcEEES8_E8node_endEv, symObjAddr: 0x19D4, symBinAddr: 0x100002538, symSize: 0x24 }
  - { offsetInCU: 0x71A0, offset: 0x71A0, size: 0x8, addend: 0x0, symName: __ZN10__gnu_pbds6detail19bin_search_tree_setIiNS_9null_typeESt4lessIiENS0_11tree_traitsIiS2_S4_NS_33tree_order_statistics_node_updateENS_11rb_tree_tagESaIcEEES8_E10get_cmp_fnEv, symObjAddr: 0x19F8, symBinAddr: 0x10000255C, symSize: 0x14 }
  - { offsetInCU: 0x71C7, offset: 0x71C7, size: 0x8, addend: 0x0, symName: __ZNK10__gnu_pbds6detail19bin_search_tree_setIiNS_9null_typeESt4lessIiENS0_11tree_traitsIiS2_S4_NS_33tree_order_statistics_node_updateENS_11rb_tree_tagESaIcEEES8_E8node_endEv, symObjAddr: 0x19B0, symBinAddr: 0x100002514, symSize: 0x24 }
  - { offsetInCU: 0x71CF, offset: 0x71CF, size: 0x8, addend: 0x0, symName: __ZN10__gnu_pbds6detail19bin_search_tree_setIiNS_9null_typeESt4lessIiENS0_11tree_traitsIiS2_S4_NS_33tree_order_statistics_node_updateENS_11rb_tree_tagESaIcEEES8_E8node_endEv, symObjAddr: 0x19D4, symBinAddr: 0x100002538, symSize: 0x24 }
  - { offsetInCU: 0x71F6, offset: 0x71F6, size: 0x8, addend: 0x0, symName: __ZN10__gnu_pbds6detail19bin_search_tree_setIiNS_9null_typeESt4lessIiENS0_11tree_traitsIiS2_S4_NS_33tree_order_statistics_node_updateENS_11rb_tree_tagESaIcEEES8_E10node_beginEv, symObjAddr: 0x1984, symBinAddr: 0x1000024E8, symSize: 0x2C }
  - { offsetInCU: 0x71FE, offset: 0x71FE, size: 0x8, addend: 0x0, symName: __ZNK10__gnu_pbds6detail19bin_search_tree_setIiNS_9null_typeESt4lessIiENS0_11tree_traitsIiS2_S4_NS_33tree_order_statistics_node_updateENS_11rb_tree_tagESaIcEEES8_E8node_endEv, symObjAddr: 0x19B0, symBinAddr: 0x100002514, symSize: 0x24 }
  - { offsetInCU: 0x7225, offset: 0x7225, size: 0x8, addend: 0x0, symName: __ZNK10__gnu_pbds6detail19bin_search_tree_setIiNS_9null_typeESt4lessIiENS0_11tree_traitsIiS2_S4_NS_33tree_order_statistics_node_updateENS_11rb_tree_tagESaIcEEES8_E10node_beginEv, symObjAddr: 0x1958, symBinAddr: 0x1000024BC, symSize: 0x2C }
  - { offsetInCU: 0x722D, offset: 0x722D, size: 0x8, addend: 0x0, symName: __ZN10__gnu_pbds6detail19bin_search_tree_setIiNS_9null_typeESt4lessIiENS0_11tree_traitsIiS2_S4_NS_33tree_order_statistics_node_updateENS_11rb_tree_tagESaIcEEES8_E10node_beginEv, symObjAddr: 0x1984, symBinAddr: 0x1000024E8, symSize: 0x2C }
  - { offsetInCU: 0x7254, offset: 0x7254, size: 0x8, addend: 0x0, symName: __ZNK10__gnu_pbds6detail19bin_search_tree_setIiNS_9null_typeESt4lessIiENS0_11tree_traitsIiS2_S4_NS_33tree_order_statistics_node_updateENS_11rb_tree_tagESaIcEEES8_E3endEv, symObjAddr: 0x1930, symBinAddr: 0x100002494, symSize: 0x28 }
  - { offsetInCU: 0x725C, offset: 0x725C, size: 0x8, addend: 0x0, symName: __ZNK10__gnu_pbds6detail19bin_search_tree_setIiNS_9null_typeESt4lessIiENS0_11tree_traitsIiS2_S4_NS_33tree_order_statistics_node_updateENS_11rb_tree_tagESaIcEEES8_E10node_beginEv, symObjAddr: 0x1958, symBinAddr: 0x1000024BC, symSize: 0x2C }
  - { offsetInCU: 0x72AB, offset: 0x72AB, size: 0x8, addend: 0x0, symName: __Z41__static_initialization_and_destruction_0v, symObjAddr: 0x189C, symBinAddr: 0x100002400, symSize: 0x94 }
  - { offsetInCU: 0x72B3, offset: 0x72B3, size: 0x8, addend: 0x0, symName: __ZNK10__gnu_pbds6detail19bin_search_tree_setIiNS_9null_typeESt4lessIiENS0_11tree_traitsIiS2_S4_NS_33tree_order_statistics_node_updateENS_11rb_tree_tagESaIcEEES8_E3endEv, symObjAddr: 0x1930, symBinAddr: 0x100002494, symSize: 0x28 }
  - { offsetInCU: 0x7300, offset: 0x7300, size: 0x8, addend: 0x0, symName: __ZNK10__gnu_pbds33tree_order_statistics_node_updateINS_6detail30bin_search_tree_const_node_it_INS1_13rb_tree_node_IimSaIcEEENS1_25bin_search_tree_const_it_IPS5_iPiPKiRiRS9_Lb1ES4_EESD_S4_EESE_St4lessIiES4_EclESE_SE_, symObjAddr: 0x17D8, symBinAddr: 0x10000233C, symSize: 0xC4 }
  - { offsetInCU: 0x7308, offset: 0x7308, size: 0x8, addend: 0x0, symName: __Z41__static_initialization_and_destruction_0v, symObjAddr: 0x189C, symBinAddr: 0x100002400, symSize: 0x94 }
  - { offsetInCU: 0x7412, offset: 0x7412, size: 0x8, addend: 0x0, symName: __ZNSt15__new_allocatorIN10__gnu_pbds6detail13rb_tree_node_IimSaIcEEEED2Ev, symObjAddr: 0x17C4, symBinAddr: 0x100002328, symSize: 0x14 }
  - { offsetInCU: 0x741A, offset: 0x741A, size: 0x8, addend: 0x0, symName: __ZNK10__gnu_pbds33tree_order_statistics_node_updateINS_6detail30bin_search_tree_const_node_it_INS1_13rb_tree_node_IimSaIcEEENS1_25bin_search_tree_const_it_IPS5_iPiPKiRiRS9_Lb1ES4_EESD_S4_EESE_St4lessIiES4_EclESE_SE_, symObjAddr: 0x17D8, symBinAddr: 0x10000233C, symSize: 0xC4 }
  - { offsetInCU: 0x740F, offset: 0x740F, size: 0x8, addend: 0x0, symName: __ZN10__gnu_pbds6detail19bin_search_tree_setIiNS_9null_typeESt4lessIiENS0_11tree_traitsIiS2_S4_NS_33tree_order_statistics_node_updateENS_11rb_tree_tagESaIcEEES8_E9clear_impEPNS0_13rb_tree_node_IimS8_EE, symObjAddr: 0x1770, symBinAddr: 0x1000022D4, symSize: 0x54 }
  - { offsetInCU: 0x7417, offset: 0x7417, size: 0x8, addend: 0x0, symName: __ZNSt15__new_allocatorIN10__gnu_pbds6detail13rb_tree_node_IimSaIcEEEED2Ev, symObjAddr: 0x17C4, symBinAddr: 0x100002328, symSize: 0x14 }
  - { offsetInCU: 0x7440, offset: 0x7440, size: 0x8, addend: 0x0, symName: __ZN10__gnu_pbds6detail19bin_search_tree_setIiNS_9null_typeESt4lessIiENS0_11tree_traitsIiS2_S4_NS_33tree_order_statistics_node_updateENS_11rb_tree_tagESaIcEEES8_E10initializeEv, symObjAddr: 0x1720, symBinAddr: 0x100002284, symSize: 0x50 }
  - { offsetInCU: 0x7448, offset: 0x7448, size: 0x8, addend: 0x0, symName: __ZN10__gnu_pbds6detail19bin_search_tree_setIiNS_9null_typeESt4lessIiENS0_11tree_traitsIiS2_S4_NS_33tree_order_statistics_node_updateENS_11rb_tree_tagESaIcEEES8_E9clear_impEPNS0_13rb_tree_node_IimS8_EE, symObjAddr: 0x1770, symBinAddr: 0x1000022D4, symSize: 0x54 }
  - { offsetInCU: 0x754B, offset: 0x754B, size: 0x8, addend: 0x0, symName: __ZN10__gnu_pbds6detail13branch_policyINS0_30bin_search_tree_const_node_it_INS0_13rb_tree_node_IimSaIcEEENS0_25bin_search_tree_const_it_IPS5_iPiPKiRiRS9_Lb1ES4_EESD_S4_EESE_S4_ED2Ev, symObjAddr: 0x16F8, symBinAddr: 0x10000225C, symSize: 0x28 }
  - { offsetInCU: 0x7553, offset: 0x7553, size: 0x8, addend: 0x0, symName: __ZN10__gnu_pbds6detail19bin_search_tree_setIiNS_9null_typeESt4lessIiENS0_11tree_traitsIiS2_S4_NS_33tree_order_statistics_node_updateENS_11rb_tree_tagESaIcEEES8_E10initializeEv, symObjAddr: 0x1720, symBinAddr: 0x100002284, symSize: 0x50 }
  - { offsetInCU: 0x74C4, offset: 0x74C4, size: 0x8, addend: 0x0, symName: __ZNSt15__new_allocatorIN10__gnu_pbds6detail13rb_tree_node_IimSaIcEEEE8allocateEmPKv, symObjAddr: 0x1668, symBinAddr: 0x1000021CC, symSize: 0x90 }
  - { offsetInCU: 0x74CC, offset: 0x74CC, size: 0x8, addend: 0x0, symName: __ZN10__gnu_pbds6detail13branch_policyINS0_30bin_search_tree_const_node_it_INS0_13rb_tree_node_IimSaIcEEENS0_25bin_search_tree_const_it_IPS5_iPiPKiRiRS9_Lb1ES4_EESD_S4_EESE_S4_ED2Ev, symObjAddr: 0x16F8, symBinAddr: 0x10000225C, symSize: 0x28 }
  - { offsetInCU: 0x754A, offset: 0x754A, size: 0x8, addend: 0x0, symName: __ZN10__gnu_pbds6detail19bin_search_tree_setIiNS_9null_typeESt4lessIiENS0_11tree_traitsIiS2_S4_NS_33tree_order_statistics_node_updateENS_11rb_tree_tagESaIcEEES8_E12apply_updateINS6_INS0_30bin_search_tree_const_node_it_INS0_13rb_tree_node_IimS8_EENS0_25bin_search_tree_const_it_IPSE_iPiPKiRiRSI_Lb1ES8_EESM_S8_EESN_S4_S8_EEEEvSG_PT_, symObjAddr: 0x1614, symBinAddr: 0x100002178, symSize: 0x54 }
  - { offsetInCU: 0x7552, offset: 0x7552, size: 0x8, addend: 0x0, symName: __ZNSt15__new_allocatorIN10__gnu_pbds6detail13rb_tree_node_IimSaIcEEEE8allocateEmPKv, symObjAddr: 0x1668, symBinAddr: 0x1000021CC, symSize: 0x90 }
  - { offsetInCU: 0x7665, offset: 0x7665, size: 0x8, addend: 0x0, symName: __ZSt7forwardIPN10__gnu_pbds6detail13rb_tree_node_IimSaIcEEEEOT_RNSt16remove_referenceIS6_E4typeE, symObjAddr: 0x1600, symBinAddr: 0x100002164, symSize: 0x14 }
  - { offsetInCU: 0x766D, offset: 0x766D, size: 0x8, addend: 0x0, symName: __ZN10__gnu_pbds6detail19bin_search_tree_setIiNS_9null_typeESt4lessIiENS0_11tree_traitsIiS2_S4_NS_33tree_order_statistics_node_updateENS_11rb_tree_tagESaIcEEES8_E12apply_updateINS6_INS0_30bin_search_tree_const_node_it_INS0_13rb_tree_node_IimS8_EENS0_25bin_search_tree_const_it_IPSE_iPiPKiRiRSI_Lb1ES8_EESM_S8_EESN_S4_S8_EEEEvSG_PT_, symObjAddr: 0x1614, symBinAddr: 0x100002178, symSize: 0x54 }
  - { offsetInCU: 0x769F, offset: 0x769F, size: 0x8, addend: 0x0, symName: __ZNSt4pairIPN10__gnu_pbds6detail13rb_tree_node_IimSaIcEEEbEC1IRS5_bLb1EEEOT_OT0_, symObjAddr: 0x15B8, symBinAddr: 0x10000211C, symSize: 0x48 }
  - { offsetInCU: 0x76A7, offset: 0x76A7, size: 0x8, addend: 0x0, symName: __ZSt7forwardIPN10__gnu_pbds6detail13rb_tree_node_IimSaIcEEEEOT_RNSt16remove_referenceIS6_E4typeE, symObjAddr: 0x1600, symBinAddr: 0x100002164, symSize: 0x14 }
  - { offsetInCU: 0x7770, offset: 0x7770, size: 0x8, addend: 0x0, symName: __ZSt7forwardIRPN10__gnu_pbds6detail13rb_tree_node_IimSaIcEEEEOT_RNSt16remove_referenceIS7_E4typeE, symObjAddr: 0x15A4, symBinAddr: 0x100002108, symSize: 0x14 }
  - { offsetInCU: 0x7778, offset: 0x7778, size: 0x8, addend: 0x0, symName: __ZNSt4pairIPN10__gnu_pbds6detail13rb_tree_node_IimSaIcEEEbEC1IRS5_bLb1EEEOT_OT0_, symObjAddr: 0x15B8, symBinAddr: 0x10000211C, symSize: 0x48 }
  - { offsetInCU: 0x77DC, offset: 0x77DC, size: 0x8, addend: 0x0, symName: __ZNSt4pairIN10__gnu_pbds6detail25bin_search_tree_const_it_IPNS1_13rb_tree_node_IimSaIcEEEiPiPKiRiRS8_Lb1ES4_EEbEC1ISC_bLb1EEEOT_OT0_, symObjAddr: 0x1558, symBinAddr: 0x1000020BC, symSize: 0x4C }
  - { offsetInCU: 0x77E4, offset: 0x77E4, size: 0x8, addend: 0x0, symName: __ZSt7forwardIRPN10__gnu_pbds6detail13rb_tree_node_IimSaIcEEEEOT_RNSt16remove_referenceIS7_E4typeE, symObjAddr: 0x15A4, symBinAddr: 0x100002108, symSize: 0x14 }
  - { offsetInCU: 0x7922, offset: 0x7922, size: 0x8, addend: 0x0, symName: __ZSt7forwardIN10__gnu_pbds6detail25bin_search_tree_const_it_IPNS1_13rb_tree_node_IimSaIcEEEiPiPKiRiRS8_Lb1ES4_EEEOT_RNSt16remove_referenceISD_E4typeE, symObjAddr: 0x1544, symBinAddr: 0x1000020A8, symSize: 0x14 }
  - { offsetInCU: 0x792A, offset: 0x792A, size: 0x8, addend: 0x0, symName: __ZNSt4pairIN10__gnu_pbds6detail25bin_search_tree_const_it_IPNS1_13rb_tree_node_IimSaIcEEEiPiPKiRiRS8_Lb1ES4_EEbEC1ISC_bLb1EEEOT_OT0_, symObjAddr: 0x1558, symBinAddr: 0x1000020BC, symSize: 0x4C }
  - { offsetInCU: 0x780B, offset: 0x780B, size: 0x8, addend: 0x0, symName: __ZN10__gnu_pbds6detail19bin_search_tree_setIiNS_9null_typeESt4lessIiENS0_11tree_traitsIiS2_S4_NS_33tree_order_statistics_node_updateENS_11rb_tree_tagESaIcEEES8_E28get_new_node_for_leaf_insertERKiNSt3tr117integral_constantIiLi1EEE, symObjAddr: 0x14BC, symBinAddr: 0x100002020, symSize: 0x88 }
  - { offsetInCU: 0x7813, offset: 0x7813, size: 0x8, addend: 0x0, symName: __ZSt7forwardIN10__gnu_pbds6detail25bin_search_tree_const_it_IPNS1_13rb_tree_node_IimSaIcEEEiPiPKiRiRS8_Lb1ES4_EEEOT_RNSt16remove_referenceISD_E4typeE, symObjAddr: 0x1544, symBinAddr: 0x1000020A8, symSize: 0x14 }
  - { offsetInCU: 0x786C, offset: 0x786C, size: 0x8, addend: 0x0, symName: __ZNSt15__new_allocatorIN10__gnu_pbds6detail13rb_tree_node_IimSaIcEEEE10deallocateEPS4_m, symObjAddr: 0x1480, symBinAddr: 0x100001FE4, symSize: 0x3C }
  - { offsetInCU: 0x7874, offset: 0x7874, size: 0x8, addend: 0x0, symName: __ZN10__gnu_pbds6detail19bin_search_tree_setIiNS_9null_typeESt4lessIiENS0_11tree_traitsIiS2_S4_NS_33tree_order_statistics_node_updateENS_11rb_tree_tagESaIcEEES8_E28get_new_node_for_leaf_insertERKiNSt3tr117integral_constantIiLi1EEE, symObjAddr: 0x14BC, symBinAddr: 0x100002020, symSize: 0x88 }
  - { offsetInCU: 0x78DA, offset: 0x78DA, size: 0x8, addend: 0x0, symName: __ZN10__gnu_pbds6detail19bin_search_tree_setIiNS_9null_typeESt4lessIiENS0_11tree_traitsIiS2_S4_NS_33tree_order_statistics_node_updateENS_11rb_tree_tagESaIcEEES8_E5clearEv, symObjAddr: 0x1448, symBinAddr: 0x100001FAC, symSize: 0x38 }
  - { offsetInCU: 0x78E2, offset: 0x78E2, size: 0x8, addend: 0x0, symName: __ZNSt15__new_allocatorIN10__gnu_pbds6detail13rb_tree_node_IimSaIcEEEE10deallocateEPS4_m, symObjAddr: 0x1480, symBinAddr: 0x100001FE4, symSize: 0x3C }
  - { offsetInCU: 0x7A02, offset: 0x7A02, size: 0x8, addend: 0x0, symName: __ZN10__gnu_pbds33tree_order_statistics_node_updateINS_6detail30bin_search_tree_const_node_it_INS1_13rb_tree_node_IimSaIcEEENS1_25bin_search_tree_const_it_IPS5_iPiPKiRiRS9_Lb1ES4_EESD_S4_EESE_St4lessIiES4_ED2Ev, symObjAddr: 0x1414, symBinAddr: 0x100001F78, symSize: 0x34 }
  - { offsetInCU: 0x7A0A, offset: 0x7A0A, size: 0x8, addend: 0x0, symName: __ZN10__gnu_pbds6detail19bin_search_tree_setIiNS_9null_typeESt4lessIiENS0_11tree_traitsIiS2_S4_NS_33tree_order_statistics_node_updateENS_11rb_tree_tagESaIcEEES8_E5clearEv, symObjAddr: 0x1448, symBinAddr: 0x100001FAC, symSize: 0x38 }
  - { offsetInCU: 0x795E, offset: 0x795E, size: 0x8, addend: 0x0, symName: __ZN10__gnu_pbds6detail11rb_tree_setIiNS_9null_typeESt4lessIiENS0_11tree_traitsIiS2_S4_NS_33tree_order_statistics_node_updateENS_11rb_tree_tagESaIcEEES8_E10initializeEv, symObjAddr: 0x13F0, symBinAddr: 0x100001F54, symSize: 0x24 }
  - { offsetInCU: 0x7966, offset: 0x7966, size: 0x8, addend: 0x0, symName: __ZN10__gnu_pbds33tree_order_statistics_node_updateINS_6detail30bin_search_tree_const_node_it_INS1_13rb_tree_node_IimSaIcEEENS1_25bin_search_tree_const_it_IPS5_iPiPKiRiRS9_Lb1ES4_EESD_S4_EESE_St4lessIiES4_ED2Ev, symObjAddr: 0x1414, symBinAddr: 0x100001F78, symSize: 0x34 }
  - { offsetInCU: 0x7A4C, offset: 0x7A4C, size: 0x8, addend: 0x0, symName: __ZN10__gnu_pbds6detail19bin_search_tree_setIiNS_9null_typeESt4lessIiENS0_11tree_traitsIiS2_S4_NS_33tree_order_statistics_node_updateENS_11rb_tree_tagESaIcEEES8_EC2Ev, symObjAddr: 0x1370, symBinAddr: 0x100001ED4, symSize: 0x80 }
  - { offsetInCU: 0x7A54, offset: 0x7A54, size: 0x8, addend: 0x0, symName: __ZN10__gnu_pbds6detail11rb_tree_setIiNS_9null_typeESt4lessIiENS0_11tree_traitsIiS2_S4_NS_33tree_order_statistics_node_updateENS_11rb_tree_tagESaIcEEES8_E10initializeEv, symObjAddr: 0x13F0, symBinAddr: 0x100001F54, symSize: 0x24 }
  - { offsetInCU: 0x7AC2, offset: 0x7AC2, size: 0x8, addend: 0x0, symName: __ZN10__gnu_pbds33tree_order_statistics_node_updateINS_6detail30bin_search_tree_const_node_it_INS1_13rb_tree_node_IimSaIcEEENS1_25bin_search_tree_const_it_IPS5_iPiPKiRiRS9_Lb1ES4_EESD_S4_EESE_St4lessIiES4_EC2Ev, symObjAddr: 0x133C, symBinAddr: 0x100001EA0, symSize: 0x34 }
  - { offsetInCU: 0x7ACA, offset: 0x7ACA, size: 0x8, addend: 0x0, symName: __ZN10__gnu_pbds6detail19bin_search_tree_setIiNS_9null_typeESt4lessIiENS0_11tree_traitsIiS2_S4_NS_33tree_order_statistics_node_updateENS_11rb_tree_tagESaIcEEES8_EC2Ev, symObjAddr: 0x1370, symBinAddr: 0x100001ED4, symSize: 0x80 }
  - { offsetInCU: 0x7AEF, offset: 0x7AEF, size: 0x8, addend: 0x0, symName: __ZN10__gnu_pbds6detail13branch_policyINS0_30bin_search_tree_const_node_it_INS0_13rb_tree_node_IimSaIcEEENS0_25bin_search_tree_const_it_IPS5_iPiPKiRiRS9_Lb1ES4_EESD_S4_EESE_S4_EC2Ev, symObjAddr: 0x1314, symBinAddr: 0x100001E78, symSize: 0x28 }
  - { offsetInCU: 0x7AF7, offset: 0x7AF7, size: 0x8, addend: 0x0, symName: __ZN10__gnu_pbds33tree_order_statistics_node_updateINS_6detail30bin_search_tree_const_node_it_INS1_13rb_tree_node_IimSaIcEEENS1_25bin_search_tree_const_it_IPS5_iPiPKiRiRS9_Lb1ES4_EESD_S4_EESE_St4lessIiES4_EC2Ev, symObjAddr: 0x133C, symBinAddr: 0x100001EA0, symSize: 0x34 }
  - { offsetInCU: 0x7AFC, offset: 0x7AFC, size: 0x8, addend: 0x0, symName: __ZN10__gnu_pbds6detail25bin_search_tree_const_it_IPNS0_13rb_tree_node_IimSaIcEEEiPiPKiRiRS7_Lb1ES3_EC1ES5_, symObjAddr: 0x12F0, symBinAddr: 0x100001E54, symSize: 0x24 }
  - { offsetInCU: 0x7B04, offset: 0x7B04, size: 0x8, addend: 0x0, symName: __ZN10__gnu_pbds6detail13branch_policyINS0_30bin_search_tree_const_node_it_INS0_13rb_tree_node_IimSaIcEEENS0_25bin_search_tree_const_it_IPS5_iPiPKiRiRS9_Lb1ES4_EESD_S4_EESE_S4_EC2Ev, symObjAddr: 0x1314, symBinAddr: 0x100001E78, symSize: 0x28 }
  - { offsetInCU: 0x7ACB, offset: 0x7ACB, size: 0x8, addend: 0x0, symName: __ZN10__gnu_pbds6detail13rb_tree_node_IimSaIcEE12get_metadataEv, symObjAddr: 0x12D8, symBinAddr: 0x100001E3C, symSize: 0x18 }
  - { offsetInCU: 0x7AD3, offset: 0x7AD3, size: 0x8, addend: 0x0, symName: __ZN10__gnu_pbds6detail25bin_search_tree_const_it_IPNS0_13rb_tree_node_IimSaIcEEEiPiPKiRiRS7_Lb1ES3_EC1ES5_, symObjAddr: 0x12F0, symBinAddr: 0x100001E54, symSize: 0x24 }
  - { offsetInCU: 0x7BBE, offset: 0x7BBE, size: 0x8, addend: 0x0, symName: __ZN10__gnu_pbds6detail30bin_search_tree_const_node_it_INS0_13rb_tree_node_IimSaIcEEENS0_25bin_search_tree_const_it_IPS4_iPiPKiRiRS8_Lb1ES3_EESC_S3_EC1ES6_, symObjAddr: 0x12B4, symBinAddr: 0x100001E18, symSize: 0x24 }
  - { offsetInCU: 0x7BC6, offset: 0x7BC6, size: 0x8, addend: 0x0, symName: __ZN10__gnu_pbds6detail13rb_tree_node_IimSaIcEE12get_metadataEv, symObjAddr: 0x12D8, symBinAddr: 0x100001E3C, symSize: 0x18 }
  - { offsetInCU: 0x7B5D, offset: 0x7B5D, size: 0x8, addend: 0x0, symName: __ZN10__gnu_pbds6detail19bin_search_tree_setIiNS_9null_typeESt4lessIiENS0_11tree_traitsIiS2_S4_NS_33tree_order_statistics_node_updateENS_11rb_tree_tagESaIcEEES8_E13update_to_topINS6_INS0_30bin_search_tree_const_node_it_INS0_13rb_tree_node_IimS8_EENS0_25bin_search_tree_const_it_IPSE_iPiPKiRiRSI_Lb1ES8_EESM_S8_EESN_S4_S8_EEEEvSG_PT_, symObjAddr: 0x125C, symBinAddr: 0x100001DC0, symSize: 0x58 }
  - { offsetInCU: 0x7B65, offset: 0x7B65, size: 0x8, addend: 0x0, symName: __ZN10__gnu_pbds6detail30bin_search_tree_const_node_it_INS0_13rb_tree_node_IimSaIcEEENS0_25bin_search_tree_const_it_IPS4_iPiPKiRiRS8_Lb1ES3_EESC_S3_EC1ES6_, symObjAddr: 0x12B4, symBinAddr: 0x100001E18, symSize: 0x24 }
  - { offsetInCU: 0x7BBF, offset: 0x7BBF, size: 0x8, addend: 0x0, symName: __ZN10__gnu_pbds6detail19bin_search_tree_setIiNS_9null_typeESt4lessIiENS0_11tree_traitsIiS2_S4_NS_33tree_order_statistics_node_updateENS_11rb_tree_tagESaIcEEES8_E12rotate_rightEPNS0_13rb_tree_node_IimS8_EE, symObjAddr: 0x1144, symBinAddr: 0x100001CA8, symSize: 0x118 }
  - { offsetInCU: 0x7BC7, offset: 0x7BC7, size: 0x8, addend: 0x0, symName: __ZN10__gnu_pbds6detail19bin_search_tree_setIiNS_9null_typeESt4lessIiENS0_11tree_traitsIiS2_S4_NS_33tree_order_statistics_node_updateENS_11rb_tree_tagESaIcEEES8_E13update_to_topINS6_INS0_30bin_search_tree_const_node_it_INS0_13rb_tree_node_IimS8_EENS0_25bin_search_tree_const_it_IPSE_iPiPKiRiRSI_Lb1ES8_EESM_S8_EESN_S4_S8_EEEEvSG_PT_, symObjAddr: 0x125C, symBinAddr: 0x100001DC0, symSize: 0x58 }
  - { offsetInCU: 0x7C14, offset: 0x7C14, size: 0x8, addend: 0x0, symName: __ZN10__gnu_pbds6detail19bin_search_tree_setIiNS_9null_typeESt4lessIiENS0_11tree_traitsIiS2_S4_NS_33tree_order_statistics_node_updateENS_11rb_tree_tagESaIcEEES8_E11rotate_leftEPNS0_13rb_tree_node_IimS8_EE, symObjAddr: 0x102C, symBinAddr: 0x100001B90, symSize: 0x118 }
  - { offsetInCU: 0x7C1C, offset: 0x7C1C, size: 0x8, addend: 0x0, symName: __ZN10__gnu_pbds6detail19bin_search_tree_setIiNS_9null_typeESt4lessIiENS0_11tree_traitsIiS2_S4_NS_33tree_order_statistics_node_updateENS_11rb_tree_tagESaIcEEES8_E12rotate_rightEPNS0_13rb_tree_node_IimS8_EE, symObjAddr: 0x1144, symBinAddr: 0x100001CA8, symSize: 0x118 }
  - { offsetInCU: 0x7D35, offset: 0x7D35, size: 0x8, addend: 0x0, symName: __ZNSt4pairIN10__gnu_pbds6detail25bin_search_tree_const_it_IPNS1_13rb_tree_node_IimSaIcEEEiPiPKiRiRS8_Lb1ES4_EEbEC1IS6_bLb1EEEOS_IT_T0_E, symObjAddr: 0xFD4, symBinAddr: 0x100001B38, symSize: 0x58 }
  - { offsetInCU: 0x7D3D, offset: 0x7D3D, size: 0x8, addend: 0x0, symName: __ZN10__gnu_pbds6detail19bin_search_tree_setIiNS_9null_typeESt4lessIiENS0_11tree_traitsIiS2_S4_NS_33tree_order_statistics_node_updateENS_11rb_tree_tagESaIcEEES8_E11rotate_leftEPNS0_13rb_tree_node_IimS8_EE, symObjAddr: 0x102C, symBinAddr: 0x100001B90, symSize: 0x118 }
  - { offsetInCU: 0x7E14, offset: 0x7E14, size: 0x8, addend: 0x0, symName: __ZSt9make_pairIRPN10__gnu_pbds6detail13rb_tree_node_IimSaIcEEEbESt4pairINSt25__strip_reference_wrapperINSt5decayIT_E4typeEE6__typeENS8_INS9_IT0_E4typeEE6__typeEEOSA_OSF_, symObjAddr: 0xF88, symBinAddr: 0x100001AEC, symSize: 0x4C }
  - { offsetInCU: 0x7E1C, offset: 0x7E1C, size: 0x8, addend: 0x0, symName: __ZNSt4pairIN10__gnu_pbds6detail25bin_search_tree_const_it_IPNS1_13rb_tree_node_IimSaIcEEEiPiPKiRiRS8_Lb1ES4_EEbEC1IS6_bLb1EEEOS_IT_T0_E, symObjAddr: 0xFD4, symBinAddr: 0x100001B38, symSize: 0x58 }
  - { offsetInCU: 0x7D6E, offset: 0x7D6E, size: 0x8, addend: 0x0, symName: __ZN10__gnu_pbds6detail19bin_search_tree_setIiNS_9null_typeESt4lessIiENS0_11tree_traitsIiS2_S4_NS_33tree_order_statistics_node_updateENS_11rb_tree_tagESaIcEEES8_E15insert_leaf_newERKiPNS0_13rb_tree_node_IimS8_EEb, symObjAddr: 0xE90, symBinAddr: 0x1000019F4, symSize: 0xF8 }
  - { offsetInCU: 0x7D76, offset: 0x7D76, size: 0x8, addend: 0x0, symName: __ZSt9make_pairIRPN10__gnu_pbds6detail13rb_tree_node_IimSaIcEEEbESt4pairINSt25__strip_reference_wrapperINSt5decayIT_E4typeEE6__typeENS8_INS9_IT0_E4typeEE6__typeEEOSA_OSF_, symObjAddr: 0xF88, symBinAddr: 0x100001AEC, symSize: 0x4C }
  - { offsetInCU: 0x7FA4, offset: 0x7FA4, size: 0x8, addend: 0x0, symName: __ZSt9make_pairIN10__gnu_pbds6detail25bin_search_tree_const_it_IPNS1_13rb_tree_node_IimSaIcEEEiPiPKiRiRS8_Lb1ES4_EEbESt4pairINSt25__strip_reference_wrapperINSt5decayIT_E4typeEE6__typeENSE_INSF_IT0_E4typeEE6__typeEEOSG_OSL_, symObjAddr: 0xE44, symBinAddr: 0x1000019A8, symSize: 0x4C }
  - { offsetInCU: 0x7FAC, offset: 0x7FAC, size: 0x8, addend: 0x0, symName: __ZN10__gnu_pbds6detail19bin_search_tree_setIiNS_9null_typeESt4lessIiENS0_11tree_traitsIiS2_S4_NS_33tree_order_statistics_node_updateENS_11rb_tree_tagESaIcEEES8_E15insert_leaf_newERKiPNS0_13rb_tree_node_IimS8_EEb, symObjAddr: 0xE90, symBinAddr: 0x1000019F4, symSize: 0xF8 }
  - { offsetInCU: 0x7E56, offset: 0x7E56, size: 0x8, addend: 0x0, symName: __ZN10__gnu_pbds6detail19bin_search_tree_setIiNS_9null_typeESt4lessIiENS0_11tree_traitsIiS2_S4_NS_33tree_order_statistics_node_updateENS_11rb_tree_tagESaIcEEES8_E16insert_imp_emptyERKi, symObjAddr: 0xD94, symBinAddr: 0x1000018F8, symSize: 0xB0 }
  - { offsetInCU: 0x7E5E, offset: 0x7E5E, size: 0x8, addend: 0x0, symName: __ZSt9make_pairIN10__gnu_pbds6detail25bin_search_tree_const_it_IPNS1_13rb_tree_node_IimSaIcEEEiPiPKiRiRS8_Lb1ES4_EEbESt4pairINSt25__strip_reference_wrapperINSt5decayIT_E4typeEE6__typeENSE_INSF_IT0_E4typeEE6__typeEEOSG_OSL_, symObjAddr: 0xE44, symBinAddr: 0x1000019A8, symSize: 0x4C }
  - { offsetInCU: 0x7F78, offset: 0x7F78, size: 0x8, addend: 0x0, symName: __ZN10__gnu_pbds6detail19bin_search_tree_setIiNS_9null_typeESt4lessIiENS0_11tree_traitsIiS2_S4_NS_33tree_order_statistics_node_updateENS_11rb_tree_tagESaIcEEES8_ED0Ev, symObjAddr: 0xD6C, symBinAddr: 0x1000018D0, symSize: 0x28 }
  - { offsetInCU: 0x7F80, offset: 0x7F80, size: 0x8, addend: 0x0, symName: __ZN10__gnu_pbds6detail19bin_search_tree_setIiNS_9null_typeESt4lessIiENS0_11tree_traitsIiS2_S4_NS_33tree_order_statistics_node_updateENS_11rb_tree_tagESaIcEEES8_E16insert_imp_emptyERKi, symObjAddr: 0xD94, symBinAddr: 0x1000018F8, symSize: 0xB0 }
  - { offsetInCU: 0x7FA6, offset: 0x7FA6, size: 0x8, addend: 0x0, symName: __ZN10__gnu_pbds6detail19bin_search_tree_setIiNS_9null_typeESt4lessIiENS0_11tree_traitsIiS2_S4_NS_33tree_order_statistics_node_updateENS_11rb_tree_tagESaIcEEES8_ED1Ev, symObjAddr: 0xD14, symBinAddr: 0x100001878, symSize: 0x58 }
  - { offsetInCU: 0x7FAE, offset: 0x7FAE, size: 0x8, addend: 0x0, symName: __ZN10__gnu_pbds6detail19bin_search_tree_setIiNS_9null_typeESt4lessIiENS0_11tree_traitsIiS2_S4_NS_33tree_order_statistics_node_updateENS_11rb_tree_tagESaIcEEES8_ED0Ev, symObjAddr: 0xD6C, symBinAddr: 0x1000018D0, symSize: 0x28 }
  - { offsetInCU: 0x7FD4, offset: 0x7FD4, size: 0x8, addend: 0x0, symName: __ZN10__gnu_pbds6detail19bin_search_tree_setIiNS_9null_typeESt4lessIiENS0_11tree_traitsIiS2_S4_NS_33tree_order_statistics_node_updateENS_11rb_tree_tagESaIcEEES8_ED2Ev, symObjAddr: 0xCBC, symBinAddr: 0x100001820, symSize: 0x58 }
  - { offsetInCU: 0x7FDC, offset: 0x7FDC, size: 0x8, addend: 0x0, symName: __ZN10__gnu_pbds6detail19bin_search_tree_setIiNS_9null_typeESt4lessIiENS0_11tree_traitsIiS2_S4_NS_33tree_order_statistics_node_updateENS_11rb_tree_tagESaIcEEES8_ED1Ev, symObjAddr: 0xD14, symBinAddr: 0x100001878, symSize: 0x58 }
  - { offsetInCU: 0x8013, offset: 0x8013, size: 0x8, addend: 0x0, symName: __ZN10__gnu_pbds6detail11rb_tree_setIiNS_9null_typeESt4lessIiENS0_11tree_traitsIiS2_S4_NS_33tree_order_statistics_node_updateENS_11rb_tree_tagESaIcEEES8_EC2Ev, symObjAddr: 0xC80, symBinAddr: 0x1000017E4, symSize: 0x3C }
  - { offsetInCU: 0x801B, offset: 0x801B, size: 0x8, addend: 0x0, symName: __ZN10__gnu_pbds6detail19bin_search_tree_setIiNS_9null_typeESt4lessIiENS0_11tree_traitsIiS2_S4_NS_33tree_order_statistics_node_updateENS_11rb_tree_tagESaIcEEES8_ED2Ev, symObjAddr: 0xCBC, symBinAddr: 0x100001820, symSize: 0x58 }
  - { offsetInCU: 0x7FA3, offset: 0x7FA3, size: 0x8, addend: 0x0, symName: __ZNKSt4lessIiEclERKiS2_, symObjAddr: 0xC4C, symBinAddr: 0x1000017B0, symSize: 0x34 }
  - { offsetInCU: 0x7FAB, offset: 0x7FAB, size: 0x8, addend: 0x0, symName: __ZN10__gnu_pbds6detail11rb_tree_setIiNS_9null_typeESt4lessIiENS0_11tree_traitsIiS2_S4_NS_33tree_order_statistics_node_updateENS_11rb_tree_tagESaIcEEES8_EC2Ev, symObjAddr: 0xC80, symBinAddr: 0x1000017E4, symSize: 0x3C }
  - { offsetInCU: 0x7FFA, offset: 0x7FFA, size: 0x8, addend: 0x0, symName: __ZN10__gnu_pbds6detail13branch_policyINS0_30bin_search_tree_const_node_it_INS0_13rb_tree_node_IimSaIcEEENS0_25bin_search_tree_const_it_IPS5_iPiPKiRiRS9_Lb1ES4_EESD_S4_EESE_S4_E11extract_keyESC_, symObjAddr: 0xC38, symBinAddr: 0x10000179C, symSize: 0x14 }
  - { offsetInCU: 0x8002, offset: 0x8002, size: 0x8, addend: 0x0, symName: __ZNKSt4lessIiEclERKiS2_, symObjAddr: 0xC4C, symBinAddr: 0x1000017B0, symSize: 0x34 }
  - { offsetInCU: 0x802B, offset: 0x802B, size: 0x8, addend: 0x0, symName: __ZNK10__gnu_pbds6detail13branch_policyINS0_30bin_search_tree_const_node_it_INS0_13rb_tree_node_IimSaIcEEENS0_25bin_search_tree_const_it_IPS5_iPiPKiRiRS9_Lb1ES4_EESD_S4_EESE_S4_E12end_iteratorEv, symObjAddr: 0xC10, symBinAddr: 0x100001774, symSize: 0x28 }
  - { offsetInCU: 0x8033, offset: 0x8033, size: 0x8, addend: 0x0, symName: __ZN10__gnu_pbds6detail13branch_policyINS0_30bin_search_tree_const_node_it_INS0_13rb_tree_node_IimSaIcEEENS0_25bin_search_tree_const_it_IPS5_iPiPKiRiRS9_Lb1ES4_EESD_S4_EESE_S4_E11extract_keyESC_, symObjAddr: 0xC38, symBinAddr: 0x10000179C, symSize: 0x14 }
  - { offsetInCU: 0x805A, offset: 0x805A, size: 0x8, addend: 0x0, symName: __ZNK10__gnu_pbds6detail30bin_search_tree_const_node_it_INS0_13rb_tree_node_IimSaIcEEENS0_25bin_search_tree_const_it_IPS4_iPiPKiRiRS8_Lb1ES3_EESC_S3_E11get_r_childEv, symObjAddr: 0xBE4, symBinAddr: 0x100001748, symSize: 0x2C }
  - { offsetInCU: 0x8062, offset: 0x8062, size: 0x8, addend: 0x0, symName: __ZNK10__gnu_pbds6detail13branch_policyINS0_30bin_search_tree_const_node_it_INS0_13rb_tree_node_IimSaIcEEENS0_25bin_search_tree_const_it_IPS5_iPiPKiRiRS9_Lb1ES4_EESD_S4_EESE_S4_E12end_iteratorEv, symObjAddr: 0xC10, symBinAddr: 0x100001774, symSize: 0x28 }
  - { offsetInCU: 0x8089, offset: 0x8089, size: 0x8, addend: 0x0, symName: __ZNK10__gnu_pbds6detail30bin_search_tree_const_node_it_INS0_13rb_tree_node_IimSaIcEEENS0_25bin_search_tree_const_it_IPS4_iPiPKiRiRS8_Lb1ES3_EESC_S3_EdeEv, symObjAddr: 0xBBC, symBinAddr: 0x100001720, symSize: 0x28 }
  - { offsetInCU: 0x8091, offset: 0x8091, size: 0x8, addend: 0x0, symName: __ZNK10__gnu_pbds6detail30bin_search_tree_const_node_it_INS0_13rb_tree_node_IimSaIcEEENS0_25bin_search_tree_const_it_IPS4_iPiPKiRiRS8_Lb1ES3_EESC_S3_E11get_r_childEv, symObjAddr: 0xBE4, symBinAddr: 0x100001748, symSize: 0x2C }
  - { offsetInCU: 0x80B8, offset: 0x80B8, size: 0x8, addend: 0x0, symName: __ZNK10__gnu_pbds6detail30bin_search_tree_const_node_it_INS0_13rb_tree_node_IimSaIcEEENS0_25bin_search_tree_const_it_IPS4_iPiPKiRiRS8_Lb1ES3_EESC_S3_E12get_metadataEv, symObjAddr: 0xB9C, symBinAddr: 0x100001700, symSize: 0x20 }
  - { offsetInCU: 0x80C0, offset: 0x80C0, size: 0x8, addend: 0x0, symName: __ZNK10__gnu_pbds6detail30bin_search_tree_const_node_it_INS0_13rb_tree_node_IimSaIcEEENS0_25bin_search_tree_const_it_IPS4_iPiPKiRiRS8_Lb1ES3_EESC_S3_EdeEv, symObjAddr: 0xBBC, symBinAddr: 0x100001720, symSize: 0x28 }
  - { offsetInCU: 0x80E7, offset: 0x80E7, size: 0x8, addend: 0x0, symName: __ZNK10__gnu_pbds6detail30bin_search_tree_const_node_it_INS0_13rb_tree_node_IimSaIcEEENS0_25bin_search_tree_const_it_IPS4_iPiPKiRiRS8_Lb1ES3_EESC_S3_EeqERKSD_, symObjAddr: 0xB6C, symBinAddr: 0x1000016D0, symSize: 0x30 }
  - { offsetInCU: 0x80EF, offset: 0x80EF, size: 0x8, addend: 0x0, symName: __ZNK10__gnu_pbds6detail30bin_search_tree_const_node_it_INS0_13rb_tree_node_IimSaIcEEENS0_25bin_search_tree_const_it_IPS4_iPiPKiRiRS8_Lb1ES3_EESC_S3_E12get_metadataEv, symObjAddr: 0xB9C, symBinAddr: 0x100001700, symSize: 0x20 }
  - { offsetInCU: 0x8129, offset: 0x8129, size: 0x8, addend: 0x0, symName: __ZNK10__gnu_pbds6detail30bin_search_tree_const_node_it_INS0_13rb_tree_node_IimSaIcEEENS0_25bin_search_tree_const_it_IPS4_iPiPKiRiRS8_Lb1ES3_EESC_S3_E11get_l_childEv, symObjAddr: 0xB40, symBinAddr: 0x1000016A4, symSize: 0x2C }
  - { offsetInCU: 0x8131, offset: 0x8131, size: 0x8, addend: 0x0, symName: __ZNK10__gnu_pbds6detail30bin_search_tree_const_node_it_INS0_13rb_tree_node_IimSaIcEEENS0_25bin_search_tree_const_it_IPS4_iPiPKiRiRS8_Lb1ES3_EESC_S3_EeqERKSD_, symObjAddr: 0xB6C, symBinAddr: 0x1000016D0, symSize: 0x30 }
  - { offsetInCU: 0x8158, offset: 0x8158, size: 0x8, addend: 0x0, symName: __ZNK10__gnu_pbds6detail30bin_search_tree_const_node_it_INS0_13rb_tree_node_IimSaIcEEENS0_25bin_search_tree_const_it_IPS4_iPiPKiRiRS8_Lb1ES3_EESC_S3_EneERKSD_, symObjAddr: 0xB10, symBinAddr: 0x100001674, symSize: 0x30 }
  - { offsetInCU: 0x8160, offset: 0x8160, size: 0x8, addend: 0x0, symName: __ZNK10__gnu_pbds6detail30bin_search_tree_const_node_it_INS0_13rb_tree_node_IimSaIcEEENS0_25bin_search_tree_const_it_IPS4_iPiPKiRiRS8_Lb1ES3_EESC_S3_E11get_l_childEv, symObjAddr: 0xB40, symBinAddr: 0x1000016A4, symSize: 0x2C }
  - { offsetInCU: 0x819A, offset: 0x819A, size: 0x8, addend: 0x0, symName: __ZN10__gnu_pbds6detail11rb_tree_setIiNS_9null_typeESt4lessIiENS0_11tree_traitsIiS2_S4_NS_33tree_order_statistics_node_updateENS_11rb_tree_tagESaIcEEES8_E12insert_fixupEPNS0_13rb_tree_node_IimS8_EE, symObjAddr: 0x8C0, symBinAddr: 0x100001424, symSize: 0x250 }
  - { offsetInCU: 0x81A2, offset: 0x81A2, size: 0x8, addend: 0x0, symName: __ZNK10__gnu_pbds6detail30bin_search_tree_const_node_it_INS0_13rb_tree_node_IimSaIcEEENS0_25bin_search_tree_const_it_IPS4_iPiPKiRiRS8_Lb1ES3_EESC_S3_EneERKSD_, symObjAddr: 0xB10, symBinAddr: 0x100001674, symSize: 0x30 }
  - { offsetInCU: 0x8226, offset: 0x8226, size: 0x8, addend: 0x0, symName: __ZN10__gnu_pbds6detail19bin_search_tree_setIiNS_9null_typeESt4lessIiENS0_11tree_traitsIiS2_S4_NS_33tree_order_statistics_node_updateENS_11rb_tree_tagESaIcEEES8_E11insert_leafERKi, symObjAddr: 0x6B0, symBinAddr: 0x100001214, symSize: 0x210 }
  - { offsetInCU: 0x822E, offset: 0x822E, size: 0x8, addend: 0x0, symName: __ZN10__gnu_pbds6detail11rb_tree_setIiNS_9null_typeESt4lessIiENS0_11tree_traitsIiS2_S4_NS_33tree_order_statistics_node_updateENS_11rb_tree_tagESaIcEEES8_E12insert_fixupEPNS0_13rb_tree_node_IimS8_EE, symObjAddr: 0x8C0, symBinAddr: 0x100001424, symSize: 0x250 }
  - { offsetInCU: 0x8427, offset: 0x8427, size: 0x8, addend: 0x0, symName: __ZN10__gnu_pbds12basic_branchIiNS_9null_typeENS_11rb_tree_tagENS_33tree_order_statistics_node_updateINS_6detail30bin_search_tree_const_node_it_INS4_13rb_tree_node_IimSaIcEEENS4_25bin_search_tree_const_it_IPS8_iPiPKiRiRSC_Lb1ES7_EESG_S7_EESH_St4lessIiES7_EEN9__gnu_cxx8typelist4nodeINSM_5chainISJ_NSO_INS4_11tree_traitsIiS1_SJ_S3_S2_S7_EENSM_9null_typeEEEEEEES7_ED0Ev, symObjAddr: 0x688, symBinAddr: 0x1000011EC, symSize: 0x28 }
  - { offsetInCU: 0x842F, offset: 0x842F, size: 0x8, addend: 0x0, symName: __ZN10__gnu_pbds6detail19bin_search_tree_setIiNS_9null_typeESt4lessIiENS0_11tree_traitsIiS2_S4_NS_33tree_order_statistics_node_updateENS_11rb_tree_tagESaIcEEES8_E11insert_leafERKi, symObjAddr: 0x6B0, symBinAddr: 0x100001214, symSize: 0x210 }
  - { offsetInCU: 0x8455, offset: 0x8455, size: 0x8, addend: 0x0, symName: __ZN10__gnu_pbds12basic_branchIiNS_9null_typeENS_11rb_tree_tagENS_33tree_order_statistics_node_updateINS_6detail30bin_search_tree_const_node_it_INS4_13rb_tree_node_IimSaIcEEENS4_25bin_search_tree_const_it_IPS8_iPiPKiRiRSC_Lb1ES7_EESG_S7_EESH_St4lessIiES7_EEN9__gnu_cxx8typelist4nodeINSM_5chainISJ_NSO_INS4_11tree_traitsIiS1_SJ_S3_S2_S7_EENSM_9null_typeEEEEEEES7_ED1Ev, symObjAddr: 0x654, symBinAddr: 0x1000011B8, symSize: 0x34 }
  - { offsetInCU: 0x845D, offset: 0x845D, size: 0x8, addend: 0x0, symName: __ZN10__gnu_pbds12basic_branchIiNS_9null_typeENS_11rb_tree_tagENS_33tree_order_statistics_node_updateINS_6detail30bin_search_tree_const_node_it_INS4_13rb_tree_node_IimSaIcEEENS4_25bin_search_tree_const_it_IPS8_iPiPKiRiRSC_Lb1ES7_EESG_S7_EESH_St4lessIiES7_EEN9__gnu_cxx8typelist4nodeINSM_5chainISJ_NSO_INS4_11tree_traitsIiS1_SJ_S3_S2_S7_EENSM_9null_typeEEEEEEES7_ED0Ev, symObjAddr: 0x688, symBinAddr: 0x1000011EC, symSize: 0x28 }
  - { offsetInCU: 0x8483, offset: 0x8483, size: 0x8, addend: 0x0, symName: __ZN10__gnu_pbds12basic_branchIiNS_9null_typeENS_11rb_tree_tagENS_33tree_order_statistics_node_updateINS_6detail30bin_search_tree_const_node_it_INS4_13rb_tree_node_IimSaIcEEENS4_25bin_search_tree_const_it_IPS8_iPiPKiRiRSC_Lb1ES7_EESG_S7_EESH_St4lessIiES7_EEN9__gnu_cxx8typelist4nodeINSM_5chainISJ_NSO_INS4_11tree_traitsIiS1_SJ_S3_S2_S7_EENSM_9null_typeEEEEEEES7_ED2Ev, symObjAddr: 0x620, symBinAddr: 0x100001184, symSize: 0x34 }
  - { offsetInCU: 0x848B, offset: 0x848B, size: 0x8, addend: 0x0, symName: __ZN10__gnu_pbds12basic_branchIiNS_9null_typeENS_11rb_tree_tagENS_33tree_order_statistics_node_updateINS_6detail30bin_search_tree_const_node_it_INS4_13rb_tree_node_IimSaIcEEENS4_25bin_search_tree_const_it_IPS8_iPiPKiRiRSC_Lb1ES7_EESG_S7_EESH_St4lessIiES7_EEN9__gnu_cxx8typelist4nodeINSM_5chainISJ_NSO_INS4_11tree_traitsIiS1_SJ_S3_S2_S7_EENSM_9null_typeEEEEEEES7_ED1Ev, symObjAddr: 0x654, symBinAddr: 0x1000011B8, symSize: 0x34 }
  - { offsetInCU: 0x84CA, offset: 0x84CA, size: 0x8, addend: 0x0, symName: __ZN10__gnu_pbds12basic_branchIiNS_9null_typeENS_11rb_tree_tagENS_33tree_order_statistics_node_updateINS_6detail30bin_search_tree_const_node_it_INS4_13rb_tree_node_IimSaIcEEENS4_25bin_search_tree_const_it_IPS8_iPiPKiRiRSC_Lb1ES7_EESG_S7_EESH_St4lessIiES7_EEN9__gnu_cxx8typelist4nodeINSM_5chainISJ_NSO_INS4_11tree_traitsIiS1_SJ_S3_S2_S7_EENSM_9null_typeEEEEEEES7_EC2Ev, symObjAddr: 0x5EC, symBinAddr: 0x100001150, symSize: 0x34 }
  - { offsetInCU: 0x84D2, offset: 0x84D2, size: 0x8, addend: 0x0, symName: __ZN10__gnu_pbds12basic_branchIiNS_9null_typeENS_11rb_tree_tagENS_33tree_order_statistics_node_updateINS_6detail30bin_search_tree_const_node_it_INS4_13rb_tree_node_IimSaIcEEENS4_25bin_search_tree_const_it_IPS8_iPiPKiRiRSC_Lb1ES7_EESG_S7_EESH_St4lessIiES7_EEN9__gnu_cxx8typelist4nodeINSM_5chainISJ_NSO_INS4_11tree_traitsIiS1_SJ_S3_S2_S7_EENSM_9null_typeEEEEEEES7_ED2Ev, symObjAddr: 0x620, symBinAddr: 0x100001184, symSize: 0x34 }
  - { offsetInCU: 0x8451, offset: 0x8451, size: 0x8, addend: 0x0, symName: __ZN10__gnu_pbds6detail11rb_tree_setIiNS_9null_typeESt4lessIiENS0_11tree_traitsIiS2_S4_NS_33tree_order_statistics_node_updateENS_11rb_tree_tagESaIcEEES8_ED0Ev, symObjAddr: 0x5C4, symBinAddr: 0x100001128, symSize: 0x28 }
  - { offsetInCU: 0x8459, offset: 0x8459, size: 0x8, addend: 0x0, symName: __ZN10__gnu_pbds12basic_branchIiNS_9null_typeENS_11rb_tree_tagENS_33tree_order_statistics_node_updateINS_6detail30bin_search_tree_const_node_it_INS4_13rb_tree_node_IimSaIcEEENS4_25bin_search_tree_const_it_IPS8_iPiPKiRiRSC_Lb1ES7_EESG_S7_EESH_St4lessIiES7_EEN9__gnu_cxx8typelist4nodeINSM_5chainISJ_NSO_INS4_11tree_traitsIiS1_SJ_S3_S2_S7_EENSM_9null_typeEEEEEEES7_EC2Ev, symObjAddr: 0x5EC, symBinAddr: 0x100001150, symSize: 0x34 }
  - { offsetInCU: 0x847F, offset: 0x847F, size: 0x8, addend: 0x0, symName: __ZN10__gnu_pbds6detail11rb_tree_setIiNS_9null_typeESt4lessIiENS0_11tree_traitsIiS2_S4_NS_33tree_order_statistics_node_updateENS_11rb_tree_tagESaIcEEES8_ED1Ev, symObjAddr: 0x590, symBinAddr: 0x1000010F4, symSize: 0x34 }
  - { offsetInCU: 0x8487, offset: 0x8487, size: 0x8, addend: 0x0, symName: __ZN10__gnu_pbds6detail11rb_tree_setIiNS_9null_typeESt4lessIiENS0_11tree_traitsIiS2_S4_NS_33tree_order_statistics_node_updateENS_11rb_tree_tagESaIcEEES8_ED0Ev, symObjAddr: 0x5C4, symBinAddr: 0x100001128, symSize: 0x28 }
  - { offsetInCU: 0x84AD, offset: 0x84AD, size: 0x8, addend: 0x0, symName: __ZN10__gnu_pbds6detail11rb_tree_setIiNS_9null_typeESt4lessIiENS0_11tree_traitsIiS2_S4_NS_33tree_order_statistics_node_updateENS_11rb_tree_tagESaIcEEES8_ED2Ev, symObjAddr: 0x55C, symBinAddr: 0x1000010C0, symSize: 0x34 }
  - { offsetInCU: 0x84B5, offset: 0x84B5, size: 0x8, addend: 0x0, symName: __ZN10__gnu_pbds6detail11rb_tree_setIiNS_9null_typeESt4lessIiENS0_11tree_traitsIiS2_S4_NS_33tree_order_statistics_node_updateENS_11rb_tree_tagESaIcEEES8_ED1Ev, symObjAddr: 0x590, symBinAddr: 0x1000010F4, symSize: 0x34 }
  - { offsetInCU: 0x8483, offset: 0x8483, size: 0x8, addend: 0x0, symName: __ZSt7forwardIbEOT_RNSt16remove_referenceIS0_E4typeE, symObjAddr: 0x548, symBinAddr: 0x1000010AC, symSize: 0x14 }
  - { offsetInCU: 0x848B, offset: 0x848B, size: 0x8, addend: 0x0, symName: __ZN10__gnu_pbds6detail11rb_tree_setIiNS_9null_typeESt4lessIiENS0_11tree_traitsIiS2_S4_NS_33tree_order_statistics_node_updateENS_11rb_tree_tagESaIcEEES8_ED2Ev, symObjAddr: 0x55C, symBinAddr: 0x1000010C0, symSize: 0x34 }
  - { offsetInCU: 0x8491, offset: 0x8491, size: 0x8, addend: 0x0, symName: __ZNK10__gnu_pbds33tree_order_statistics_node_updateINS_6detail30bin_search_tree_const_node_it_INS1_13rb_tree_node_IimSaIcEEENS1_25bin_search_tree_const_it_IPS5_iPiPKiRiRS9_Lb1ES4_EESD_S4_EESE_St4lessIiES4_E12order_of_keyESC_, symObjAddr: 0x398, symBinAddr: 0x100000EFC, symSize: 0x1B0 }
  - { offsetInCU: 0x8499, offset: 0x8499, size: 0x8, addend: 0x0, symName: __ZSt7forwardIbEOT_RNSt16remove_referenceIS0_E4typeE, symObjAddr: 0x548, symBinAddr: 0x1000010AC, symSize: 0x14 }
  - { offsetInCU: 0x8550, offset: 0x8550, size: 0x8, addend: 0x0, symName: __ZNK10__gnu_pbds6detail25bin_search_tree_const_it_IPNS0_13rb_tree_node_IimSaIcEEEiPiPKiRiRS7_Lb1ES3_EdeEv, symObjAddr: 0x37C, symBinAddr: 0x100000EE0, symSize: 0x1C }
  - { offsetInCU: 0x8558, offset: 0x8558, size: 0x8, addend: 0x0, symName: __ZNK10__gnu_pbds33tree_order_statistics_node_updateINS_6detail30bin_search_tree_const_node_it_INS1_13rb_tree_node_IimSaIcEEENS1_25bin_search_tree_const_it_IPS5_iPiPKiRiRS9_Lb1ES4_EESD_S4_EESE_St4lessIiES4_E12order_of_keyESC_, symObjAddr: 0x398, symBinAddr: 0x100000EFC, symSize: 0x1B0 }
  - { offsetInCU: 0x857F, offset: 0x857F, size: 0x8, addend: 0x0, symName: __ZN10__gnu_pbds33tree_order_statistics_node_updateINS_6detail30bin_search_tree_const_node_it_INS1_13rb_tree_node_IimSaIcEEENS1_25bin_search_tree_const_it_IPS5_iPiPKiRiRS9_Lb1ES4_EESD_S4_EESE_St4lessIiES4_E13find_by_orderEm, symObjAddr: 0x268, symBinAddr: 0x100000DCC, symSize: 0x114 }
  - { offsetInCU: 0x8587, offset: 0x8587, size: 0x8, addend: 0x0, symName: __ZNK10__gnu_pbds6detail25bin_search_tree_const_it_IPNS0_13rb_tree_node_IimSaIcEEEiPiPKiRiRS7_Lb1ES3_EdeEv, symObjAddr: 0x37C, symBinAddr: 0x100000EE0, symSize: 0x1C }
  - { offsetInCU: 0x861F, offset: 0x861F, size: 0x8, addend: 0x0, symName: __ZNK10__gnu_pbds6detail19bin_search_tree_setIiNS_9null_typeESt4lessIiENS0_11tree_traitsIiS2_S4_NS_33tree_order_statistics_node_updateENS_11rb_tree_tagESaIcEEES8_E4sizeEv, symObjAddr: 0x250, symBinAddr: 0x100000DB4, symSize: 0x18 }
  - { offsetInCU: 0x8627, offset: 0x8627, size: 0x8, addend: 0x0, symName: __ZN10__gnu_pbds33tree_order_statistics_node_updateINS_6detail30bin_search_tree_const_node_it_INS1_13rb_tree_node_IimSaIcEEENS1_25bin_search_tree_const_it_IPS5_iPiPKiRiRS9_Lb1ES4_EESD_S4_EESE_St4lessIiES4_E13find_by_orderEm, symObjAddr: 0x268, symBinAddr: 0x100000DCC, symSize: 0x114 }
  - { offsetInCU: 0x864E, offset: 0x864E, size: 0x8, addend: 0x0, symName: __ZN10__gnu_pbds6detail11rb_tree_setIiNS_9null_typeESt4lessIiENS0_11tree_traitsIiS2_S4_NS_33tree_order_statistics_node_updateENS_11rb_tree_tagESaIcEEES8_E6insertERKi, symObjAddr: 0x1FC, symBinAddr: 0x100000D60, symSize: 0x54 }
  - { offsetInCU: 0x8656, offset: 0x8656, size: 0x8, addend: 0x0, symName: __ZNK10__gnu_pbds6detail19bin_search_tree_setIiNS_9null_typeESt4lessIiENS0_11tree_traitsIiS2_S4_NS_33tree_order_statistics_node_updateENS_11rb_tree_tagESaIcEEES8_E4sizeEv, symObjAddr: 0x250, symBinAddr: 0x100000DB4, symSize: 0x18 }
  - { offsetInCU: 0x873B, offset: 0x873B, size: 0x8, addend: 0x0, symName: __ZN10__gnu_pbds4treeIiNS_9null_typeESt4lessIiENS_11rb_tree_tagENS_33tree_order_statistics_node_updateESaIcEED0Ev, symObjAddr: 0x1D4, symBinAddr: 0x100000D38, symSize: 0x28 }
  - { offsetInCU: 0x8743, offset: 0x8743, size: 0x8, addend: 0x0, symName: __ZN10__gnu_pbds6detail11rb_tree_setIiNS_9null_typeESt4lessIiENS0_11tree_traitsIiS2_S4_NS_33tree_order_statistics_node_updateENS_11rb_tree_tagESaIcEEES8_E6insertERKi, symObjAddr: 0x1FC, symBinAddr: 0x100000D60, symSize: 0x54 }
  - { offsetInCU: 0x8769, offset: 0x8769, size: 0x8, addend: 0x0, symName: __ZN10__gnu_pbds4treeIiNS_9null_typeESt4lessIiENS_11rb_tree_tagENS_33tree_order_statistics_node_updateESaIcEED1Ev, symObjAddr: 0x1A0, symBinAddr: 0x100000D04, symSize: 0x34 }
  - { offsetInCU: 0x8771, offset: 0x8771, size: 0x8, addend: 0x0, symName: __ZN10__gnu_pbds4treeIiNS_9null_typeESt4lessIiENS_11rb_tree_tagENS_33tree_order_statistics_node_updateESaIcEED0Ev, symObjAddr: 0x1D4, symBinAddr: 0x100000D38, symSize: 0x28 }
  - { offsetInCU: 0x87B0, offset: 0x87B0, size: 0x8, addend: 0x0, symName: __ZN10__gnu_pbds4treeIiNS_9null_typeESt4lessIiENS_11rb_tree_tagENS_33tree_order_statistics_node_updateESaIcEEC1Ev, symObjAddr: 0x16C, symBinAddr: 0x100000CD0, symSize: 0x34 }
  - { offsetInCU: 0x87B8, offset: 0x87B8, size: 0x8, addend: 0x0, symName: __ZN10__gnu_pbds4treeIiNS_9null_typeESt4lessIiENS_11rb_tree_tagENS_33tree_order_statistics_node_updateESaIcEED1Ev, symObjAddr: 0x1A0, symBinAddr: 0x100000D04, symSize: 0x34 }
  - { offsetInCU: 0x8777, offset: 0x8777, size: 0x8, addend: 0x0, symName: _main, symObjAddr: 0x18, symBinAddr: 0x100000B7C, symSize: 0x154 }
  - { offsetInCU: 0x877F, offset: 0x877F, size: 0x8, addend: 0x0, symName: __ZN10__gnu_pbds4treeIiNS_9null_typeESt4lessIiENS_11rb_tree_tagENS_33tree_order_statistics_node_updateESaIcEEC1Ev, symObjAddr: 0x16C, symBinAddr: 0x100000CD0, symSize: 0x34 }
  - { offsetInCU: 0x87DC, offset: 0x87DC, size: 0x8, addend: 0x0, symName: __ZnwmPv, symObjAddr: 0x0, symBinAddr: 0x100000B64, symSize: 0x18 }
  - { offsetInCU: 0x87E4, offset: 0x87E4, size: 0x8, addend: 0x0, symName: _main, symObjAddr: 0x18, symBinAddr: 0x100000B7C, symSize: 0x154 }
...
