---
triple:          'arm64-apple-darwin'
binary-path:     '/Users/dingkai/Code/IOI2024/test/luogu.out'
relocations:
  - { offsetInCU: 0x3F, offset: 0x3F, size: 0x8, addend: 0x0, symName: _N, symObjAddr: 0x586B4, symBinAddr: 0x10000C000, symSize: 0x0 }
  - { offsetInCU: 0x107E8, offset: 0x107E8, size: 0x8, addend: 0x0, symName: __ZNSt3__14endlB7v160006IcNS_11char_traitsIcEEEERNS_13basic_ostreamIT_T0_EES7_, symObjAddr: 0x670, symBinAddr: 0x100001A14, symSize: 0x58 }
  - { offsetInCU: 0x10833, offset: 0x10833, size: 0x8, addend: 0x0, symName: __ZNSt3__1neB7v160006ERKNS_16__deque_iteratorI3CowPS1_RS1_PS2_lLl512EEES7_, symObjAddr: 0xC8C, symBinAddr: 0x100002030, symSize: 0x34 }
  - { offsetInCU: 0x10870, offset: 0x10870, size: 0x8, addend: 0x0, symName: __ZNSt3__1eqB7v160006ERKNS_16__deque_iteratorI3CowPS1_RS1_PS2_lLl512EEES7_, symObjAddr: 0xF2C, symBinAddr: 0x1000022D0, symSize: 0x30 }
  - { offsetInCU: 0x108AD, offset: 0x108AD, size: 0x8, addend: 0x0, symName: __ZNSt3__119__libcpp_deallocateB7v160006EPvmm, symObjAddr: 0x1034, symBinAddr: 0x1000023D8, symSize: 0x60 }
  - { offsetInCU: 0x10912, offset: 0x10912, size: 0x8, addend: 0x0, symName: __ZNSt3__124__is_overaligned_for_newB7v160006Em, symObjAddr: 0x1094, symBinAddr: 0x100002438, symSize: 0x20 }
  - { offsetInCU: 0x10940, offset: 0x10940, size: 0x8, addend: 0x0, symName: __ZNSt3__127__do_deallocate_handle_sizeB7v160006IJSt11align_val_tEEEvPvmDpT_, symObjAddr: 0x10B4, symBinAddr: 0x100002458, symSize: 0x30 }
  - { offsetInCU: 0x10993, offset: 0x10993, size: 0x8, addend: 0x0, symName: __ZNSt3__127__do_deallocate_handle_sizeB7v160006IJEEEvPvmDpT_, symObjAddr: 0x10E4, symBinAddr: 0x100002488, symSize: 0x28 }
  - { offsetInCU: 0x109D1, offset: 0x109D1, size: 0x8, addend: 0x0, symName: __ZNSt3__124__libcpp_operator_deleteB7v160006IJPvSt11align_val_tEEEvDpT_, symObjAddr: 0x110C, symBinAddr: 0x1000024B0, symSize: 0x2C }
  - { offsetInCU: 0x10A1A, offset: 0x10A1A, size: 0x8, addend: 0x0, symName: __ZNSt3__124__libcpp_operator_deleteB7v160006IJPvEEEvDpT_, symObjAddr: 0x1138, symBinAddr: 0x1000024DC, symSize: 0x24 }
  - { offsetInCU: 0x10A4F, offset: 0x10A4F, size: 0x8, addend: 0x0, symName: __ZNSt3__112__to_addressB7v160006IP3CowEEPT_S4_, symObjAddr: 0x13BC, symBinAddr: 0x100002760, symSize: 0x14 }
  - { offsetInCU: 0x10A84, offset: 0x10A84, size: 0x8, addend: 0x0, symName: __ZNSt3__119__debug_db_insert_cB7v160006INS_6vectorIiNS_9allocatorIiEEEEEEvPT_, symObjAddr: 0x1550, symBinAddr: 0x1000028F4, symSize: 0x10 }
  - { offsetInCU: 0x10AB5, offset: 0x10AB5, size: 0x8, addend: 0x0, symName: __ZNSt3__118__debug_db_erase_cB7v160006INS_6vectorIiNS_9allocatorIiEEEEEEvPT_, symObjAddr: 0x1814, symBinAddr: 0x100002BB8, symSize: 0x10 }
  - { offsetInCU: 0x10AE6, offset: 0x10AE6, size: 0x8, addend: 0x0, symName: __ZNSt3__112__to_addressB7v160006IiEEPT_S2_, symObjAddr: 0x1958, symBinAddr: 0x100002CFC, symSize: 0x14 }
  - { offsetInCU: 0x10B1B, offset: 0x10B1B, size: 0x8, addend: 0x0, symName: __ZNSt3__13maxB7v160006ImEERKT_S3_S3_, symObjAddr: 0x2564, symBinAddr: 0x100003908, symSize: 0x2C }
  - { offsetInCU: 0x10B5E, offset: 0x10B5E, size: 0x8, addend: 0x0, symName: __ZNSt3__13minB7v160006ImEERKT_S3_S3_, symObjAddr: 0x2590, symBinAddr: 0x100003934, symSize: 0x2C }
  - { offsetInCU: 0x10D8B, offset: 0x10D8B, size: 0x8, addend: 0x0, symName: __ZNSt3__13minB7v160006ImNS_6__lessImmEEEERKT_S5_S5_T0_, symObjAddr: 0x261C, symBinAddr: 0x1000039C0, symSize: 0x54 }
  - { offsetInCU: 0x10E20, offset: 0x10E20, size: 0x8, addend: 0x0, symName: __ZNSt3__120__throw_length_errorB7v160006EPKc, symObjAddr: 0x26F8, symBinAddr: 0x100003A9C, symSize: 0x64 }
  - { offsetInCU: 0x10E48, offset: 0x10E48, size: 0x8, addend: 0x0, symName: __ZNSt3__13maxB7v160006ImNS_6__lessImmEEEERKT_S5_S5_T0_, symObjAddr: 0x27DC, symBinAddr: 0x100003B80, symSize: 0x54 }
  - { offsetInCU: 0x10EA2, offset: 0x10EA2, size: 0x8, addend: 0x0, symName: __ZNSt3__119__allocate_at_leastB7v160006INS_9allocatorIiEEEENS_19__allocation_resultINS_16allocator_traitsIT_E7pointerEEERS5_m, symObjAddr: 0x2940, symBinAddr: 0x100003CE4, symSize: 0x40 }
  - { offsetInCU: 0x10EE5, offset: 0x10EE5, size: 0x8, addend: 0x0, symName: __ZNSt3__117__libcpp_allocateB7v160006Emm, symObjAddr: 0x2AC4, symBinAddr: 0x100003E68, symSize: 0x60 }
  - { offsetInCU: 0x10F3F, offset: 0x10F3F, size: 0x8, addend: 0x0, symName: __ZNSt3__121__libcpp_operator_newB7v160006IJmSt11align_val_tEEEPvDpT_, symObjAddr: 0x2B24, symBinAddr: 0x100003EC8, symSize: 0x2C }
  - { offsetInCU: 0x10F8C, offset: 0x10F8C, size: 0x8, addend: 0x0, symName: __ZNSt3__121__libcpp_operator_newB7v160006IJmEEEPvDpT_, symObjAddr: 0x2B50, symBinAddr: 0x100003EF4, symSize: 0x24 }
  - { offsetInCU: 0x10FC5, offset: 0x10FC5, size: 0x8, addend: 0x0, symName: __ZNSt3__142__uninitialized_allocator_move_if_noexceptB7v160006INS_9allocatorIiEENS_16reverse_iteratorIPiEES5_ivEET1_RT_T0_S9_S6_, symObjAddr: 0x2BD8, symBinAddr: 0x100003F7C, symSize: 0x78 }
  - { offsetInCU: 0x11042, offset: 0x11042, size: 0x8, addend: 0x0, symName: __ZNSt3__14swapB7v160006IPiEENS_9enable_ifIXaasr21is_move_constructibleIT_EE5valuesr18is_move_assignableIS3_EE5valueEvE4typeERS3_S6_, symObjAddr: 0x2C9C, symBinAddr: 0x100004040, symSize: 0x3C }
  - { offsetInCU: 0x11093, offset: 0x11093, size: 0x8, addend: 0x0, symName: __ZNSt3__125__debug_db_invalidate_allB7v160006INS_6vectorIiNS_9allocatorIiEEEEEEvPT_, symObjAddr: 0x2D84, symBinAddr: 0x100004128, symSize: 0x10 }
  - { offsetInCU: 0x110C4, offset: 0x110C4, size: 0x8, addend: 0x0, symName: __ZNSt3__14moveB7v160006INS_16reverse_iteratorIPiEES3_EET0_T_S5_S4_, symObjAddr: 0x2D94, symBinAddr: 0x100004138, symSize: 0x78 }
  - { offsetInCU: 0x1111E, offset: 0x1111E, size: 0x8, addend: 0x0, symName: __ZNSt3__16__moveB7v160006INS_17_ClassicAlgPolicyENS_16reverse_iteratorIPiEES4_S4_EENS_4pairIT0_T2_EES6_T1_S7_, symObjAddr: 0x2E0C, symBinAddr: 0x1000041B0, symSize: 0x64 }
  - { offsetInCU: 0x1118A, offset: 0x1118A, size: 0x8, addend: 0x0, symName: __ZNSt3__123__dispatch_copy_or_moveB7v160006INS_17_ClassicAlgPolicyENS_11__move_loopIS1_EENS_14__move_trivialENS_16reverse_iteratorIPiEES7_S7_EENS_4pairIT2_T4_EES9_T3_SA_, symObjAddr: 0x2E70, symBinAddr: 0x100004214, symSize: 0x64 }
  - { offsetInCU: 0x11208, offset: 0x11208, size: 0x8, addend: 0x0, symName: __ZNSt3__121__unwrap_and_dispatchB7v160006INS_10__overloadINS_11__move_loopINS_17_ClassicAlgPolicyEEENS_14__move_trivialEEENS_16reverse_iteratorIPiEES9_S9_Li0EEENS_4pairIT0_T2_EESB_T1_SC_, symObjAddr: 0x2ED4, symBinAddr: 0x100004278, symSize: 0x12C }
  - { offsetInCU: 0x11298, offset: 0x11298, size: 0x8, addend: 0x0, symName: __ZNSt3__114__unwrap_rangeB7v160006INS_16reverse_iteratorIPiEES3_EENS_4pairIT0_S5_EET_S7_, symObjAddr: 0x3000, symBinAddr: 0x1000043A4, symSize: 0x84 }
  - { offsetInCU: 0x11413, offset: 0x11413, size: 0x8, addend: 0x0, symName: __ZNSt3__113__unwrap_iterB7v160006INS_16reverse_iteratorIPiEENS_18__unwrap_iter_implIS3_Lb0EEELi0EEEDTclsrT0_8__unwrapclsr3stdE7declvalIT_EEEES7_, symObjAddr: 0x3124, symBinAddr: 0x1000044C8, symSize: 0x44 }
  - { offsetInCU: 0x11457, offset: 0x11457, size: 0x8, addend: 0x0, symName: __ZNSt3__19make_pairB7v160006INS_16reverse_iteratorIPiEES3_EENS_4pairINS_18__unwrap_ref_decayIT_E4typeENS5_IT0_E4typeEEEOS6_OS9_, symObjAddr: 0x3168, symBinAddr: 0x10000450C, symSize: 0x38 }
  - { offsetInCU: 0x114A6, offset: 0x114A6, size: 0x8, addend: 0x0, symName: __ZNSt3__114__rewrap_rangeB7v160006INS_16reverse_iteratorIPiEES3_EET_S4_T0_, symObjAddr: 0x31A0, symBinAddr: 0x100004544, symSize: 0x5C }
  - { offsetInCU: 0x114F2, offset: 0x114F2, size: 0x8, addend: 0x0, symName: __ZNSt3__113__rewrap_iterB7v160006INS_16reverse_iteratorIPiEES3_NS_18__unwrap_iter_implIS3_Lb0EEEEET_S6_T0_, symObjAddr: 0x31FC, symBinAddr: 0x1000045A0, symSize: 0x74 }
  - { offsetInCU: 0x11547, offset: 0x11547, size: 0x8, addend: 0x0, symName: __ZNSt3__1neB7v160006IPiS1_EEbRKNS_16reverse_iteratorIT_EERKNS2_IT0_EE, symObjAddr: 0x3270, symBinAddr: 0x100004614, symSize: 0x48 }
  - { offsetInCU: 0x11645, offset: 0x11645, size: 0x8, addend: 0x0, symName: __ZNSt3__112__to_addressB7v160006I3CowEEPT_S3_, symObjAddr: 0x3914, symBinAddr: 0x100004CB8, symSize: 0x14 }
  - { offsetInCU: 0x11AD3, offset: 0x11AD3, size: 0x8, addend: 0x0, symName: __ZNSt3__14swapB7v160006IPP3CowEENS_9enable_ifIXaasr21is_move_constructibleIT_EE5valuesr18is_move_assignableIS5_EE5valueEvE4typeERS5_S8_, symObjAddr: 0x4C88, symBinAddr: 0x10000602C, symSize: 0x3C }
  - { offsetInCU: 0x11B24, offset: 0x11B24, size: 0x8, addend: 0x0, symName: __ZNSt3__14moveB7v160006IPP3CowS3_EET0_T_S5_S4_, symObjAddr: 0x4D6C, symBinAddr: 0x100006110, symSize: 0x40 }
  - { offsetInCU: 0x11B9A, offset: 0x11B9A, size: 0x8, addend: 0x0, symName: __ZNSt3__16__moveB7v160006INS_17_ClassicAlgPolicyEPP3CowS4_S4_EENS_4pairIT0_T2_EES6_T1_S7_, symObjAddr: 0x4F10, symBinAddr: 0x1000062B4, symSize: 0x44 }
  - { offsetInCU: 0x11C06, offset: 0x11C06, size: 0x8, addend: 0x0, symName: __ZNSt3__123__dispatch_copy_or_moveB7v160006INS_17_ClassicAlgPolicyENS_11__move_loopIS1_EENS_14__move_trivialEPP3CowS7_S7_EENS_4pairIT2_T4_EES9_T3_SA_, symObjAddr: 0x4F54, symBinAddr: 0x1000062F8, symSize: 0x44 }
  - { offsetInCU: 0x11C84, offset: 0x11C84, size: 0x8, addend: 0x0, symName: __ZNSt3__121__unwrap_and_dispatchB7v160006INS_10__overloadINS_11__move_loopINS_17_ClassicAlgPolicyEEENS_14__move_trivialEEEPP3CowS9_S9_Li0EEENS_4pairIT0_T2_EESB_T1_SC_, symObjAddr: 0x4F98, symBinAddr: 0x10000633C, symSize: 0xB4 }
  - { offsetInCU: 0x11D12, offset: 0x11D12, size: 0x8, addend: 0x0, symName: __ZNSt3__114__unwrap_rangeB7v160006IPP3CowS3_EENS_4pairIT0_S5_EET_S7_, symObjAddr: 0x504C, symBinAddr: 0x1000063F0, symSize: 0x60 }
  - { offsetInCU: 0x11ED6, offset: 0x11ED6, size: 0x8, addend: 0x0, symName: __ZNSt3__113__unwrap_iterB7v160006IPP3CowNS_18__unwrap_iter_implIS3_Lb1EEELi0EEEDTclsrT0_8__unwrapclsr3stdE7declvalIT_EEEES7_, symObjAddr: 0x50F4, symBinAddr: 0x100006498, symSize: 0x24 }
  - { offsetInCU: 0x11F1A, offset: 0x11F1A, size: 0x8, addend: 0x0, symName: __ZNSt3__19make_pairB7v160006IPP3CowS3_EENS_4pairINS_18__unwrap_ref_decayIT_E4typeENS5_IT0_E4typeEEEOS6_OS9_, symObjAddr: 0x5118, symBinAddr: 0x1000064BC, symSize: 0x38 }
  - { offsetInCU: 0x11F69, offset: 0x11F69, size: 0x8, addend: 0x0, symName: __ZNSt3__114__rewrap_rangeB7v160006IPP3CowS3_EET_S4_T0_, symObjAddr: 0x5150, symBinAddr: 0x1000064F4, symSize: 0x2C }
  - { offsetInCU: 0x11FB5, offset: 0x11FB5, size: 0x8, addend: 0x0, symName: __ZNSt3__113__rewrap_iterB7v160006IPP3CowS3_NS_18__unwrap_iter_implIS3_Lb1EEEEET_S6_T0_, symObjAddr: 0x517C, symBinAddr: 0x100006520, symSize: 0x3C }
  - { offsetInCU: 0x1200A, offset: 0x1200A, size: 0x8, addend: 0x0, symName: __ZNSt3__119__copy_trivial_implB7v160006IP3CowS2_EENS_4pairIPT_PT0_EES5_S5_S7_, symObjAddr: 0x51B8, symBinAddr: 0x10000655C, symSize: 0x84 }
  - { offsetInCU: 0x12072, offset: 0x12072, size: 0x8, addend: 0x0, symName: __ZNSt3__19make_pairB7v160006IRPP3CowS3_EENS_4pairINS_18__unwrap_ref_decayIT_E4typeENS6_IT0_E4typeEEEOS7_OSA_, symObjAddr: 0x523C, symBinAddr: 0x1000065E0, symSize: 0x38 }
  - { offsetInCU: 0x12114, offset: 0x12114, size: 0x8, addend: 0x0, symName: __ZNSt3__18distanceB7v160006INS_13move_iteratorIPP3CowEEEENS_15iterator_traitsIT_E15difference_typeES7_S7_, symObjAddr: 0x53C8, symBinAddr: 0x10000676C, symSize: 0x3C }
  - { offsetInCU: 0x12157, offset: 0x12157, size: 0x8, addend: 0x0, symName: __ZNSt3__110__distanceB7v160006INS_13move_iteratorIPP3CowEEEENS_15iterator_traitsIT_E15difference_typeES7_S7_NS_26random_access_iterator_tagE, symObjAddr: 0x5500, symBinAddr: 0x1000068A4, symSize: 0x30 }
  - { offsetInCU: 0x121A4, offset: 0x121A4, size: 0x8, addend: 0x0, symName: __ZNSt3__1miB7v160006IPP3CowS3_EEDTmicldtfp_4baseEcldtfp0_4baseEERKNS_13move_iteratorIT_EERKNS5_IT0_EE, symObjAddr: 0x5530, symBinAddr: 0x1000068D4, symSize: 0x48 }
  - { offsetInCU: 0x121F3, offset: 0x121F3, size: 0x8, addend: 0x0, symName: __ZNSt3__113move_backwardB7v160006IPP3CowS3_EET0_T_S5_S4_, symObjAddr: 0x5734, symBinAddr: 0x100006AD8, symSize: 0x40 }
  - { offsetInCU: 0x1224D, offset: 0x1224D, size: 0x8, addend: 0x0, symName: __ZNSt3__115__move_backwardB7v160006INS_17_ClassicAlgPolicyEPP3CowS4_S4_EENS_4pairIT0_T2_EES6_T1_S7_, symObjAddr: 0x5774, symBinAddr: 0x100006B18, symSize: 0x44 }
  - { offsetInCU: 0x122B9, offset: 0x122B9, size: 0x8, addend: 0x0, symName: __ZNSt3__123__dispatch_copy_or_moveB7v160006INS_17_ClassicAlgPolicyENS_20__move_backward_loopIS1_EENS_23__move_backward_trivialEPP3CowS7_S7_EENS_4pairIT2_T4_EES9_T3_SA_, symObjAddr: 0x57B8, symBinAddr: 0x100006B5C, symSize: 0x44 }
  - { offsetInCU: 0x12337, offset: 0x12337, size: 0x8, addend: 0x0, symName: __ZNSt3__121__unwrap_and_dispatchB7v160006INS_10__overloadINS_20__move_backward_loopINS_17_ClassicAlgPolicyEEENS_23__move_backward_trivialEEEPP3CowS9_S9_Li0EEENS_4pairIT0_T2_EESB_T1_SC_, symObjAddr: 0x57FC, symBinAddr: 0x100006BA0, symSize: 0xB4 }
  - { offsetInCU: 0x1240B, offset: 0x1240B, size: 0x8, addend: 0x0, symName: __ZNSt3__128__copy_backward_trivial_implB7v160006IP3CowS2_EENS_4pairIPT_PT0_EES5_S5_S7_, symObjAddr: 0x58F8, symBinAddr: 0x100006C9C, symSize: 0x94 }
  - { offsetInCU: 0x12473, offset: 0x12473, size: 0x8, addend: 0x0, symName: __ZNSt3__19make_pairB7v160006IRPP3CowS4_EENS_4pairINS_18__unwrap_ref_decayIT_E4typeENS6_IT0_E4typeEEEOS7_OSA_, symObjAddr: 0x598C, symBinAddr: 0x100006D30, symSize: 0x38 }
  - { offsetInCU: 0x124C2, offset: 0x124C2, size: 0x8, addend: 0x0, symName: __ZNSt3__119__allocate_at_leastB7v160006INS_9allocatorIP3CowEEEENS_19__allocation_resultINS_16allocator_traitsIT_E7pointerEEERS7_m, symObjAddr: 0x5B44, symBinAddr: 0x100006EE8, symSize: 0x40 }
  - { offsetInCU: 0x12505, offset: 0x12505, size: 0x8, addend: 0x0, symName: __ZNSt3__19use_facetB7v160006INS_5ctypeIcEEEERKT_RKNS_6localeE, symObjAddr: 0x6238, symBinAddr: 0x1000075DC, symSize: 0x2C }
  - { offsetInCU: 0x12EAD, offset: 0x12EAD, size: 0x8, addend: 0x0, symName: __ZSt28__throw_bad_array_new_lengthB7v160006v, symObjAddr: 0x2A90, symBinAddr: 0x100003E34, symSize: 0x34 }
  - { offsetInCU: 0x138E9, offset: 0x138E9, size: 0x8, addend: 0x0, symName: __ZNSt3__16vectorIiNS_9allocatorIiEEE26__swap_out_circular_bufferERNS_14__split_bufferIiRS2_EE, symObjAddr: 0x23A4, symBinAddr: 0x100003748, symSize: 0x118 }
  - { offsetInCU: 0x15CC6, offset: 0x15CC6, size: 0x8, addend: 0x0, symName: _main, symObjAddr: 0x0, symBinAddr: 0x1000013A4, symSize: 0x2E8 }
  - { offsetInCU: 0x15D74, offset: 0x15D74, size: 0x8, addend: 0x0, symName: __ZNSt3__16vectorIiNS_9allocatorIiEEEC1B7v160006Ev, symObjAddr: 0x2E8, symBinAddr: 0x10000168C, symSize: 0x2C }
  - { offsetInCU: 0x15DDD, offset: 0x15DDD, size: 0x8, addend: 0x0, symName: __ZNSt3__15stackI3CowNS_5dequeIS1_NS_9allocatorIS1_EEEEEC1B7v160006Ev, symObjAddr: 0x314, symBinAddr: 0x1000016B8, symSize: 0x2C }
  - { offsetInCU: 0x15FD0, offset: 0x15FD0, size: 0x8, addend: 0x0, symName: __ZNSt3__114basic_ifstreamIcNS_11char_traitsIcEEEC1EPKcj, symObjAddr: 0x340, symBinAddr: 0x1000016E4, symSize: 0x16C }
  - { offsetInCU: 0x1601A, offset: 0x1601A, size: 0x8, addend: 0x0, symName: __ZNSt3__16vectorIiNS_9allocatorIiEEE9push_backB7v160006EOi, symObjAddr: 0x4AC, symBinAddr: 0x100001850, symSize: 0x6C }
  - { offsetInCU: 0x16051, offset: 0x16051, size: 0x8, addend: 0x0, symName: __ZNSt3__16vectorIiNS_9allocatorIiEEE9push_backB7v160006ERKi, symObjAddr: 0x518, symBinAddr: 0x1000018BC, symSize: 0x6C }
  - { offsetInCU: 0x16088, offset: 0x16088, size: 0x8, addend: 0x0, symName: __ZNKSt3__15stackI3CowNS_5dequeIS1_NS_9allocatorIS1_EEEEE5emptyB7v160006Ev, symObjAddr: 0x584, symBinAddr: 0x100001928, symSize: 0x28 }
  - { offsetInCU: 0x160AE, offset: 0x160AE, size: 0x8, addend: 0x0, symName: __ZNSt3__16vectorIiNS_9allocatorIiEEEixB7v160006Em, symObjAddr: 0x5AC, symBinAddr: 0x100001950, symSize: 0x24 }
  - { offsetInCU: 0x160E5, offset: 0x160E5, size: 0x8, addend: 0x0, symName: __ZNSt3__15stackI3CowNS_5dequeIS1_NS_9allocatorIS1_EEEEE3topB7v160006Ev, symObjAddr: 0x5D0, symBinAddr: 0x100001974, symSize: 0x24 }
  - { offsetInCU: 0x1610B, offset: 0x1610B, size: 0x8, addend: 0x0, symName: __ZNSt3__15stackI3CowNS_5dequeIS1_NS_9allocatorIS1_EEEEE3popB7v160006Ev, symObjAddr: 0x5F4, symBinAddr: 0x100001998, symSize: 0x24 }
  - { offsetInCU: 0x16131, offset: 0x16131, size: 0x8, addend: 0x0, symName: __ZNSt3__15stackI3CowNS_5dequeIS1_NS_9allocatorIS1_EEEEE4pushB7v160006EOS1_, symObjAddr: 0x618, symBinAddr: 0x1000019BC, symSize: 0x2C }
  - { offsetInCU: 0x16165, offset: 0x16165, size: 0x8, addend: 0x0, symName: __ZNSt3__113basic_ostreamIcNS_11char_traitsIcEEElsB7v160006EPFRS3_S4_E, symObjAddr: 0x644, symBinAddr: 0x1000019E8, symSize: 0x2C }
  - { offsetInCU: 0x1619E, offset: 0x1619E, size: 0x8, addend: 0x0, symName: __ZNSt3__114basic_ifstreamIcNS_11char_traitsIcEEED1Ev, symObjAddr: 0x6C8, symBinAddr: 0x100001A6C, symSize: 0x40 }
  - { offsetInCU: 0x161CB, offset: 0x161CB, size: 0x8, addend: 0x0, symName: __ZNSt3__15stackI3CowNS_5dequeIS1_NS_9allocatorIS1_EEEEED1Ev, symObjAddr: 0x708, symBinAddr: 0x100001AAC, symSize: 0x2C }
  - { offsetInCU: 0x161F7, offset: 0x161F7, size: 0x8, addend: 0x0, symName: __ZNSt3__16vectorIiNS_9allocatorIiEEED1B7v160006Ev, symObjAddr: 0x734, symBinAddr: 0x100001AD8, symSize: 0x2C }
  - { offsetInCU: 0x16221, offset: 0x16221, size: 0x8, addend: 0x0, symName: __ZNSt3__114basic_ifstreamIcNS_11char_traitsIcEEED2Ev, symObjAddr: 0x760, symBinAddr: 0x100001B04, symSize: 0x64 }
  - { offsetInCU: 0x1625B, offset: 0x1625B, size: 0x8, addend: 0x0, symName: __ZTv0_n24_NSt3__114basic_ifstreamIcNS_11char_traitsIcEEED1Ev, symObjAddr: 0x7C4, symBinAddr: 0x100001B68, symSize: 0x28 }
  - { offsetInCU: 0x16272, offset: 0x16272, size: 0x8, addend: 0x0, symName: __ZNSt3__15stackI3CowNS_5dequeIS1_NS_9allocatorIS1_EEEEED2Ev, symObjAddr: 0x7EC, symBinAddr: 0x100001B90, symSize: 0x2C }
  - { offsetInCU: 0x1629E, offset: 0x1629E, size: 0x8, addend: 0x0, symName: __ZNSt3__15dequeI3CowNS_9allocatorIS1_EEED1B7v160006Ev, symObjAddr: 0x818, symBinAddr: 0x100001BBC, symSize: 0x2C }
  - { offsetInCU: 0x162C8, offset: 0x162C8, size: 0x8, addend: 0x0, symName: __ZNSt3__15dequeI3CowNS_9allocatorIS1_EEED2B7v160006Ev, symObjAddr: 0x844, symBinAddr: 0x100001BE8, symSize: 0x9C }
  - { offsetInCU: 0x1631E, offset: 0x1631E, size: 0x8, addend: 0x0, symName: __ZNSt3__15dequeI3CowNS_9allocatorIS1_EEE5clearEv, symObjAddr: 0x8E0, symBinAddr: 0x100001C84, symSize: 0x180 }
  - { offsetInCU: 0x1637A, offset: 0x1637A, size: 0x8, addend: 0x0, symName: __ZNSt3__114__split_bufferIP3CowNS_9allocatorIS2_EEE5beginB7v160006Ev, symObjAddr: 0xA60, symBinAddr: 0x100001E04, symSize: 0x18 }
  - { offsetInCU: 0x163A0, offset: 0x163A0, size: 0x8, addend: 0x0, symName: __ZNSt3__114__split_bufferIP3CowNS_9allocatorIS2_EEE3endB7v160006Ev, symObjAddr: 0xA78, symBinAddr: 0x100001E1C, symSize: 0x18 }
  - { offsetInCU: 0x163C6, offset: 0x163C6, size: 0x8, addend: 0x0, symName: __ZNSt3__116allocator_traitsINS_9allocatorI3CowEEE10deallocateB7v160006ERS3_PS2_m, symObjAddr: 0xA90, symBinAddr: 0x100001E34, symSize: 0x34 }
  - { offsetInCU: 0x16408, offset: 0x16408, size: 0x8, addend: 0x0, symName: __ZNSt3__15dequeI3CowNS_9allocatorIS1_EEE7__allocB7v160006Ev, symObjAddr: 0xAC4, symBinAddr: 0x100001E68, symSize: 0x28 }
  - { offsetInCU: 0x1642E, offset: 0x1642E, size: 0x8, addend: 0x0, symName: __ZNSt3__114__split_bufferIP3CowNS_9allocatorIS2_EEED1Ev, symObjAddr: 0xAEC, symBinAddr: 0x100001E90, symSize: 0x2C }
  - { offsetInCU: 0x1645A, offset: 0x1645A, size: 0x8, addend: 0x0, symName: __ZNSt3__15dequeI3CowNS_9allocatorIS1_EEE5beginB7v160006Ev, symObjAddr: 0xB18, symBinAddr: 0x100001EBC, symSize: 0xB8 }
  - { offsetInCU: 0x1648F, offset: 0x1648F, size: 0x8, addend: 0x0, symName: __ZNSt3__15dequeI3CowNS_9allocatorIS1_EEE3endB7v160006Ev, symObjAddr: 0xBD0, symBinAddr: 0x100001F74, symSize: 0xBC }
  - { offsetInCU: 0x164D3, offset: 0x164D3, size: 0x8, addend: 0x0, symName: __ZNSt3__116allocator_traitsINS_9allocatorI3CowEEE7destroyB7v160006IS2_vEEvRS3_PT_, symObjAddr: 0xCCC, symBinAddr: 0x100002070, symSize: 0x2C }
  - { offsetInCU: 0x16510, offset: 0x16510, size: 0x8, addend: 0x0, symName: __ZNKSt3__116__deque_iteratorI3CowPS1_RS1_PS2_lLl512EEdeB7v160006Ev, symObjAddr: 0xCF8, symBinAddr: 0x10000209C, symSize: 0x18 }
  - { offsetInCU: 0x16536, offset: 0x16536, size: 0x8, addend: 0x0, symName: __ZNSt3__116__deque_iteratorI3CowPS1_RS1_PS2_lLl512EEppB7v160006Ev, symObjAddr: 0xD10, symBinAddr: 0x1000020B4, symSize: 0x70 }
  - { offsetInCU: 0x1655C, offset: 0x1655C, size: 0x8, addend: 0x0, symName: __ZNSt3__15dequeI3CowNS_9allocatorIS1_EEE6__sizeB7v160006Ev, symObjAddr: 0xD80, symBinAddr: 0x100002124, symSize: 0x28 }
  - { offsetInCU: 0x16582, offset: 0x16582, size: 0x8, addend: 0x0, symName: __ZNKSt3__114__split_bufferIP3CowNS_9allocatorIS2_EEE4sizeB7v160006Ev, symObjAddr: 0xDA8, symBinAddr: 0x10000214C, symSize: 0x28 }
  - { offsetInCU: 0x165A8, offset: 0x165A8, size: 0x8, addend: 0x0, symName: __ZNSt3__114__split_bufferIP3CowNS_9allocatorIS2_EEE5frontB7v160006Ev, symObjAddr: 0xDD0, symBinAddr: 0x100002174, symSize: 0x18 }
  - { offsetInCU: 0x165CE, offset: 0x165CE, size: 0x8, addend: 0x0, symName: __ZNSt3__114__split_bufferIP3CowNS_9allocatorIS2_EEE9pop_frontB7v160006Ev, symObjAddr: 0xDE8, symBinAddr: 0x10000218C, symSize: 0x2C }
  - { offsetInCU: 0x165F4, offset: 0x165F4, size: 0x8, addend: 0x0, symName: __ZNKSt3__114__split_bufferIP3CowNS_9allocatorIS2_EEE5emptyB7v160006Ev, symObjAddr: 0xE14, symBinAddr: 0x1000021B8, symSize: 0x28 }
  - { offsetInCU: 0x1661A, offset: 0x1661A, size: 0x8, addend: 0x0, symName: __ZNSt3__116__deque_iteratorI3CowPS1_RS1_PS2_lLl512EEC1B7v160006ES4_S2_, symObjAddr: 0xE3C, symBinAddr: 0x1000021E0, symSize: 0x3C }
  - { offsetInCU: 0x16662, offset: 0x16662, size: 0x8, addend: 0x0, symName: __ZNSt3__116__deque_iteratorI3CowPS1_RS1_PS2_lLl512EEC2B7v160006ES4_S2_, symObjAddr: 0xE78, symBinAddr: 0x10000221C, symSize: 0x2C }
  - { offsetInCU: 0x166AA, offset: 0x166AA, size: 0x8, addend: 0x0, symName: __ZNKSt3__15dequeI3CowNS_9allocatorIS1_EEE4sizeB7v160006Ev, symObjAddr: 0xEA4, symBinAddr: 0x100002248, symSize: 0x28 }
  - { offsetInCU: 0x166D0, offset: 0x166D0, size: 0x8, addend: 0x0, symName: __ZNKSt3__15dequeI3CowNS_9allocatorIS1_EEE6__sizeB7v160006Ev, symObjAddr: 0xECC, symBinAddr: 0x100002270, symSize: 0x28 }
  - { offsetInCU: 0x166F6, offset: 0x166F6, size: 0x8, addend: 0x0, symName: __ZNKSt3__117__compressed_pairImNS_9allocatorI3CowEEE5firstB7v160006Ev, symObjAddr: 0xEF4, symBinAddr: 0x100002298, symSize: 0x24 }
  - { offsetInCU: 0x1671C, offset: 0x1671C, size: 0x8, addend: 0x0, symName: __ZNKSt3__122__compressed_pair_elemImLi0ELb0EE5__getB7v160006Ev, symObjAddr: 0xF18, symBinAddr: 0x1000022BC, symSize: 0x14 }
  - { offsetInCU: 0x16742, offset: 0x16742, size: 0x8, addend: 0x0, symName: __ZNSt3__19allocatorI3CowE7destroyB7v160006EPS1_, symObjAddr: 0xF5C, symBinAddr: 0x100002300, symSize: 0x14 }
  - { offsetInCU: 0x16776, offset: 0x16776, size: 0x8, addend: 0x0, symName: __ZNSt3__117__compressed_pairImNS_9allocatorI3CowEEE5firstB7v160006Ev, symObjAddr: 0xF70, symBinAddr: 0x100002314, symSize: 0x24 }
  - { offsetInCU: 0x1679C, offset: 0x1679C, size: 0x8, addend: 0x0, symName: __ZNSt3__122__compressed_pair_elemImLi0ELb0EE5__getB7v160006Ev, symObjAddr: 0xF94, symBinAddr: 0x100002338, symSize: 0x14 }
  - { offsetInCU: 0x167C2, offset: 0x167C2, size: 0x8, addend: 0x0, symName: __ZNSt3__114__split_bufferIP3CowNS_9allocatorIS2_EEE19__destruct_at_beginB7v160006EPS2_, symObjAddr: 0xFA8, symBinAddr: 0x10000234C, symSize: 0x2C }
  - { offsetInCU: 0x167F6, offset: 0x167F6, size: 0x8, addend: 0x0, symName: __ZNSt3__114__split_bufferIP3CowNS_9allocatorIS2_EEE19__destruct_at_beginEPS2_NS_17integral_constantIbLb1EEE, symObjAddr: 0xFD4, symBinAddr: 0x100002378, symSize: 0x20 }
  - { offsetInCU: 0x16836, offset: 0x16836, size: 0x8, addend: 0x0, symName: __ZNSt3__19allocatorI3CowE10deallocateB7v160006EPS1_m, symObjAddr: 0xFF4, symBinAddr: 0x100002398, symSize: 0x40 }
  - { offsetInCU: 0x16878, offset: 0x16878, size: 0x8, addend: 0x0, symName: __ZNSt3__117__compressed_pairImNS_9allocatorI3CowEEE6secondB7v160006Ev, symObjAddr: 0x115C, symBinAddr: 0x100002500, symSize: 0x24 }
  - { offsetInCU: 0x1689E, offset: 0x1689E, size: 0x8, addend: 0x0, symName: __ZNSt3__122__compressed_pair_elemINS_9allocatorI3CowEELi1ELb1EE5__getB7v160006Ev, symObjAddr: 0x1180, symBinAddr: 0x100002524, symSize: 0x14 }
  - { offsetInCU: 0x168C4, offset: 0x168C4, size: 0x8, addend: 0x0, symName: __ZNSt3__114__split_bufferIP3CowNS_9allocatorIS2_EEED2Ev, symObjAddr: 0x1194, symBinAddr: 0x100002538, symSize: 0x8C }
  - { offsetInCU: 0x168F0, offset: 0x168F0, size: 0x8, addend: 0x0, symName: __ZNSt3__114__split_bufferIP3CowNS_9allocatorIS2_EEE5clearB7v160006Ev, symObjAddr: 0x1220, symBinAddr: 0x1000025C4, symSize: 0x28 }
  - { offsetInCU: 0x16916, offset: 0x16916, size: 0x8, addend: 0x0, symName: __ZNSt3__116allocator_traitsINS_9allocatorIP3CowEEE10deallocateB7v160006ERS4_PS3_m, symObjAddr: 0x1248, symBinAddr: 0x1000025EC, symSize: 0x34 }
  - { offsetInCU: 0x16958, offset: 0x16958, size: 0x8, addend: 0x0, symName: __ZNSt3__114__split_bufferIP3CowNS_9allocatorIS2_EEE7__allocB7v160006Ev, symObjAddr: 0x127C, symBinAddr: 0x100002620, symSize: 0x28 }
  - { offsetInCU: 0x1697E, offset: 0x1697E, size: 0x8, addend: 0x0, symName: __ZNKSt3__114__split_bufferIP3CowNS_9allocatorIS2_EEE8capacityB7v160006Ev, symObjAddr: 0x12A4, symBinAddr: 0x100002648, symSize: 0x40 }
  - { offsetInCU: 0x169A4, offset: 0x169A4, size: 0x8, addend: 0x0, symName: __ZNSt3__114__split_bufferIP3CowNS_9allocatorIS2_EEE17__destruct_at_endB7v160006EPS2_, symObjAddr: 0x12E4, symBinAddr: 0x100002688, symSize: 0x2C }
  - { offsetInCU: 0x169D8, offset: 0x169D8, size: 0x8, addend: 0x0, symName: __ZNSt3__114__split_bufferIP3CowNS_9allocatorIS2_EEE17__destruct_at_endB7v160006EPS2_NS_17integral_constantIbLb0EEE, symObjAddr: 0x1310, symBinAddr: 0x1000026B4, symSize: 0x80 }
  - { offsetInCU: 0x16A18, offset: 0x16A18, size: 0x8, addend: 0x0, symName: __ZNSt3__116allocator_traitsINS_9allocatorIP3CowEEE7destroyB7v160006IS3_vEEvRS4_PT_, symObjAddr: 0x1390, symBinAddr: 0x100002734, symSize: 0x2C }
  - { offsetInCU: 0x16A55, offset: 0x16A55, size: 0x8, addend: 0x0, symName: __ZNSt3__19allocatorIP3CowE7destroyB7v160006EPS2_, symObjAddr: 0x13D0, symBinAddr: 0x100002774, symSize: 0x14 }
  - { offsetInCU: 0x16A89, offset: 0x16A89, size: 0x8, addend: 0x0, symName: __ZNSt3__19allocatorIP3CowE10deallocateB7v160006EPS2_m, symObjAddr: 0x13E4, symBinAddr: 0x100002788, symSize: 0x40 }
  - { offsetInCU: 0x16ACB, offset: 0x16ACB, size: 0x8, addend: 0x0, symName: __ZNSt3__117__compressed_pairIPP3CowNS_9allocatorIS2_EEE6secondB7v160006Ev, symObjAddr: 0x1424, symBinAddr: 0x1000027C8, symSize: 0x24 }
  - { offsetInCU: 0x16AF1, offset: 0x16AF1, size: 0x8, addend: 0x0, symName: __ZNSt3__122__compressed_pair_elemINS_9allocatorIP3CowEELi1ELb1EE5__getB7v160006Ev, symObjAddr: 0x1448, symBinAddr: 0x1000027EC, symSize: 0x14 }
  - { offsetInCU: 0x16B17, offset: 0x16B17, size: 0x8, addend: 0x0, symName: __ZNKSt3__114__split_bufferIP3CowNS_9allocatorIS2_EEE9__end_capB7v160006Ev, symObjAddr: 0x145C, symBinAddr: 0x100002800, symSize: 0x28 }
  - { offsetInCU: 0x16B3D, offset: 0x16B3D, size: 0x8, addend: 0x0, symName: __ZNKSt3__117__compressed_pairIPP3CowNS_9allocatorIS2_EEE5firstB7v160006Ev, symObjAddr: 0x1484, symBinAddr: 0x100002828, symSize: 0x24 }
  - { offsetInCU: 0x16B63, offset: 0x16B63, size: 0x8, addend: 0x0, symName: __ZNKSt3__122__compressed_pair_elemIPP3CowLi0ELb0EE5__getB7v160006Ev, symObjAddr: 0x14A8, symBinAddr: 0x10000284C, symSize: 0x14 }
  - { offsetInCU: 0x16B89, offset: 0x16B89, size: 0x8, addend: 0x0, symName: __ZNSt3__16vectorIiNS_9allocatorIiEEEC2B7v160006Ev, symObjAddr: 0x14BC, symBinAddr: 0x100002860, symSize: 0x58 }
  - { offsetInCU: 0x16BBF, offset: 0x16BBF, size: 0x8, addend: 0x0, symName: __ZNSt3__117__compressed_pairIPiNS_9allocatorIiEEEC1B7v160006IDnNS_18__default_init_tagEEEOT_OT0_, symObjAddr: 0x1514, symBinAddr: 0x1000028B8, symSize: 0x3C }
  - { offsetInCU: 0x16C17, offset: 0x16C17, size: 0x8, addend: 0x0, symName: __ZNSt3__117__compressed_pairIPiNS_9allocatorIiEEEC2B7v160006IDnNS_18__default_init_tagEEEOT_OT0_, symObjAddr: 0x1560, symBinAddr: 0x100002904, symSize: 0x40 }
  - { offsetInCU: 0x16C6F, offset: 0x16C6F, size: 0x8, addend: 0x0, symName: __ZNSt3__122__compressed_pair_elemIPiLi0ELb0EEC2B7v160006IDnvEEOT_, symObjAddr: 0x15A0, symBinAddr: 0x100002944, symSize: 0x1C }
  - { offsetInCU: 0x16CB1, offset: 0x16CB1, size: 0x8, addend: 0x0, symName: __ZNSt3__122__compressed_pair_elemINS_9allocatorIiEELi1ELb1EEC2B7v160006ENS_18__default_init_tagE, symObjAddr: 0x15BC, symBinAddr: 0x100002960, symSize: 0x2C }
  - { offsetInCU: 0x16CE5, offset: 0x16CE5, size: 0x8, addend: 0x0, symName: __ZNSt3__19allocatorIiEC2B7v160006Ev, symObjAddr: 0x15E8, symBinAddr: 0x10000298C, symSize: 0x2C }
  - { offsetInCU: 0x16D0F, offset: 0x16D0F, size: 0x8, addend: 0x0, symName: __ZNSt3__116__non_trivial_ifILb1ENS_9allocatorIiEEEC2B7v160006Ev, symObjAddr: 0x1614, symBinAddr: 0x1000029B8, symSize: 0x14 }
  - { offsetInCU: 0x16D39, offset: 0x16D39, size: 0x8, addend: 0x0, symName: __ZNSt3__16vectorIiNS_9allocatorIiEEED2B7v160006Ev, symObjAddr: 0x1628, symBinAddr: 0x1000029CC, symSize: 0x44 }
  - { offsetInCU: 0x16D63, offset: 0x16D63, size: 0x8, addend: 0x0, symName: __ZNSt3__16vectorIiNS_9allocatorIiEEE16__destroy_vectorC1ERS3_, symObjAddr: 0x166C, symBinAddr: 0x100002A10, symSize: 0x34 }
  - { offsetInCU: 0x16D9C, offset: 0x16D9C, size: 0x8, addend: 0x0, symName: __ZNSt3__16vectorIiNS_9allocatorIiEEE16__destroy_vectorclB7v160006Ev, symObjAddr: 0x16A0, symBinAddr: 0x100002A44, symSize: 0x9C }
  - { offsetInCU: 0x16DC2, offset: 0x16DC2, size: 0x8, addend: 0x0, symName: __ZNSt3__16vectorIiNS_9allocatorIiEEE16__destroy_vectorC2ERS3_, symObjAddr: 0x173C, symBinAddr: 0x100002AE0, symSize: 0x20 }
  - { offsetInCU: 0x16DFB, offset: 0x16DFB, size: 0x8, addend: 0x0, symName: __ZNKSt3__16vectorIiNS_9allocatorIiEEE17__annotate_deleteB7v160006Ev, symObjAddr: 0x175C, symBinAddr: 0x100002B00, symSize: 0xB8 }
  - { offsetInCU: 0x16E21, offset: 0x16E21, size: 0x8, addend: 0x0, symName: __ZNSt3__16vectorIiNS_9allocatorIiEEE7__clearB7v160006Ev, symObjAddr: 0x1824, symBinAddr: 0x100002BC8, symSize: 0x28 }
  - { offsetInCU: 0x16E47, offset: 0x16E47, size: 0x8, addend: 0x0, symName: __ZNSt3__116allocator_traitsINS_9allocatorIiEEE10deallocateB7v160006ERS2_Pim, symObjAddr: 0x184C, symBinAddr: 0x100002BF0, symSize: 0x34 }
  - { offsetInCU: 0x16E89, offset: 0x16E89, size: 0x8, addend: 0x0, symName: __ZNSt3__16vectorIiNS_9allocatorIiEEE7__allocB7v160006Ev, symObjAddr: 0x1880, symBinAddr: 0x100002C24, symSize: 0x28 }
  - { offsetInCU: 0x16EAF, offset: 0x16EAF, size: 0x8, addend: 0x0, symName: __ZNKSt3__16vectorIiNS_9allocatorIiEEE8capacityB7v160006Ev, symObjAddr: 0x18A8, symBinAddr: 0x100002C4C, symSize: 0x40 }
  - { offsetInCU: 0x16ED5, offset: 0x16ED5, size: 0x8, addend: 0x0, symName: __ZNKSt3__16vectorIiNS_9allocatorIiEEE31__annotate_contiguous_containerB7v160006EPKvS5_S5_S5_, symObjAddr: 0x18E8, symBinAddr: 0x100002C8C, symSize: 0x20 }
  - { offsetInCU: 0x16F27, offset: 0x16F27, size: 0x8, addend: 0x0, symName: __ZNKSt3__16vectorIiNS_9allocatorIiEEE4dataB7v160006Ev, symObjAddr: 0x1908, symBinAddr: 0x100002CAC, symSize: 0x28 }
  - { offsetInCU: 0x16F4D, offset: 0x16F4D, size: 0x8, addend: 0x0, symName: __ZNKSt3__16vectorIiNS_9allocatorIiEEE4sizeB7v160006Ev, symObjAddr: 0x1930, symBinAddr: 0x100002CD4, symSize: 0x28 }
  - { offsetInCU: 0x16F73, offset: 0x16F73, size: 0x8, addend: 0x0, symName: __ZNSt3__16vectorIiNS_9allocatorIiEEE22__base_destruct_at_endB7v160006EPi, symObjAddr: 0x196C, symBinAddr: 0x100002D10, symSize: 0x8C }
  - { offsetInCU: 0x16FB7, offset: 0x16FB7, size: 0x8, addend: 0x0, symName: __ZNSt3__116allocator_traitsINS_9allocatorIiEEE7destroyB7v160006IivEEvRS2_PT_, symObjAddr: 0x19F8, symBinAddr: 0x100002D9C, symSize: 0x2C }
  - { offsetInCU: 0x16FF4, offset: 0x16FF4, size: 0x8, addend: 0x0, symName: __ZNSt3__19allocatorIiE7destroyB7v160006EPi, symObjAddr: 0x1A24, symBinAddr: 0x100002DC8, symSize: 0x14 }
  - { offsetInCU: 0x17028, offset: 0x17028, size: 0x8, addend: 0x0, symName: __ZNSt3__19allocatorIiE10deallocateB7v160006EPim, symObjAddr: 0x1A38, symBinAddr: 0x100002DDC, symSize: 0x40 }
  - { offsetInCU: 0x1706A, offset: 0x1706A, size: 0x8, addend: 0x0, symName: __ZNSt3__117__compressed_pairIPiNS_9allocatorIiEEE6secondB7v160006Ev, symObjAddr: 0x1A78, symBinAddr: 0x100002E1C, symSize: 0x24 }
  - { offsetInCU: 0x17090, offset: 0x17090, size: 0x8, addend: 0x0, symName: __ZNSt3__122__compressed_pair_elemINS_9allocatorIiEELi1ELb1EE5__getB7v160006Ev, symObjAddr: 0x1A9C, symBinAddr: 0x100002E40, symSize: 0x14 }
  - { offsetInCU: 0x170B6, offset: 0x170B6, size: 0x8, addend: 0x0, symName: __ZNKSt3__16vectorIiNS_9allocatorIiEEE9__end_capB7v160006Ev, symObjAddr: 0x1AB0, symBinAddr: 0x100002E54, symSize: 0x28 }
  - { offsetInCU: 0x170DC, offset: 0x170DC, size: 0x8, addend: 0x0, symName: __ZNKSt3__117__compressed_pairIPiNS_9allocatorIiEEE5firstB7v160006Ev, symObjAddr: 0x1AD8, symBinAddr: 0x100002E7C, symSize: 0x24 }
  - { offsetInCU: 0x17102, offset: 0x17102, size: 0x8, addend: 0x0, symName: __ZNKSt3__122__compressed_pair_elemIPiLi0ELb0EE5__getB7v160006Ev, symObjAddr: 0x1AFC, symBinAddr: 0x100002EA0, symSize: 0x14 }
  - { offsetInCU: 0x17128, offset: 0x17128, size: 0x8, addend: 0x0, symName: __ZNSt3__15stackI3CowNS_5dequeIS1_NS_9allocatorIS1_EEEEEC2B7v160006Ev, symObjAddr: 0x1B10, symBinAddr: 0x100002EB4, symSize: 0x2C }
  - { offsetInCU: 0x17152, offset: 0x17152, size: 0x8, addend: 0x0, symName: __ZNSt3__15dequeI3CowNS_9allocatorIS1_EEEC1B7v160006Ev, symObjAddr: 0x1B3C, symBinAddr: 0x100002EE0, symSize: 0x2C }
  - { offsetInCU: 0x1717C, offset: 0x1717C, size: 0x8, addend: 0x0, symName: __ZNSt3__15dequeI3CowNS_9allocatorIS1_EEEC2B7v160006Ev, symObjAddr: 0x1B68, symBinAddr: 0x100002F0C, symSize: 0x50 }
  - { offsetInCU: 0x171A6, offset: 0x171A6, size: 0x8, addend: 0x0, symName: __ZNSt3__114__split_bufferIP3CowNS_9allocatorIS2_EEEC1Ev, symObjAddr: 0x1BB8, symBinAddr: 0x100002F5C, symSize: 0x2C }
  - { offsetInCU: 0x171D8, offset: 0x171D8, size: 0x8, addend: 0x0, symName: __ZNSt3__117__compressed_pairImNS_9allocatorI3CowEEEC1B7v160006IiNS_18__default_init_tagEEEOT_OT0_, symObjAddr: 0x1BE4, symBinAddr: 0x100002F88, symSize: 0x3C }
  - { offsetInCU: 0x17230, offset: 0x17230, size: 0x8, addend: 0x0, symName: __ZNSt3__114__split_bufferIP3CowNS_9allocatorIS2_EEEC2Ev, symObjAddr: 0x1C20, symBinAddr: 0x100002FC4, symSize: 0x50 }
  - { offsetInCU: 0x1725C, offset: 0x1725C, size: 0x8, addend: 0x0, symName: __ZNSt3__117__compressed_pairIPP3CowNS_9allocatorIS2_EEEC1B7v160006IDnNS_18__default_init_tagEEEOT_OT0_, symObjAddr: 0x1C70, symBinAddr: 0x100003014, symSize: 0x3C }
  - { offsetInCU: 0x172B4, offset: 0x172B4, size: 0x8, addend: 0x0, symName: __ZNSt3__117__compressed_pairIPP3CowNS_9allocatorIS2_EEEC2B7v160006IDnNS_18__default_init_tagEEEOT_OT0_, symObjAddr: 0x1CAC, symBinAddr: 0x100003050, symSize: 0x40 }
  - { offsetInCU: 0x1730C, offset: 0x1730C, size: 0x8, addend: 0x0, symName: __ZNSt3__122__compressed_pair_elemIPP3CowLi0ELb0EEC2B7v160006IDnvEEOT_, symObjAddr: 0x1CEC, symBinAddr: 0x100003090, symSize: 0x1C }
  - { offsetInCU: 0x1734E, offset: 0x1734E, size: 0x8, addend: 0x0, symName: __ZNSt3__122__compressed_pair_elemINS_9allocatorIP3CowEELi1ELb1EEC2B7v160006ENS_18__default_init_tagE, symObjAddr: 0x1D08, symBinAddr: 0x1000030AC, symSize: 0x2C }
  - { offsetInCU: 0x17382, offset: 0x17382, size: 0x8, addend: 0x0, symName: __ZNSt3__19allocatorIP3CowEC2B7v160006Ev, symObjAddr: 0x1D34, symBinAddr: 0x1000030D8, symSize: 0x2C }
  - { offsetInCU: 0x173AC, offset: 0x173AC, size: 0x8, addend: 0x0, symName: __ZNSt3__116__non_trivial_ifILb1ENS_9allocatorIP3CowEEEC2B7v160006Ev, symObjAddr: 0x1D60, symBinAddr: 0x100003104, symSize: 0x14 }
  - { offsetInCU: 0x173D6, offset: 0x173D6, size: 0x8, addend: 0x0, symName: __ZNSt3__117__compressed_pairImNS_9allocatorI3CowEEEC2B7v160006IiNS_18__default_init_tagEEEOT_OT0_, symObjAddr: 0x1D74, symBinAddr: 0x100003118, symSize: 0x40 }
  - { offsetInCU: 0x1742E, offset: 0x1742E, size: 0x8, addend: 0x0, symName: __ZNSt3__122__compressed_pair_elemImLi0ELb0EEC2B7v160006IivEEOT_, symObjAddr: 0x1DB4, symBinAddr: 0x100003158, symSize: 0x24 }
  - { offsetInCU: 0x17470, offset: 0x17470, size: 0x8, addend: 0x0, symName: __ZNSt3__122__compressed_pair_elemINS_9allocatorI3CowEELi1ELb1EEC2B7v160006ENS_18__default_init_tagE, symObjAddr: 0x1DD8, symBinAddr: 0x10000317C, symSize: 0x2C }
  - { offsetInCU: 0x174A4, offset: 0x174A4, size: 0x8, addend: 0x0, symName: __ZNSt3__19allocatorI3CowEC2B7v160006Ev, symObjAddr: 0x1E04, symBinAddr: 0x1000031A8, symSize: 0x2C }
  - { offsetInCU: 0x174CE, offset: 0x174CE, size: 0x8, addend: 0x0, symName: __ZNSt3__116__non_trivial_ifILb1ENS_9allocatorI3CowEEEC2B7v160006Ev, symObjAddr: 0x1E30, symBinAddr: 0x1000031D4, symSize: 0x14 }
  - { offsetInCU: 0x174F8, offset: 0x174F8, size: 0x8, addend: 0x0, symName: __ZNSt3__19basic_iosIcNS_11char_traitsIcEEEC2B7v160006Ev, symObjAddr: 0x1E44, symBinAddr: 0x1000031E8, symSize: 0x44 }
  - { offsetInCU: 0x17522, offset: 0x17522, size: 0x8, addend: 0x0, symName: __ZNSt3__113basic_istreamIcNS_11char_traitsIcEEEC2B7v160006EPNS_15basic_streambufIcS2_EE, symObjAddr: 0x1E88, symBinAddr: 0x10000322C, symSize: 0x64 }
  - { offsetInCU: 0x17567, offset: 0x17567, size: 0x8, addend: 0x0, symName: __ZNSt3__19basic_iosIcNS_11char_traitsIcEEE8setstateB7v160006Ej, symObjAddr: 0x1EEC, symBinAddr: 0x100003290, symSize: 0x2C }
  - { offsetInCU: 0x1759C, offset: 0x1759C, size: 0x8, addend: 0x0, symName: __ZNSt3__18ios_baseC2B7v160006Ev, symObjAddr: 0x1F18, symBinAddr: 0x1000032BC, symSize: 0x24 }
  - { offsetInCU: 0x175C6, offset: 0x175C6, size: 0x8, addend: 0x0, symName: __ZNSt3__19basic_iosIcNS_11char_traitsIcEEE4initB7v160006EPNS_15basic_streambufIcS2_EE, symObjAddr: 0x1F3C, symBinAddr: 0x1000032E0, symSize: 0x44 }
  - { offsetInCU: 0x175FD, offset: 0x175FD, size: 0x8, addend: 0x0, symName: __ZNSt3__111char_traitsIcE3eofEv, symObjAddr: 0x1F80, symBinAddr: 0x100003324, symSize: 0x8 }
  - { offsetInCU: 0x17611, offset: 0x17611, size: 0x8, addend: 0x0, symName: __ZNSt3__18ios_base8setstateB7v160006Ej, symObjAddr: 0x1F88, symBinAddr: 0x10000332C, symSize: 0x34 }
  - { offsetInCU: 0x17648, offset: 0x17648, size: 0x8, addend: 0x0, symName: __ZNSt3__16vectorIiNS_9allocatorIiEEE9__end_capB7v160006Ev, symObjAddr: 0x1FBC, symBinAddr: 0x100003360, symSize: 0x28 }
  - { offsetInCU: 0x1766E, offset: 0x1766E, size: 0x8, addend: 0x0, symName: __ZNSt3__16vectorIiNS_9allocatorIiEEE22__construct_one_at_endB7v160006IJiEEEvDpOT_, symObjAddr: 0x1FE4, symBinAddr: 0x100003388, symSize: 0x90 }
  - { offsetInCU: 0x176BD, offset: 0x176BD, size: 0x8, addend: 0x0, symName: __ZNSt3__16vectorIiNS_9allocatorIiEEE21__push_back_slow_pathIiEEvOT_, symObjAddr: 0x2074, symBinAddr: 0x100003418, symSize: 0xD8 }
  - { offsetInCU: 0x1771B, offset: 0x1771B, size: 0x8, addend: 0x0, symName: __ZNSt3__117__compressed_pairIPiNS_9allocatorIiEEE5firstB7v160006Ev, symObjAddr: 0x214C, symBinAddr: 0x1000034F0, symSize: 0x24 }
  - { offsetInCU: 0x17741, offset: 0x17741, size: 0x8, addend: 0x0, symName: __ZNSt3__122__compressed_pair_elemIPiLi0ELb0EE5__getB7v160006Ev, symObjAddr: 0x2170, symBinAddr: 0x100003514, symSize: 0x14 }
  - { offsetInCU: 0x17780, offset: 0x17780, size: 0x8, addend: 0x0, symName: __ZNSt3__16vectorIiNS_9allocatorIiEEE21_ConstructTransactionC1B7v160006ERS3_m, symObjAddr: 0x2184, symBinAddr: 0x100003528, symSize: 0x3C }
  - { offsetInCU: 0x177C8, offset: 0x177C8, size: 0x8, addend: 0x0, symName: __ZNSt3__116allocator_traitsINS_9allocatorIiEEE9constructB7v160006IiJiEvEEvRS2_PT_DpOT0_, symObjAddr: 0x21C0, symBinAddr: 0x100003564, symSize: 0x34 }
  - { offsetInCU: 0x1781F, offset: 0x1781F, size: 0x8, addend: 0x0, symName: __ZNSt3__16vectorIiNS_9allocatorIiEEE21_ConstructTransactionD1B7v160006Ev, symObjAddr: 0x21F4, symBinAddr: 0x100003598, symSize: 0x2C }
  - { offsetInCU: 0x17849, offset: 0x17849, size: 0x8, addend: 0x0, symName: __ZNSt3__16vectorIiNS_9allocatorIiEEE21_ConstructTransactionC2B7v160006ERS3_m, symObjAddr: 0x2220, symBinAddr: 0x1000035C4, symSize: 0x44 }
  - { offsetInCU: 0x17891, offset: 0x17891, size: 0x8, addend: 0x0, symName: __ZNSt3__19allocatorIiE9constructB7v160006IiJiEEEvPT_DpOT0_, symObjAddr: 0x2264, symBinAddr: 0x100003608, symSize: 0x28 }
  - { offsetInCU: 0x178E7, offset: 0x178E7, size: 0x8, addend: 0x0, symName: __ZNSt3__16vectorIiNS_9allocatorIiEEE21_ConstructTransactionD2B7v160006Ev, symObjAddr: 0x228C, symBinAddr: 0x100003630, symSize: 0x20 }
  - { offsetInCU: 0x17911, offset: 0x17911, size: 0x8, addend: 0x0, symName: __ZNKSt3__16vectorIiNS_9allocatorIiEEE11__recommendB7v160006Em, symObjAddr: 0x22AC, symBinAddr: 0x100003650, symSize: 0xB4 }
  - { offsetInCU: 0x17966, offset: 0x17966, size: 0x8, addend: 0x0, symName: __ZNSt3__114__split_bufferIiRNS_9allocatorIiEEEC1EmmS3_, symObjAddr: 0x2360, symBinAddr: 0x100003704, symSize: 0x44 }
  - { offsetInCU: 0x179BC, offset: 0x179BC, size: 0x8, addend: 0x0, symName: __ZNSt3__114__split_bufferIiRNS_9allocatorIiEEED1Ev, symObjAddr: 0x24BC, symBinAddr: 0x100003860, symSize: 0x2C }
  - { offsetInCU: 0x179E8, offset: 0x179E8, size: 0x8, addend: 0x0, symName: __ZNKSt3__16vectorIiNS_9allocatorIiEEE8max_sizeEv, symObjAddr: 0x24E8, symBinAddr: 0x10000388C, symSize: 0x60 }
  - { offsetInCU: 0x17A10, offset: 0x17A10, size: 0x8, addend: 0x0, symName: __ZNKSt3__16vectorIiNS_9allocatorIiEEE20__throw_length_errorB7v160006Ev, symObjAddr: 0x2548, symBinAddr: 0x1000038EC, symSize: 0x1C }
  - { offsetInCU: 0x17A40, offset: 0x17A40, size: 0x8, addend: 0x0, symName: __ZNSt3__116allocator_traitsINS_9allocatorIiEEE8max_sizeB7v160006IS2_vEEmRKS2_, symObjAddr: 0x25BC, symBinAddr: 0x100003960, symSize: 0x24 }
  - { offsetInCU: 0x17A6E, offset: 0x17A6E, size: 0x8, addend: 0x0, symName: __ZNKSt3__16vectorIiNS_9allocatorIiEEE7__allocB7v160006Ev, symObjAddr: 0x25E0, symBinAddr: 0x100003984, symSize: 0x28 }
  - { offsetInCU: 0x17A94, offset: 0x17A94, size: 0x8, addend: 0x0, symName: __ZNSt3__114numeric_limitsIlE3maxB7v160006Ev, symObjAddr: 0x2608, symBinAddr: 0x1000039AC, symSize: 0x14 }
  - { offsetInCU: 0x17AB2, offset: 0x17AB2, size: 0x8, addend: 0x0, symName: __ZNKSt3__16__lessImmEclB7v160006ERKmS3_, symObjAddr: 0x2670, symBinAddr: 0x100003A14, symSize: 0x34 }
  - { offsetInCU: 0x17AF4, offset: 0x17AF4, size: 0x8, addend: 0x0, symName: __ZNKSt3__19allocatorIiE8max_sizeB7v160006Ev, symObjAddr: 0x26A4, symBinAddr: 0x100003A48, symSize: 0x14 }
  - { offsetInCU: 0x17B1A, offset: 0x17B1A, size: 0x8, addend: 0x0, symName: __ZNKSt3__117__compressed_pairIPiNS_9allocatorIiEEE6secondB7v160006Ev, symObjAddr: 0x26B8, symBinAddr: 0x100003A5C, symSize: 0x24 }
  - { offsetInCU: 0x17B40, offset: 0x17B40, size: 0x8, addend: 0x0, symName: __ZNKSt3__122__compressed_pair_elemINS_9allocatorIiEELi1ELb1EE5__getB7v160006Ev, symObjAddr: 0x26DC, symBinAddr: 0x100003A80, symSize: 0x14 }
  - { offsetInCU: 0x17B66, offset: 0x17B66, size: 0x8, addend: 0x0, symName: __ZNSt3__123__libcpp_numeric_limitsIlLb1EE3maxB7v160006Ev, symObjAddr: 0x26F0, symBinAddr: 0x100003A94, symSize: 0x8 }
  - { offsetInCU: 0x17B7A, offset: 0x17B7A, size: 0x8, addend: 0x0, symName: __ZNSt12length_errorC1B7v160006EPKc, symObjAddr: 0x275C, symBinAddr: 0x100003B00, symSize: 0x34 }
  - { offsetInCU: 0x17BB2, offset: 0x17BB2, size: 0x8, addend: 0x0, symName: __ZNSt12length_errorC2B7v160006EPKc, symObjAddr: 0x2790, symBinAddr: 0x100003B34, symSize: 0x4C }
  - { offsetInCU: 0x17BEA, offset: 0x17BEA, size: 0x8, addend: 0x0, symName: __ZNSt3__114__split_bufferIiRNS_9allocatorIiEEEC2EmmS3_, symObjAddr: 0x2830, symBinAddr: 0x100003BD4, symSize: 0xD4 }
  - { offsetInCU: 0x17C5D, offset: 0x17C5D, size: 0x8, addend: 0x0, symName: __ZNSt3__117__compressed_pairIPiRNS_9allocatorIiEEEC1B7v160006IDnS4_EEOT_OT0_, symObjAddr: 0x2904, symBinAddr: 0x100003CA8, symSize: 0x3C }
  - { offsetInCU: 0x17CB5, offset: 0x17CB5, size: 0x8, addend: 0x0, symName: __ZNSt3__114__split_bufferIiRNS_9allocatorIiEEE7__allocB7v160006Ev, symObjAddr: 0x2980, symBinAddr: 0x100003D24, symSize: 0x28 }
  - { offsetInCU: 0x17CDB, offset: 0x17CDB, size: 0x8, addend: 0x0, symName: __ZNSt3__114__split_bufferIiRNS_9allocatorIiEEE9__end_capB7v160006Ev, symObjAddr: 0x29A8, symBinAddr: 0x100003D4C, symSize: 0x28 }
  - { offsetInCU: 0x17D01, offset: 0x17D01, size: 0x8, addend: 0x0, symName: __ZNSt3__117__compressed_pairIPiRNS_9allocatorIiEEEC2B7v160006IDnS4_EEOT_OT0_, symObjAddr: 0x29D0, symBinAddr: 0x100003D74, symSize: 0x48 }
  - { offsetInCU: 0x17D59, offset: 0x17D59, size: 0x8, addend: 0x0, symName: __ZNSt3__122__compressed_pair_elemIRNS_9allocatorIiEELi1ELb0EEC2B7v160006IS3_vEEOT_, symObjAddr: 0x2A18, symBinAddr: 0x100003DBC, symSize: 0x20 }
  - { offsetInCU: 0x17D9B, offset: 0x17D9B, size: 0x8, addend: 0x0, symName: __ZNSt3__19allocatorIiE8allocateB7v160006Em, symObjAddr: 0x2A38, symBinAddr: 0x100003DDC, symSize: 0x58 }
  - { offsetInCU: 0x17DCF, offset: 0x17DCF, size: 0x8, addend: 0x0, symName: __ZNSt3__117__compressed_pairIPiRNS_9allocatorIiEEE6secondB7v160006Ev, symObjAddr: 0x2B74, symBinAddr: 0x100003F18, symSize: 0x28 }
  - { offsetInCU: 0x17DF5, offset: 0x17DF5, size: 0x8, addend: 0x0, symName: __ZNSt3__122__compressed_pair_elemIRNS_9allocatorIiEELi1ELb0EE5__getB7v160006Ev, symObjAddr: 0x2B9C, symBinAddr: 0x100003F40, symSize: 0x18 }
  - { offsetInCU: 0x17E1B, offset: 0x17E1B, size: 0x8, addend: 0x0, symName: __ZNSt3__117__compressed_pairIPiRNS_9allocatorIiEEE5firstB7v160006Ev, symObjAddr: 0x2BB4, symBinAddr: 0x100003F58, symSize: 0x24 }
  - { offsetInCU: 0x17E41, offset: 0x17E41, size: 0x8, addend: 0x0, symName: __ZNSt3__116reverse_iteratorIPiEC1B7v160006ES1_, symObjAddr: 0x2C50, symBinAddr: 0x100003FF4, symSize: 0x34 }
  - { offsetInCU: 0x17E79, offset: 0x17E79, size: 0x8, addend: 0x0, symName: __ZNKSt3__116reverse_iteratorIPiE4baseB7v160006Ev, symObjAddr: 0x2C84, symBinAddr: 0x100004028, symSize: 0x18 }
  - { offsetInCU: 0x17E9F, offset: 0x17E9F, size: 0x8, addend: 0x0, symName: __ZNKSt3__16vectorIiNS_9allocatorIiEEE14__annotate_newB7v160006Em, symObjAddr: 0x2CD8, symBinAddr: 0x10000407C, symSize: 0xAC }
  - { offsetInCU: 0x17EF8, offset: 0x17EF8, size: 0x8, addend: 0x0, symName: __ZNKSt3__111__move_loopINS_17_ClassicAlgPolicyEEclB7v160006INS_16reverse_iteratorIPiEES6_S6_EENS_4pairIT_T1_EES8_T0_S9_, symObjAddr: 0x3084, symBinAddr: 0x100004428, symSize: 0xA0 }
  - { offsetInCU: 0x17F63, offset: 0x17F63, size: 0x8, addend: 0x0, symName: __ZNSt3__18_IterOpsINS_17_ClassicAlgPolicyEE11__iter_moveB7v160006IRNS_16reverse_iteratorIPiEEEENS_9enable_ifIXsr12is_referenceIDTdeclsr3stdE7declvalIRT_EEEEE5valueEDTclsr3stdE4movedeclsr3stdE7declvalISA_EEEEE4typeEOS9_, symObjAddr: 0x32B8, symBinAddr: 0x10000465C, symSize: 0x28 }
  - { offsetInCU: 0x17F8F, offset: 0x17F8F, size: 0x8, addend: 0x0, symName: __ZNKSt3__116reverse_iteratorIPiEdeB7v160006Ev, symObjAddr: 0x32E0, symBinAddr: 0x100004684, symSize: 0x28 }
  - { offsetInCU: 0x17FC3, offset: 0x17FC3, size: 0x8, addend: 0x0, symName: __ZNSt3__116reverse_iteratorIPiEppB7v160006Ev, symObjAddr: 0x3308, symBinAddr: 0x1000046AC, symSize: 0x20 }
  - { offsetInCU: 0x17FE9, offset: 0x17FE9, size: 0x8, addend: 0x0, symName: __ZNSt3__18_IterOpsINS_17_ClassicAlgPolicyEE25__validate_iter_referenceB7v160006IRNS_16reverse_iteratorIPiEEEEvv, symObjAddr: 0x3328, symBinAddr: 0x1000046CC, symSize: 0x4 }
  - { offsetInCU: 0x18007, offset: 0x18007, size: 0x8, addend: 0x0, symName: __ZNSt3__118__unwrap_iter_implINS_16reverse_iteratorIPiEELb0EE8__unwrapB7v160006ES3_, symObjAddr: 0x332C, symBinAddr: 0x1000046D0, symSize: 0x24 }
  - { offsetInCU: 0x18030, offset: 0x18030, size: 0x8, addend: 0x0, symName: __ZNSt3__14pairINS_16reverse_iteratorIPiEES3_EC1B7v160006IS3_S3_LPv0EEEOT_OT0_, symObjAddr: 0x3350, symBinAddr: 0x1000046F4, symSize: 0x3C }
  - { offsetInCU: 0x1808E, offset: 0x1808E, size: 0x8, addend: 0x0, symName: __ZNSt3__14pairINS_16reverse_iteratorIPiEES3_EC2B7v160006IS3_S3_LPv0EEEOT_OT0_, symObjAddr: 0x338C, symBinAddr: 0x100004730, symSize: 0x34 }
  - { offsetInCU: 0x180EC, offset: 0x180EC, size: 0x8, addend: 0x0, symName: __ZNSt3__118__unwrap_iter_implINS_16reverse_iteratorIPiEELb0EE8__rewrapB7v160006ES3_S3_, symObjAddr: 0x33C0, symBinAddr: 0x100004764, symSize: 0x2C }
  - { offsetInCU: 0x18119, offset: 0x18119, size: 0x8, addend: 0x0, symName: __ZNSt3__116reverse_iteratorIPiEC2B7v160006ES1_, symObjAddr: 0x33EC, symBinAddr: 0x100004790, symSize: 0x28 }
  - { offsetInCU: 0x18151, offset: 0x18151, size: 0x8, addend: 0x0, symName: __ZNSt3__114__split_bufferIiRNS_9allocatorIiEEED2Ev, symObjAddr: 0x3414, symBinAddr: 0x1000047B8, symSize: 0x8C }
  - { offsetInCU: 0x1817D, offset: 0x1817D, size: 0x8, addend: 0x0, symName: __ZNSt3__114__split_bufferIiRNS_9allocatorIiEEE5clearB7v160006Ev, symObjAddr: 0x34A0, symBinAddr: 0x100004844, symSize: 0x28 }
  - { offsetInCU: 0x181A3, offset: 0x181A3, size: 0x8, addend: 0x0, symName: __ZNKSt3__114__split_bufferIiRNS_9allocatorIiEEE8capacityB7v160006Ev, symObjAddr: 0x34C8, symBinAddr: 0x10000486C, symSize: 0x40 }
  - { offsetInCU: 0x181C9, offset: 0x181C9, size: 0x8, addend: 0x0, symName: __ZNSt3__114__split_bufferIiRNS_9allocatorIiEEE17__destruct_at_endB7v160006EPi, symObjAddr: 0x3508, symBinAddr: 0x1000048AC, symSize: 0x2C }
  - { offsetInCU: 0x181FD, offset: 0x181FD, size: 0x8, addend: 0x0, symName: __ZNSt3__114__split_bufferIiRNS_9allocatorIiEEE17__destruct_at_endB7v160006EPiNS_17integral_constantIbLb0EEE, symObjAddr: 0x3534, symBinAddr: 0x1000048D8, symSize: 0x80 }
  - { offsetInCU: 0x1823D, offset: 0x1823D, size: 0x8, addend: 0x0, symName: __ZNKSt3__114__split_bufferIiRNS_9allocatorIiEEE9__end_capB7v160006Ev, symObjAddr: 0x35B4, symBinAddr: 0x100004958, symSize: 0x28 }
  - { offsetInCU: 0x18263, offset: 0x18263, size: 0x8, addend: 0x0, symName: __ZNKSt3__117__compressed_pairIPiRNS_9allocatorIiEEE5firstB7v160006Ev, symObjAddr: 0x35DC, symBinAddr: 0x100004980, symSize: 0x24 }
  - { offsetInCU: 0x18289, offset: 0x18289, size: 0x8, addend: 0x0, symName: __ZNSt3__16vectorIiNS_9allocatorIiEEE22__construct_one_at_endB7v160006IJRKiEEEvDpOT_, symObjAddr: 0x3600, symBinAddr: 0x1000049A4, symSize: 0x90 }
  - { offsetInCU: 0x182D8, offset: 0x182D8, size: 0x8, addend: 0x0, symName: __ZNSt3__16vectorIiNS_9allocatorIiEEE21__push_back_slow_pathIRKiEEvOT_, symObjAddr: 0x3690, symBinAddr: 0x100004A34, symSize: 0xD8 }
  - { offsetInCU: 0x18336, offset: 0x18336, size: 0x8, addend: 0x0, symName: __ZNSt3__116allocator_traitsINS_9allocatorIiEEE9constructB7v160006IiJRKiEvEEvRS2_PT_DpOT0_, symObjAddr: 0x3768, symBinAddr: 0x100004B0C, symSize: 0x34 }
  - { offsetInCU: 0x1838D, offset: 0x1838D, size: 0x8, addend: 0x0, symName: __ZNSt3__19allocatorIiE9constructB7v160006IiJRKiEEEvPT_DpOT0_, symObjAddr: 0x379C, symBinAddr: 0x100004B40, symSize: 0x28 }
  - { offsetInCU: 0x183E3, offset: 0x183E3, size: 0x8, addend: 0x0, symName: __ZNKSt3__15dequeI3CowNS_9allocatorIS1_EEE5emptyB7v160006Ev, symObjAddr: 0x37C4, symBinAddr: 0x100004B68, symSize: 0x30 }
  - { offsetInCU: 0x18409, offset: 0x18409, size: 0x8, addend: 0x0, symName: __ZNSt3__15dequeI3CowNS_9allocatorIS1_EEE4backEv, symObjAddr: 0x37F4, symBinAddr: 0x100004B98, symSize: 0x68 }
  - { offsetInCU: 0x18440, offset: 0x18440, size: 0x8, addend: 0x0, symName: __ZNSt3__15dequeI3CowNS_9allocatorIS1_EEE8pop_backEv, symObjAddr: 0x385C, symBinAddr: 0x100004C00, symSize: 0xB8 }
  - { offsetInCU: 0x18486, offset: 0x18486, size: 0x8, addend: 0x0, symName: __ZNSt3__15dequeI3CowNS_9allocatorIS1_EEE25__maybe_remove_back_spareB7v160006Eb, symObjAddr: 0x3928, symBinAddr: 0x100004CCC, symSize: 0xCC }
  - { offsetInCU: 0x184BB, offset: 0x184BB, size: 0x8, addend: 0x0, symName: __ZNKSt3__15dequeI3CowNS_9allocatorIS1_EEE19__back_spare_blocksB7v160006Ev, symObjAddr: 0x39F4, symBinAddr: 0x100004D98, symSize: 0x2C }
  - { offsetInCU: 0x184E1, offset: 0x184E1, size: 0x8, addend: 0x0, symName: __ZNSt3__114__split_bufferIP3CowNS_9allocatorIS2_EEE4backB7v160006Ev, symObjAddr: 0x3A20, symBinAddr: 0x100004DC4, symSize: 0x1C }
  - { offsetInCU: 0x18507, offset: 0x18507, size: 0x8, addend: 0x0, symName: __ZNSt3__114__split_bufferIP3CowNS_9allocatorIS2_EEE8pop_backB7v160006Ev, symObjAddr: 0x3A3C, symBinAddr: 0x100004DE0, symSize: 0x2C }
  - { offsetInCU: 0x1852D, offset: 0x1852D, size: 0x8, addend: 0x0, symName: __ZNKSt3__15dequeI3CowNS_9allocatorIS1_EEE12__back_spareB7v160006Ev, symObjAddr: 0x3A68, symBinAddr: 0x100004E0C, symSize: 0x54 }
  - { offsetInCU: 0x18553, offset: 0x18553, size: 0x8, addend: 0x0, symName: __ZNKSt3__15dequeI3CowNS_9allocatorIS1_EEE10__capacityB7v160006Ev, symObjAddr: 0x3ABC, symBinAddr: 0x100004E60, symSize: 0x60 }
  - { offsetInCU: 0x18579, offset: 0x18579, size: 0x8, addend: 0x0, symName: __ZNSt3__15dequeI3CowNS_9allocatorIS1_EEE9push_backEOS1_, symObjAddr: 0x3B1C, symBinAddr: 0x100004EC0, symSize: 0xA0 }
  - { offsetInCU: 0x185BF, offset: 0x185BF, size: 0x8, addend: 0x0, symName: __ZNSt3__15dequeI3CowNS_9allocatorIS1_EEE19__add_back_capacityEv, symObjAddr: 0x3BBC, symBinAddr: 0x100004F60, symSize: 0x314 }
  - { offsetInCU: 0x1867B, offset: 0x1867B, size: 0x8, addend: 0x0, symName: __ZNSt3__116allocator_traitsINS_9allocatorI3CowEEE9constructB7v160006IS2_JS2_EvEEvRS3_PT_DpOT0_, symObjAddr: 0x3ED0, symBinAddr: 0x100005274, symSize: 0x34 }
  - { offsetInCU: 0x186D2, offset: 0x186D2, size: 0x8, addend: 0x0, symName: __ZNKSt3__15dequeI3CowNS_9allocatorIS1_EEE13__front_spareB7v160006Ev, symObjAddr: 0x3F04, symBinAddr: 0x1000052A8, symSize: 0x18 }
  - { offsetInCU: 0x186F8, offset: 0x186F8, size: 0x8, addend: 0x0, symName: __ZNSt3__114__split_bufferIP3CowNS_9allocatorIS2_EEE9push_backB7v160006ERKS2_, symObjAddr: 0x3F1C, symBinAddr: 0x1000052C0, symSize: 0x260 }
  - { offsetInCU: 0x18771, offset: 0x18771, size: 0x8, addend: 0x0, symName: __ZNKSt3__114__split_bufferIP3CowNS_9allocatorIS2_EEE12__back_spareB7v160006Ev, symObjAddr: 0x417C, symBinAddr: 0x100005520, symSize: 0x40 }
  - { offsetInCU: 0x18797, offset: 0x18797, size: 0x8, addend: 0x0, symName: __ZNSt3__114__split_bufferIP3CowNS_9allocatorIS2_EEE9push_backEOS2_, symObjAddr: 0x41BC, symBinAddr: 0x100005560, symSize: 0x260 }
  - { offsetInCU: 0x18810, offset: 0x18810, size: 0x8, addend: 0x0, symName: __ZNSt3__116allocator_traitsINS_9allocatorI3CowEEE8allocateB7v160006ERS3_m, symObjAddr: 0x441C, symBinAddr: 0x1000057C0, symSize: 0x2C }
  - { offsetInCU: 0x18843, offset: 0x18843, size: 0x8, addend: 0x0, symName: __ZNSt3__114__split_bufferIP3CowNS_9allocatorIS2_EEE10push_frontEOS2_, symObjAddr: 0x4448, symBinAddr: 0x1000057EC, symSize: 0x25C }
  - { offsetInCU: 0x188BC, offset: 0x188BC, size: 0x8, addend: 0x0, symName: __ZNSt3__114__split_bufferIP3CowRNS_9allocatorIS2_EEEC1EmmS5_, symObjAddr: 0x46A4, symBinAddr: 0x100005A48, symSize: 0x44 }
  - { offsetInCU: 0x18917, offset: 0x18917, size: 0x8, addend: 0x0, symName: __ZNSt3__122__allocator_destructorINS_9allocatorI3CowEEEC1B7v160006ERS3_m, symObjAddr: 0x46E8, symBinAddr: 0x100005A8C, symSize: 0x3C }
  - { offsetInCU: 0x189DC, offset: 0x189DC, size: 0x8, addend: 0x0, symName: __ZNSt3__110unique_ptrIP3CowNS_22__allocator_destructorINS_9allocatorIS1_EEEEEC1B7v160006ILb1EvEES2_NS_16__dependent_typeINS_27__unique_ptr_deleter_sfinaeIS6_EEXT_EE20__good_rval_ref_typeE, symObjAddr: 0x4724, symBinAddr: 0x100005AC8, symSize: 0x3C }
  - { offsetInCU: 0x18A2D, offset: 0x18A2D, size: 0x8, addend: 0x0, symName: __ZNSt3__114__split_bufferIP3CowRNS_9allocatorIS2_EEE9push_backEOS2_, symObjAddr: 0x4760, symBinAddr: 0x100005B04, symSize: 0x260 }
  - { offsetInCU: 0x18AA6, offset: 0x18AA6, size: 0x8, addend: 0x0, symName: __ZNKSt3__110unique_ptrIP3CowNS_22__allocator_destructorINS_9allocatorIS1_EEEEE3getB7v160006Ev, symObjAddr: 0x49C0, symBinAddr: 0x100005D64, symSize: 0x28 }
  - { offsetInCU: 0x18ACC, offset: 0x18ACC, size: 0x8, addend: 0x0, symName: __ZNSt3__110unique_ptrIP3CowNS_22__allocator_destructorINS_9allocatorIS1_EEEEE7releaseB7v160006Ev, symObjAddr: 0x49E8, symBinAddr: 0x100005D8C, symSize: 0x44 }
  - { offsetInCU: 0x18B01, offset: 0x18B01, size: 0x8, addend: 0x0, symName: __ZNSt3__114__split_bufferIP3CowRNS_9allocatorIS2_EEE10push_frontERKS2_, symObjAddr: 0x4A2C, symBinAddr: 0x100005DD0, symSize: 0x25C }
  - { offsetInCU: 0x18B7A, offset: 0x18B7A, size: 0x8, addend: 0x0, symName: __ZNSt3__114__split_bufferIP3CowNS_9allocatorIS2_EEE9__end_capB7v160006Ev, symObjAddr: 0x4CC4, symBinAddr: 0x100006068, symSize: 0x28 }
  - { offsetInCU: 0x18BA0, offset: 0x18BA0, size: 0x8, addend: 0x0, symName: __ZNSt3__114__split_bufferIP3CowRNS_9allocatorIS2_EEE9__end_capB7v160006Ev, symObjAddr: 0x4CEC, symBinAddr: 0x100006090, symSize: 0x28 }
  - { offsetInCU: 0x18BC6, offset: 0x18BC6, size: 0x8, addend: 0x0, symName: __ZNSt3__110unique_ptrIP3CowNS_22__allocator_destructorINS_9allocatorIS1_EEEEED1B7v160006Ev, symObjAddr: 0x4D14, symBinAddr: 0x1000060B8, symSize: 0x2C }
  - { offsetInCU: 0x18BF0, offset: 0x18BF0, size: 0x8, addend: 0x0, symName: __ZNSt3__114__split_bufferIP3CowRNS_9allocatorIS2_EEED1Ev, symObjAddr: 0x4D40, symBinAddr: 0x1000060E4, symSize: 0x2C }
  - { offsetInCU: 0x18C1C, offset: 0x18C1C, size: 0x8, addend: 0x0, symName: __ZNSt3__114__split_bufferIP3CowRNS_9allocatorIS2_EEE18__construct_at_endINS_13move_iteratorIPS2_EEEENS_9enable_ifIXsr27__is_cpp17_forward_iteratorIT_EE5valueEvE4typeESC_SC_, symObjAddr: 0x4DAC, symBinAddr: 0x100006150, symSize: 0xFC }
  - { offsetInCU: 0x18C78, offset: 0x18C78, size: 0x8, addend: 0x0, symName: __ZNSt3__113move_iteratorIPP3CowEC1B7v160006ES3_, symObjAddr: 0x4EA8, symBinAddr: 0x10000624C, symSize: 0x34 }
  - { offsetInCU: 0x18CB0, offset: 0x18CB0, size: 0x8, addend: 0x0, symName: __ZNSt3__116allocator_traitsINS_9allocatorIP3CowEEE9constructB7v160006IS3_JRKS3_EvEEvRS4_PT_DpOT0_, symObjAddr: 0x4EDC, symBinAddr: 0x100006280, symSize: 0x34 }
  - { offsetInCU: 0x18D2B, offset: 0x18D2B, size: 0x8, addend: 0x0, symName: __ZNKSt3__114__move_trivialclB7v160006IP3CowS3_Li0EEENS_4pairIPT_PT0_EES6_S6_S8_, symObjAddr: 0x50AC, symBinAddr: 0x100006450, symSize: 0x48 }
  - { offsetInCU: 0x18D99, offset: 0x18D99, size: 0x8, addend: 0x0, symName: __ZNSt3__14pairIPP3CowS3_EC1B7v160006IRS3_S3_LPv0EEEOT_OT0_, symObjAddr: 0x5274, symBinAddr: 0x100006618, symSize: 0x3C }
  - { offsetInCU: 0x18DF7, offset: 0x18DF7, size: 0x8, addend: 0x0, symName: __ZNSt3__14pairIPP3CowS3_EC2B7v160006IRS3_S3_LPv0EEEOT_OT0_, symObjAddr: 0x52B0, symBinAddr: 0x100006654, symSize: 0x34 }
  - { offsetInCU: 0x18E55, offset: 0x18E55, size: 0x8, addend: 0x0, symName: __ZNSt3__118__unwrap_iter_implIPP3CowLb1EE8__unwrapB7v160006ES3_, symObjAddr: 0x52E4, symBinAddr: 0x100006688, symSize: 0x24 }
  - { offsetInCU: 0x18E78, offset: 0x18E78, size: 0x8, addend: 0x0, symName: __ZNSt3__14pairIPP3CowS3_EC1B7v160006IS3_S3_LPv0EEEOT_OT0_, symObjAddr: 0x5308, symBinAddr: 0x1000066AC, symSize: 0x3C }
  - { offsetInCU: 0x18ED6, offset: 0x18ED6, size: 0x8, addend: 0x0, symName: __ZNSt3__14pairIPP3CowS3_EC2B7v160006IS3_S3_LPv0EEEOT_OT0_, symObjAddr: 0x5344, symBinAddr: 0x1000066E8, symSize: 0x34 }
  - { offsetInCU: 0x18F34, offset: 0x18F34, size: 0x8, addend: 0x0, symName: __ZNSt3__118__unwrap_iter_implIPP3CowLb1EE8__rewrapB7v160006ES3_S3_, symObjAddr: 0x5378, symBinAddr: 0x10000671C, symSize: 0x50 }
  - { offsetInCU: 0x18F6F, offset: 0x18F6F, size: 0x8, addend: 0x0, symName: __ZNSt3__114__split_bufferIP3CowRNS_9allocatorIS2_EEE21_ConstructTransactionC1B7v160006EPPS2_m, symObjAddr: 0x5404, symBinAddr: 0x1000067A8, symSize: 0x3C }
  - { offsetInCU: 0x18FB5, offset: 0x18FB5, size: 0x8, addend: 0x0, symName: __ZNSt3__116allocator_traitsINS_9allocatorIP3CowEEE9constructB7v160006IS3_JS3_EvEEvRS4_PT_DpOT0_, symObjAddr: 0x5440, symBinAddr: 0x1000067E4, symSize: 0x34 }
  - { offsetInCU: 0x1900C, offset: 0x1900C, size: 0x8, addend: 0x0, symName: __ZNSt3__114__split_bufferIP3CowRNS_9allocatorIS2_EEE7__allocB7v160006Ev, symObjAddr: 0x5474, symBinAddr: 0x100006818, symSize: 0x28 }
  - { offsetInCU: 0x19032, offset: 0x19032, size: 0x8, addend: 0x0, symName: __ZNKSt3__113move_iteratorIPP3CowEdeB7v160006Ev, symObjAddr: 0x549C, symBinAddr: 0x100006840, symSize: 0x18 }
  - { offsetInCU: 0x19058, offset: 0x19058, size: 0x8, addend: 0x0, symName: __ZNSt3__113move_iteratorIPP3CowEppB7v160006Ev, symObjAddr: 0x54B4, symBinAddr: 0x100006858, symSize: 0x20 }
  - { offsetInCU: 0x1907E, offset: 0x1907E, size: 0x8, addend: 0x0, symName: __ZNSt3__114__split_bufferIP3CowRNS_9allocatorIS2_EEE21_ConstructTransactionD1B7v160006Ev, symObjAddr: 0x54D4, symBinAddr: 0x100006878, symSize: 0x2C }
  - { offsetInCU: 0x190A8, offset: 0x190A8, size: 0x8, addend: 0x0, symName: __ZNKSt3__113move_iteratorIPP3CowE4baseB7v160006Ev, symObjAddr: 0x5578, symBinAddr: 0x10000691C, symSize: 0x18 }
  - { offsetInCU: 0x190CE, offset: 0x190CE, size: 0x8, addend: 0x0, symName: __ZNSt3__114__split_bufferIP3CowRNS_9allocatorIS2_EEE21_ConstructTransactionC2B7v160006EPPS2_m, symObjAddr: 0x5590, symBinAddr: 0x100006934, symSize: 0x44 }
  - { offsetInCU: 0x19114, offset: 0x19114, size: 0x8, addend: 0x0, symName: __ZNSt3__19allocatorIP3CowE9constructB7v160006IS2_JS2_EEEvPT_DpOT0_, symObjAddr: 0x55D4, symBinAddr: 0x100006978, symSize: 0x28 }
  - { offsetInCU: 0x1916A, offset: 0x1916A, size: 0x8, addend: 0x0, symName: __ZNSt3__117__compressed_pairIPP3CowRNS_9allocatorIS2_EEE6secondB7v160006Ev, symObjAddr: 0x55FC, symBinAddr: 0x1000069A0, symSize: 0x28 }
  - { offsetInCU: 0x19190, offset: 0x19190, size: 0x8, addend: 0x0, symName: __ZNSt3__122__compressed_pair_elemIRNS_9allocatorIP3CowEELi1ELb0EE5__getB7v160006Ev, symObjAddr: 0x5624, symBinAddr: 0x1000069C8, symSize: 0x18 }
  - { offsetInCU: 0x191B6, offset: 0x191B6, size: 0x8, addend: 0x0, symName: __ZNSt3__114__split_bufferIP3CowRNS_9allocatorIS2_EEE21_ConstructTransactionD2B7v160006Ev, symObjAddr: 0x563C, symBinAddr: 0x1000069E0, symSize: 0x20 }
  - { offsetInCU: 0x191E0, offset: 0x191E0, size: 0x8, addend: 0x0, symName: __ZNSt3__113move_iteratorIPP3CowEC2B7v160006ES3_, symObjAddr: 0x565C, symBinAddr: 0x100006A00, symSize: 0x20 }
  - { offsetInCU: 0x19218, offset: 0x19218, size: 0x8, addend: 0x0, symName: __ZNSt3__19allocatorIP3CowE9constructB7v160006IS2_JRKS2_EEEvPT_DpOT0_, symObjAddr: 0x567C, symBinAddr: 0x100006A20, symSize: 0x28 }
  - { offsetInCU: 0x1926E, offset: 0x1926E, size: 0x8, addend: 0x0, symName: __ZNSt3__19allocatorI3CowE8allocateB7v160006Em, symObjAddr: 0x56A4, symBinAddr: 0x100006A48, symSize: 0x58 }
  - { offsetInCU: 0x192AC, offset: 0x192AC, size: 0x8, addend: 0x0, symName: __ZNSt3__116allocator_traitsINS_9allocatorI3CowEEE8max_sizeB7v160006IS3_vEEmRKS3_, symObjAddr: 0x56FC, symBinAddr: 0x100006AA0, symSize: 0x24 }
  - { offsetInCU: 0x192DA, offset: 0x192DA, size: 0x8, addend: 0x0, symName: __ZNKSt3__19allocatorI3CowE8max_sizeB7v160006Ev, symObjAddr: 0x5720, symBinAddr: 0x100006AC4, symSize: 0x14 }
  - { offsetInCU: 0x1930A, offset: 0x1930A, size: 0x8, addend: 0x0, symName: __ZNKSt3__123__move_backward_trivialclB7v160006IP3CowS3_Li0EEENS_4pairIPT_PT0_EES6_S6_S8_, symObjAddr: 0x58B0, symBinAddr: 0x100006C54, symSize: 0x48 }
  - { offsetInCU: 0x19372, offset: 0x19372, size: 0x8, addend: 0x0, symName: __ZNSt3__14pairIPP3CowS3_EC1B7v160006IRS3_S6_LPv0EEEOT_OT0_, symObjAddr: 0x59C4, symBinAddr: 0x100006D68, symSize: 0x3C }
  - { offsetInCU: 0x193D0, offset: 0x193D0, size: 0x8, addend: 0x0, symName: __ZNSt3__14pairIPP3CowS3_EC2B7v160006IRS3_S6_LPv0EEEOT_OT0_, symObjAddr: 0x5A00, symBinAddr: 0x100006DA4, symSize: 0x34 }
  - { offsetInCU: 0x1942E, offset: 0x1942E, size: 0x8, addend: 0x0, symName: __ZNSt3__114__split_bufferIP3CowRNS_9allocatorIS2_EEEC2EmmS5_, symObjAddr: 0x5A34, symBinAddr: 0x100006DD8, symSize: 0xD4 }
  - { offsetInCU: 0x194A1, offset: 0x194A1, size: 0x8, addend: 0x0, symName: __ZNSt3__117__compressed_pairIPP3CowRNS_9allocatorIS2_EEEC1B7v160006IDnS6_EEOT_OT0_, symObjAddr: 0x5B08, symBinAddr: 0x100006EAC, symSize: 0x3C }
  - { offsetInCU: 0x194F9, offset: 0x194F9, size: 0x8, addend: 0x0, symName: __ZNSt3__117__compressed_pairIPP3CowRNS_9allocatorIS2_EEEC2B7v160006IDnS6_EEOT_OT0_, symObjAddr: 0x5B84, symBinAddr: 0x100006F28, symSize: 0x48 }
  - { offsetInCU: 0x19551, offset: 0x19551, size: 0x8, addend: 0x0, symName: __ZNSt3__122__compressed_pair_elemIRNS_9allocatorIP3CowEELi1ELb0EEC2B7v160006IS5_vEEOT_, symObjAddr: 0x5BCC, symBinAddr: 0x100006F70, symSize: 0x20 }
  - { offsetInCU: 0x19593, offset: 0x19593, size: 0x8, addend: 0x0, symName: __ZNSt3__19allocatorIP3CowE8allocateB7v160006Em, symObjAddr: 0x5BEC, symBinAddr: 0x100006F90, symSize: 0x58 }
  - { offsetInCU: 0x195D1, offset: 0x195D1, size: 0x8, addend: 0x0, symName: __ZNSt3__116allocator_traitsINS_9allocatorIP3CowEEE8max_sizeB7v160006IS4_vEEmRKS4_, symObjAddr: 0x5C44, symBinAddr: 0x100006FE8, symSize: 0x24 }
  - { offsetInCU: 0x195FF, offset: 0x195FF, size: 0x8, addend: 0x0, symName: __ZNKSt3__19allocatorIP3CowE8max_sizeB7v160006Ev, symObjAddr: 0x5C68, symBinAddr: 0x10000700C, symSize: 0x14 }
  - { offsetInCU: 0x19625, offset: 0x19625, size: 0x8, addend: 0x0, symName: __ZNSt3__122__allocator_destructorINS_9allocatorI3CowEEEC2B7v160006ERS3_m, symObjAddr: 0x5C7C, symBinAddr: 0x100007020, symSize: 0x2C }
  - { offsetInCU: 0x1966B, offset: 0x1966B, size: 0x8, addend: 0x0, symName: __ZNSt3__110unique_ptrIP3CowNS_22__allocator_destructorINS_9allocatorIS1_EEEEEC2B7v160006ILb1EvEES2_NS_16__dependent_typeINS_27__unique_ptr_deleter_sfinaeIS6_EEXT_EE20__good_rval_ref_typeE, symObjAddr: 0x5CA8, symBinAddr: 0x10000704C, symSize: 0x48 }
  - { offsetInCU: 0x196BC, offset: 0x196BC, size: 0x8, addend: 0x0, symName: __ZNSt3__117__compressed_pairIP3CowNS_22__allocator_destructorINS_9allocatorIS1_EEEEEC1B7v160006IRS2_S6_EEOT_OT0_, symObjAddr: 0x5CF0, symBinAddr: 0x100007094, symSize: 0x3C }
  - { offsetInCU: 0x19714, offset: 0x19714, size: 0x8, addend: 0x0, symName: __ZNSt3__117__compressed_pairIP3CowNS_22__allocator_destructorINS_9allocatorIS1_EEEEEC2B7v160006IRS2_S6_EEOT_OT0_, symObjAddr: 0x5D2C, symBinAddr: 0x1000070D0, symSize: 0x48 }
  - { offsetInCU: 0x1976C, offset: 0x1976C, size: 0x8, addend: 0x0, symName: __ZNSt3__122__compressed_pair_elemIP3CowLi0ELb0EEC2B7v160006IRS2_vEEOT_, symObjAddr: 0x5D74, symBinAddr: 0x100007118, symSize: 0x24 }
  - { offsetInCU: 0x197AE, offset: 0x197AE, size: 0x8, addend: 0x0, symName: __ZNSt3__122__compressed_pair_elemINS_22__allocator_destructorINS_9allocatorI3CowEEEELi1ELb0EEC2B7v160006IS5_vEEOT_, symObjAddr: 0x5D98, symBinAddr: 0x10000713C, symSize: 0x24 }
  - { offsetInCU: 0x197F0, offset: 0x197F0, size: 0x8, addend: 0x0, symName: __ZNKSt3__117__compressed_pairIP3CowNS_22__allocator_destructorINS_9allocatorIS1_EEEEE5firstB7v160006Ev, symObjAddr: 0x5DBC, symBinAddr: 0x100007160, symSize: 0x24 }
  - { offsetInCU: 0x19816, offset: 0x19816, size: 0x8, addend: 0x0, symName: __ZNKSt3__122__compressed_pair_elemIP3CowLi0ELb0EE5__getB7v160006Ev, symObjAddr: 0x5DE0, symBinAddr: 0x100007184, symSize: 0x14 }
  - { offsetInCU: 0x1983C, offset: 0x1983C, size: 0x8, addend: 0x0, symName: __ZNSt3__117__compressed_pairIP3CowNS_22__allocator_destructorINS_9allocatorIS1_EEEEE5firstB7v160006Ev, symObjAddr: 0x5DF4, symBinAddr: 0x100007198, symSize: 0x24 }
  - { offsetInCU: 0x19862, offset: 0x19862, size: 0x8, addend: 0x0, symName: __ZNSt3__122__compressed_pair_elemIP3CowLi0ELb0EE5__getB7v160006Ev, symObjAddr: 0x5E18, symBinAddr: 0x1000071BC, symSize: 0x14 }
  - { offsetInCU: 0x19888, offset: 0x19888, size: 0x8, addend: 0x0, symName: __ZNSt3__117__compressed_pairIPP3CowNS_9allocatorIS2_EEE5firstB7v160006Ev, symObjAddr: 0x5E2C, symBinAddr: 0x1000071D0, symSize: 0x24 }
  - { offsetInCU: 0x198AE, offset: 0x198AE, size: 0x8, addend: 0x0, symName: __ZNSt3__122__compressed_pair_elemIPP3CowLi0ELb0EE5__getB7v160006Ev, symObjAddr: 0x5E50, symBinAddr: 0x1000071F4, symSize: 0x14 }
  - { offsetInCU: 0x198D4, offset: 0x198D4, size: 0x8, addend: 0x0, symName: __ZNSt3__117__compressed_pairIPP3CowRNS_9allocatorIS2_EEE5firstB7v160006Ev, symObjAddr: 0x5E64, symBinAddr: 0x100007208, symSize: 0x24 }
  - { offsetInCU: 0x198FA, offset: 0x198FA, size: 0x8, addend: 0x0, symName: __ZNSt3__110unique_ptrIP3CowNS_22__allocator_destructorINS_9allocatorIS1_EEEEED2B7v160006Ev, symObjAddr: 0x5E88, symBinAddr: 0x10000722C, symSize: 0x30 }
  - { offsetInCU: 0x19924, offset: 0x19924, size: 0x8, addend: 0x0, symName: __ZNSt3__110unique_ptrIP3CowNS_22__allocator_destructorINS_9allocatorIS1_EEEEE5resetB7v160006ES2_, symObjAddr: 0x5EB8, symBinAddr: 0x10000725C, symSize: 0x78 }
  - { offsetInCU: 0x19968, offset: 0x19968, size: 0x8, addend: 0x0, symName: __ZNSt3__117__compressed_pairIP3CowNS_22__allocator_destructorINS_9allocatorIS1_EEEEE6secondB7v160006Ev, symObjAddr: 0x5F30, symBinAddr: 0x1000072D4, symSize: 0x28 }
  - { offsetInCU: 0x1998E, offset: 0x1998E, size: 0x8, addend: 0x0, symName: __ZNSt3__122__allocator_destructorINS_9allocatorI3CowEEEclB7v160006EPS2_, symObjAddr: 0x5F58, symBinAddr: 0x1000072FC, symSize: 0x34 }
  - { offsetInCU: 0x199C2, offset: 0x199C2, size: 0x8, addend: 0x0, symName: __ZNSt3__122__compressed_pair_elemINS_22__allocator_destructorINS_9allocatorI3CowEEEELi1ELb0EE5__getB7v160006Ev, symObjAddr: 0x5F8C, symBinAddr: 0x100007330, symSize: 0x14 }
  - { offsetInCU: 0x199E8, offset: 0x199E8, size: 0x8, addend: 0x0, symName: __ZNSt3__114__split_bufferIP3CowRNS_9allocatorIS2_EEED2Ev, symObjAddr: 0x5FA0, symBinAddr: 0x100007344, symSize: 0x8C }
  - { offsetInCU: 0x19A14, offset: 0x19A14, size: 0x8, addend: 0x0, symName: __ZNSt3__114__split_bufferIP3CowRNS_9allocatorIS2_EEE5clearB7v160006Ev, symObjAddr: 0x602C, symBinAddr: 0x1000073D0, symSize: 0x28 }
  - { offsetInCU: 0x19A3A, offset: 0x19A3A, size: 0x8, addend: 0x0, symName: __ZNKSt3__114__split_bufferIP3CowRNS_9allocatorIS2_EEE8capacityB7v160006Ev, symObjAddr: 0x6054, symBinAddr: 0x1000073F8, symSize: 0x40 }
  - { offsetInCU: 0x19A60, offset: 0x19A60, size: 0x8, addend: 0x0, symName: __ZNSt3__114__split_bufferIP3CowRNS_9allocatorIS2_EEE17__destruct_at_endB7v160006EPS2_, symObjAddr: 0x6094, symBinAddr: 0x100007438, symSize: 0x2C }
  - { offsetInCU: 0x19A94, offset: 0x19A94, size: 0x8, addend: 0x0, symName: __ZNSt3__114__split_bufferIP3CowRNS_9allocatorIS2_EEE17__destruct_at_endB7v160006EPS2_NS_17integral_constantIbLb0EEE, symObjAddr: 0x60C0, symBinAddr: 0x100007464, symSize: 0x80 }
  - { offsetInCU: 0x19AD4, offset: 0x19AD4, size: 0x8, addend: 0x0, symName: __ZNKSt3__114__split_bufferIP3CowRNS_9allocatorIS2_EEE9__end_capB7v160006Ev, symObjAddr: 0x6140, symBinAddr: 0x1000074E4, symSize: 0x28 }
  - { offsetInCU: 0x19AFA, offset: 0x19AFA, size: 0x8, addend: 0x0, symName: __ZNKSt3__117__compressed_pairIPP3CowRNS_9allocatorIS2_EEE5firstB7v160006Ev, symObjAddr: 0x6168, symBinAddr: 0x10000750C, symSize: 0x24 }
  - { offsetInCU: 0x19B20, offset: 0x19B20, size: 0x8, addend: 0x0, symName: __ZNSt3__19allocatorI3CowE9constructB7v160006IS1_JS1_EEEvPT_DpOT0_, symObjAddr: 0x618C, symBinAddr: 0x100007530, symSize: 0x28 }
  - { offsetInCU: 0x19B76, offset: 0x19B76, size: 0x8, addend: 0x0, symName: __ZNKSt3__19basic_iosIcNS_11char_traitsIcEEE5widenB7v160006Ec, symObjAddr: 0x61B4, symBinAddr: 0x100007558, symSize: 0x84 }
  - { offsetInCU: 0x19BE4, offset: 0x19BE4, size: 0x8, addend: 0x0, symName: __ZNKSt3__15ctypeIcE5widenB7v160006Ec, symObjAddr: 0x6264, symBinAddr: 0x100007608, symSize: 0x38 }
...
