---
triple:          'arm64-apple-darwin'
binary-path:     '/Users/dingkai/USACO/blocked_billboard2/blocked_billoard2'
relocations:
  - { offsetInCU: 0xB7CD, offset: 0xB7CD, size: 0x8, addend: 0x0, symName: __ZNSt3__113__fill_n_trueB7v160006INS_6vectorIbNS_9allocatorIbEEEEEEvNS_14__bit_iteratorIT_Lb0EXLi0EEEENS6_9size_typeE, symObjAddr: 0x17AC, symBinAddr: 0x100004E18, symSize: 0x160 }
  - { offsetInCU: 0xB892, offset: 0xB892, size: 0x8, addend: 0x0, symName: __ZNSt3__114__fill_n_falseB7v160006INS_6vectorIbNS_9allocatorIbEEEEEEvNS_14__bit_iteratorIT_Lb0EXLi0EEEENS6_9size_typeE, symObjAddr: 0x1940, symBinAddr: 0x100004FAC, symSize: 0x15C }
  - { offsetInCU: 0xC9A6, offset: 0xC9A6, size: 0x8, addend: 0x0, symName: __ZNSt3__114__copy_alignedB7v160006INS_6vectorIbNS_9allocatorIbEEEELb1EEENS_14__bit_iteratorIT_Lb0EXLi0EEEENS5_IS6_XT0_EXLi0EEEES8_S7_, symObjAddr: 0x2F50, symBinAddr: 0x1000065BC, symSize: 0x268 }
  - { offsetInCU: 0xCAD2, offset: 0xCAD2, size: 0x8, addend: 0x0, symName: __ZNSt3__16copy_nB7v160006IPKmmPmEENS_9enable_ifIXsr33__is_cpp17_random_access_iteratorIT_EE5valueET1_E4typeES5_T0_S6_, symObjAddr: 0x3704, symBinAddr: 0x100006D70, symSize: 0x44 }
  - { offsetInCU: 0xCB79, offset: 0xCB79, size: 0x8, addend: 0x0, symName: __ZNSt3__116__copy_unalignedB7v160006INS_6vectorIbNS_9allocatorIbEEEELb1EEENS_14__bit_iteratorIT_Lb0EXLi0EEEENS5_IS6_XT0_EXLi0EEEES8_S7_, symObjAddr: 0x31B8, symBinAddr: 0x100006824, symSize: 0x520 }
  - { offsetInCU: 0xF76F, offset: 0xF76F, size: 0x8, addend: 0x0, symName: __ZNSt3__119__allocate_at_leastB7v160006INS_9allocatorImEEEENS_19__allocation_resultINS_16allocator_traitsIT_E7pointerEEERS5_m, symObjAddr: 0x1284, symBinAddr: 0x1000048F0, symSize: 0x40 }
  - { offsetInCU: 0xF99E, offset: 0xF99E, size: 0x8, addend: 0x0, symName: __ZNSt3__120__throw_length_errorB7v160006EPKc, symObjAddr: 0x1404, symBinAddr: 0x100004A70, symSize: 0x64 }
  - { offsetInCU: 0xF9C6, offset: 0xF9C6, size: 0x8, addend: 0x0, symName: __ZNSt3__117__libcpp_allocateB7v160006Emm, symObjAddr: 0x1574, symBinAddr: 0x100004BE0, symSize: 0x60 }
  - { offsetInCU: 0xFA20, offset: 0xFA20, size: 0x8, addend: 0x0, symName: __ZNSt3__124__is_overaligned_for_newB7v160006Em, symObjAddr: 0x15D4, symBinAddr: 0x100004C40, symSize: 0x20 }
  - { offsetInCU: 0xFA4E, offset: 0xFA4E, size: 0x8, addend: 0x0, symName: __ZNSt3__121__libcpp_operator_newB7v160006IJmSt11align_val_tEEEPvDpT_, symObjAddr: 0x15F4, symBinAddr: 0x100004C60, symSize: 0x2C }
  - { offsetInCU: 0xFA9B, offset: 0xFA9B, size: 0x8, addend: 0x0, symName: __ZNSt3__121__libcpp_operator_newB7v160006IJmEEEPvDpT_, symObjAddr: 0x1620, symBinAddr: 0x100004C8C, symSize: 0x24 }
  - { offsetInCU: 0xFAD4, offset: 0xFAD4, size: 0x8, addend: 0x0, symName: __ZNSt3__16fill_nB7v160006INS_6vectorIbNS_9allocatorIbEEEEEEvNS_14__bit_iteratorIT_Lb0EXLi0EEEENS6_9size_typeEb, symObjAddr: 0x16B4, symBinAddr: 0x100004D20, symSize: 0x94 }
  - { offsetInCU: 0xFB26, offset: 0xFB26, size: 0x8, addend: 0x0, symName: __ZNSt3__13minB7v160006ImEERKT_S3_S3_, symObjAddr: 0x1A9C, symBinAddr: 0x100005108, symSize: 0x2C }
  - { offsetInCU: 0xFB69, offset: 0xFB69, size: 0x8, addend: 0x0, symName: __ZNSt3__16fill_nB7v160006IPmmmEET_S2_T0_RKT1_, symObjAddr: 0x1AC8, symBinAddr: 0x100005134, symSize: 0x44 }
  - { offsetInCU: 0xFBCC, offset: 0xFBCC, size: 0x8, addend: 0x0, symName: __ZNSt3__112__to_addressB7v160006ImEEPT_S2_, symObjAddr: 0x1B0C, symBinAddr: 0x100005178, symSize: 0x14 }
  - { offsetInCU: 0xFC01, offset: 0xFC01, size: 0x8, addend: 0x0, symName: __ZNSt3__13minB7v160006ImNS_6__lessImmEEEERKT_S5_S5_T0_, symObjAddr: 0x1B20, symBinAddr: 0x10000518C, symSize: 0x54 }
  - { offsetInCU: 0xFC96, offset: 0xFC96, size: 0x8, addend: 0x0, symName: __ZNSt3__18__fill_nB7v160006IPmmmEET_S2_T0_RKT1_, symObjAddr: 0x1BA8, symBinAddr: 0x100005214, symSize: 0x64 }
  - { offsetInCU: 0xFCF9, offset: 0xFCF9, size: 0x8, addend: 0x0, symName: __ZNSt3__121__convert_to_integralB7v160006Em, symObjAddr: 0x1C0C, symBinAddr: 0x100005278, symSize: 0x14 }
  - { offsetInCU: 0xFD25, offset: 0xFD25, size: 0x8, addend: 0x0, symName: __ZNSt3__16fill_nB7v160006IPmmiEET_S2_T0_RKT1_, symObjAddr: 0x1C50, symBinAddr: 0x1000052BC, symSize: 0x44 }
  - { offsetInCU: 0xFD88, offset: 0xFD88, size: 0x8, addend: 0x0, symName: __ZNSt3__18__fill_nB7v160006IPmmiEET_S2_T0_RKT1_, symObjAddr: 0x1C94, symBinAddr: 0x100005300, symSize: 0x64 }
  - { offsetInCU: 0xFDEB, offset: 0xFDEB, size: 0x8, addend: 0x0, symName: __ZNSt3__125__debug_db_invalidate_allB7v160006INS_6vectorIbNS_9allocatorIbEEE16__destroy_vectorEEEvPT_, symObjAddr: 0x1EBC, symBinAddr: 0x100005528, symSize: 0x10 }
  - { offsetInCU: 0xFE1C, offset: 0xFE1C, size: 0x8, addend: 0x0, symName: __ZNSt3__119__libcpp_deallocateB7v160006EPvmm, symObjAddr: 0x1F0C, symBinAddr: 0x100005578, symSize: 0x60 }
  - { offsetInCU: 0xFE81, offset: 0xFE81, size: 0x8, addend: 0x0, symName: __ZNSt3__127__do_deallocate_handle_sizeB7v160006IJSt11align_val_tEEEvPvmDpT_, symObjAddr: 0x1F6C, symBinAddr: 0x1000055D8, symSize: 0x30 }
  - { offsetInCU: 0xFED4, offset: 0xFED4, size: 0x8, addend: 0x0, symName: __ZNSt3__127__do_deallocate_handle_sizeB7v160006IJEEEvPvmDpT_, symObjAddr: 0x1F9C, symBinAddr: 0x100005608, symSize: 0x28 }
  - { offsetInCU: 0xFF12, offset: 0xFF12, size: 0x8, addend: 0x0, symName: __ZNSt3__124__libcpp_operator_deleteB7v160006IJPvSt11align_val_tEEEvDpT_, symObjAddr: 0x1FC4, symBinAddr: 0x100005630, symSize: 0x2C }
  - { offsetInCU: 0xFF5B, offset: 0xFF5B, size: 0x8, addend: 0x0, symName: __ZNSt3__124__libcpp_operator_deleteB7v160006IJPvEEEvDpT_, symObjAddr: 0x1FF0, symBinAddr: 0x10000565C, symSize: 0x24 }
  - { offsetInCU: 0xFF90, offset: 0xFF90, size: 0x8, addend: 0x0, symName: __ZNSt3__122__make_exception_guardB7v160006INS_6vectorINS1_IbNS_9allocatorIbEEEENS2_IS4_EEE16__destroy_vectorEEENS_28__exception_guard_exceptionsIT_EES9_, symObjAddr: 0x2138, symBinAddr: 0x1000057A4, symSize: 0x40 }
  - { offsetInCU: 0xFFC5, offset: 0xFFC5, size: 0x8, addend: 0x0, symName: __ZNSt3__119__debug_db_insert_cB7v160006INS_6vectorINS1_IbNS_9allocatorIbEEEENS2_IS4_EEEEEEvPT_, symObjAddr: 0x21AC, symBinAddr: 0x100005818, symSize: 0x10 }
  - { offsetInCU: 0xFFF6, offset: 0xFFF6, size: 0x8, addend: 0x0, symName: __ZNSt3__119__allocate_at_leastB7v160006INS_9allocatorINS_6vectorIbNS1_IbEEEEEEEENS_19__allocation_resultINS_16allocator_traitsIT_E7pointerEEERS8_m, symObjAddr: 0x2544, symBinAddr: 0x100005BB0, symSize: 0x40 }
  - { offsetInCU: 0x10223, offset: 0x10223, size: 0x8, addend: 0x0, symName: __ZNSt3__112__to_addressB7v160006INS_6vectorIbNS_9allocatorIbEEEEEEPT_S6_, symObjAddr: 0x28A8, symBinAddr: 0x100005F14, symSize: 0x14 }
  - { offsetInCU: 0x10274, offset: 0x10274, size: 0x8, addend: 0x0, symName: __ZNSt3__18distanceB7v160006INS_14__bit_iteratorINS_6vectorIbNS_9allocatorIbEEEELb1ELm0EEEEENS_15iterator_traitsIT_E15difference_typeES8_S8_, symObjAddr: 0x2DB0, symBinAddr: 0x10000641C, symSize: 0x4C }
  - { offsetInCU: 0x102B7, offset: 0x102B7, size: 0x8, addend: 0x0, symName: __ZNSt3__14copyB7v160006INS_6vectorIbNS_9allocatorIbEEEELb1EEENS_14__bit_iteratorIT_Lb0EXLi0EEEENS5_IS6_XT0_EXLi0EEEES8_S7_, symObjAddr: 0x2DFC, symBinAddr: 0x100006468, symSize: 0xD4 }
  - { offsetInCU: 0x10317, offset: 0x10317, size: 0x8, addend: 0x0, symName: __ZNSt3__110__distanceB7v160006INS_14__bit_iteratorINS_6vectorIbNS_9allocatorIbEEEELb1ELm0EEEEENS_15iterator_traitsIT_E15difference_typeES8_S8_NS_26random_access_iterator_tagE, symObjAddr: 0x2ED0, symBinAddr: 0x10000653C, symSize: 0x38 }
  - { offsetInCU: 0x10364, offset: 0x10364, size: 0x8, addend: 0x0, symName: __ZNSt3__1miB7v160006ERKNS_14__bit_iteratorINS_6vectorIbNS_9allocatorIbEEEELb1ELm0EEES7_, symObjAddr: 0x2F08, symBinAddr: 0x100006574, symSize: 0x48 }
  - { offsetInCU: 0x103A1, offset: 0x103A1, size: 0x8, addend: 0x0, symName: __ZNSt3__13minB7v160006IlEERKT_S3_S3_, symObjAddr: 0x36D8, symBinAddr: 0x100006D44, symSize: 0x2C }
  - { offsetInCU: 0x103E4, offset: 0x103E4, size: 0x8, addend: 0x0, symName: __ZNSt3__112__to_addressB7v160006IKmEEPT_S3_, symObjAddr: 0x3748, symBinAddr: 0x100006DB4, symSize: 0x14 }
  - { offsetInCU: 0x10419, offset: 0x10419, size: 0x8, addend: 0x0, symName: __ZNSt3__13minB7v160006IlNS_6__lessIllEEEERKT_S5_S5_T0_, symObjAddr: 0x375C, symBinAddr: 0x100006DC8, symSize: 0x54 }
  - { offsetInCU: 0x104AE, offset: 0x104AE, size: 0x8, addend: 0x0, symName: __ZNSt3__14copyB7v160006IPKmPmEET0_T_S5_S4_, symObjAddr: 0x37E4, symBinAddr: 0x100006E50, symSize: 0x40 }
  - { offsetInCU: 0x10508, offset: 0x10508, size: 0x8, addend: 0x0, symName: __ZNSt3__16__copyB7v160006INS_17_ClassicAlgPolicyEPKmS3_PmEENS_4pairIT0_T2_EES6_T1_S7_, symObjAddr: 0x3824, symBinAddr: 0x100006E90, symSize: 0x44 }
  - { offsetInCU: 0x10574, offset: 0x10574, size: 0x8, addend: 0x0, symName: __ZNSt3__123__dispatch_copy_or_moveB7v160006INS_17_ClassicAlgPolicyENS_11__copy_loopIS1_EENS_14__copy_trivialEPKmS6_PmEENS_4pairIT2_T4_EES9_T3_SA_, symObjAddr: 0x3868, symBinAddr: 0x100006ED4, symSize: 0x44 }
  - { offsetInCU: 0x105F2, offset: 0x105F2, size: 0x8, addend: 0x0, symName: __ZNSt3__121__unwrap_and_dispatchB7v160006INS_10__overloadINS_11__copy_loopINS_17_ClassicAlgPolicyEEENS_14__copy_trivialEEEPKmS8_PmLi0EEENS_4pairIT0_T2_EESB_T1_SC_, symObjAddr: 0x38AC, symBinAddr: 0x100006F18, symSize: 0xB4 }
  - { offsetInCU: 0x10680, offset: 0x10680, size: 0x8, addend: 0x0, symName: __ZNSt3__114__unwrap_rangeB7v160006IPKmS2_EENS_4pairIT0_S4_EET_S6_, symObjAddr: 0x3960, symBinAddr: 0x100006FCC, symSize: 0x60 }
  - { offsetInCU: 0x10815, offset: 0x10815, size: 0x8, addend: 0x0, symName: __ZNSt3__113__unwrap_iterB7v160006IPmNS_18__unwrap_iter_implIS1_Lb1EEELi0EEEDTclsrT0_8__unwrapclsr3stdE7declvalIT_EEEES5_, symObjAddr: 0x3A08, symBinAddr: 0x100007074, symSize: 0x24 }
  - { offsetInCU: 0x10859, offset: 0x10859, size: 0x8, addend: 0x0, symName: __ZNSt3__19make_pairB7v160006IPKmPmEENS_4pairINS_18__unwrap_ref_decayIT_E4typeENS5_IT0_E4typeEEEOS6_OS9_, symObjAddr: 0x3A2C, symBinAddr: 0x100007098, symSize: 0x38 }
  - { offsetInCU: 0x108A8, offset: 0x108A8, size: 0x8, addend: 0x0, symName: __ZNSt3__114__rewrap_rangeB7v160006IPKmS2_EET_S3_T0_, symObjAddr: 0x3A64, symBinAddr: 0x1000070D0, symSize: 0x2C }
  - { offsetInCU: 0x108F4, offset: 0x108F4, size: 0x8, addend: 0x0, symName: __ZNSt3__113__rewrap_iterB7v160006IPmS1_NS_18__unwrap_iter_implIS1_Lb1EEEEET_S4_T0_, symObjAddr: 0x3A90, symBinAddr: 0x1000070FC, symSize: 0x3C }
  - { offsetInCU: 0x10949, offset: 0x10949, size: 0x8, addend: 0x0, symName: __ZNSt3__19make_pairB7v160006IPKmS2_EENS_4pairINS_18__unwrap_ref_decayIT_E4typeENS4_IT0_E4typeEEEOS5_OS8_, symObjAddr: 0x3ACC, symBinAddr: 0x100007138, symSize: 0x38 }
  - { offsetInCU: 0x10998, offset: 0x10998, size: 0x8, addend: 0x0, symName: __ZNSt3__113__unwrap_iterB7v160006IPKmNS_18__unwrap_iter_implIS2_Lb1EEELi0EEEDTclsrT0_8__unwrapclsr3stdE7declvalIT_EEEES6_, symObjAddr: 0x3B04, symBinAddr: 0x100007170, symSize: 0x24 }
  - { offsetInCU: 0x10B03, offset: 0x10B03, size: 0x8, addend: 0x0, symName: __ZNSt3__119__copy_trivial_implB7v160006IKmmEENS_4pairIPT_PT0_EES4_S4_S6_, symObjAddr: 0x3BBC, symBinAddr: 0x100007228, symSize: 0x84 }
  - { offsetInCU: 0x10B6B, offset: 0x10B6B, size: 0x8, addend: 0x0, symName: __ZNSt3__19make_pairB7v160006IRPKmPmEENS_4pairINS_18__unwrap_ref_decayIT_E4typeENS6_IT0_E4typeEEEOS7_OSA_, symObjAddr: 0x3C40, symBinAddr: 0x1000072AC, symSize: 0x38 }
  - { offsetInCU: 0x10C0D, offset: 0x10C0D, size: 0x8, addend: 0x0, symName: __ZNSt3__113__rewrap_iterB7v160006IPKmS2_NS_18__unwrap_iter_implIS2_Lb1EEEEET_S5_T0_, symObjAddr: 0x3D7C, symBinAddr: 0x1000073E8, symSize: 0x3C }
  - { offsetInCU: 0x10C62, offset: 0x10C62, size: 0x8, addend: 0x0, symName: __ZNSt3__118__debug_db_erase_cB7v160006INS_6vectorINS1_IbNS_9allocatorIbEEEENS2_IS4_EEEEEEvPT_, symObjAddr: 0x40FC, symBinAddr: 0x100007768, symSize: 0x10 }
  - { offsetInCU: 0x112B9, offset: 0x112B9, size: 0x8, addend: 0x0, symName: __ZSt28__throw_bad_array_new_lengthB7v160006v, symObjAddr: 0x1540, symBinAddr: 0x100004BAC, symSize: 0x34 }
  - { offsetInCU: 0x13E71, offset: 0x13E71, size: 0x8, addend: 0x0, symName: _main, symObjAddr: 0x0, symBinAddr: 0x10000366C, symSize: 0x6A0 }
  - { offsetInCU: 0x14119, offset: 0x14119, size: 0x8, addend: 0x0, symName: __ZNSt3__114basic_ifstreamIcNS_11char_traitsIcEEEC1EPKcj, symObjAddr: 0x6A0, symBinAddr: 0x100003D0C, symSize: 0x16C }
  - { offsetInCU: 0x1417C, offset: 0x1417C, size: 0x8, addend: 0x0, symName: __ZNSt3__114basic_ofstreamIcNS_11char_traitsIcEEEC1EPKcj, symObjAddr: 0x80C, symBinAddr: 0x100003E78, symSize: 0x16C }
  - { offsetInCU: 0x141C6, offset: 0x141C6, size: 0x8, addend: 0x0, symName: __ZNSt3__16vectorIbNS_9allocatorIbEEEC1Em, symObjAddr: 0x978, symBinAddr: 0x100003FE4, symSize: 0x34 }
  - { offsetInCU: 0x14201, offset: 0x14201, size: 0x8, addend: 0x0, symName: __ZNSt3__16vectorINS0_IbNS_9allocatorIbEEEENS1_IS3_EEEC1EmRKS3_, symObjAddr: 0x9AC, symBinAddr: 0x100004018, symSize: 0x3C }
  - { offsetInCU: 0x1424B, offset: 0x1424B, size: 0x8, addend: 0x0, symName: __ZNSt3__16vectorIbNS_9allocatorIbEEED1B7v160006Ev, symObjAddr: 0x9E8, symBinAddr: 0x100004054, symSize: 0x2C }
  - { offsetInCU: 0x14275, offset: 0x14275, size: 0x8, addend: 0x0, symName: __ZNSt3__16vectorINS0_IbNS_9allocatorIbEEEENS1_IS3_EEEixB7v160006Em, symObjAddr: 0xA14, symBinAddr: 0x100004080, symSize: 0x2C }
  - { offsetInCU: 0x142AC, offset: 0x142AC, size: 0x8, addend: 0x0, symName: __ZNSt3__16vectorIbNS_9allocatorIbEEEixB7v160006Em, symObjAddr: 0xA40, symBinAddr: 0x1000040AC, symSize: 0x3C }
  - { offsetInCU: 0x142E1, offset: 0x142E1, size: 0x8, addend: 0x0, symName: __ZNSt3__115__bit_referenceINS_6vectorIbNS_9allocatorIbEEEELb1EEaSB7v160006Eb, symObjAddr: 0xA7C, symBinAddr: 0x1000040E8, symSize: 0x6C }
  - { offsetInCU: 0x14315, offset: 0x14315, size: 0x8, addend: 0x0, symName: __ZNKSt3__115__bit_referenceINS_6vectorIbNS_9allocatorIbEEEELb1EEcvbB7v160006Ev, symObjAddr: 0xAE8, symBinAddr: 0x100004154, symSize: 0x2C }
  - { offsetInCU: 0x1433B, offset: 0x1433B, size: 0x8, addend: 0x0, symName: __ZNSt3__16vectorINS0_IbNS_9allocatorIbEEEENS1_IS3_EEED1B7v160006Ev, symObjAddr: 0xB14, symBinAddr: 0x100004180, symSize: 0x2C }
  - { offsetInCU: 0x1436A, offset: 0x1436A, size: 0x8, addend: 0x0, symName: __ZNSt3__114basic_ofstreamIcNS_11char_traitsIcEEED1Ev, symObjAddr: 0xB40, symBinAddr: 0x1000041AC, symSize: 0x40 }
  - { offsetInCU: 0x1439C, offset: 0x1439C, size: 0x8, addend: 0x0, symName: __ZNSt3__114basic_ifstreamIcNS_11char_traitsIcEEED1Ev, symObjAddr: 0xB80, symBinAddr: 0x1000041EC, symSize: 0x40 }
  - { offsetInCU: 0x143C9, offset: 0x143C9, size: 0x8, addend: 0x0, symName: __ZNSt3__114basic_ofstreamIcNS_11char_traitsIcEEED2Ev, symObjAddr: 0xBC0, symBinAddr: 0x10000422C, symSize: 0x64 }
  - { offsetInCU: 0x14403, offset: 0x14403, size: 0x8, addend: 0x0, symName: __ZTv0_n24_NSt3__114basic_ofstreamIcNS_11char_traitsIcEEED1Ev, symObjAddr: 0xC24, symBinAddr: 0x100004290, symSize: 0x28 }
  - { offsetInCU: 0x1441A, offset: 0x1441A, size: 0x8, addend: 0x0, symName: __ZNSt3__114basic_ifstreamIcNS_11char_traitsIcEEED2Ev, symObjAddr: 0xC4C, symBinAddr: 0x1000042B8, symSize: 0x64 }
  - { offsetInCU: 0x14454, offset: 0x14454, size: 0x8, addend: 0x0, symName: __ZTv0_n24_NSt3__114basic_ifstreamIcNS_11char_traitsIcEEED1Ev, symObjAddr: 0xCB0, symBinAddr: 0x10000431C, symSize: 0x28 }
  - { offsetInCU: 0x1446B, offset: 0x1446B, size: 0x8, addend: 0x0, symName: __ZNSt3__19basic_iosIcNS_11char_traitsIcEEEC2B7v160006Ev, symObjAddr: 0xCD8, symBinAddr: 0x100004344, symSize: 0x44 }
  - { offsetInCU: 0x14495, offset: 0x14495, size: 0x8, addend: 0x0, symName: __ZNSt3__113basic_istreamIcNS_11char_traitsIcEEEC2B7v160006EPNS_15basic_streambufIcS2_EE, symObjAddr: 0xD1C, symBinAddr: 0x100004388, symSize: 0x64 }
  - { offsetInCU: 0x144DA, offset: 0x144DA, size: 0x8, addend: 0x0, symName: __ZNSt3__19basic_iosIcNS_11char_traitsIcEEE8setstateB7v160006Ej, symObjAddr: 0xD80, symBinAddr: 0x1000043EC, symSize: 0x2C }
  - { offsetInCU: 0x1450F, offset: 0x1450F, size: 0x8, addend: 0x0, symName: __ZNSt3__18ios_baseC2B7v160006Ev, symObjAddr: 0xDAC, symBinAddr: 0x100004418, symSize: 0x24 }
  - { offsetInCU: 0x14539, offset: 0x14539, size: 0x8, addend: 0x0, symName: __ZNSt3__19basic_iosIcNS_11char_traitsIcEEE4initB7v160006EPNS_15basic_streambufIcS2_EE, symObjAddr: 0xDD0, symBinAddr: 0x10000443C, symSize: 0x44 }
  - { offsetInCU: 0x14570, offset: 0x14570, size: 0x8, addend: 0x0, symName: __ZNSt3__111char_traitsIcE3eofEv, symObjAddr: 0xE14, symBinAddr: 0x100004480, symSize: 0x8 }
  - { offsetInCU: 0x14584, offset: 0x14584, size: 0x8, addend: 0x0, symName: __ZNSt3__18ios_base8setstateB7v160006Ej, symObjAddr: 0xE1C, symBinAddr: 0x100004488, symSize: 0x34 }
  - { offsetInCU: 0x145BB, offset: 0x145BB, size: 0x8, addend: 0x0, symName: __ZNSt3__113basic_ostreamIcNS_11char_traitsIcEEEC2B7v160006EPNS_15basic_streambufIcS2_EE, symObjAddr: 0xE50, symBinAddr: 0x1000044BC, symSize: 0x60 }
  - { offsetInCU: 0x14600, offset: 0x14600, size: 0x8, addend: 0x0, symName: __ZNSt3__16vectorIbNS_9allocatorIbEEEC2Em, symObjAddr: 0xEB0, symBinAddr: 0x10000451C, symSize: 0x88 }
  - { offsetInCU: 0x14645, offset: 0x14645, size: 0x8, addend: 0x0, symName: __ZNSt3__117__compressed_pairImNS_9allocatorImEEEC1B7v160006IiNS_18__default_init_tagEEEOT_OT0_, symObjAddr: 0xF38, symBinAddr: 0x1000045A4, symSize: 0x3C }
  - { offsetInCU: 0x1469D, offset: 0x1469D, size: 0x8, addend: 0x0, symName: __ZNSt3__16vectorIbNS_9allocatorIbEEE11__vallocateB7v160006Em, symObjAddr: 0xF74, symBinAddr: 0x1000045E0, symSize: 0xA0 }
  - { offsetInCU: 0x146E1, offset: 0x146E1, size: 0x8, addend: 0x0, symName: __ZNSt3__16vectorIbNS_9allocatorIbEEE18__construct_at_endB7v160006Emb, symObjAddr: 0x1014, symBinAddr: 0x100004680, symSize: 0x108 }
  - { offsetInCU: 0x14736, offset: 0x14736, size: 0x8, addend: 0x0, symName: __ZNSt3__117__compressed_pairImNS_9allocatorImEEEC2B7v160006IiNS_18__default_init_tagEEEOT_OT0_, symObjAddr: 0x111C, symBinAddr: 0x100004788, symSize: 0x40 }
  - { offsetInCU: 0x1478E, offset: 0x1478E, size: 0x8, addend: 0x0, symName: __ZNSt3__122__compressed_pair_elemImLi0ELb0EEC2B7v160006IivEEOT_, symObjAddr: 0x115C, symBinAddr: 0x1000047C8, symSize: 0x24 }
  - { offsetInCU: 0x147D0, offset: 0x147D0, size: 0x8, addend: 0x0, symName: __ZNSt3__122__compressed_pair_elemINS_9allocatorImEELi1ELb1EEC2B7v160006ENS_18__default_init_tagE, symObjAddr: 0x1180, symBinAddr: 0x1000047EC, symSize: 0x2C }
  - { offsetInCU: 0x14804, offset: 0x14804, size: 0x8, addend: 0x0, symName: __ZNSt3__19allocatorImEC2B7v160006Ev, symObjAddr: 0x11AC, symBinAddr: 0x100004818, symSize: 0x2C }
  - { offsetInCU: 0x1482E, offset: 0x1482E, size: 0x8, addend: 0x0, symName: __ZNSt3__116__non_trivial_ifILb1ENS_9allocatorImEEEC2B7v160006Ev, symObjAddr: 0x11D8, symBinAddr: 0x100004844, symSize: 0x14 }
  - { offsetInCU: 0x14858, offset: 0x14858, size: 0x8, addend: 0x0, symName: __ZNKSt3__16vectorIbNS_9allocatorIbEEE8max_sizeEv, symObjAddr: 0x11EC, symBinAddr: 0x100004858, symSize: 0x7C }
  - { offsetInCU: 0x1489E, offset: 0x1489E, size: 0x8, addend: 0x0, symName: __ZNKSt3__16vectorIbNS_9allocatorIbEEE20__throw_length_errorB7v160006Ev, symObjAddr: 0x1268, symBinAddr: 0x1000048D4, symSize: 0x1C }
  - { offsetInCU: 0x148C4, offset: 0x148C4, size: 0x8, addend: 0x0, symName: __ZNSt3__16vectorIbNS_9allocatorIbEEE7__allocB7v160006Ev, symObjAddr: 0x12C4, symBinAddr: 0x100004930, symSize: 0x28 }
  - { offsetInCU: 0x148EA, offset: 0x148EA, size: 0x8, addend: 0x0, symName: __ZNSt3__16vectorIbNS_9allocatorIbEEE26__external_cap_to_internalB7v160006Em, symObjAddr: 0x12EC, symBinAddr: 0x100004958, symSize: 0x24 }
  - { offsetInCU: 0x1490E, offset: 0x1490E, size: 0x8, addend: 0x0, symName: __ZNSt3__16vectorIbNS_9allocatorIbEEE5__capB7v160006Ev, symObjAddr: 0x1310, symBinAddr: 0x10000497C, symSize: 0x28 }
  - { offsetInCU: 0x1493E, offset: 0x1493E, size: 0x8, addend: 0x0, symName: __ZNSt3__116allocator_traitsINS_9allocatorImEEE8max_sizeB7v160006IS2_vEEmRKS2_, symObjAddr: 0x1338, symBinAddr: 0x1000049A4, symSize: 0x24 }
  - { offsetInCU: 0x1496C, offset: 0x1496C, size: 0x8, addend: 0x0, symName: __ZNKSt3__16vectorIbNS_9allocatorIbEEE7__allocB7v160006Ev, symObjAddr: 0x135C, symBinAddr: 0x1000049C8, symSize: 0x28 }
  - { offsetInCU: 0x14992, offset: 0x14992, size: 0x8, addend: 0x0, symName: __ZNSt3__114numeric_limitsImE3maxB7v160006Ev, symObjAddr: 0x1384, symBinAddr: 0x1000049F0, symSize: 0x14 }
  - { offsetInCU: 0x149A6, offset: 0x149A6, size: 0x8, addend: 0x0, symName: __ZNSt3__16vectorIbNS_9allocatorIbEEE26__internal_cap_to_externalB7v160006Em, symObjAddr: 0x1398, symBinAddr: 0x100004A04, symSize: 0x18 }
  - { offsetInCU: 0x149CA, offset: 0x149CA, size: 0x8, addend: 0x0, symName: __ZNKSt3__19allocatorImE8max_sizeB7v160006Ev, symObjAddr: 0x13B0, symBinAddr: 0x100004A1C, symSize: 0x14 }
  - { offsetInCU: 0x149F0, offset: 0x149F0, size: 0x8, addend: 0x0, symName: __ZNKSt3__117__compressed_pairImNS_9allocatorImEEE6secondB7v160006Ev, symObjAddr: 0x13C4, symBinAddr: 0x100004A30, symSize: 0x24 }
  - { offsetInCU: 0x14A16, offset: 0x14A16, size: 0x8, addend: 0x0, symName: __ZNKSt3__122__compressed_pair_elemINS_9allocatorImEELi1ELb1EE5__getB7v160006Ev, symObjAddr: 0x13E8, symBinAddr: 0x100004A54, symSize: 0x14 }
  - { offsetInCU: 0x14A3C, offset: 0x14A3C, size: 0x8, addend: 0x0, symName: __ZNSt3__123__libcpp_numeric_limitsImLb1EE3maxB7v160006Ev, symObjAddr: 0x13FC, symBinAddr: 0x100004A68, symSize: 0x8 }
  - { offsetInCU: 0x14A50, offset: 0x14A50, size: 0x8, addend: 0x0, symName: __ZNSt12length_errorC1B7v160006EPKc, symObjAddr: 0x1468, symBinAddr: 0x100004AD4, symSize: 0x34 }
  - { offsetInCU: 0x14A88, offset: 0x14A88, size: 0x8, addend: 0x0, symName: __ZNSt12length_errorC2B7v160006EPKc, symObjAddr: 0x149C, symBinAddr: 0x100004B08, symSize: 0x4C }
  - { offsetInCU: 0x14AC0, offset: 0x14AC0, size: 0x8, addend: 0x0, symName: __ZNSt3__19allocatorImE8allocateB7v160006Em, symObjAddr: 0x14E8, symBinAddr: 0x100004B54, symSize: 0x58 }
  - { offsetInCU: 0x14AF4, offset: 0x14AF4, size: 0x8, addend: 0x0, symName: __ZNSt3__117__compressed_pairImNS_9allocatorImEEE6secondB7v160006Ev, symObjAddr: 0x1644, symBinAddr: 0x100004CB0, symSize: 0x24 }
  - { offsetInCU: 0x14B1A, offset: 0x14B1A, size: 0x8, addend: 0x0, symName: __ZNSt3__122__compressed_pair_elemINS_9allocatorImEELi1ELb1EE5__getB7v160006Ev, symObjAddr: 0x1668, symBinAddr: 0x100004CD4, symSize: 0x14 }
  - { offsetInCU: 0x14B40, offset: 0x14B40, size: 0x8, addend: 0x0, symName: __ZNSt3__117__compressed_pairImNS_9allocatorImEEE5firstB7v160006Ev, symObjAddr: 0x167C, symBinAddr: 0x100004CE8, symSize: 0x24 }
  - { offsetInCU: 0x14B66, offset: 0x14B66, size: 0x8, addend: 0x0, symName: __ZNSt3__122__compressed_pair_elemImLi0ELb0EE5__getB7v160006Ev, symObjAddr: 0x16A0, symBinAddr: 0x100004D0C, symSize: 0x14 }
  - { offsetInCU: 0x14B8C, offset: 0x14B8C, size: 0x8, addend: 0x0, symName: __ZNSt3__16vectorIbNS_9allocatorIbEEE11__make_iterB7v160006Em, symObjAddr: 0x1748, symBinAddr: 0x100004DB4, symSize: 0x64 }
  - { offsetInCU: 0x14BC1, offset: 0x14BC1, size: 0x8, addend: 0x0, symName: __ZNSt3__114__bit_iteratorINS_6vectorIbNS_9allocatorIbEEEELb0ELm0EEC1B7v160006ERKS5_, symObjAddr: 0x190C, symBinAddr: 0x100004F78, symSize: 0x34 }
  - { offsetInCU: 0x14C04, offset: 0x14C04, size: 0x8, addend: 0x0, symName: __ZNKSt3__16__lessImmEclB7v160006ERKmS3_, symObjAddr: 0x1B74, symBinAddr: 0x1000051E0, symSize: 0x34 }
  - { offsetInCU: 0x14C46, offset: 0x14C46, size: 0x8, addend: 0x0, symName: __ZNSt3__114__bit_iteratorINS_6vectorIbNS_9allocatorIbEEEELb0ELm0EEC2B7v160006ERKS5_, symObjAddr: 0x1C20, symBinAddr: 0x10000528C, symSize: 0x30 }
  - { offsetInCU: 0x14C7F, offset: 0x14C7F, size: 0x8, addend: 0x0, symName: __ZNSt3__114__bit_iteratorINS_6vectorIbNS_9allocatorIbEEEELb0ELm0EEC1B7v160006EPmj, symObjAddr: 0x1CF8, symBinAddr: 0x100005364, symSize: 0x3C }
  - { offsetInCU: 0x14CC7, offset: 0x14CC7, size: 0x8, addend: 0x0, symName: __ZNSt3__114__bit_iteratorINS_6vectorIbNS_9allocatorIbEEEELb0ELm0EEC2B7v160006EPmj, symObjAddr: 0x1D34, symBinAddr: 0x1000053A0, symSize: 0x2C }
  - { offsetInCU: 0x14D0F, offset: 0x14D0F, size: 0x8, addend: 0x0, symName: __ZNSt3__16vectorIbNS_9allocatorIbEEED2B7v160006Ev, symObjAddr: 0x1D60, symBinAddr: 0x1000053CC, symSize: 0x44 }
  - { offsetInCU: 0x14D39, offset: 0x14D39, size: 0x8, addend: 0x0, symName: __ZNSt3__16vectorIbNS_9allocatorIbEEE16__destroy_vectorC1ERS3_, symObjAddr: 0x1DA4, symBinAddr: 0x100005410, symSize: 0x34 }
  - { offsetInCU: 0x14D72, offset: 0x14D72, size: 0x8, addend: 0x0, symName: __ZNSt3__16vectorIbNS_9allocatorIbEEE16__destroy_vectorclB7v160006Ev, symObjAddr: 0x1DE4, symBinAddr: 0x100005450, symSize: 0x84 }
  - { offsetInCU: 0x14D98, offset: 0x14D98, size: 0x8, addend: 0x0, symName: __ZNSt3__16vectorIbNS_9allocatorIbEEE16__destroy_vectorC2ERS3_, symObjAddr: 0x1E68, symBinAddr: 0x1000054D4, symSize: 0x20 }
  - { offsetInCU: 0x14DD1, offset: 0x14DD1, size: 0x8, addend: 0x0, symName: __ZNSt3__116allocator_traitsINS_9allocatorImEEE10deallocateB7v160006ERS2_Pmm, symObjAddr: 0x1E88, symBinAddr: 0x1000054F4, symSize: 0x34 }
  - { offsetInCU: 0x14E13, offset: 0x14E13, size: 0x8, addend: 0x0, symName: __ZNSt3__19allocatorImE10deallocateB7v160006EPmm, symObjAddr: 0x1ECC, symBinAddr: 0x100005538, symSize: 0x40 }
  - { offsetInCU: 0x14E55, offset: 0x14E55, size: 0x8, addend: 0x0, symName: __ZNSt3__16vectorINS0_IbNS_9allocatorIbEEEENS1_IS3_EEEC2EmRKS3_, symObjAddr: 0x2014, symBinAddr: 0x100005680, symSize: 0xE8 }
  - { offsetInCU: 0x14EBA, offset: 0x14EBA, size: 0x8, addend: 0x0, symName: __ZNSt3__117__compressed_pairIPNS_6vectorIbNS_9allocatorIbEEEENS2_IS4_EEEC1B7v160006IDnNS_18__default_init_tagEEEOT_OT0_, symObjAddr: 0x20FC, symBinAddr: 0x100005768, symSize: 0x3C }
  - { offsetInCU: 0x14F12, offset: 0x14F12, size: 0x8, addend: 0x0, symName: __ZNSt3__16vectorINS0_IbNS_9allocatorIbEEEENS1_IS3_EEE16__destroy_vectorC1ERS5_, symObjAddr: 0x2178, symBinAddr: 0x1000057E4, symSize: 0x34 }
  - { offsetInCU: 0x14F4B, offset: 0x14F4B, size: 0x8, addend: 0x0, symName: __ZNSt3__16vectorINS0_IbNS_9allocatorIbEEEENS1_IS3_EEE11__vallocateB7v160006Em, symObjAddr: 0x21BC, symBinAddr: 0x100005828, symSize: 0xB4 }
  - { offsetInCU: 0x14F8F, offset: 0x14F8F, size: 0x8, addend: 0x0, symName: __ZNSt3__16vectorINS0_IbNS_9allocatorIbEEEENS1_IS3_EEE18__construct_at_endEmRKS3_, symObjAddr: 0x2270, symBinAddr: 0x1000058DC, symSize: 0xD0 }
  - { offsetInCU: 0x15010, offset: 0x15010, size: 0x8, addend: 0x0, symName: __ZNSt3__128__exception_guard_exceptionsINS_6vectorINS1_IbNS_9allocatorIbEEEENS2_IS4_EEE16__destroy_vectorEE10__completeB7v160006Ev, symObjAddr: 0x2340, symBinAddr: 0x1000059AC, symSize: 0x1C }
  - { offsetInCU: 0x15036, offset: 0x15036, size: 0x8, addend: 0x0, symName: __ZNSt3__128__exception_guard_exceptionsINS_6vectorINS1_IbNS_9allocatorIbEEEENS2_IS4_EEE16__destroy_vectorEED1B7v160006Ev, symObjAddr: 0x235C, symBinAddr: 0x1000059C8, symSize: 0x2C }
  - { offsetInCU: 0x15060, offset: 0x15060, size: 0x8, addend: 0x0, symName: __ZNSt3__117__compressed_pairIPNS_6vectorIbNS_9allocatorIbEEEENS2_IS4_EEEC2B7v160006IDnNS_18__default_init_tagEEEOT_OT0_, symObjAddr: 0x2388, symBinAddr: 0x1000059F4, symSize: 0x40 }
  - { offsetInCU: 0x150B8, offset: 0x150B8, size: 0x8, addend: 0x0, symName: __ZNSt3__122__compressed_pair_elemIPNS_6vectorIbNS_9allocatorIbEEEELi0ELb0EEC2B7v160006IDnvEEOT_, symObjAddr: 0x23C8, symBinAddr: 0x100005A34, symSize: 0x1C }
  - { offsetInCU: 0x150FA, offset: 0x150FA, size: 0x8, addend: 0x0, symName: __ZNSt3__122__compressed_pair_elemINS_9allocatorINS_6vectorIbNS1_IbEEEEEELi1ELb1EEC2B7v160006ENS_18__default_init_tagE, symObjAddr: 0x23E4, symBinAddr: 0x100005A50, symSize: 0x2C }
  - { offsetInCU: 0x1512E, offset: 0x1512E, size: 0x8, addend: 0x0, symName: __ZNSt3__19allocatorINS_6vectorIbNS0_IbEEEEEC2B7v160006Ev, symObjAddr: 0x2410, symBinAddr: 0x100005A7C, symSize: 0x2C }
  - { offsetInCU: 0x15158, offset: 0x15158, size: 0x8, addend: 0x0, symName: __ZNSt3__116__non_trivial_ifILb1ENS_9allocatorINS_6vectorIbNS1_IbEEEEEEEC2B7v160006Ev, symObjAddr: 0x243C, symBinAddr: 0x100005AA8, symSize: 0x14 }
  - { offsetInCU: 0x15182, offset: 0x15182, size: 0x8, addend: 0x0, symName: __ZNSt3__128__exception_guard_exceptionsINS_6vectorINS1_IbNS_9allocatorIbEEEENS2_IS4_EEE16__destroy_vectorEEC1B7v160006ES7_, symObjAddr: 0x2450, symBinAddr: 0x100005ABC, symSize: 0x34 }
  - { offsetInCU: 0x151BA, offset: 0x151BA, size: 0x8, addend: 0x0, symName: __ZNSt3__128__exception_guard_exceptionsINS_6vectorINS1_IbNS_9allocatorIbEEEENS2_IS4_EEE16__destroy_vectorEEC2B7v160006ES7_, symObjAddr: 0x2484, symBinAddr: 0x100005AF0, symSize: 0x24 }
  - { offsetInCU: 0x151F2, offset: 0x151F2, size: 0x8, addend: 0x0, symName: __ZNSt3__16vectorINS0_IbNS_9allocatorIbEEEENS1_IS3_EEE16__destroy_vectorC2ERS5_, symObjAddr: 0x24A8, symBinAddr: 0x100005B14, symSize: 0x20 }
  - { offsetInCU: 0x1522B, offset: 0x1522B, size: 0x8, addend: 0x0, symName: __ZNKSt3__16vectorINS0_IbNS_9allocatorIbEEEENS1_IS3_EEE8max_sizeEv, symObjAddr: 0x24C8, symBinAddr: 0x100005B34, symSize: 0x60 }
  - { offsetInCU: 0x15253, offset: 0x15253, size: 0x8, addend: 0x0, symName: __ZNKSt3__16vectorINS0_IbNS_9allocatorIbEEEENS1_IS3_EEE20__throw_length_errorB7v160006Ev, symObjAddr: 0x2528, symBinAddr: 0x100005B94, symSize: 0x1C }
  - { offsetInCU: 0x15279, offset: 0x15279, size: 0x8, addend: 0x0, symName: __ZNSt3__16vectorINS0_IbNS_9allocatorIbEEEENS1_IS3_EEE7__allocB7v160006Ev, symObjAddr: 0x2584, symBinAddr: 0x100005BF0, symSize: 0x28 }
  - { offsetInCU: 0x1529F, offset: 0x1529F, size: 0x8, addend: 0x0, symName: __ZNSt3__16vectorINS0_IbNS_9allocatorIbEEEENS1_IS3_EEE9__end_capB7v160006Ev, symObjAddr: 0x25AC, symBinAddr: 0x100005C18, symSize: 0x28 }
  - { offsetInCU: 0x152C5, offset: 0x152C5, size: 0x8, addend: 0x0, symName: __ZNKSt3__16vectorINS0_IbNS_9allocatorIbEEEENS1_IS3_EEE14__annotate_newB7v160006Em, symObjAddr: 0x25D4, symBinAddr: 0x100005C40, symSize: 0xC8 }
  - { offsetInCU: 0x15304, offset: 0x15304, size: 0x8, addend: 0x0, symName: __ZNSt3__116allocator_traitsINS_9allocatorINS_6vectorIbNS1_IbEEEEEEE8max_sizeB7v160006IS5_vEEmRKS5_, symObjAddr: 0x269C, symBinAddr: 0x100005D08, symSize: 0x24 }
  - { offsetInCU: 0x15332, offset: 0x15332, size: 0x8, addend: 0x0, symName: __ZNKSt3__16vectorINS0_IbNS_9allocatorIbEEEENS1_IS3_EEE7__allocB7v160006Ev, symObjAddr: 0x26C0, symBinAddr: 0x100005D2C, symSize: 0x28 }
  - { offsetInCU: 0x15358, offset: 0x15358, size: 0x8, addend: 0x0, symName: __ZNSt3__114numeric_limitsIlE3maxB7v160006Ev, symObjAddr: 0x26E8, symBinAddr: 0x100005D54, symSize: 0x14 }
  - { offsetInCU: 0x1536C, offset: 0x1536C, size: 0x8, addend: 0x0, symName: __ZNKSt3__19allocatorINS_6vectorIbNS0_IbEEEEE8max_sizeB7v160006Ev, symObjAddr: 0x26FC, symBinAddr: 0x100005D68, symSize: 0x18 }
  - { offsetInCU: 0x15392, offset: 0x15392, size: 0x8, addend: 0x0, symName: __ZNKSt3__117__compressed_pairIPNS_6vectorIbNS_9allocatorIbEEEENS2_IS4_EEE6secondB7v160006Ev, symObjAddr: 0x2714, symBinAddr: 0x100005D80, symSize: 0x24 }
  - { offsetInCU: 0x153B8, offset: 0x153B8, size: 0x8, addend: 0x0, symName: __ZNKSt3__122__compressed_pair_elemINS_9allocatorINS_6vectorIbNS1_IbEEEEEELi1ELb1EE5__getB7v160006Ev, symObjAddr: 0x2738, symBinAddr: 0x100005DA4, symSize: 0x14 }
  - { offsetInCU: 0x153DE, offset: 0x153DE, size: 0x8, addend: 0x0, symName: __ZNSt3__123__libcpp_numeric_limitsIlLb1EE3maxB7v160006Ev, symObjAddr: 0x274C, symBinAddr: 0x100005DB8, symSize: 0x8 }
  - { offsetInCU: 0x153F2, offset: 0x153F2, size: 0x8, addend: 0x0, symName: __ZNSt3__19allocatorINS_6vectorIbNS0_IbEEEEE8allocateB7v160006Em, symObjAddr: 0x2754, symBinAddr: 0x100005DC0, symSize: 0x5C }
  - { offsetInCU: 0x15426, offset: 0x15426, size: 0x8, addend: 0x0, symName: __ZNSt3__117__compressed_pairIPNS_6vectorIbNS_9allocatorIbEEEENS2_IS4_EEE6secondB7v160006Ev, symObjAddr: 0x27B0, symBinAddr: 0x100005E1C, symSize: 0x24 }
  - { offsetInCU: 0x1544C, offset: 0x1544C, size: 0x8, addend: 0x0, symName: __ZNSt3__122__compressed_pair_elemINS_9allocatorINS_6vectorIbNS1_IbEEEEEELi1ELb1EE5__getB7v160006Ev, symObjAddr: 0x27D4, symBinAddr: 0x100005E40, symSize: 0x14 }
  - { offsetInCU: 0x15472, offset: 0x15472, size: 0x8, addend: 0x0, symName: __ZNSt3__117__compressed_pairIPNS_6vectorIbNS_9allocatorIbEEEENS2_IS4_EEE5firstB7v160006Ev, symObjAddr: 0x27E8, symBinAddr: 0x100005E54, symSize: 0x24 }
  - { offsetInCU: 0x15498, offset: 0x15498, size: 0x8, addend: 0x0, symName: __ZNSt3__122__compressed_pair_elemIPNS_6vectorIbNS_9allocatorIbEEEELi0ELb0EE5__getB7v160006Ev, symObjAddr: 0x280C, symBinAddr: 0x100005E78, symSize: 0x14 }
  - { offsetInCU: 0x154BE, offset: 0x154BE, size: 0x8, addend: 0x0, symName: __ZNKSt3__16vectorINS0_IbNS_9allocatorIbEEEENS1_IS3_EEE31__annotate_contiguous_containerB7v160006EPKvS7_S7_S7_, symObjAddr: 0x2820, symBinAddr: 0x100005E8C, symSize: 0x20 }
  - { offsetInCU: 0x15514, offset: 0x15514, size: 0x8, addend: 0x0, symName: __ZNKSt3__16vectorINS0_IbNS_9allocatorIbEEEENS1_IS3_EEE4dataB7v160006Ev, symObjAddr: 0x2840, symBinAddr: 0x100005EAC, symSize: 0x28 }
  - { offsetInCU: 0x1553A, offset: 0x1553A, size: 0x8, addend: 0x0, symName: __ZNKSt3__16vectorINS0_IbNS_9allocatorIbEEEENS1_IS3_EEE8capacityB7v160006Ev, symObjAddr: 0x2868, symBinAddr: 0x100005ED4, symSize: 0x40 }
  - { offsetInCU: 0x15560, offset: 0x15560, size: 0x8, addend: 0x0, symName: __ZNKSt3__16vectorINS0_IbNS_9allocatorIbEEEENS1_IS3_EEE9__end_capB7v160006Ev, symObjAddr: 0x28BC, symBinAddr: 0x100005F28, symSize: 0x28 }
  - { offsetInCU: 0x15586, offset: 0x15586, size: 0x8, addend: 0x0, symName: __ZNKSt3__117__compressed_pairIPNS_6vectorIbNS_9allocatorIbEEEENS2_IS4_EEE5firstB7v160006Ev, symObjAddr: 0x28E4, symBinAddr: 0x100005F50, symSize: 0x24 }
  - { offsetInCU: 0x155AC, offset: 0x155AC, size: 0x8, addend: 0x0, symName: __ZNKSt3__122__compressed_pair_elemIPNS_6vectorIbNS_9allocatorIbEEEELi0ELb0EE5__getB7v160006Ev, symObjAddr: 0x2908, symBinAddr: 0x100005F74, symSize: 0x14 }
  - { offsetInCU: 0x155EB, offset: 0x155EB, size: 0x8, addend: 0x0, symName: __ZNSt3__16vectorINS0_IbNS_9allocatorIbEEEENS1_IS3_EEE21_ConstructTransactionC1B7v160006ERS5_m, symObjAddr: 0x291C, symBinAddr: 0x100005F88, symSize: 0x3C }
  - { offsetInCU: 0x15633, offset: 0x15633, size: 0x8, addend: 0x0, symName: __ZNSt3__116allocator_traitsINS_9allocatorINS_6vectorIbNS1_IbEEEEEEE9constructB7v160006IS4_JRKS4_EvEEvRS5_PT_DpOT0_, symObjAddr: 0x2958, symBinAddr: 0x100005FC4, symSize: 0x34 }
  - { offsetInCU: 0x1568A, offset: 0x1568A, size: 0x8, addend: 0x0, symName: __ZNSt3__16vectorINS0_IbNS_9allocatorIbEEEENS1_IS3_EEE21_ConstructTransactionD1B7v160006Ev, symObjAddr: 0x298C, symBinAddr: 0x100005FF8, symSize: 0x2C }
  - { offsetInCU: 0x156B4, offset: 0x156B4, size: 0x8, addend: 0x0, symName: __ZNSt3__16vectorINS0_IbNS_9allocatorIbEEEENS1_IS3_EEE21_ConstructTransactionC2B7v160006ERS5_m, symObjAddr: 0x29B8, symBinAddr: 0x100006024, symSize: 0x4C }
  - { offsetInCU: 0x156FC, offset: 0x156FC, size: 0x8, addend: 0x0, symName: __ZNSt3__19allocatorINS_6vectorIbNS0_IbEEEEE9constructB7v160006IS3_JRKS3_EEEvPT_DpOT0_, symObjAddr: 0x2A04, symBinAddr: 0x100006070, symSize: 0x30 }
  - { offsetInCU: 0x15752, offset: 0x15752, size: 0x8, addend: 0x0, symName: __ZNSt3__16vectorIbNS_9allocatorIbEEEC1ERKS3_, symObjAddr: 0x2A34, symBinAddr: 0x1000060A0, symSize: 0x34 }
  - { offsetInCU: 0x1578D, offset: 0x1578D, size: 0x8, addend: 0x0, symName: __ZNSt3__16vectorIbNS_9allocatorIbEEEC2ERKS3_, symObjAddr: 0x2A68, symBinAddr: 0x1000060D4, symSize: 0xD4 }
  - { offsetInCU: 0x157C8, offset: 0x157C8, size: 0x8, addend: 0x0, symName: __ZNSt3__116allocator_traitsINS_9allocatorImEEE37select_on_container_copy_constructionB7v160006IS2_vvEES2_RKS2_, symObjAddr: 0x2B3C, symBinAddr: 0x1000061A8, symSize: 0x10 }
  - { offsetInCU: 0x157FC, offset: 0x157FC, size: 0x8, addend: 0x0, symName: __ZNSt3__117__compressed_pairImNS_9allocatorImEEEC1B7v160006IiS2_EEOT_OT0_, symObjAddr: 0x2B4C, symBinAddr: 0x1000061B8, symSize: 0x3C }
  - { offsetInCU: 0x15854, offset: 0x15854, size: 0x8, addend: 0x0, symName: __ZNKSt3__16vectorIbNS_9allocatorIbEEE4sizeB7v160006Ev, symObjAddr: 0x2B88, symBinAddr: 0x1000061F4, symSize: 0x18 }
  - { offsetInCU: 0x1587A, offset: 0x1587A, size: 0x8, addend: 0x0, symName: __ZNSt3__16vectorIbNS_9allocatorIbEEE18__construct_at_endINS_14__bit_iteratorIS3_Lb1ELm0EEEEENS_9enable_ifIXsr27__is_cpp17_forward_iteratorIT_EE5valueEvE4typeES8_S8_, symObjAddr: 0x2BA0, symBinAddr: 0x10000620C, symSize: 0x144 }
  - { offsetInCU: 0x158D8, offset: 0x158D8, size: 0x8, addend: 0x0, symName: __ZNKSt3__16vectorIbNS_9allocatorIbEEE5beginB7v160006Ev, symObjAddr: 0x2CE4, symBinAddr: 0x100006350, symSize: 0x38 }
  - { offsetInCU: 0x158FE, offset: 0x158FE, size: 0x8, addend: 0x0, symName: __ZNKSt3__16vectorIbNS_9allocatorIbEEE3endB7v160006Ev, symObjAddr: 0x2D1C, symBinAddr: 0x100006388, symSize: 0x38 }
  - { offsetInCU: 0x15924, offset: 0x15924, size: 0x8, addend: 0x0, symName: __ZNSt3__117__compressed_pairImNS_9allocatorImEEEC2B7v160006IiS2_EEOT_OT0_, symObjAddr: 0x2D54, symBinAddr: 0x1000063C0, symSize: 0x44 }
  - { offsetInCU: 0x1597C, offset: 0x1597C, size: 0x8, addend: 0x0, symName: __ZNSt3__122__compressed_pair_elemINS_9allocatorImEELi1ELb1EEC2B7v160006IS2_vEEOT_, symObjAddr: 0x2D98, symBinAddr: 0x100006404, symSize: 0x18 }
  - { offsetInCU: 0x159D2, offset: 0x159D2, size: 0x8, addend: 0x0, symName: __ZNKSt3__16__lessIllEclB7v160006ERKlS3_, symObjAddr: 0x37B0, symBinAddr: 0x100006E1C, symSize: 0x34 }
  - { offsetInCU: 0x15A37, offset: 0x15A37, size: 0x8, addend: 0x0, symName: __ZNKSt3__114__copy_trivialclB7v160006IKmmLi0EEENS_4pairIPT_PT0_EES5_S5_S7_, symObjAddr: 0x39C0, symBinAddr: 0x10000702C, symSize: 0x48 }
  - { offsetInCU: 0x15ABD, offset: 0x15ABD, size: 0x8, addend: 0x0, symName: __ZNSt3__14pairIPKmS2_EC1B7v160006IS2_S2_LPv0EEEOT_OT0_, symObjAddr: 0x3B28, symBinAddr: 0x100007194, symSize: 0x3C }
  - { offsetInCU: 0x15B1B, offset: 0x15B1B, size: 0x8, addend: 0x0, symName: __ZNSt3__14pairIPKmS2_EC2B7v160006IS2_S2_LPv0EEEOT_OT0_, symObjAddr: 0x3B64, symBinAddr: 0x1000071D0, symSize: 0x34 }
  - { offsetInCU: 0x15B79, offset: 0x15B79, size: 0x8, addend: 0x0, symName: __ZNSt3__118__unwrap_iter_implIPKmLb1EE8__unwrapB7v160006ES2_, symObjAddr: 0x3B98, symBinAddr: 0x100007204, symSize: 0x24 }
  - { offsetInCU: 0x15BA6, offset: 0x15BA6, size: 0x8, addend: 0x0, symName: __ZNSt3__14pairIPKmPmEC1B7v160006IRS2_S3_LPv0EEEOT_OT0_, symObjAddr: 0x3C78, symBinAddr: 0x1000072E4, symSize: 0x3C }
  - { offsetInCU: 0x15C04, offset: 0x15C04, size: 0x8, addend: 0x0, symName: __ZNSt3__14pairIPKmPmEC2B7v160006IRS2_S3_LPv0EEEOT_OT0_, symObjAddr: 0x3CB4, symBinAddr: 0x100007320, symSize: 0x34 }
  - { offsetInCU: 0x15C62, offset: 0x15C62, size: 0x8, addend: 0x0, symName: __ZNSt3__118__unwrap_iter_implIPmLb1EE8__unwrapB7v160006ES1_, symObjAddr: 0x3CE8, symBinAddr: 0x100007354, symSize: 0x24 }
  - { offsetInCU: 0x15C85, offset: 0x15C85, size: 0x8, addend: 0x0, symName: __ZNSt3__14pairIPKmPmEC1B7v160006IS2_S3_LPv0EEEOT_OT0_, symObjAddr: 0x3D0C, symBinAddr: 0x100007378, symSize: 0x3C }
  - { offsetInCU: 0x15CE3, offset: 0x15CE3, size: 0x8, addend: 0x0, symName: __ZNSt3__14pairIPKmPmEC2B7v160006IS2_S3_LPv0EEEOT_OT0_, symObjAddr: 0x3D48, symBinAddr: 0x1000073B4, symSize: 0x34 }
  - { offsetInCU: 0x15D41, offset: 0x15D41, size: 0x8, addend: 0x0, symName: __ZNSt3__118__unwrap_iter_implIPKmLb1EE8__rewrapB7v160006ES2_S2_, symObjAddr: 0x3DB8, symBinAddr: 0x100007424, symSize: 0x50 }
  - { offsetInCU: 0x15D72, offset: 0x15D72, size: 0x8, addend: 0x0, symName: __ZNSt3__118__unwrap_iter_implIPmLb1EE8__rewrapB7v160006ES1_S1_, symObjAddr: 0x3E08, symBinAddr: 0x100007474, symSize: 0x50 }
  - { offsetInCU: 0x15DA3, offset: 0x15DA3, size: 0x8, addend: 0x0, symName: __ZNKSt3__16vectorIbNS_9allocatorIbEEE11__make_iterB7v160006Em, symObjAddr: 0x3E58, symBinAddr: 0x1000074C4, symSize: 0x5C }
  - { offsetInCU: 0x15DD8, offset: 0x15DD8, size: 0x8, addend: 0x0, symName: __ZNSt3__114__bit_iteratorINS_6vectorIbNS_9allocatorIbEEEELb1ELm0EEC1B7v160006EPKmj, symObjAddr: 0x3EB4, symBinAddr: 0x100007520, symSize: 0x3C }
  - { offsetInCU: 0x15E20, offset: 0x15E20, size: 0x8, addend: 0x0, symName: __ZNSt3__114__bit_iteratorINS_6vectorIbNS_9allocatorIbEEEELb1ELm0EEC2B7v160006EPKmj, symObjAddr: 0x3EF0, symBinAddr: 0x10000755C, symSize: 0x2C }
  - { offsetInCU: 0x15E68, offset: 0x15E68, size: 0x8, addend: 0x0, symName: __ZNSt3__16vectorINS0_IbNS_9allocatorIbEEEENS1_IS3_EEE21_ConstructTransactionD2B7v160006Ev, symObjAddr: 0x3F1C, symBinAddr: 0x100007588, symSize: 0x20 }
  - { offsetInCU: 0x15E92, offset: 0x15E92, size: 0x8, addend: 0x0, symName: __ZNSt3__128__exception_guard_exceptionsINS_6vectorINS1_IbNS_9allocatorIbEEEENS2_IS4_EEE16__destroy_vectorEED2B7v160006Ev, symObjAddr: 0x3F3C, symBinAddr: 0x1000075A8, symSize: 0x50 }
  - { offsetInCU: 0x15EBC, offset: 0x15EBC, size: 0x8, addend: 0x0, symName: __ZNSt3__16vectorINS0_IbNS_9allocatorIbEEEENS1_IS3_EEE16__destroy_vectorclB7v160006Ev, symObjAddr: 0x3F8C, symBinAddr: 0x1000075F8, symSize: 0x9C }
  - { offsetInCU: 0x15EE2, offset: 0x15EE2, size: 0x8, addend: 0x0, symName: __ZNKSt3__16vectorINS0_IbNS_9allocatorIbEEEENS1_IS3_EEE17__annotate_deleteB7v160006Ev, symObjAddr: 0x4028, symBinAddr: 0x100007694, symSize: 0xD4 }
  - { offsetInCU: 0x15F08, offset: 0x15F08, size: 0x8, addend: 0x0, symName: __ZNSt3__16vectorINS0_IbNS_9allocatorIbEEEENS1_IS3_EEE7__clearB7v160006Ev, symObjAddr: 0x410C, symBinAddr: 0x100007778, symSize: 0x28 }
  - { offsetInCU: 0x15F2E, offset: 0x15F2E, size: 0x8, addend: 0x0, symName: __ZNSt3__116allocator_traitsINS_9allocatorINS_6vectorIbNS1_IbEEEEEEE10deallocateB7v160006ERS5_PS4_m, symObjAddr: 0x4134, symBinAddr: 0x1000077A0, symSize: 0x34 }
  - { offsetInCU: 0x15F70, offset: 0x15F70, size: 0x8, addend: 0x0, symName: __ZNKSt3__16vectorINS0_IbNS_9allocatorIbEEEENS1_IS3_EEE4sizeB7v160006Ev, symObjAddr: 0x4168, symBinAddr: 0x1000077D4, symSize: 0x28 }
  - { offsetInCU: 0x15F96, offset: 0x15F96, size: 0x8, addend: 0x0, symName: __ZNSt3__16vectorINS0_IbNS_9allocatorIbEEEENS1_IS3_EEE22__base_destruct_at_endB7v160006EPS3_, symObjAddr: 0x4190, symBinAddr: 0x1000077FC, symSize: 0x8C }
  - { offsetInCU: 0x15FDA, offset: 0x15FDA, size: 0x8, addend: 0x0, symName: __ZNSt3__116allocator_traitsINS_9allocatorINS_6vectorIbNS1_IbEEEEEEE7destroyB7v160006IS4_vEEvRS5_PT_, symObjAddr: 0x421C, symBinAddr: 0x100007888, symSize: 0x2C }
  - { offsetInCU: 0x16017, offset: 0x16017, size: 0x8, addend: 0x0, symName: __ZNSt3__19allocatorINS_6vectorIbNS0_IbEEEEE7destroyB7v160006EPS3_, symObjAddr: 0x4248, symBinAddr: 0x1000078B4, symSize: 0x28 }
  - { offsetInCU: 0x1604B, offset: 0x1604B, size: 0x8, addend: 0x0, symName: __ZNSt3__19allocatorINS_6vectorIbNS0_IbEEEEE10deallocateB7v160006EPS3_m, symObjAddr: 0x4270, symBinAddr: 0x1000078DC, symSize: 0x44 }
  - { offsetInCU: 0x1608D, offset: 0x1608D, size: 0x8, addend: 0x0, symName: __ZNSt3__16vectorINS0_IbNS_9allocatorIbEEEENS1_IS3_EEED2B7v160006Ev, symObjAddr: 0x42B4, symBinAddr: 0x100007920, symSize: 0x44 }
  - { offsetInCU: 0x160B7, offset: 0x160B7, size: 0x8, addend: 0x0, symName: __ZNSt3__16vectorIbNS_9allocatorIbEEE10__make_refB7v160006Em, symObjAddr: 0x42F8, symBinAddr: 0x100007964, symSize: 0x60 }
  - { offsetInCU: 0x160EC, offset: 0x160EC, size: 0x8, addend: 0x0, symName: __ZNSt3__115__bit_referenceINS_6vectorIbNS_9allocatorIbEEEELb1EEC1B7v160006EPmm, symObjAddr: 0x4358, symBinAddr: 0x1000079C4, symSize: 0x3C }
  - { offsetInCU: 0x16132, offset: 0x16132, size: 0x8, addend: 0x0, symName: __ZNSt3__115__bit_referenceINS_6vectorIbNS_9allocatorIbEEEELb1EEC2B7v160006EPmm, symObjAddr: 0x4394, symBinAddr: 0x100007A00, symSize: 0x2C }
...
