---
triple:          'arm64-apple-darwin'
binary-path:     '/Users/dingkai/Code/IOI2024/NZOI/2021-2-2.gout'
relocations:
  - { offsetInCU: 0xBB, offset: 0xBB, size: 0x8, addend: 0x0, symName: __ZnwmPv, symObjAddr: 0x0, symBinAddr: 0x1000041CC, symSize: 0x18 }
  - { offsetInCU: 0x5B38, offset: 0x5B38, size: 0x8, addend: 0x0, symName: __ZStL8__ioinit, symObjAddr: 0x283D0, symBinAddr: 0x10000C080, symSize: 0x0 }
  - { offsetInCU: 0x5D58, offset: 0x5D58, size: 0x8, addend: 0x0, symName: _mpCnt, symObjAddr: 0x283D8, symBinAddr: 0x10000C088, symSize: 0x0 }
  - { offsetInCU: 0x5FF7, offset: 0x5FF7, size: 0x8, addend: 0x0, symName: __GLOBAL__sub_I_2021_2_2.cpp, symObjAddr: 0x20D0, symBinAddr: 0x10000629C, symSize: 0x14 }
  - { offsetInCU: 0x601C, offset: 0x601C, size: 0x8, addend: 0x0, symName: __Z41__static_initialization_and_destruction_0v, symObjAddr: 0x206C, symBinAddr: 0x100006238, symSize: 0x64 }
  - { offsetInCU: 0x6059, offset: 0x6059, size: 0x8, addend: 0x0, symName: __ZNSt3mapIcxSt4lessIcESaISt4pairIKcxEEED1Ev, symObjAddr: 0x204C, symBinAddr: 0x100006218, symSize: 0x20 }
  - { offsetInCU: 0x6051, offset: 0x6051, size: 0x8, addend: 0x0, symName: __ZNSt10_Head_baseILm0ERKcLb0EE7_M_headERS2_, symObjAddr: 0x2034, symBinAddr: 0x100006200, symSize: 0x18 }
  - { offsetInCU: 0x6078, offset: 0x6078, size: 0x8, addend: 0x0, symName: __ZNSt10_Head_baseILm0EOcLb0EE7_M_headERS1_, symObjAddr: 0x201C, symBinAddr: 0x1000061E8, symSize: 0x18 }
  - { offsetInCU: 0x609F, offset: 0x609F, size: 0x8, addend: 0x0, symName: __ZNSt11_Tuple_implILm0EJRKcEE7_M_headERS2_, symObjAddr: 0x2000, symBinAddr: 0x1000061CC, symSize: 0x1C }
  - { offsetInCU: 0x60C7, offset: 0x60C7, size: 0x8, addend: 0x0, symName: __ZNSt11_Tuple_implILm0EJOcEE7_M_headERS1_, symObjAddr: 0x1FE4, symBinAddr: 0x1000061B0, symSize: 0x1C }
  - { offsetInCU: 0x60EF, offset: 0x60EF, size: 0x8, addend: 0x0, symName: __ZSt12__get_helperILm0ERKcJEERT0_RSt11_Tuple_implIXT_EJS2_DpT1_EE, symObjAddr: 0x1FC8, symBinAddr: 0x100006194, symSize: 0x1C }
  - { offsetInCU: 0x612F, offset: 0x612F, size: 0x8, addend: 0x0, symName: __ZSt12__get_helperILm0EOcJEERT0_RSt11_Tuple_implIXT_EJS1_DpT1_EE, symObjAddr: 0x1FAC, symBinAddr: 0x100006178, symSize: 0x1C }
  - { offsetInCU: 0x6175, offset: 0x6175, size: 0x8, addend: 0x0, symName: __ZSt7forwardIRKcEOT_RNSt16remove_referenceIS2_E4typeE, symObjAddr: 0x1F98, symBinAddr: 0x100006164, symSize: 0x14 }
  - { offsetInCU: 0x61A5, offset: 0x61A5, size: 0x8, addend: 0x0, symName: __ZSt3getILm0EJRKcEERNSt13tuple_elementIXT_ESt5tupleIJDpT0_EEE4typeERS6_, symObjAddr: 0x1F7C, symBinAddr: 0x100006148, symSize: 0x1C }
  - { offsetInCU: 0x61E8, offset: 0x61E8, size: 0x8, addend: 0x0, symName: __ZSt7forwardIOcEOT_RNSt16remove_referenceIS1_E4typeE, symObjAddr: 0x1F68, symBinAddr: 0x100006134, symSize: 0x14 }
  - { offsetInCU: 0x6218, offset: 0x6218, size: 0x8, addend: 0x0, symName: __ZSt3getILm0EJOcEERNSt13tuple_elementIXT_ESt5tupleIJDpT0_EEE4typeERS5_, symObjAddr: 0x1F4C, symBinAddr: 0x100006118, symSize: 0x1C }
  - { offsetInCU: 0x6324, offset: 0x6324, size: 0x8, addend: 0x0, symName: __ZNSt4pairIKcxEC1IJRS0_EJLm0EEJEJEEERSt5tupleIJDpT_EERS4_IJDpT1_EESt12_Index_tupleIJXspT0_EEESD_IJXspT2_EEE, symObjAddr: 0x1F04, symBinAddr: 0x1000060D0, symSize: 0x48 }
  - { offsetInCU: 0x63F0, offset: 0x63F0, size: 0x8, addend: 0x0, symName: __ZNSt4pairIKcxEC1IJOcEJLm0EEJEJEEERSt5tupleIJDpT_EERS4_IJDpT1_EESt12_Index_tupleIJXspT0_EEESD_IJXspT2_EEE, symObjAddr: 0x1EBC, symBinAddr: 0x100006088, symSize: 0x48 }
  - { offsetInCU: 0x648A, offset: 0x648A, size: 0x8, addend: 0x0, symName: __ZNSt4pairIKcxEC1IJRS0_EJEEESt21piecewise_construct_tSt5tupleIJDpT_EES5_IJDpT0_EE, symObjAddr: 0x1E80, symBinAddr: 0x10000604C, symSize: 0x3C }
  - { offsetInCU: 0x64CF, offset: 0x64CF, size: 0x8, addend: 0x0, symName: __ZNSt11_Tuple_implILm0EJRKcEEC2EOS2_, symObjAddr: 0x1E58, symBinAddr: 0x100006024, symSize: 0x28 }
  - { offsetInCU: 0x656D, offset: 0x656D, size: 0x8, addend: 0x0, symName: __ZNSt4pairIKcxEC1IJOcEJEEESt21piecewise_construct_tSt5tupleIJDpT_EES5_IJDpT0_EE, symObjAddr: 0x1E1C, symBinAddr: 0x100005FE8, symSize: 0x3C }
  - { offsetInCU: 0x65B3, offset: 0x65B3, size: 0x8, addend: 0x0, symName: __ZNSt11_Tuple_implILm0EJOcEEC2EOS1_, symObjAddr: 0x1DF4, symBinAddr: 0x100005FC0, symSize: 0x28 }
  - { offsetInCU: 0x6664, offset: 0x6664, size: 0x8, addend: 0x0, symName: __ZNSt5tupleIJRKcEEC1EOS2_, symObjAddr: 0x1DCC, symBinAddr: 0x100005F98, symSize: 0x28 }
  - { offsetInCU: 0x667F, offset: 0x667F, size: 0x8, addend: 0x0, symName: __ZNK9__gnu_cxx16__aligned_membufISt4pairIKcxEE7_M_addrEv, symObjAddr: 0x1DB8, symBinAddr: 0x100005F84, symSize: 0x14 }
  - { offsetInCU: 0x672A, offset: 0x672A, size: 0x8, addend: 0x0, symName: __ZNSt5tupleIJOcEEC1EOS1_, symObjAddr: 0x1D90, symBinAddr: 0x100005F5C, symSize: 0x28 }
  - { offsetInCU: 0x6741, offset: 0x6741, size: 0x8, addend: 0x0, symName: __ZNSt15__new_allocatorISt13_Rb_tree_nodeISt4pairIKcxEEE8allocateEmPKv, symObjAddr: 0x1D00, symBinAddr: 0x100005ECC, symSize: 0x90 }
  - { offsetInCU: 0x6803, offset: 0x6803, size: 0x8, addend: 0x0, symName: __ZNK9__gnu_cxx16__aligned_membufISt4pairIKcxEE6_M_ptrEv, symObjAddr: 0x1CE4, symBinAddr: 0x100005EB0, symSize: 0x1C }
  - { offsetInCU: 0x6833, offset: 0x6833, size: 0x8, addend: 0x0, symName: __ZSt7forwardIRPSt13_Rb_tree_nodeISt4pairIKcxEEEOT_RNSt16remove_referenceIS7_E4typeE, symObjAddr: 0x1CD0, symBinAddr: 0x100005E9C, symSize: 0x14 }
  - { offsetInCU: 0x68DC, offset: 0x68DC, size: 0x8, addend: 0x0, symName: __ZNSt15__new_allocatorISt13_Rb_tree_nodeISt4pairIKcxEEE10deallocateEPS4_m, symObjAddr: 0x1C94, symBinAddr: 0x100005E60, symSize: 0x3C }
  - { offsetInCU: 0x694B, offset: 0x694B, size: 0x8, addend: 0x0, symName: __ZNSt8_Rb_treeIcSt4pairIKcxESt10_Select1stIS2_ESt4lessIcESaIS2_EE17_M_construct_nodeIJRKSt21piecewise_construct_tSt5tupleIJRS1_EESD_IJEEEEEvPSt13_Rb_tree_nodeIS2_EDpOT_, symObjAddr: 0x1B18, symBinAddr: 0x100005CE4, symSize: 0x17C }
  - { offsetInCU: 0x6A39, offset: 0x6A39, size: 0x8, addend: 0x0, symName: __ZNKSt10_Select1stISt4pairIKcxEEclERKS2_, symObjAddr: 0x1B00, symBinAddr: 0x100005CCC, symSize: 0x18 }
  - { offsetInCU: 0x6A71, offset: 0x6A71, size: 0x8, addend: 0x0, symName: __ZNKSt13_Rb_tree_nodeISt4pairIKcxEE9_M_valptrEv, symObjAddr: 0x1AE0, symBinAddr: 0x100005CAC, symSize: 0x20 }
  - { offsetInCU: 0x6A9B, offset: 0x6A9B, size: 0x8, addend: 0x0, symName: __ZSt7forwardIRPSt18_Rb_tree_node_baseEOT_RNSt16remove_referenceIS3_E4typeE, symObjAddr: 0x1ACC, symBinAddr: 0x100005C98, symSize: 0x14 }
  - { offsetInCU: 0x6B66, offset: 0x6B66, size: 0x8, addend: 0x0, symName: __ZNSt4pairIPSt18_Rb_tree_node_baseS1_EC1IRPSt13_Rb_tree_nodeIS_IKcxEERS1_Lb1EEEOT_OT0_, symObjAddr: 0x1A84, symBinAddr: 0x100005C50, symSize: 0x48 }
  - { offsetInCU: 0x6B59, offset: 0x6B59, size: 0x8, addend: 0x0, symName: __ZNSt8_Rb_treeIcSt4pairIKcxESt10_Select1stIS2_ESt4lessIcESaIS2_EE5beginEv, symObjAddr: 0x1A5C, symBinAddr: 0x100005C28, symSize: 0x28 }
  - { offsetInCU: 0x6B81, offset: 0x6B81, size: 0x8, addend: 0x0, symName: __ZNSt8_Rb_treeIcSt4pairIKcxESt10_Select1stIS2_ESt4lessIcESaIS2_EE17_M_construct_nodeIJRKSt21piecewise_construct_tSt5tupleIJOcEESD_IJEEEEEvPSt13_Rb_tree_nodeIS2_EDpOT_, symObjAddr: 0x18E0, symBinAddr: 0x100005AAC, symSize: 0x17C }
  - { offsetInCU: 0x6C6F, offset: 0x6C6F, size: 0x8, addend: 0x0, symName: __ZNSt8_Rb_treeIcSt4pairIKcxESt10_Select1stIS2_ESt4lessIcESaIS2_EE11_M_get_nodeEv, symObjAddr: 0x18A4, symBinAddr: 0x100005A70, symSize: 0x3C }
  - { offsetInCU: 0x6D11, offset: 0x6D11, size: 0x8, addend: 0x0, symName: __ZNSt10_Head_baseILm0EOcLb0EEC2IcEEOT_, symObjAddr: 0x1874, symBinAddr: 0x100005A40, symSize: 0x30 }
  - { offsetInCU: 0x6D28, offset: 0x6D28, size: 0x8, addend: 0x0, symName: __ZN9__gnu_cxx16__aligned_membufISt4pairIKcxEE7_M_addrEv, symObjAddr: 0x1860, symBinAddr: 0x100005A2C, symSize: 0x14 }
  - { offsetInCU: 0x6DA7, offset: 0x6DA7, size: 0x8, addend: 0x0, symName: __ZNSt8_Rb_treeIcSt4pairIKcxESt10_Select1stIS2_ESt4lessIcESaIS2_EE21_M_get_Node_allocatorEv, symObjAddr: 0x184C, symBinAddr: 0x100005A18, symSize: 0x14 }
  - { offsetInCU: 0x6DCF, offset: 0x6DCF, size: 0x8, addend: 0x0, symName: __ZNSt8_Rb_treeIcSt4pairIKcxESt10_Select1stIS2_ESt4lessIcESaIS2_EE14_M_create_nodeIJRKSt21piecewise_construct_tSt5tupleIJRS1_EESD_IJEEEEEPSt13_Rb_tree_nodeIS2_EDpOT_, symObjAddr: 0x17DC, symBinAddr: 0x1000059A8, symSize: 0x70 }
  - { offsetInCU: 0x6E7F, offset: 0x6E7F, size: 0x8, addend: 0x0, symName: __ZNSt10_Head_baseILm0ERKcLb0EEC2ES1_, symObjAddr: 0x17B8, symBinAddr: 0x100005984, symSize: 0x24 }
  - { offsetInCU: 0x6E8A, offset: 0x6E8A, size: 0x8, addend: 0x0, symName: __ZNSt8_Rb_treeIcSt4pairIKcxESt10_Select1stIS2_ESt4lessIcESaIS2_EE14_M_insert_nodeEPSt18_Rb_tree_node_baseSA_PSt13_Rb_tree_nodeIS2_E, symObjAddr: 0x16E4, symBinAddr: 0x1000058B0, symSize: 0xD4 }
  - { offsetInCU: 0x6EEE, offset: 0x6EEE, size: 0x8, addend: 0x0, symName: __ZNSt8_Rb_treeIcSt4pairIKcxESt10_Select1stIS2_ESt4lessIcESaIS2_EE6_S_keyEPKSt13_Rb_tree_nodeIS2_E, symObjAddr: 0x16BC, symBinAddr: 0x100005888, symSize: 0x28 }
  - { offsetInCU: 0x6F1A, offset: 0x6F1A, size: 0x8, addend: 0x0, symName: __ZNSt17_Rb_tree_iteratorISt4pairIKcxEEppEv, symObjAddr: 0x168C, symBinAddr: 0x100005858, symSize: 0x30 }
  - { offsetInCU: 0x6F42, offset: 0x6F42, size: 0x8, addend: 0x0, symName: __ZNSt17_Rb_tree_iteratorISt4pairIKcxEEmmEv, symObjAddr: 0x165C, symBinAddr: 0x100005828, symSize: 0x30 }
  - { offsetInCU: 0x6FE8, offset: 0x6FE8, size: 0x8, addend: 0x0, symName: __ZNSt4pairIPSt18_Rb_tree_node_baseS1_EC1IRS1_S4_Lb1EEEOT_OT0_, symObjAddr: 0x1614, symBinAddr: 0x1000057E0, symSize: 0x48 }
  - { offsetInCU: 0x6FF4, offset: 0x6FF4, size: 0x8, addend: 0x0, symName: __ZNSt8_Rb_treeIcSt4pairIKcxESt10_Select1stIS2_ESt4lessIcESaIS2_EE11_M_leftmostEv, symObjAddr: 0x15FC, symBinAddr: 0x1000057C8, symSize: 0x18 }
  - { offsetInCU: 0x701C, offset: 0x701C, size: 0x8, addend: 0x0, symName: __ZNSt8_Rb_treeIcSt4pairIKcxESt10_Select1stIS2_ESt4lessIcESaIS2_EE24_M_get_insert_unique_posERS1_, symObjAddr: 0x149C, symBinAddr: 0x100005668, symSize: 0x160 }
  - { offsetInCU: 0x7117, offset: 0x7117, size: 0x8, addend: 0x0, symName: __ZNSt4pairIPSt18_Rb_tree_node_baseS1_EC1IS1_S1_Lb1EEERKS1_S5_, symObjAddr: 0x1460, symBinAddr: 0x10000562C, symSize: 0x3C }
  - { offsetInCU: 0x711F, offset: 0x711F, size: 0x8, addend: 0x0, symName: __ZNSt8_Rb_treeIcSt4pairIKcxESt10_Select1stIS2_ESt4lessIcESaIS2_EE6_S_keyEPKSt18_Rb_tree_node_base, symObjAddr: 0x1444, symBinAddr: 0x100005610, symSize: 0x1C }
  - { offsetInCU: 0x714B, offset: 0x714B, size: 0x8, addend: 0x0, symName: __ZNSt8_Rb_treeIcSt4pairIKcxESt10_Select1stIS2_ESt4lessIcESaIS2_EE12_M_rightmostEv, symObjAddr: 0x142C, symBinAddr: 0x1000055F8, symSize: 0x18 }
  - { offsetInCU: 0x7173, offset: 0x7173, size: 0x8, addend: 0x0, symName: __ZNKSt8_Rb_treeIcSt4pairIKcxESt10_Select1stIS2_ESt4lessIcESaIS2_EE4sizeEv, symObjAddr: 0x1414, symBinAddr: 0x1000055E0, symSize: 0x18 }
  - { offsetInCU: 0x719B, offset: 0x719B, size: 0x8, addend: 0x0, symName: __ZNKSt23_Rb_tree_const_iteratorISt4pairIKcxEE13_M_const_castEv, symObjAddr: 0x13EC, symBinAddr: 0x1000055B8, symSize: 0x28 }
  - { offsetInCU: 0x71C3, offset: 0x71C3, size: 0x8, addend: 0x0, symName: __ZNSt8_Rb_treeIcSt4pairIKcxESt10_Select1stIS2_ESt4lessIcESaIS2_EE14_M_create_nodeIJRKSt21piecewise_construct_tSt5tupleIJOcEESD_IJEEEEEPSt13_Rb_tree_nodeIS2_EDpOT_, symObjAddr: 0x137C, symBinAddr: 0x100005548, symSize: 0x70 }
  - { offsetInCU: 0x727E, offset: 0x727E, size: 0x8, addend: 0x0, symName: __ZNSt11_Tuple_implILm0EJOcEEC2IcEEOT_, symObjAddr: 0x1340, symBinAddr: 0x10000550C, symSize: 0x3C }
  - { offsetInCU: 0x7291, offset: 0x7291, size: 0x8, addend: 0x0, symName: __ZN9__gnu_cxx16__aligned_membufISt4pairIKcxEE6_M_ptrEv, symObjAddr: 0x1324, symBinAddr: 0x1000054F0, symSize: 0x1C }
  - { offsetInCU: 0x72B9, offset: 0x72B9, size: 0x8, addend: 0x0, symName: __ZNSt8_Rb_treeIcSt4pairIKcxESt10_Select1stIS2_ESt4lessIcESaIS2_EE14_M_lower_boundEPSt13_Rb_tree_nodeIS2_EPSt18_Rb_tree_node_baseRS1_, symObjAddr: 0x1284, symBinAddr: 0x100005450, symSize: 0xA0 }
  - { offsetInCU: 0x7311, offset: 0x7311, size: 0x8, addend: 0x0, symName: __ZNSt8_Rb_treeIcSt4pairIKcxESt10_Select1stIS2_ESt4lessIcESaIS2_EE6_M_endEv, symObjAddr: 0x126C, symBinAddr: 0x100005438, symSize: 0x18 }
  - { offsetInCU: 0x7339, offset: 0x7339, size: 0x8, addend: 0x0, symName: __ZNSt8_Rb_treeIcSt4pairIKcxESt10_Select1stIS2_ESt4lessIcESaIS2_EE11_M_put_nodeEPSt13_Rb_tree_nodeIS2_E, symObjAddr: 0x1220, symBinAddr: 0x1000053EC, symSize: 0x4C }
  - { offsetInCU: 0x73A3, offset: 0x73A3, size: 0x8, addend: 0x0, symName: __ZNSt8_Rb_treeIcSt4pairIKcxESt10_Select1stIS2_ESt4lessIcESaIS2_EE15_M_destroy_nodeEPSt13_Rb_tree_nodeIS2_E, symObjAddr: 0x11C8, symBinAddr: 0x100005394, symSize: 0x58 }
  - { offsetInCU: 0x750A, offset: 0x750A, size: 0x8, addend: 0x0, symName: __ZNSt8_Rb_treeIcSt4pairIKcxESt10_Select1stIS2_ESt4lessIcESaIS2_EE10_Auto_nodeC1IJRKSt21piecewise_construct_tSt5tupleIJRS1_EESE_IJEEEEERS8_DpOT_, symObjAddr: 0x114C, symBinAddr: 0x100005318, symSize: 0x7C }
  - { offsetInCU: 0x74DF, offset: 0x74DF, size: 0x8, addend: 0x0, symName: __ZSt7forwardISt5tupleIJRKcEEEOT_RNSt16remove_referenceIS4_E4typeE, symObjAddr: 0x1138, symBinAddr: 0x100005304, symSize: 0x14 }
  - { offsetInCU: 0x7558, offset: 0x7558, size: 0x8, addend: 0x0, symName: __ZNSt11_Tuple_implILm0EJRKcEEC2ES1_, symObjAddr: 0x1110, symBinAddr: 0x1000052DC, symSize: 0x28 }
  - { offsetInCU: 0x75C6, offset: 0x75C6, size: 0x8, addend: 0x0, symName: __ZNSt17_Rb_tree_iteratorISt4pairIKcxEEC1EPSt18_Rb_tree_node_base, symObjAddr: 0x10EC, symBinAddr: 0x1000052B8, symSize: 0x24 }
  - { offsetInCU: 0x75B5, offset: 0x75B5, size: 0x8, addend: 0x0, symName: __ZNSt8_Rb_treeIcSt4pairIKcxESt10_Select1stIS2_ESt4lessIcESaIS2_EE10_Auto_node9_M_insertES0_IPSt18_Rb_tree_node_baseSB_E, symObjAddr: 0x10A0, symBinAddr: 0x10000526C, symSize: 0x4C }
  - { offsetInCU: 0x75FD, offset: 0x75FD, size: 0x8, addend: 0x0, symName: __ZNKSt8_Rb_treeIcSt4pairIKcxESt10_Select1stIS2_ESt4lessIcESaIS2_EE10_Auto_node6_M_keyEv, symObjAddr: 0x1080, symBinAddr: 0x10000524C, symSize: 0x20 }
  - { offsetInCU: 0x7625, offset: 0x7625, size: 0x8, addend: 0x0, symName: __ZNSt8_Rb_treeIcSt4pairIKcxESt10_Select1stIS2_ESt4lessIcESaIS2_EE29_M_get_insert_hint_unique_posESt23_Rb_tree_const_iteratorIS2_ERS1_, symObjAddr: 0xD48, symBinAddr: 0x100004F14, symSize: 0x338 }
  - { offsetInCU: 0x7738, offset: 0x7738, size: 0x8, addend: 0x0, symName: __ZNSt8_Rb_treeIcSt4pairIKcxESt10_Select1stIS2_ESt4lessIcESaIS2_EE10_Auto_nodeD1Ev, symObjAddr: 0xD04, symBinAddr: 0x100004ED0, symSize: 0x44 }
  - { offsetInCU: 0x77E7, offset: 0x77E7, size: 0x8, addend: 0x0, symName: __ZNSt8_Rb_treeIcSt4pairIKcxESt10_Select1stIS2_ESt4lessIcESaIS2_EE10_Auto_nodeC1IJRKSt21piecewise_construct_tSt5tupleIJOcEESE_IJEEEEERS8_DpOT_, symObjAddr: 0xC88, symBinAddr: 0x100004E54, symSize: 0x7C }
  - { offsetInCU: 0x77BE, offset: 0x77BE, size: 0x8, addend: 0x0, symName: __ZSt7forwardISt5tupleIJEEEOT_RNSt16remove_referenceIS2_E4typeE, symObjAddr: 0xC74, symBinAddr: 0x100004E40, symSize: 0x14 }
  - { offsetInCU: 0x77F4, offset: 0x77F4, size: 0x8, addend: 0x0, symName: __ZSt7forwardISt5tupleIJOcEEEOT_RNSt16remove_referenceIS3_E4typeE, symObjAddr: 0xC60, symBinAddr: 0x100004E2C, symSize: 0x14 }
  - { offsetInCU: 0x782A, offset: 0x782A, size: 0x8, addend: 0x0, symName: __ZSt7forwardIRKSt21piecewise_construct_tEOT_RNSt16remove_referenceIS3_E4typeE, symObjAddr: 0xC4C, symBinAddr: 0x100004E18, symSize: 0x14 }
  - { offsetInCU: 0x78B9, offset: 0x78B9, size: 0x8, addend: 0x0, symName: __ZNSt5tupleIJOcEEC1IJcELb1ELb1EEEDpOT_, symObjAddr: 0xC10, symBinAddr: 0x100004DDC, symSize: 0x3C }
  - { offsetInCU: 0x78DF, offset: 0x78DF, size: 0x8, addend: 0x0, symName: __ZSt7forwardIcEOT_RNSt16remove_referenceIS0_E4typeE, symObjAddr: 0xBFC, symBinAddr: 0x100004DC8, symSize: 0x14 }
  - { offsetInCU: 0x7913, offset: 0x7913, size: 0x8, addend: 0x0, symName: __ZNSt13_Rb_tree_nodeISt4pairIKcxEE9_M_valptrEv, symObjAddr: 0xBDC, symBinAddr: 0x100004DA8, symSize: 0x20 }
  - { offsetInCU: 0x793B, offset: 0x793B, size: 0x8, addend: 0x0, symName: __ZNKSt8_Rb_treeIcSt4pairIKcxESt10_Select1stIS2_ESt4lessIcESaIS2_EE8key_compEv, symObjAddr: 0xBC4, symBinAddr: 0x100004D90, symSize: 0x18 }
  - { offsetInCU: 0x7963, offset: 0x7963, size: 0x8, addend: 0x0, symName: __ZNSt8_Rb_treeIcSt4pairIKcxESt10_Select1stIS2_ESt4lessIcESaIS2_EE3endEv, symObjAddr: 0xB9C, symBinAddr: 0x100004D68, symSize: 0x28 }
  - { offsetInCU: 0x798B, offset: 0x798B, size: 0x8, addend: 0x0, symName: __ZNSt8_Rb_treeIcSt4pairIKcxESt10_Select1stIS2_ESt4lessIcESaIS2_EE11lower_boundERS1_, symObjAddr: 0xB54, symBinAddr: 0x100004D20, symSize: 0x48 }
  - { offsetInCU: 0x79C3, offset: 0x79C3, size: 0x8, addend: 0x0, symName: __ZNKSt8_Rb_treeIcSt4pairIKcxESt10_Select1stIS2_ESt4lessIcESaIS2_EE9_M_mbeginEv, symObjAddr: 0xB3C, symBinAddr: 0x100004D08, symSize: 0x18 }
  - { offsetInCU: 0x79EB, offset: 0x79EB, size: 0x8, addend: 0x0, symName: __ZNSt8_Rb_treeIcSt4pairIKcxESt10_Select1stIS2_ESt4lessIcESaIS2_EE12_M_drop_nodeEPSt13_Rb_tree_nodeIS2_E, symObjAddr: 0xB08, symBinAddr: 0x100004CD4, symSize: 0x34 }
  - { offsetInCU: 0x7A1F, offset: 0x7A1F, size: 0x8, addend: 0x0, symName: __ZNSt8_Rb_treeIcSt4pairIKcxESt10_Select1stIS2_ESt4lessIcESaIS2_EE7_S_leftEPSt18_Rb_tree_node_base, symObjAddr: 0xAF0, symBinAddr: 0x100004CBC, symSize: 0x18 }
  - { offsetInCU: 0x7A47, offset: 0x7A47, size: 0x8, addend: 0x0, symName: __ZNSt8_Rb_treeIcSt4pairIKcxESt10_Select1stIS2_ESt4lessIcESaIS2_EE8_S_rightEPSt18_Rb_tree_node_base, symObjAddr: 0xAD8, symBinAddr: 0x100004CA4, symSize: 0x18 }
  - { offsetInCU: 0x7A87, offset: 0x7A87, size: 0x8, addend: 0x0, symName: __ZNSt8_Rb_treeIcSt4pairIKcxESt10_Select1stIS2_ESt4lessIcESaIS2_EE22_M_emplace_hint_uniqueIJRKSt21piecewise_construct_tSt5tupleIJRS1_EESD_IJEEEEESt17_Rb_tree_iteratorIS2_ESt23_Rb_tree_const_iteratorIS2_EDpOT_, symObjAddr: 0xA00, symBinAddr: 0x100004BCC, symSize: 0xD8 }
  - { offsetInCU: 0x7B63, offset: 0x7B63, size: 0x8, addend: 0x0, symName: __ZNSt5tupleIJRKcEEC1ILb1ELb1EEES1_, symObjAddr: 0x9D8, symBinAddr: 0x100004BA4, symSize: 0x28 }
  - { offsetInCU: 0x7B7A, offset: 0x7B7A, size: 0x8, addend: 0x0, symName: __ZNSt8_Rb_treeIcSt4pairIKcxESt10_Select1stIS2_ESt4lessIcESaIS2_EE22_M_emplace_hint_uniqueIJRKSt21piecewise_construct_tSt5tupleIJOcEESD_IJEEEEESt17_Rb_tree_iteratorIS2_ESt23_Rb_tree_const_iteratorIS2_EDpOT_, symObjAddr: 0x900, symBinAddr: 0x100004ACC, symSize: 0xD8 }
  - { offsetInCU: 0x7C75, offset: 0x7C75, size: 0x8, addend: 0x0, symName: __ZNSt23_Rb_tree_const_iteratorISt4pairIKcxEEC1ERKSt17_Rb_tree_iteratorIS2_E, symObjAddr: 0x8D8, symBinAddr: 0x100004AA4, symSize: 0x28 }
  - { offsetInCU: 0x7C55, offset: 0x7C55, size: 0x8, addend: 0x0, symName: __ZSt16forward_as_tupleIJcEESt5tupleIJDpOT_EES3_, symObjAddr: 0x8A0, symBinAddr: 0x100004A6C, symSize: 0x38 }
  - { offsetInCU: 0x7C8C, offset: 0x7C8C, size: 0x8, addend: 0x0, symName: __ZSt4moveIRcEONSt16remove_referenceIT_E4typeEOS2_, symObjAddr: 0x88C, symBinAddr: 0x100004A58, symSize: 0x14 }
  - { offsetInCU: 0x7CC0, offset: 0x7CC0, size: 0x8, addend: 0x0, symName: __ZNKSt4lessIcEclERKcS2_, symObjAddr: 0x858, symBinAddr: 0x100004A24, symSize: 0x34 }
  - { offsetInCU: 0x7D08, offset: 0x7D08, size: 0x8, addend: 0x0, symName: __ZNKSt17_Rb_tree_iteratorISt4pairIKcxEEdeEv, symObjAddr: 0x838, symBinAddr: 0x100004A04, symSize: 0x20 }
  - { offsetInCU: 0x7D30, offset: 0x7D30, size: 0x8, addend: 0x0, symName: __ZNKSt3mapIcxSt4lessIcESaISt4pairIKcxEEE8key_compEv, symObjAddr: 0x80C, symBinAddr: 0x1000049D8, symSize: 0x2C }
  - { offsetInCU: 0x7D5A, offset: 0x7D5A, size: 0x8, addend: 0x0, symName: __ZSteqRKSt17_Rb_tree_iteratorISt4pairIKcxEES5_, symObjAddr: 0x7DC, symBinAddr: 0x1000049A8, symSize: 0x30 }
  - { offsetInCU: 0x7D96, offset: 0x7D96, size: 0x8, addend: 0x0, symName: __ZNSt3mapIcxSt4lessIcESaISt4pairIKcxEEE3endEv, symObjAddr: 0x7C0, symBinAddr: 0x10000498C, symSize: 0x1C }
  - { offsetInCU: 0x7DBE, offset: 0x7DBE, size: 0x8, addend: 0x0, symName: __ZNSt3mapIcxSt4lessIcESaISt4pairIKcxEEE11lower_boundERS3_, symObjAddr: 0x79C, symBinAddr: 0x100004968, symSize: 0x24 }
  - { offsetInCU: 0x7DF6, offset: 0x7DF6, size: 0x8, addend: 0x0, symName: __ZNSt8_Rb_treeIcSt4pairIKcxESt10_Select1stIS2_ESt4lessIcESaIS2_EE8_M_beginEv, symObjAddr: 0x780, symBinAddr: 0x10000494C, symSize: 0x1C }
  - { offsetInCU: 0x7E1E, offset: 0x7E1E, size: 0x8, addend: 0x0, symName: __ZNSt8_Rb_treeIcSt4pairIKcxESt10_Select1stIS2_ESt4lessIcESaIS2_EE8_M_eraseEPSt13_Rb_tree_nodeIS2_E, symObjAddr: 0x71C, symBinAddr: 0x1000048E8, symSize: 0x64 }
  - { offsetInCU: 0x7ED2, offset: 0x7ED2, size: 0x8, addend: 0x0, symName: __ZNSt15__new_allocatorISt13_Rb_tree_nodeISt4pairIKcxEEED2Ev, symObjAddr: 0x708, symBinAddr: 0x1000048D4, symSize: 0x14 }
  - { offsetInCU: 0x7EFE, offset: 0x7EFE, size: 0x8, addend: 0x0, symName: __ZNSt20_Rb_tree_key_compareISt4lessIcEEC2Ev, symObjAddr: 0x6F4, symBinAddr: 0x1000048C0, symSize: 0x14 }
  - { offsetInCU: 0x7F0E, offset: 0x7F0E, size: 0x8, addend: 0x0, symName: __ZNSt3mapIcxSt4lessIcESaISt4pairIKcxEEEixERS3_, symObjAddr: 0x600, symBinAddr: 0x1000047CC, symSize: 0xF4 }
  - { offsetInCU: 0x7F56, offset: 0x7F56, size: 0x8, addend: 0x0, symName: __ZNSt3mapIcxSt4lessIcESaISt4pairIKcxEEEixEOc, symObjAddr: 0x4FC, symBinAddr: 0x1000046C8, symSize: 0x104 }
  - { offsetInCU: 0x8001, offset: 0x8001, size: 0x8, addend: 0x0, symName: __ZNSt8_Rb_treeIcSt4pairIKcxESt10_Select1stIS2_ESt4lessIcESaIS2_EED1Ev, symObjAddr: 0x4C8, symBinAddr: 0x100004694, symSize: 0x34 }
  - { offsetInCU: 0x8072, offset: 0x8072, size: 0x8, addend: 0x0, symName: __ZNSt8_Rb_treeIcSt4pairIKcxESt10_Select1stIS2_ESt4lessIcESaIS2_EE13_Rb_tree_implIS6_Lb1EEC1Ev, symObjAddr: 0x484, symBinAddr: 0x100004650, symSize: 0x44 }
  - { offsetInCU: 0x8084, offset: 0x8084, size: 0x8, addend: 0x0, symName: _main, symObjAddr: 0x100, symBinAddr: 0x1000042CC, symSize: 0x384 }
  - { offsetInCU: 0x8145, offset: 0x8145, size: 0x8, addend: 0x0, symName: __ZNSt3mapIcxSt4lessIcESaISt4pairIKcxEEEC1Ev, symObjAddr: 0xE0, symBinAddr: 0x1000042AC, symSize: 0x20 }
  - { offsetInCU: 0x819B, offset: 0x819B, size: 0x8, addend: 0x0, symName: __ZNSt8_Rb_treeIcSt4pairIKcxESt10_Select1stIS2_ESt4lessIcESaIS2_EEC1Ev, symObjAddr: 0xC0, symBinAddr: 0x10000428C, symSize: 0x20 }
  - { offsetInCU: 0x81FD, offset: 0x81FD, size: 0x8, addend: 0x0, symName: __ZNSt8_Rb_treeIcSt4pairIKcxESt10_Select1stIS2_ESt4lessIcESaIS2_EE13_Rb_tree_implIS6_Lb1EED1Ev, symObjAddr: 0x94, symBinAddr: 0x100004260, symSize: 0x2C }
  - { offsetInCU: 0x81E9, offset: 0x81E9, size: 0x8, addend: 0x0, symName: __ZNSt15_Rb_tree_header8_M_resetEv, symObjAddr: 0x58, symBinAddr: 0x100004224, symSize: 0x3C }
  - { offsetInCU: 0x8240, offset: 0x8240, size: 0x8, addend: 0x0, symName: __ZNSt15_Rb_tree_headerC2Ev, symObjAddr: 0x30, symBinAddr: 0x1000041FC, symSize: 0x28 }
  - { offsetInCU: 0x8256, offset: 0x8256, size: 0x8, addend: 0x0, symName: __ZdlPvS_, symObjAddr: 0x18, symBinAddr: 0x1000041E4, symSize: 0x18 }
  - { offsetInCU: 0x8289, offset: 0x8289, size: 0x8, addend: 0x0, symName: __ZnwmPv, symObjAddr: 0x0, symBinAddr: 0x1000041CC, symSize: 0x18 }
...
