---
triple:          'arm64-apple-darwin'
binary-path:     '/Users/dingkai/Code/IOI2024/cses/SortingAndSearch/Sum of Three ValuesS3.gout'
relocations:
  - { offsetInCU: 0xCA, offset: 0xCA, size: 0x8, addend: 0x0, symName: __ZN9__gnu_cxx5__ops16__iter_less_iterEv, symObjAddr: 0x0, symBinAddr: 0x1000039EC, symSize: 0x8 }
  - { offsetInCU: 0x371B, offset: 0x371B, size: 0x8, addend: 0x0, symName: __ZStL8__ioinit, symObjAddr: 0x26098, symBinAddr: 0x10000C058, symSize: 0x0 }
  - { offsetInCU: 0x526E, offset: 0x526E, size: 0x8, addend: 0x0, symName: _a, symObjAddr: 0x260A0, symBinAddr: 0x10000C060, symSize: 0x0 }
  - { offsetInCU: 0x5D3D, offset: 0x5D3D, size: 0x8, addend: 0x0, symName: __ZNSt8__detail30__integer_to_chars_is_unsignedIjEE, symObjAddr: 0x2850, symBinAddr: 0x1000067B2, symSize: 0x0 }
  - { offsetInCU: 0x5D57, offset: 0x5D57, size: 0x8, addend: 0x0, symName: __ZNSt8__detail30__integer_to_chars_is_unsignedImEE, symObjAddr: 0x2851, symBinAddr: 0x1000067B3, symSize: 0x0 }
  - { offsetInCU: 0x5D71, offset: 0x5D71, size: 0x8, addend: 0x0, symName: __ZNSt8__detail30__integer_to_chars_is_unsignedIyEE, symObjAddr: 0x2852, symBinAddr: 0x1000067B4, symSize: 0x0 }
  - { offsetInCU: 0x5DA8, offset: 0x5DA8, size: 0x8, addend: 0x0, symName: __GLOBAL__sub_I_Sum_of_Three_ValuesS3.cpp, symObjAddr: 0x27AC, symBinAddr: 0x100006198, symSize: 0x14 }
  - { offsetInCU: 0x5DE8, offset: 0x5DE8, size: 0x8, addend: 0x0, symName: __ZNSt6vectorISt4pairIxiESaIS1_EED1Ev, symObjAddr: 0x2750, symBinAddr: 0x10000613C, symSize: 0x5C }
  - { offsetInCU: 0x5DF0, offset: 0x5DF0, size: 0x8, addend: 0x0, symName: __GLOBAL__sub_I_Sum_of_Three_ValuesS3.cpp, symObjAddr: 0x27AC, symBinAddr: 0x100006198, symSize: 0x14 }
  - { offsetInCU: 0x5E56, offset: 0x5E56, size: 0x8, addend: 0x0, symName: __Z41__static_initialization_and_destruction_0v, symObjAddr: 0x26EC, symBinAddr: 0x1000060D8, symSize: 0x64 }
  - { offsetInCU: 0x5E5E, offset: 0x5E5E, size: 0x8, addend: 0x0, symName: __ZNSt6vectorISt4pairIxiESaIS1_EED1Ev, symObjAddr: 0x2750, symBinAddr: 0x10000613C, symSize: 0x5C }
  - { offsetInCU: 0x5E8A, offset: 0x5E8A, size: 0x8, addend: 0x0, symName: __ZSt4moveIRiEONSt16remove_referenceIT_E4typeEOS2_, symObjAddr: 0x26D8, symBinAddr: 0x1000060C4, symSize: 0x14 }
  - { offsetInCU: 0x5E92, offset: 0x5E92, size: 0x8, addend: 0x0, symName: __Z41__static_initialization_and_destruction_0v, symObjAddr: 0x26EC, symBinAddr: 0x1000060D8, symSize: 0x64 }
  - { offsetInCU: 0x5EE8, offset: 0x5EE8, size: 0x8, addend: 0x0, symName: __ZSt4moveIRxEONSt16remove_referenceIT_E4typeEOS2_, symObjAddr: 0x26C4, symBinAddr: 0x1000060B0, symSize: 0x14 }
  - { offsetInCU: 0x5EF0, offset: 0x5EF0, size: 0x8, addend: 0x0, symName: __ZSt4moveIRiEONSt16remove_referenceIT_E4typeEOS2_, symObjAddr: 0x26D8, symBinAddr: 0x1000060C4, symSize: 0x14 }
  - { offsetInCU: 0x5EF1, offset: 0x5EF1, size: 0x8, addend: 0x0, symName: __ZNSt20__copy_move_backwardILb1ELb0ESt26random_access_iterator_tagE13__copy_move_bIPSt4pairIxiES5_EET0_T_S7_S6_, symObjAddr: 0x2648, symBinAddr: 0x100006034, symSize: 0x7C }
  - { offsetInCU: 0x5EF9, offset: 0x5EF9, size: 0x8, addend: 0x0, symName: __ZSt4moveIRxEONSt16remove_referenceIT_E4typeEOS2_, symObjAddr: 0x26C4, symBinAddr: 0x1000060B0, symSize: 0x14 }
  - { offsetInCU: 0x601F, offset: 0x601F, size: 0x8, addend: 0x0, symName: __ZSt4swapIiENSt9enable_ifIXsrSt6__and_IJSt6__not_ISt15__is_tuple_likeIT_EESt21is_move_constructibleIS4_ESt18is_move_assignableIS4_EEE5valueEvE4typeERS4_SE_, symObjAddr: 0x25F4, symBinAddr: 0x100005FE0, symSize: 0x54 }
  - { offsetInCU: 0x6027, offset: 0x6027, size: 0x8, addend: 0x0, symName: __ZNSt20__copy_move_backwardILb1ELb0ESt26random_access_iterator_tagE13__copy_move_bIPSt4pairIxiES5_EET0_T_S7_S6_, symObjAddr: 0x2648, symBinAddr: 0x100006034, symSize: 0x7C }
  - { offsetInCU: 0x6091, offset: 0x6091, size: 0x8, addend: 0x0, symName: __ZSt4swapIxENSt9enable_ifIXsrSt6__and_IJSt6__not_ISt15__is_tuple_likeIT_EESt21is_move_constructibleIS4_ESt18is_move_assignableIS4_EEE5valueEvE4typeERS4_SE_, symObjAddr: 0x25A0, symBinAddr: 0x100005F8C, symSize: 0x54 }
  - { offsetInCU: 0x6099, offset: 0x6099, size: 0x8, addend: 0x0, symName: __ZSt4swapIiENSt9enable_ifIXsrSt6__and_IJSt6__not_ISt15__is_tuple_likeIT_EESt21is_move_constructibleIS4_ESt18is_move_assignableIS4_EEE5valueEvE4typeERS4_SE_, symObjAddr: 0x25F4, symBinAddr: 0x100005FE0, symSize: 0x54 }
  - { offsetInCU: 0x605C, offset: 0x605C, size: 0x8, addend: 0x0, symName: __ZNK9__gnu_cxx5__ops14_Iter_less_valclINS_17__normal_iteratorIPSt4pairIxiESt6vectorIS5_SaIS5_EEEES5_EEbT_RT0_, symObjAddr: 0x2570, symBinAddr: 0x100005F5C, symSize: 0x30 }
  - { offsetInCU: 0x6064, offset: 0x6064, size: 0x8, addend: 0x0, symName: __ZSt4swapIxENSt9enable_ifIXsrSt6__and_IJSt6__not_ISt15__is_tuple_likeIT_EESt21is_move_constructibleIS4_ESt18is_move_assignableIS4_EEE5valueEvE4typeERS4_SE_, symObjAddr: 0x25A0, symBinAddr: 0x100005F8C, symSize: 0x54 }
  - { offsetInCU: 0x616D, offset: 0x616D, size: 0x8, addend: 0x0, symName: __ZSt23__copy_move_backward_a2ILb1EPSt4pairIxiES2_ET1_T0_S4_S3_, symObjAddr: 0x2544, symBinAddr: 0x100005F30, symSize: 0x2C }
  - { offsetInCU: 0x6175, offset: 0x6175, size: 0x8, addend: 0x0, symName: __ZNK9__gnu_cxx5__ops14_Iter_less_valclINS_17__normal_iteratorIPSt4pairIxiESt6vectorIS5_SaIS5_EEEES5_EEbT_RT0_, symObjAddr: 0x2570, symBinAddr: 0x100005F5C, symSize: 0x30 }
  - { offsetInCU: 0x615A, offset: 0x615A, size: 0x8, addend: 0x0, symName: __ZNSt4pairIxiE4swapERS0_, symObjAddr: 0x2500, symBinAddr: 0x100005EEC, symSize: 0x44 }
  - { offsetInCU: 0x6162, offset: 0x6162, size: 0x8, addend: 0x0, symName: __ZSt23__copy_move_backward_a2ILb1EPSt4pairIxiES2_ET1_T0_S4_S3_, symObjAddr: 0x2544, symBinAddr: 0x100005F30, symSize: 0x2C }
  - { offsetInCU: 0x62E4, offset: 0x62E4, size: 0x8, addend: 0x0, symName: __ZSt11__push_heapIN9__gnu_cxx17__normal_iteratorIPSt4pairIxiESt6vectorIS3_SaIS3_EEEElS3_NS0_5__ops14_Iter_less_valEEvT_T0_SC_T1_RT2_, symObjAddr: 0x23D0, symBinAddr: 0x100005DBC, symSize: 0x130 }
  - { offsetInCU: 0x62EC, offset: 0x62EC, size: 0x8, addend: 0x0, symName: __ZNSt4pairIxiE4swapERS0_, symObjAddr: 0x2500, symBinAddr: 0x100005EEC, symSize: 0x44 }
  - { offsetInCU: 0x62F1, offset: 0x62F1, size: 0x8, addend: 0x0, symName: __ZSt4moveIRN9__gnu_cxx5__ops15_Iter_less_iterEEONSt16remove_referenceIT_E4typeEOS5_, symObjAddr: 0x23BC, symBinAddr: 0x100005DA8, symSize: 0x14 }
  - { offsetInCU: 0x62F9, offset: 0x62F9, size: 0x8, addend: 0x0, symName: __ZSt11__push_heapIN9__gnu_cxx17__normal_iteratorIPSt4pairIxiESt6vectorIS3_SaIS3_EEEElS3_NS0_5__ops14_Iter_less_valEEvT_T0_SC_T1_RT2_, symObjAddr: 0x23D0, symBinAddr: 0x100005DBC, symSize: 0x130 }
  - { offsetInCU: 0x63C1, offset: 0x63C1, size: 0x8, addend: 0x0, symName: __ZSt7forwardISt4pairIxiEEOT_RNSt16remove_referenceIS2_E4typeE, symObjAddr: 0x23A8, symBinAddr: 0x100005D94, symSize: 0x14 }
  - { offsetInCU: 0x63C9, offset: 0x63C9, size: 0x8, addend: 0x0, symName: __ZSt4moveIRN9__gnu_cxx5__ops15_Iter_less_iterEEONSt16remove_referenceIT_E4typeEOS5_, symObjAddr: 0x23BC, symBinAddr: 0x100005DA8, symSize: 0x14 }
  - { offsetInCU: 0x64AB, offset: 0x64AB, size: 0x8, addend: 0x0, symName: __ZSt12__niter_wrapIN9__gnu_cxx17__normal_iteratorIPSt4pairIxiESt6vectorIS3_SaIS3_EEEES4_ET_S9_T0_, symObjAddr: 0x236C, symBinAddr: 0x100005D58, symSize: 0x3C }
  - { offsetInCU: 0x64B3, offset: 0x64B3, size: 0x8, addend: 0x0, symName: __ZSt7forwardISt4pairIxiEEOT_RNSt16remove_referenceIS2_E4typeE, symObjAddr: 0x23A8, symBinAddr: 0x100005D94, symSize: 0x14 }
  - { offsetInCU: 0x64BA, offset: 0x64BA, size: 0x8, addend: 0x0, symName: __ZSt23__copy_move_backward_a1ILb1EPSt4pairIxiES2_ET1_T0_S4_S3_, symObjAddr: 0x2340, symBinAddr: 0x100005D2C, symSize: 0x2C }
  - { offsetInCU: 0x64C2, offset: 0x64C2, size: 0x8, addend: 0x0, symName: __ZSt12__niter_wrapIN9__gnu_cxx17__normal_iteratorIPSt4pairIxiESt6vectorIS3_SaIS3_EEEES4_ET_S9_T0_, symObjAddr: 0x236C, symBinAddr: 0x100005D58, symSize: 0x3C }
  - { offsetInCU: 0x6566, offset: 0x6566, size: 0x8, addend: 0x0, symName: __ZSt12__niter_baseIPSt4pairIxiESt6vectorIS1_SaIS1_EEET_N9__gnu_cxx17__normal_iteratorIS6_T0_EE, symObjAddr: 0x2320, symBinAddr: 0x100005D0C, symSize: 0x20 }
  - { offsetInCU: 0x656E, offset: 0x656E, size: 0x8, addend: 0x0, symName: __ZSt23__copy_move_backward_a1ILb1EPSt4pairIxiES2_ET1_T0_S4_S3_, symObjAddr: 0x2340, symBinAddr: 0x100005D2C, symSize: 0x2C }
  - { offsetInCU: 0x6586, offset: 0x6586, size: 0x8, addend: 0x0, symName: __ZSt4swapIxiENSt9enable_ifIXsrSt6__and_IJSt14__is_swappableIT_ES2_IT0_EEE5valueEvE4typeERSt4pairIS3_S5_ESC_, symObjAddr: 0x22F8, symBinAddr: 0x100005CE4, symSize: 0x28 }
  - { offsetInCU: 0x658E, offset: 0x658E, size: 0x8, addend: 0x0, symName: __ZSt12__niter_baseIPSt4pairIxiESt6vectorIS1_SaIS1_EEET_N9__gnu_cxx17__normal_iteratorIS6_T0_EE, symObjAddr: 0x2320, symBinAddr: 0x100005D0C, symSize: 0x20 }
  - { offsetInCU: 0x66B2, offset: 0x66B2, size: 0x8, addend: 0x0, symName: __ZSt13__adjust_heapIN9__gnu_cxx17__normal_iteratorIPSt4pairIxiESt6vectorIS3_SaIS3_EEEElS3_NS0_5__ops15_Iter_less_iterEEvT_T0_SC_T1_T2_, symObjAddr: 0x211C, symBinAddr: 0x100005B08, symSize: 0x1DC }
  - { offsetInCU: 0x66BA, offset: 0x66BA, size: 0x8, addend: 0x0, symName: __ZSt4swapIxiENSt9enable_ifIXsrSt6__and_IJSt14__is_swappableIT_ES2_IT0_EEE5valueEvE4typeERSt4pairIS3_S5_ESC_, symObjAddr: 0x22F8, symBinAddr: 0x100005CE4, symSize: 0x28 }
  - { offsetInCU: 0x673A, offset: 0x673A, size: 0x8, addend: 0x0, symName: __ZNSt4pairIxiEC1IxiLb1EEEv, symObjAddr: 0x20F8, symBinAddr: 0x100005AE4, symSize: 0x24 }
  - { offsetInCU: 0x6742, offset: 0x6742, size: 0x8, addend: 0x0, symName: __ZSt13__adjust_heapIN9__gnu_cxx17__normal_iteratorIPSt4pairIxiESt6vectorIS3_SaIS3_EEEElS3_NS0_5__ops15_Iter_less_iterEEvT_T0_SC_T1_T2_, symObjAddr: 0x211C, symBinAddr: 0x100005B08, symSize: 0x1DC }
  - { offsetInCU: 0x677C, offset: 0x677C, size: 0x8, addend: 0x0, symName: __ZNK9__gnu_cxx5__ops14_Val_less_iterclISt4pairIxiENS_17__normal_iteratorIPS4_St6vectorIS4_SaIS4_EEEEEEbRT_T0_, symObjAddr: 0x20C4, symBinAddr: 0x100005AB0, symSize: 0x34 }
  - { offsetInCU: 0x6784, offset: 0x6784, size: 0x8, addend: 0x0, symName: __ZNSt4pairIxiEC1IxiLb1EEEv, symObjAddr: 0x20F8, symBinAddr: 0x100005AE4, symSize: 0x24 }
  - { offsetInCU: 0x695A, offset: 0x695A, size: 0x8, addend: 0x0, symName: __ZSt22__copy_move_backward_aILb1EN9__gnu_cxx17__normal_iteratorIPSt4pairIxiESt6vectorIS3_SaIS3_EEEES8_ET1_T0_SA_S9_, symObjAddr: 0x2064, symBinAddr: 0x100005A50, symSize: 0x60 }
  - { offsetInCU: 0x6962, offset: 0x6962, size: 0x8, addend: 0x0, symName: __ZNK9__gnu_cxx5__ops14_Val_less_iterclISt4pairIxiENS_17__normal_iteratorIPS4_St6vectorIS4_SaIS4_EEEEEEbRT_T0_, symObjAddr: 0x20C4, symBinAddr: 0x100005AB0, symSize: 0x34 }
  - { offsetInCU: 0x6955, offset: 0x6955, size: 0x8, addend: 0x0, symName: __ZSt12__miter_baseIN9__gnu_cxx17__normal_iteratorIPSt4pairIxiESt6vectorIS3_SaIS3_EEEEET_S9_, symObjAddr: 0x2050, symBinAddr: 0x100005A3C, symSize: 0x14 }
  - { offsetInCU: 0x695D, offset: 0x695D, size: 0x8, addend: 0x0, symName: __ZSt22__copy_move_backward_aILb1EN9__gnu_cxx17__normal_iteratorIPSt4pairIxiESt6vectorIS3_SaIS3_EEEES8_ET1_T0_SA_S9_, symObjAddr: 0x2064, symBinAddr: 0x100005A50, symSize: 0x60 }
  - { offsetInCU: 0x6A05, offset: 0x6A05, size: 0x8, addend: 0x0, symName: __ZSt9iter_swapIN9__gnu_cxx17__normal_iteratorIPSt4pairIxiESt6vectorIS3_SaIS3_EEEES8_EvT_T0_, symObjAddr: 0x200C, symBinAddr: 0x1000059F8, symSize: 0x44 }
  - { offsetInCU: 0x6A0D, offset: 0x6A0D, size: 0x8, addend: 0x0, symName: __ZSt12__miter_baseIN9__gnu_cxx17__normal_iteratorIPSt4pairIxiESt6vectorIS3_SaIS3_EEEEET_S9_, symObjAddr: 0x2050, symBinAddr: 0x100005A3C, symSize: 0x14 }
  - { offsetInCU: 0x6A40, offset: 0x6A40, size: 0x8, addend: 0x0, symName: __ZSt10__pop_heapIN9__gnu_cxx17__normal_iteratorIPSt4pairIxiESt6vectorIS3_SaIS3_EEEENS0_5__ops15_Iter_less_iterEEvT_SB_SB_RT0_, symObjAddr: 0x1F7C, symBinAddr: 0x100005968, symSize: 0x90 }
  - { offsetInCU: 0x6A48, offset: 0x6A48, size: 0x8, addend: 0x0, symName: __ZSt9iter_swapIN9__gnu_cxx17__normal_iteratorIPSt4pairIxiESt6vectorIS3_SaIS3_EEEES8_EvT_T0_, symObjAddr: 0x200C, symBinAddr: 0x1000059F8, symSize: 0x44 }
  - { offsetInCU: 0x6A9C, offset: 0x6A9C, size: 0x8, addend: 0x0, symName: __ZN9__gnu_cxxltIPSt4pairIxiESt6vectorIS2_SaIS2_EEEEbRKNS_17__normal_iteratorIT_T0_EESC_, symObjAddr: 0x1F38, symBinAddr: 0x100005924, symSize: 0x44 }
  - { offsetInCU: 0x6AA4, offset: 0x6AA4, size: 0x8, addend: 0x0, symName: __ZSt10__pop_heapIN9__gnu_cxx17__normal_iteratorIPSt4pairIxiESt6vectorIS3_SaIS3_EEEENS0_5__ops15_Iter_less_iterEEvT_SB_SB_RT0_, symObjAddr: 0x1F7C, symBinAddr: 0x100005968, symSize: 0x90 }
  - { offsetInCU: 0x6B75, offset: 0x6B75, size: 0x8, addend: 0x0, symName: __ZSt11__make_heapIN9__gnu_cxx17__normal_iteratorIPSt4pairIxiESt6vectorIS3_SaIS3_EEEENS0_5__ops15_Iter_less_iterEEvT_SB_RT0_, symObjAddr: 0x1E5C, symBinAddr: 0x100005848, symSize: 0xDC }
  - { offsetInCU: 0x6B7D, offset: 0x6B7D, size: 0x8, addend: 0x0, symName: __ZN9__gnu_cxxltIPSt4pairIxiESt6vectorIS2_SaIS2_EEEEbRKNS_17__normal_iteratorIT_T0_EESC_, symObjAddr: 0x1F38, symBinAddr: 0x100005924, symSize: 0x44 }
  - { offsetInCU: 0x6C11, offset: 0x6C11, size: 0x8, addend: 0x0, symName: __ZSt19__relocate_object_aISt4pairIxiES1_SaIS1_EEvPT_PT0_RT1_, symObjAddr: 0x1D98, symBinAddr: 0x100005784, symSize: 0xC4 }
  - { offsetInCU: 0x6C19, offset: 0x6C19, size: 0x8, addend: 0x0, symName: __ZSt11__make_heapIN9__gnu_cxx17__normal_iteratorIPSt4pairIxiESt6vectorIS3_SaIS3_EEEENS0_5__ops15_Iter_less_iterEEvT_SB_RT0_, symObjAddr: 0x1E5C, symBinAddr: 0x100005848, symSize: 0xDC }
  - { offsetInCU: 0x6D29, offset: 0x6D29, size: 0x8, addend: 0x0, symName: __ZSt10_ConstructISt4pairIxiEJEEvPT_DpOT0_, symObjAddr: 0x1D6C, symBinAddr: 0x100005758, symSize: 0x2C }
  - { offsetInCU: 0x6D31, offset: 0x6D31, size: 0x8, addend: 0x0, symName: __ZSt19__relocate_object_aISt4pairIxiES1_SaIS1_EEvPT_PT0_RT1_, symObjAddr: 0x1D98, symBinAddr: 0x100005784, symSize: 0xC4 }
  - { offsetInCU: 0x6D75, offset: 0x6D75, size: 0x8, addend: 0x0, symName: __ZSt11__addressofISt4pairIxiEEPT_RS2_, symObjAddr: 0x1D58, symBinAddr: 0x100005744, symSize: 0x14 }
  - { offsetInCU: 0x6D7D, offset: 0x6D7D, size: 0x8, addend: 0x0, symName: __ZSt10_ConstructISt4pairIxiEJEEvPT_DpOT0_, symObjAddr: 0x1D6C, symBinAddr: 0x100005758, symSize: 0x2C }
  - { offsetInCU: 0x6D82, offset: 0x6D82, size: 0x8, addend: 0x0, symName: __ZN9__gnu_cxx17__normal_iteratorIPSt4pairIxiESt6vectorIS2_SaIS2_EEEpLEl, symObjAddr: 0x1D24, symBinAddr: 0x100005710, symSize: 0x34 }
  - { offsetInCU: 0x6D8A, offset: 0x6D8A, size: 0x8, addend: 0x0, symName: __ZSt11__addressofISt4pairIxiEEPT_RS2_, symObjAddr: 0x1D58, symBinAddr: 0x100005744, symSize: 0x14 }
  - { offsetInCU: 0x6DC5, offset: 0x6DC5, size: 0x8, addend: 0x0, symName: __ZN9__gnu_cxx17__normal_iteratorIPSt4pairIxiESt6vectorIS2_SaIS2_EEEmmEv, symObjAddr: 0x1CFC, symBinAddr: 0x1000056E8, symSize: 0x28 }
  - { offsetInCU: 0x6DCD, offset: 0x6DCD, size: 0x8, addend: 0x0, symName: __ZN9__gnu_cxx17__normal_iteratorIPSt4pairIxiESt6vectorIS2_SaIS2_EEEpLEl, symObjAddr: 0x1D24, symBinAddr: 0x100005710, symSize: 0x34 }
  - { offsetInCU: 0x6F22, offset: 0x6F22, size: 0x8, addend: 0x0, symName: __ZSt25__unguarded_linear_insertIN9__gnu_cxx17__normal_iteratorIPSt4pairIxiESt6vectorIS3_SaIS3_EEEENS0_5__ops14_Val_less_iterEEvT_T0_, symObjAddr: 0x1C44, symBinAddr: 0x100005630, symSize: 0xB8 }
  - { offsetInCU: 0x6F2A, offset: 0x6F2A, size: 0x8, addend: 0x0, symName: __ZN9__gnu_cxx17__normal_iteratorIPSt4pairIxiESt6vectorIS2_SaIS2_EEEmmEv, symObjAddr: 0x1CFC, symBinAddr: 0x1000056E8, symSize: 0x28 }
  - { offsetInCU: 0x6E81, offset: 0x6E81, size: 0x8, addend: 0x0, symName: __ZNSt4pairIxiEaSEOS0_, symObjAddr: 0x1BFC, symBinAddr: 0x1000055E8, symSize: 0x48 }
  - { offsetInCU: 0x6E89, offset: 0x6E89, size: 0x8, addend: 0x0, symName: __ZSt25__unguarded_linear_insertIN9__gnu_cxx17__normal_iteratorIPSt4pairIxiESt6vectorIS3_SaIS3_EEEENS0_5__ops14_Val_less_iterEEvT_T0_, symObjAddr: 0x1C44, symBinAddr: 0x100005630, symSize: 0xB8 }
  - { offsetInCU: 0x7016, offset: 0x7016, size: 0x8, addend: 0x0, symName: __ZSt13move_backwardIN9__gnu_cxx17__normal_iteratorIPSt4pairIxiESt6vectorIS3_SaIS3_EEEES8_ET0_T_SA_S9_, symObjAddr: 0x1BB4, symBinAddr: 0x1000055A0, symSize: 0x48 }
  - { offsetInCU: 0x701E, offset: 0x701E, size: 0x8, addend: 0x0, symName: __ZNSt4pairIxiEaSEOS0_, symObjAddr: 0x1BFC, symBinAddr: 0x1000055E8, symSize: 0x48 }
  - { offsetInCU: 0x6FAA, offset: 0x6FAA, size: 0x8, addend: 0x0, symName: __ZSt4moveIRSt4pairIxiEEONSt16remove_referenceIT_E4typeEOS4_, symObjAddr: 0x1BA0, symBinAddr: 0x10000558C, symSize: 0x14 }
  - { offsetInCU: 0x6FB2, offset: 0x6FB2, size: 0x8, addend: 0x0, symName: __ZSt13move_backwardIN9__gnu_cxx17__normal_iteratorIPSt4pairIxiESt6vectorIS3_SaIS3_EEEES8_ET0_T_SA_S9_, symObjAddr: 0x1BB4, symBinAddr: 0x1000055A0, symSize: 0x48 }
  - { offsetInCU: 0x6FAC, offset: 0x6FAC, size: 0x8, addend: 0x0, symName: __ZNK9__gnu_cxx5__ops15_Iter_less_iterclINS_17__normal_iteratorIPSt4pairIxiESt6vectorIS5_SaIS5_EEEESA_EEbT_T0_, symObjAddr: 0x1B58, symBinAddr: 0x100005544, symSize: 0x48 }
  - { offsetInCU: 0x6FB4, offset: 0x6FB4, size: 0x8, addend: 0x0, symName: __ZSt4moveIRSt4pairIxiEEONSt16remove_referenceIT_E4typeEOS4_, symObjAddr: 0x1BA0, symBinAddr: 0x10000558C, symSize: 0x14 }
  - { offsetInCU: 0x70D1, offset: 0x70D1, size: 0x8, addend: 0x0, symName: __ZN9__gnu_cxxeqIPSt4pairIxiESt6vectorIS2_SaIS2_EEEEbRKNS_17__normal_iteratorIT_T0_EESC_, symObjAddr: 0x1B14, symBinAddr: 0x100005500, symSize: 0x44 }
  - { offsetInCU: 0x70D9, offset: 0x70D9, size: 0x8, addend: 0x0, symName: __ZNK9__gnu_cxx5__ops15_Iter_less_iterclINS_17__normal_iteratorIPSt4pairIxiESt6vectorIS5_SaIS5_EEEESA_EEbT_T0_, symObjAddr: 0x1B58, symBinAddr: 0x100005544, symSize: 0x48 }
  - { offsetInCU: 0x71BC, offset: 0x71BC, size: 0x8, addend: 0x0, symName: __ZSt21__unguarded_partitionIN9__gnu_cxx17__normal_iteratorIPSt4pairIxiESt6vectorIS3_SaIS3_EEEENS0_5__ops15_Iter_less_iterEET_SB_SB_SB_T0_, symObjAddr: 0x1A50, symBinAddr: 0x10000543C, symSize: 0xC4 }
  - { offsetInCU: 0x71C4, offset: 0x71C4, size: 0x8, addend: 0x0, symName: __ZN9__gnu_cxxeqIPSt4pairIxiESt6vectorIS2_SaIS2_EEEEbRKNS_17__normal_iteratorIT_T0_EESC_, symObjAddr: 0x1B14, symBinAddr: 0x100005500, symSize: 0x44 }
  - { offsetInCU: 0x724F, offset: 0x724F, size: 0x8, addend: 0x0, symName: __ZSt22__move_median_to_firstIN9__gnu_cxx17__normal_iteratorIPSt4pairIxiESt6vectorIS3_SaIS3_EEEENS0_5__ops15_Iter_less_iterEEvT_SB_SB_SB_T0_, symObjAddr: 0x192C, symBinAddr: 0x100005318, symSize: 0x124 }
  - { offsetInCU: 0x7257, offset: 0x7257, size: 0x8, addend: 0x0, symName: __ZSt21__unguarded_partitionIN9__gnu_cxx17__normal_iteratorIPSt4pairIxiESt6vectorIS3_SaIS3_EEEENS0_5__ops15_Iter_less_iterEET_SB_SB_SB_T0_, symObjAddr: 0x1A50, symBinAddr: 0x10000543C, symSize: 0xC4 }
  - { offsetInCU: 0x71B8, offset: 0x71B8, size: 0x8, addend: 0x0, symName: __ZNK9__gnu_cxx17__normal_iteratorIPSt4pairIxiESt6vectorIS2_SaIS2_EEEmiEl, symObjAddr: 0x18E8, symBinAddr: 0x1000052D4, symSize: 0x44 }
  - { offsetInCU: 0x71C0, offset: 0x71C0, size: 0x8, addend: 0x0, symName: __ZSt22__move_median_to_firstIN9__gnu_cxx17__normal_iteratorIPSt4pairIxiESt6vectorIS3_SaIS3_EEEENS0_5__ops15_Iter_less_iterEEvT_SB_SB_SB_T0_, symObjAddr: 0x192C, symBinAddr: 0x100005318, symSize: 0x124 }
  - { offsetInCU: 0x7313, offset: 0x7313, size: 0x8, addend: 0x0, symName: __ZSt11__sort_heapIN9__gnu_cxx17__normal_iteratorIPSt4pairIxiESt6vectorIS3_SaIS3_EEEENS0_5__ops15_Iter_less_iterEEvT_SB_RT0_, symObjAddr: 0x1880, symBinAddr: 0x10000526C, symSize: 0x68 }
  - { offsetInCU: 0x731B, offset: 0x731B, size: 0x8, addend: 0x0, symName: __ZNK9__gnu_cxx17__normal_iteratorIPSt4pairIxiESt6vectorIS2_SaIS2_EEEmiEl, symObjAddr: 0x18E8, symBinAddr: 0x1000052D4, symSize: 0x44 }
  - { offsetInCU: 0x7392, offset: 0x7392, size: 0x8, addend: 0x0, symName: __ZSt13__heap_selectIN9__gnu_cxx17__normal_iteratorIPSt4pairIxiESt6vectorIS3_SaIS3_EEEENS0_5__ops15_Iter_less_iterEEvT_SB_SB_T0_, symObjAddr: 0x17DC, symBinAddr: 0x1000051C8, symSize: 0xA4 }
  - { offsetInCU: 0x739A, offset: 0x739A, size: 0x8, addend: 0x0, symName: __ZSt11__sort_heapIN9__gnu_cxx17__normal_iteratorIPSt4pairIxiESt6vectorIS3_SaIS3_EEEENS0_5__ops15_Iter_less_iterEEvT_SB_RT0_, symObjAddr: 0x1880, symBinAddr: 0x10000526C, symSize: 0x68 }
  - { offsetInCU: 0x7366, offset: 0x7366, size: 0x8, addend: 0x0, symName: __ZSt13__countl_zeroImEiT_, symObjAddr: 0x1788, symBinAddr: 0x100005174, symSize: 0x54 }
  - { offsetInCU: 0x736E, offset: 0x736E, size: 0x8, addend: 0x0, symName: __ZSt13__heap_selectIN9__gnu_cxx17__normal_iteratorIPSt4pairIxiESt6vectorIS3_SaIS3_EEEENS0_5__ops15_Iter_less_iterEEvT_SB_SB_T0_, symObjAddr: 0x17DC, symBinAddr: 0x1000051C8, symSize: 0xA4 }
  - { offsetInCU: 0x73E2, offset: 0x73E2, size: 0x8, addend: 0x0, symName: __ZNSt12_Destroy_auxILb1EE9__destroyIPSt4pairIxiEEEvT_S5_, symObjAddr: 0x1770, symBinAddr: 0x10000515C, symSize: 0x18 }
  - { offsetInCU: 0x73EA, offset: 0x73EA, size: 0x8, addend: 0x0, symName: __ZSt13__countl_zeroImEiT_, symObjAddr: 0x1788, symBinAddr: 0x100005174, symSize: 0x54 }
  - { offsetInCU: 0x74E6, offset: 0x74E6, size: 0x8, addend: 0x0, symName: __ZSt14__relocate_a_1IPSt4pairIxiES2_SaIS1_EET0_T_S5_S4_RT1_, symObjAddr: 0x16EC, symBinAddr: 0x1000050D8, symSize: 0x84 }
  - { offsetInCU: 0x74EE, offset: 0x74EE, size: 0x8, addend: 0x0, symName: __ZNSt12_Destroy_auxILb1EE9__destroyIPSt4pairIxiEEEvT_S5_, symObjAddr: 0x1770, symBinAddr: 0x10000515C, symSize: 0x18 }
  - { offsetInCU: 0x7533, offset: 0x7533, size: 0x8, addend: 0x0, symName: __ZSt12__niter_baseIPSt4pairIxiEET_S3_, symObjAddr: 0x16D8, symBinAddr: 0x1000050C4, symSize: 0x14 }
  - { offsetInCU: 0x753B, offset: 0x753B, size: 0x8, addend: 0x0, symName: __ZSt14__relocate_a_1IPSt4pairIxiES2_SaIS1_EET0_T_S5_S4_RT1_, symObjAddr: 0x16EC, symBinAddr: 0x1000050D8, symSize: 0x84 }
  - { offsetInCU: 0x7527, offset: 0x7527, size: 0x8, addend: 0x0, symName: __ZNSt15__new_allocatorISt4pairIxiEE8allocateEmPKv, symObjAddr: 0x165C, symBinAddr: 0x100005048, symSize: 0x7C }
  - { offsetInCU: 0x752F, offset: 0x752F, size: 0x8, addend: 0x0, symName: __ZSt12__niter_baseIPSt4pairIxiEET_S3_, symObjAddr: 0x16D8, symBinAddr: 0x1000050C4, symSize: 0x14 }
  - { offsetInCU: 0x75AD, offset: 0x75AD, size: 0x8, addend: 0x0, symName: __ZNSt27__uninitialized_default_n_1ILb0EE18__uninit_default_nIPSt4pairIxiEmEET_S5_T0_, symObjAddr: 0x15D4, symBinAddr: 0x100004FC0, symSize: 0x88 }
  - { offsetInCU: 0x75B5, offset: 0x75B5, size: 0x8, addend: 0x0, symName: __ZNSt15__new_allocatorISt4pairIxiEE8allocateEmPKv, symObjAddr: 0x165C, symBinAddr: 0x100005048, symSize: 0x7C }
  - { offsetInCU: 0x7652, offset: 0x7652, size: 0x8, addend: 0x0, symName: __ZSt3minImERKT_S2_S2_, symObjAddr: 0x159C, symBinAddr: 0x100004F88, symSize: 0x38 }
  - { offsetInCU: 0x765A, offset: 0x765A, size: 0x8, addend: 0x0, symName: __ZNSt27__uninitialized_default_n_1ILb0EE18__uninit_default_nIPSt4pairIxiEmEET_S5_T0_, symObjAddr: 0x15D4, symBinAddr: 0x100004FC0, symSize: 0x88 }
  - { offsetInCU: 0x76DD, offset: 0x76DD, size: 0x8, addend: 0x0, symName: __ZStltIxiEbRKSt4pairIT_T0_ES5_, symObjAddr: 0x1534, symBinAddr: 0x100004F20, symSize: 0x68 }
  - { offsetInCU: 0x76E5, offset: 0x76E5, size: 0x8, addend: 0x0, symName: __ZSt3minImERKT_S2_S2_, symObjAddr: 0x159C, symBinAddr: 0x100004F88, symSize: 0x38 }
  - { offsetInCU: 0x7707, offset: 0x7707, size: 0x8, addend: 0x0, symName: __ZNK9__gnu_cxx17__normal_iteratorIPSt4pairIxiESt6vectorIS2_SaIS2_EEEdeEv, symObjAddr: 0x151C, symBinAddr: 0x100004F08, symSize: 0x18 }
  - { offsetInCU: 0x770F, offset: 0x770F, size: 0x8, addend: 0x0, symName: __ZStltIxiEbRKSt4pairIT_T0_ES5_, symObjAddr: 0x1534, symBinAddr: 0x100004F20, symSize: 0x68 }
  - { offsetInCU: 0x782F, offset: 0x782F, size: 0x8, addend: 0x0, symName: __ZSt9__advanceIN9__gnu_cxx17__normal_iteratorIPSt4pairIxiESt6vectorIS3_SaIS3_EEEElEvRT_T0_St26random_access_iterator_tag, symObjAddr: 0x14F0, symBinAddr: 0x100004EDC, symSize: 0x2C }
  - { offsetInCU: 0x7837, offset: 0x7837, size: 0x8, addend: 0x0, symName: __ZNK9__gnu_cxx17__normal_iteratorIPSt4pairIxiESt6vectorIS2_SaIS2_EEEdeEv, symObjAddr: 0x151C, symBinAddr: 0x100004F08, symSize: 0x18 }
  - { offsetInCU: 0x7953, offset: 0x7953, size: 0x8, addend: 0x0, symName: __ZSt26__unguarded_insertion_sortIN9__gnu_cxx17__normal_iteratorIPSt4pairIxiESt6vectorIS3_SaIS3_EEEENS0_5__ops15_Iter_less_iterEEvT_SB_T0_, symObjAddr: 0x1480, symBinAddr: 0x100004E6C, symSize: 0x70 }
  - { offsetInCU: 0x795B, offset: 0x795B, size: 0x8, addend: 0x0, symName: __ZSt9__advanceIN9__gnu_cxx17__normal_iteratorIPSt4pairIxiESt6vectorIS3_SaIS3_EEEElEvRT_T0_St26random_access_iterator_tag, symObjAddr: 0x14F0, symBinAddr: 0x100004EDC, symSize: 0x2C }
  - { offsetInCU: 0x79DE, offset: 0x79DE, size: 0x8, addend: 0x0, symName: __ZSt16__insertion_sortIN9__gnu_cxx17__normal_iteratorIPSt4pairIxiESt6vectorIS3_SaIS3_EEEENS0_5__ops15_Iter_less_iterEEvT_SB_T0_, symObjAddr: 0x1374, symBinAddr: 0x100004D60, symSize: 0x10C }
  - { offsetInCU: 0x79E6, offset: 0x79E6, size: 0x8, addend: 0x0, symName: __ZSt26__unguarded_insertion_sortIN9__gnu_cxx17__normal_iteratorIPSt4pairIxiESt6vectorIS3_SaIS3_EEEENS0_5__ops15_Iter_less_iterEEvT_SB_T0_, symObjAddr: 0x1480, symBinAddr: 0x100004E6C, symSize: 0x70 }
  - { offsetInCU: 0x7ABF, offset: 0x7ABF, size: 0x8, addend: 0x0, symName: __ZSt27__unguarded_partition_pivotIN9__gnu_cxx17__normal_iteratorIPSt4pairIxiESt6vectorIS3_SaIS3_EEEENS0_5__ops15_Iter_less_iterEET_SB_SB_T0_, symObjAddr: 0x12D0, symBinAddr: 0x100004CBC, symSize: 0xA4 }
  - { offsetInCU: 0x7AC7, offset: 0x7AC7, size: 0x8, addend: 0x0, symName: __ZSt16__insertion_sortIN9__gnu_cxx17__normal_iteratorIPSt4pairIxiESt6vectorIS3_SaIS3_EEEENS0_5__ops15_Iter_less_iterEEvT_SB_T0_, symObjAddr: 0x1374, symBinAddr: 0x100004D60, symSize: 0x10C }
  - { offsetInCU: 0x7B37, offset: 0x7B37, size: 0x8, addend: 0x0, symName: __ZSt14__partial_sortIN9__gnu_cxx17__normal_iteratorIPSt4pairIxiESt6vectorIS3_SaIS3_EEEENS0_5__ops15_Iter_less_iterEEvT_SB_SB_T0_, symObjAddr: 0x1284, symBinAddr: 0x100004C70, symSize: 0x4C }
  - { offsetInCU: 0x7B3F, offset: 0x7B3F, size: 0x8, addend: 0x0, symName: __ZSt27__unguarded_partition_pivotIN9__gnu_cxx17__normal_iteratorIPSt4pairIxiESt6vectorIS3_SaIS3_EEEENS0_5__ops15_Iter_less_iterEET_SB_SB_T0_, symObjAddr: 0x12D0, symBinAddr: 0x100004CBC, symSize: 0xA4 }
  - { offsetInCU: 0x7AE0, offset: 0x7AE0, size: 0x8, addend: 0x0, symName: __ZSt11__bit_widthImEiT_, symObjAddr: 0x1254, symBinAddr: 0x100004C40, symSize: 0x30 }
  - { offsetInCU: 0x7AE8, offset: 0x7AE8, size: 0x8, addend: 0x0, symName: __ZSt14__partial_sortIN9__gnu_cxx17__normal_iteratorIPSt4pairIxiESt6vectorIS3_SaIS3_EEEENS0_5__ops15_Iter_less_iterEEvT_SB_SB_T0_, symObjAddr: 0x1284, symBinAddr: 0x100004C70, symSize: 0x4C }
  - { offsetInCU: 0x7B4F, offset: 0x7B4F, size: 0x8, addend: 0x0, symName: __ZSt8_DestroyIPSt4pairIxiEEvT_S3_, symObjAddr: 0x122C, symBinAddr: 0x100004C18, symSize: 0x28 }
  - { offsetInCU: 0x7B57, offset: 0x7B57, size: 0x8, addend: 0x0, symName: __ZSt11__bit_widthImEiT_, symObjAddr: 0x1254, symBinAddr: 0x100004C40, symSize: 0x30 }
  - { offsetInCU: 0x7C16, offset: 0x7C16, size: 0x8, addend: 0x0, symName: __ZSt12__relocate_aIPSt4pairIxiES2_SaIS1_EET0_T_S5_S4_RT1_, symObjAddr: 0x11D0, symBinAddr: 0x100004BBC, symSize: 0x5C }
  - { offsetInCU: 0x7C1E, offset: 0x7C1E, size: 0x8, addend: 0x0, symName: __ZSt8_DestroyIPSt4pairIxiEEvT_S3_, symObjAddr: 0x122C, symBinAddr: 0x100004C18, symSize: 0x28 }
  - { offsetInCU: 0x7C5A, offset: 0x7C5A, size: 0x8, addend: 0x0, symName: __ZSt3maxImERKT_S2_S2_, symObjAddr: 0x1198, symBinAddr: 0x100004B84, symSize: 0x38 }
  - { offsetInCU: 0x7C62, offset: 0x7C62, size: 0x8, addend: 0x0, symName: __ZSt12__relocate_aIPSt4pairIxiES2_SaIS1_EET0_T_S5_S4_RT1_, symObjAddr: 0x11D0, symBinAddr: 0x100004BBC, symSize: 0x5C }
  - { offsetInCU: 0x7D11, offset: 0x7D11, size: 0x8, addend: 0x0, symName: __ZSt25__uninitialized_default_nIPSt4pairIxiEmET_S3_T0_, symObjAddr: 0x116C, symBinAddr: 0x100004B58, symSize: 0x2C }
  - { offsetInCU: 0x7D19, offset: 0x7D19, size: 0x8, addend: 0x0, symName: __ZSt3maxImERKT_S2_S2_, symObjAddr: 0x1198, symBinAddr: 0x100004B84, symSize: 0x38 }
  - { offsetInCU: 0x7D09, offset: 0x7D09, size: 0x8, addend: 0x0, symName: __ZNKSt12_Vector_baseISt4pairIxiESaIS1_EE19_M_get_Tp_allocatorEv, symObjAddr: 0x1158, symBinAddr: 0x100004B44, symSize: 0x14 }
  - { offsetInCU: 0x7D11, offset: 0x7D11, size: 0x8, addend: 0x0, symName: __ZSt25__uninitialized_default_nIPSt4pairIxiEmET_S3_T0_, symObjAddr: 0x116C, symBinAddr: 0x100004B58, symSize: 0x2C }
  - { offsetInCU: 0x7D38, offset: 0x7D38, size: 0x8, addend: 0x0, symName: __ZNSt6vectorISt4pairIxiESaIS1_EE11_S_max_sizeERKS2_, symObjAddr: 0x1104, symBinAddr: 0x100004AF0, symSize: 0x54 }
  - { offsetInCU: 0x7D40, offset: 0x7D40, size: 0x8, addend: 0x0, symName: __ZNKSt12_Vector_baseISt4pairIxiESaIS1_EE19_M_get_Tp_allocatorEv, symObjAddr: 0x1158, symBinAddr: 0x100004B44, symSize: 0x14 }
  - { offsetInCU: 0x7E04, offset: 0x7E04, size: 0x8, addend: 0x0, symName: __ZNSt15__new_allocatorISt4pairIxiEE10deallocateEPS1_m, symObjAddr: 0x10D4, symBinAddr: 0x100004AC0, symSize: 0x30 }
  - { offsetInCU: 0x7E0C, offset: 0x7E0C, size: 0x8, addend: 0x0, symName: __ZNSt6vectorISt4pairIxiESaIS1_EE11_S_max_sizeERKS2_, symObjAddr: 0x1104, symBinAddr: 0x100004AF0, symSize: 0x54 }
  - { offsetInCU: 0x7E59, offset: 0x7E59, size: 0x8, addend: 0x0, symName: __ZN9__gnu_cxx17__normal_iteratorIPSt4pairIxiESt6vectorIS2_SaIS2_EEEppEv, symObjAddr: 0x10AC, symBinAddr: 0x100004A98, symSize: 0x28 }
  - { offsetInCU: 0x7E61, offset: 0x7E61, size: 0x8, addend: 0x0, symName: __ZNSt15__new_allocatorISt4pairIxiEE10deallocateEPS1_m, symObjAddr: 0x10D4, symBinAddr: 0x100004AC0, symSize: 0x30 }
  - { offsetInCU: 0x7E88, offset: 0x7E88, size: 0x8, addend: 0x0, symName: __ZNK9__gnu_cxx5__ops14_Iter_less_valclINS_17__normal_iteratorIPSt4pairIxiESt6vectorIS5_SaIS5_EEEEKS5_EEbT_RT0_, symObjAddr: 0x107C, symBinAddr: 0x100004A68, symSize: 0x30 }
  - { offsetInCU: 0x7E90, offset: 0x7E90, size: 0x8, addend: 0x0, symName: __ZN9__gnu_cxx17__normal_iteratorIPSt4pairIxiESt6vectorIS2_SaIS2_EEEppEv, symObjAddr: 0x10AC, symBinAddr: 0x100004A98, symSize: 0x28 }
  - { offsetInCU: 0x80C1, offset: 0x80C1, size: 0x8, addend: 0x0, symName: __ZSt22__final_insertion_sortIN9__gnu_cxx17__normal_iteratorIPSt4pairIxiESt6vectorIS3_SaIS3_EEEENS0_5__ops15_Iter_less_iterEEvT_SB_T0_, symObjAddr: 0xFE0, symBinAddr: 0x1000049CC, symSize: 0x9C }
  - { offsetInCU: 0x80C9, offset: 0x80C9, size: 0x8, addend: 0x0, symName: __ZNK9__gnu_cxx5__ops14_Iter_less_valclINS_17__normal_iteratorIPSt4pairIxiESt6vectorIS5_SaIS5_EEEEKS5_EEbT_RT0_, symObjAddr: 0x107C, symBinAddr: 0x100004A68, symSize: 0x30 }
  - { offsetInCU: 0x813C, offset: 0x813C, size: 0x8, addend: 0x0, symName: __ZSt16__introsort_loopIN9__gnu_cxx17__normal_iteratorIPSt4pairIxiESt6vectorIS3_SaIS3_EEEElNS0_5__ops15_Iter_less_iterEEvT_SB_T0_T1_, symObjAddr: 0xF28, symBinAddr: 0x100004914, symSize: 0xB8 }
  - { offsetInCU: 0x8144, offset: 0x8144, size: 0x8, addend: 0x0, symName: __ZSt22__final_insertion_sortIN9__gnu_cxx17__normal_iteratorIPSt4pairIxiESt6vectorIS3_SaIS3_EEEENS0_5__ops15_Iter_less_iterEEvT_SB_T0_, symObjAddr: 0xFE0, symBinAddr: 0x1000049CC, symSize: 0x9C }
  - { offsetInCU: 0x80F3, offset: 0x80F3, size: 0x8, addend: 0x0, symName: __ZSt4__lgIlET_S0_, symObjAddr: 0xF04, symBinAddr: 0x1000048F0, symSize: 0x24 }
  - { offsetInCU: 0x80FB, offset: 0x80FB, size: 0x8, addend: 0x0, symName: __ZSt16__introsort_loopIN9__gnu_cxx17__normal_iteratorIPSt4pairIxiESt6vectorIS3_SaIS3_EEEElNS0_5__ops15_Iter_less_iterEEvT_SB_T0_T1_, symObjAddr: 0xF28, symBinAddr: 0x100004914, symSize: 0xB8 }
  - { offsetInCU: 0x81CF, offset: 0x81CF, size: 0x8, addend: 0x0, symName: __ZN9__gnu_cxxneIPSt4pairIxiESt6vectorIS2_SaIS2_EEEEbRKNS_17__normal_iteratorIT_T0_EESC_, symObjAddr: 0xEC0, symBinAddr: 0x1000048AC, symSize: 0x44 }
  - { offsetInCU: 0x81D7, offset: 0x81D7, size: 0x8, addend: 0x0, symName: __ZSt4__lgIlET_S0_, symObjAddr: 0xF04, symBinAddr: 0x1000048F0, symSize: 0x24 }
  - { offsetInCU: 0x81DB, offset: 0x81DB, size: 0x8, addend: 0x0, symName: __ZNSt6vectorISt4pairIxiESaIS1_EE11_S_relocateEPS1_S4_S4_RS2_, symObjAddr: 0xE8C, symBinAddr: 0x100004878, symSize: 0x34 }
  - { offsetInCU: 0x81E3, offset: 0x81E3, size: 0x8, addend: 0x0, symName: __ZN9__gnu_cxxneIPSt4pairIxiESt6vectorIS2_SaIS2_EEEEbRKNS_17__normal_iteratorIT_T0_EESC_, symObjAddr: 0xEC0, symBinAddr: 0x1000048AC, symSize: 0x44 }
  - { offsetInCU: 0x8249, offset: 0x8249, size: 0x8, addend: 0x0, symName: __ZNSt12_Vector_baseISt4pairIxiESaIS1_EE11_M_allocateEm, symObjAddr: 0xE3C, symBinAddr: 0x100004828, symSize: 0x50 }
  - { offsetInCU: 0x8251, offset: 0x8251, size: 0x8, addend: 0x0, symName: __ZNSt6vectorISt4pairIxiESaIS1_EE11_S_relocateEPS1_S4_S4_RS2_, symObjAddr: 0xE8C, symBinAddr: 0x100004878, symSize: 0x34 }
  - { offsetInCU: 0x82BE, offset: 0x82BE, size: 0x8, addend: 0x0, symName: __ZNKSt6vectorISt4pairIxiESaIS1_EE12_M_check_lenEmPKc, symObjAddr: 0xD6C, symBinAddr: 0x100004758, symSize: 0xD0 }
  - { offsetInCU: 0x82C6, offset: 0x82C6, size: 0x8, addend: 0x0, symName: __ZNSt12_Vector_baseISt4pairIxiESaIS1_EE11_M_allocateEm, symObjAddr: 0xE3C, symBinAddr: 0x100004828, symSize: 0x50 }
  - { offsetInCU: 0x83E1, offset: 0x83E1, size: 0x8, addend: 0x0, symName: __ZSt27__uninitialized_default_n_aIPSt4pairIxiEmS1_ET_S3_T0_RSaIT1_E, symObjAddr: 0xD44, symBinAddr: 0x100004730, symSize: 0x28 }
  - { offsetInCU: 0x83E9, offset: 0x83E9, size: 0x8, addend: 0x0, symName: __ZNKSt6vectorISt4pairIxiESaIS1_EE12_M_check_lenEmPKc, symObjAddr: 0xD6C, symBinAddr: 0x100004758, symSize: 0xD0 }
  - { offsetInCU: 0x83AF, offset: 0x83AF, size: 0x8, addend: 0x0, symName: __ZNSt12_Vector_baseISt4pairIxiESaIS1_EE19_M_get_Tp_allocatorEv, symObjAddr: 0xD30, symBinAddr: 0x10000471C, symSize: 0x14 }
  - { offsetInCU: 0x83B7, offset: 0x83B7, size: 0x8, addend: 0x0, symName: __ZSt27__uninitialized_default_n_aIPSt4pairIxiEmS1_ET_S3_T0_RSaIT1_E, symObjAddr: 0xD44, symBinAddr: 0x100004730, symSize: 0x28 }
  - { offsetInCU: 0x83DE, offset: 0x83DE, size: 0x8, addend: 0x0, symName: __ZNKSt6vectorISt4pairIxiESaIS1_EE8max_sizeEv, symObjAddr: 0xD10, symBinAddr: 0x1000046FC, symSize: 0x20 }
  - { offsetInCU: 0x83E6, offset: 0x83E6, size: 0x8, addend: 0x0, symName: __ZNSt12_Vector_baseISt4pairIxiESaIS1_EE19_M_get_Tp_allocatorEv, symObjAddr: 0xD30, symBinAddr: 0x10000471C, symSize: 0x14 }
  - { offsetInCU: 0x8464, offset: 0x8464, size: 0x8, addend: 0x0, symName: __ZNK9__gnu_cxx17__normal_iteratorIPSt4pairIxiESt6vectorIS2_SaIS2_EEE4baseEv, symObjAddr: 0xCFC, symBinAddr: 0x1000046E8, symSize: 0x14 }
  - { offsetInCU: 0x846C, offset: 0x846C, size: 0x8, addend: 0x0, symName: __ZNKSt6vectorISt4pairIxiESaIS1_EE8max_sizeEv, symObjAddr: 0xD10, symBinAddr: 0x1000046FC, symSize: 0x20 }
  - { offsetInCU: 0x85D9, offset: 0x85D9, size: 0x8, addend: 0x0, symName: __ZSt13__lower_boundIN9__gnu_cxx17__normal_iteratorIPSt4pairIxiESt6vectorIS3_SaIS3_EEEES3_NS0_5__ops14_Iter_less_valEET_SB_SB_RKT0_T1_, symObjAddr: 0xBF0, symBinAddr: 0x1000045DC, symSize: 0x10C }
  - { offsetInCU: 0x85E1, offset: 0x85E1, size: 0x8, addend: 0x0, symName: __ZNK9__gnu_cxx17__normal_iteratorIPSt4pairIxiESt6vectorIS2_SaIS2_EEE4baseEv, symObjAddr: 0xCFC, symBinAddr: 0x1000046E8, symSize: 0x14 }
  - { offsetInCU: 0x8705, offset: 0x8705, size: 0x8, addend: 0x0, symName: __ZNSt4pairIxiEC1IxiLb1EEEOT_OT0_, symObjAddr: 0xBA8, symBinAddr: 0x100004594, symSize: 0x48 }
  - { offsetInCU: 0x870D, offset: 0x870D, size: 0x8, addend: 0x0, symName: __ZSt13__lower_boundIN9__gnu_cxx17__normal_iteratorIPSt4pairIxiESt6vectorIS3_SaIS3_EEEES3_NS0_5__ops14_Iter_less_valEET_SB_SB_RKT0_T1_, symObjAddr: 0xBF0, symBinAddr: 0x1000045DC, symSize: 0x10C }
  - { offsetInCU: 0x8789, offset: 0x8789, size: 0x8, addend: 0x0, symName: __ZSt7forwardIiEOT_RNSt16remove_referenceIS0_E4typeE, symObjAddr: 0xB94, symBinAddr: 0x100004580, symSize: 0x14 }
  - { offsetInCU: 0x8791, offset: 0x8791, size: 0x8, addend: 0x0, symName: __ZNSt4pairIxiEC1IxiLb1EEEOT_OT0_, symObjAddr: 0xBA8, symBinAddr: 0x100004594, symSize: 0x48 }
  - { offsetInCU: 0x87E7, offset: 0x87E7, size: 0x8, addend: 0x0, symName: __ZSt7forwardIxEOT_RNSt16remove_referenceIS0_E4typeE, symObjAddr: 0xB80, symBinAddr: 0x10000456C, symSize: 0x14 }
  - { offsetInCU: 0x87EF, offset: 0x87EF, size: 0x8, addend: 0x0, symName: __ZSt7forwardIiEOT_RNSt16remove_referenceIS0_E4typeE, symObjAddr: 0xB94, symBinAddr: 0x100004580, symSize: 0x14 }
  - { offsetInCU: 0x88F8, offset: 0x88F8, size: 0x8, addend: 0x0, symName: __ZSt6__sortIN9__gnu_cxx17__normal_iteratorIPSt4pairIxiESt6vectorIS3_SaIS3_EEEENS0_5__ops15_Iter_less_iterEEvT_SB_T0_, symObjAddr: 0xB04, symBinAddr: 0x1000044F0, symSize: 0x7C }
  - { offsetInCU: 0x8900, offset: 0x8900, size: 0x8, addend: 0x0, symName: __ZSt7forwardIxEOT_RNSt16remove_referenceIS0_E4typeE, symObjAddr: 0xB80, symBinAddr: 0x10000456C, symSize: 0x14 }
  - { offsetInCU: 0x88DB, offset: 0x88DB, size: 0x8, addend: 0x0, symName: __ZN9__gnu_cxx17__normal_iteratorIPSt4pairIxiESt6vectorIS2_SaIS2_EEEC1ERKS3_, symObjAddr: 0xADC, symBinAddr: 0x1000044C8, symSize: 0x28 }
  - { offsetInCU: 0x88E3, offset: 0x88E3, size: 0x8, addend: 0x0, symName: __ZSt6__sortIN9__gnu_cxx17__normal_iteratorIPSt4pairIxiESt6vectorIS3_SaIS3_EEEENS0_5__ops15_Iter_less_iterEEvT_SB_T0_, symObjAddr: 0xB04, symBinAddr: 0x1000044F0, symSize: 0x7C }
  - { offsetInCU: 0x88C9, offset: 0x88C9, size: 0x8, addend: 0x0, symName: __ZNSt6vectorISt4pairIxiESaIS1_EE15_M_erase_at_endEPS1_, symObjAddr: 0xA54, symBinAddr: 0x100004440, symSize: 0x88 }
  - { offsetInCU: 0x88D1, offset: 0x88D1, size: 0x8, addend: 0x0, symName: __ZN9__gnu_cxx17__normal_iteratorIPSt4pairIxiESt6vectorIS2_SaIS2_EEEC1ERKS3_, symObjAddr: 0xADC, symBinAddr: 0x1000044C8, symSize: 0x28 }
  - { offsetInCU: 0x8970, offset: 0x8970, size: 0x8, addend: 0x0, symName: __ZNSt6vectorISt4pairIxiESaIS1_EE17_M_default_appendEm, symObjAddr: 0x854, symBinAddr: 0x100004240, symSize: 0x200 }
  - { offsetInCU: 0x8978, offset: 0x8978, size: 0x8, addend: 0x0, symName: __ZNSt6vectorISt4pairIxiESaIS1_EE15_M_erase_at_endEPS1_, symObjAddr: 0xA54, symBinAddr: 0x100004440, symSize: 0x88 }
  - { offsetInCU: 0x8A4F, offset: 0x8A4F, size: 0x8, addend: 0x0, symName: __ZNKSt6vectorISt4pairIxiESaIS1_EE4sizeEv, symObjAddr: 0x82C, symBinAddr: 0x100004218, symSize: 0x28 }
  - { offsetInCU: 0x8A57, offset: 0x8A57, size: 0x8, addend: 0x0, symName: __ZNSt6vectorISt4pairIxiESaIS1_EE17_M_default_appendEm, symObjAddr: 0x854, symBinAddr: 0x100004240, symSize: 0x200 }
  - { offsetInCU: 0x8A7E, offset: 0x8A7E, size: 0x8, addend: 0x0, symName: __ZNSt12_Vector_baseISt4pairIxiESaIS1_EE13_M_deallocateEPS1_m, symObjAddr: 0x7D4, symBinAddr: 0x1000041C0, symSize: 0x58 }
  - { offsetInCU: 0x8A86, offset: 0x8A86, size: 0x8, addend: 0x0, symName: __ZNKSt6vectorISt4pairIxiESaIS1_EE4sizeEv, symObjAddr: 0x82C, symBinAddr: 0x100004218, symSize: 0x28 }
  - { offsetInCU: 0x8B62, offset: 0x8B62, size: 0x8, addend: 0x0, symName: __ZNSt15__new_allocatorISt4pairIxiEED2Ev, symObjAddr: 0x7C0, symBinAddr: 0x1000041AC, symSize: 0x14 }
  - { offsetInCU: 0x8B6A, offset: 0x8B6A, size: 0x8, addend: 0x0, symName: __ZNSt12_Vector_baseISt4pairIxiESaIS1_EE13_M_deallocateEPS1_m, symObjAddr: 0x7D4, symBinAddr: 0x1000041C0, symSize: 0x58 }
  - { offsetInCU: 0x8BC0, offset: 0x8BC0, size: 0x8, addend: 0x0, symName: __ZNSt12_Vector_baseISt4pairIxiESaIS1_EE17_Vector_impl_dataC2Ev, symObjAddr: 0x794, symBinAddr: 0x100004180, symSize: 0x2C }
  - { offsetInCU: 0x8BC8, offset: 0x8BC8, size: 0x8, addend: 0x0, symName: __ZNSt15__new_allocatorISt4pairIxiEED2Ev, symObjAddr: 0x7C0, symBinAddr: 0x1000041AC, symSize: 0x14 }
  - { offsetInCU: 0x8C90, offset: 0x8C90, size: 0x8, addend: 0x0, symName: __ZN9__gnu_cxxmiIPSt4pairIxiESt6vectorIS2_SaIS2_EEEENS_17__normal_iteratorIT_T0_E15difference_typeERKSA_SD_, symObjAddr: 0x754, symBinAddr: 0x100004140, symSize: 0x40 }
  - { offsetInCU: 0x8C98, offset: 0x8C98, size: 0x8, addend: 0x0, symName: __ZNSt12_Vector_baseISt4pairIxiESaIS1_EE17_Vector_impl_dataC2Ev, symObjAddr: 0x794, symBinAddr: 0x100004180, symSize: 0x2C }
  - { offsetInCU: 0x8D38, offset: 0x8D38, size: 0x8, addend: 0x0, symName: __ZSt11lower_boundIN9__gnu_cxx17__normal_iteratorIPSt4pairIxiESt6vectorIS3_SaIS3_EEEES3_ET_S9_S9_RKT0_, symObjAddr: 0x718, symBinAddr: 0x100004104, symSize: 0x3C }
  - { offsetInCU: 0x8D40, offset: 0x8D40, size: 0x8, addend: 0x0, symName: __ZN9__gnu_cxxmiIPSt4pairIxiESt6vectorIS2_SaIS2_EEEENS_17__normal_iteratorIT_T0_E15difference_typeERKSA_SD_, symObjAddr: 0x754, symBinAddr: 0x100004140, symSize: 0x40 }
  - { offsetInCU: 0x8D55, offset: 0x8D55, size: 0x8, addend: 0x0, symName: __ZSt9make_pairIxiESt4pairINSt25__strip_reference_wrapperINSt5decayIT_E4typeEE6__typeENS1_INS2_IT0_E4typeEE6__typeEEOS3_OS8_, symObjAddr: 0x6CC, symBinAddr: 0x1000040B8, symSize: 0x4C }
  - { offsetInCU: 0x8D5D, offset: 0x8D5D, size: 0x8, addend: 0x0, symName: __ZSt11lower_boundIN9__gnu_cxx17__normal_iteratorIPSt4pairIxiESt6vectorIS3_SaIS3_EEEES3_ET_S9_S9_RKT0_, symObjAddr: 0x718, symBinAddr: 0x100004104, symSize: 0x3C }
  - { offsetInCU: 0x8D23, offset: 0x8D23, size: 0x8, addend: 0x0, symName: __ZNK9__gnu_cxx17__normal_iteratorIPSt4pairIxiESt6vectorIS2_SaIS2_EEEplEl, symObjAddr: 0x68C, symBinAddr: 0x100004078, symSize: 0x40 }
  - { offsetInCU: 0x8D2B, offset: 0x8D2B, size: 0x8, addend: 0x0, symName: __ZSt9make_pairIxiESt4pairINSt25__strip_reference_wrapperINSt5decayIT_E4typeEE6__typeENS1_INS2_IT0_E4typeEE6__typeEEOS3_OS8_, symObjAddr: 0x6CC, symBinAddr: 0x1000040B8, symSize: 0x4C }
  - { offsetInCU: 0x8E2D, offset: 0x8E2D, size: 0x8, addend: 0x0, symName: __ZSt4sortIN9__gnu_cxx17__normal_iteratorIPSt4pairIxiESt6vectorIS3_SaIS3_EEEEEvT_S9_, symObjAddr: 0x654, symBinAddr: 0x100004040, symSize: 0x38 }
  - { offsetInCU: 0x8E35, offset: 0x8E35, size: 0x8, addend: 0x0, symName: __ZNK9__gnu_cxx17__normal_iteratorIPSt4pairIxiESt6vectorIS2_SaIS2_EEEplEl, symObjAddr: 0x68C, symBinAddr: 0x100004078, symSize: 0x40 }
  - { offsetInCU: 0x8DBE, offset: 0x8DBE, size: 0x8, addend: 0x0, symName: __ZNSt6vectorISt4pairIxiESaIS1_EE3endEv, symObjAddr: 0x62C, symBinAddr: 0x100004018, symSize: 0x28 }
  - { offsetInCU: 0x8DC6, offset: 0x8DC6, size: 0x8, addend: 0x0, symName: __ZSt4sortIN9__gnu_cxx17__normal_iteratorIPSt4pairIxiESt6vectorIS3_SaIS3_EEEEEvT_S9_, symObjAddr: 0x654, symBinAddr: 0x100004040, symSize: 0x38 }
  - { offsetInCU: 0x8DED, offset: 0x8DED, size: 0x8, addend: 0x0, symName: __ZNSt6vectorISt4pairIxiESaIS1_EE5beginEv, symObjAddr: 0x608, symBinAddr: 0x100003FF4, symSize: 0x24 }
  - { offsetInCU: 0x8DF5, offset: 0x8DF5, size: 0x8, addend: 0x0, symName: __ZNSt6vectorISt4pairIxiESaIS1_EE3endEv, symObjAddr: 0x62C, symBinAddr: 0x100004018, symSize: 0x28 }
  - { offsetInCU: 0x8E1C, offset: 0x8E1C, size: 0x8, addend: 0x0, symName: __ZNSt6vectorISt4pairIxiESaIS1_EEixEm, symObjAddr: 0x5E0, symBinAddr: 0x100003FCC, symSize: 0x28 }
  - { offsetInCU: 0x8E24, offset: 0x8E24, size: 0x8, addend: 0x0, symName: __ZNSt6vectorISt4pairIxiESaIS1_EE5beginEv, symObjAddr: 0x608, symBinAddr: 0x100003FF4, symSize: 0x24 }
  - { offsetInCU: 0x8E5F, offset: 0x8E5F, size: 0x8, addend: 0x0, symName: __ZNSt6vectorISt4pairIxiESaIS1_EE6resizeEm, symObjAddr: 0x530, symBinAddr: 0x100003F1C, symSize: 0xB0 }
  - { offsetInCU: 0x8E67, offset: 0x8E67, size: 0x8, addend: 0x0, symName: __ZNSt6vectorISt4pairIxiESaIS1_EEixEm, symObjAddr: 0x5E0, symBinAddr: 0x100003FCC, symSize: 0x28 }
  - { offsetInCU: 0x8EF5, offset: 0x8EF5, size: 0x8, addend: 0x0, symName: __ZNSt12_Vector_baseISt4pairIxiESaIS1_EED2Ev, symObjAddr: 0x4E0, symBinAddr: 0x100003ECC, symSize: 0x50 }
  - { offsetInCU: 0x8EFD, offset: 0x8EFD, size: 0x8, addend: 0x0, symName: __ZNSt6vectorISt4pairIxiESaIS1_EE6resizeEm, symObjAddr: 0x530, symBinAddr: 0x100003F1C, symSize: 0xB0 }
  - { offsetInCU: 0x8F71, offset: 0x8F71, size: 0x8, addend: 0x0, symName: __ZNSt12_Vector_baseISt4pairIxiESaIS1_EE12_Vector_implC1Ev, symObjAddr: 0x4A8, symBinAddr: 0x100003E94, symSize: 0x38 }
  - { offsetInCU: 0x8F79, offset: 0x8F79, size: 0x8, addend: 0x0, symName: __ZNSt12_Vector_baseISt4pairIxiESaIS1_EED2Ev, symObjAddr: 0x4E0, symBinAddr: 0x100003ECC, symSize: 0x50 }
  - { offsetInCU: 0x8FBB, offset: 0x8FBB, size: 0x8, addend: 0x0, symName: _main, symObjAddr: 0xC4, symBinAddr: 0x100003AB0, symSize: 0x3E4 }
  - { offsetInCU: 0x8FC3, offset: 0x8FC3, size: 0x8, addend: 0x0, symName: __ZNSt12_Vector_baseISt4pairIxiESaIS1_EE12_Vector_implC1Ev, symObjAddr: 0x4A8, symBinAddr: 0x100003E94, symSize: 0x38 }
  - { offsetInCU: 0x90D1, offset: 0x90D1, size: 0x8, addend: 0x0, symName: __ZNSt6vectorISt4pairIxiESaIS1_EEC1Ev, symObjAddr: 0xA4, symBinAddr: 0x100003A90, symSize: 0x20 }
  - { offsetInCU: 0x90D9, offset: 0x90D9, size: 0x8, addend: 0x0, symName: _main, symObjAddr: 0xC4, symBinAddr: 0x100003AB0, symSize: 0x3E4 }
  - { offsetInCU: 0x911F, offset: 0x911F, size: 0x8, addend: 0x0, symName: __ZNSt12_Vector_baseISt4pairIxiESaIS1_EEC2Ev, symObjAddr: 0x84, symBinAddr: 0x100003A70, symSize: 0x20 }
  - { offsetInCU: 0x9127, offset: 0x9127, size: 0x8, addend: 0x0, symName: __ZNSt6vectorISt4pairIxiESaIS1_EEC1Ev, symObjAddr: 0xA4, symBinAddr: 0x100003A90, symSize: 0x20 }
  - { offsetInCU: 0x9185, offset: 0x9185, size: 0x8, addend: 0x0, symName: __ZNSt12_Vector_baseISt4pairIxiESaIS1_EE12_Vector_implD1Ev, symObjAddr: 0x58, symBinAddr: 0x100003A44, symSize: 0x2C }
  - { offsetInCU: 0x918D, offset: 0x918D, size: 0x8, addend: 0x0, symName: __ZNSt12_Vector_baseISt4pairIxiESaIS1_EEC2Ev, symObjAddr: 0x84, symBinAddr: 0x100003A70, symSize: 0x20 }
  - { offsetInCU: 0x91B0, offset: 0x91B0, size: 0x8, addend: 0x0, symName: __ZnwmPv, symObjAddr: 0x40, symBinAddr: 0x100003A2C, symSize: 0x18 }
  - { offsetInCU: 0x91B8, offset: 0x91B8, size: 0x8, addend: 0x0, symName: __ZNSt12_Vector_baseISt4pairIxiESaIS1_EE12_Vector_implD1Ev, symObjAddr: 0x58, symBinAddr: 0x100003A44, symSize: 0x2C }
  - { offsetInCU: 0x9238, offset: 0x9238, size: 0x8, addend: 0x0, symName: __ZN9__gnu_cxx5__ops15__val_comp_iterENS0_15_Iter_less_iterE, symObjAddr: 0x28, symBinAddr: 0x100003A14, symSize: 0x18 }
  - { offsetInCU: 0x9240, offset: 0x9240, size: 0x8, addend: 0x0, symName: __ZnwmPv, symObjAddr: 0x40, symBinAddr: 0x100003A2C, symSize: 0x18 }
  - { offsetInCU: 0x9259, offset: 0x9259, size: 0x8, addend: 0x0, symName: __ZN9__gnu_cxx5__ops15__iter_less_valEv, symObjAddr: 0x20, symBinAddr: 0x100003A0C, symSize: 0x8 }
  - { offsetInCU: 0x9261, offset: 0x9261, size: 0x8, addend: 0x0, symName: __ZN9__gnu_cxx5__ops15__val_comp_iterENS0_15_Iter_less_iterE, symObjAddr: 0x28, symBinAddr: 0x100003A14, symSize: 0x18 }
  - { offsetInCU: 0x92A5, offset: 0x92A5, size: 0x8, addend: 0x0, symName: __ZN9__gnu_cxx5__ops14_Iter_less_valC1ENS0_15_Iter_less_iterE, symObjAddr: 0x8, symBinAddr: 0x1000039F4, symSize: 0x18 }
  - { offsetInCU: 0x92AD, offset: 0x92AD, size: 0x8, addend: 0x0, symName: __ZN9__gnu_cxx5__ops15__iter_less_valEv, symObjAddr: 0x20, symBinAddr: 0x100003A0C, symSize: 0x8 }
  - { offsetInCU: 0x92DF, offset: 0x92DF, size: 0x8, addend: 0x0, symName: __ZN9__gnu_cxx5__ops16__iter_less_iterEv, symObjAddr: 0x0, symBinAddr: 0x1000039EC, symSize: 0x8 }
  - { offsetInCU: 0x92E7, offset: 0x92E7, size: 0x8, addend: 0x0, symName: __ZN9__gnu_cxx5__ops14_Iter_less_valC1ENS0_15_Iter_less_iterE, symObjAddr: 0x8, symBinAddr: 0x1000039F4, symSize: 0x18 }
...
