---
triple:          'arm64-apple-darwin'
binary-path:     '/Users/dingkai/USACO/milk_measurement/milk_measurement'
relocations:
  - { offsetInCU: 0xEF7B, offset: 0xEF7B, size: 0x8, addend: 0x0, symName: __ZNSt3__1rsB7v160006IcNS_11char_traitsIcEENS_9allocatorIcEEEERNS_13basic_istreamIT_T0_EES9_RNS_12basic_stringIS6_S7_T1_EE, symObjAddr: 0xA84, symBinAddr: 0x1000046B0, symSize: 0x31C }
  - { offsetInCU: 0xF04A, offset: 0xF04A, size: 0x8, addend: 0x0, symName: __ZNSt3__1eqB7v160006IcNS_11char_traitsIcEENS_9allocatorIcEEEEbRKNS_12basic_stringIT_T0_T1_EEPKS6_, symObjAddr: 0xDF0, symBinAddr: 0x100004A1C, symSize: 0xAC }
  - { offsetInCU: 0xF0B1, offset: 0xF0B1, size: 0x8, addend: 0x0, symName: __ZNSt3__13maxB7v160006IiEERKT_S3_S3_, symObjAddr: 0xE9C, symBinAddr: 0x100004AC8, symSize: 0x2C }
  - { offsetInCU: 0xF10A, offset: 0xF10A, size: 0x8, addend: 0x0, symName: __ZNSt3__13maxB7v160006IiNS_6__lessIiiEEEERKT_S5_S5_T0_, symObjAddr: 0xFA0, symBinAddr: 0x100004BCC, symSize: 0x54 }
  - { offsetInCU: 0xF19F, offset: 0xF19F, size: 0x8, addend: 0x0, symName: __ZNSt3__122__make_exception_guardB7v160006INS_6vectorIiNS_9allocatorIiEEE16__destroy_vectorEEENS_28__exception_guard_exceptionsIT_EES7_, symObjAddr: 0x1434, symBinAddr: 0x100005060, symSize: 0x40 }
  - { offsetInCU: 0xF1D4, offset: 0xF1D4, size: 0x8, addend: 0x0, symName: __ZNSt3__119__debug_db_insert_cB7v160006INS_6vectorIiNS_9allocatorIiEEEEEEvPT_, symObjAddr: 0x14A8, symBinAddr: 0x1000050D4, symSize: 0x10 }
  - { offsetInCU: 0xF205, offset: 0xF205, size: 0x8, addend: 0x0, symName: __ZNSt3__119__allocate_at_leastB7v160006INS_9allocatorIiEEEENS_19__allocation_resultINS_16allocator_traitsIT_E7pointerEEERS5_m, symObjAddr: 0x1830, symBinAddr: 0x10000545C, symSize: 0x40 }
  - { offsetInCU: 0xF248, offset: 0xF248, size: 0x8, addend: 0x0, symName: __ZNSt3__13minB7v160006ImEERKT_S3_S3_, symObjAddr: 0x196C, symBinAddr: 0x100005598, symSize: 0x2C }
  - { offsetInCU: 0xF475, offset: 0xF475, size: 0x8, addend: 0x0, symName: __ZNSt3__13minB7v160006ImNS_6__lessImmEEEERKT_S5_S5_T0_, symObjAddr: 0x1A04, symBinAddr: 0x100005630, symSize: 0x54 }
  - { offsetInCU: 0xF50A, offset: 0xF50A, size: 0x8, addend: 0x0, symName: __ZNSt3__120__throw_length_errorB7v160006EPKc, symObjAddr: 0x1AE0, symBinAddr: 0x10000570C, symSize: 0x64 }
  - { offsetInCU: 0xF532, offset: 0xF532, size: 0x8, addend: 0x0, symName: __ZNSt3__117__libcpp_allocateB7v160006Emm, symObjAddr: 0x1C50, symBinAddr: 0x10000587C, symSize: 0x60 }
  - { offsetInCU: 0xF58C, offset: 0xF58C, size: 0x8, addend: 0x0, symName: __ZNSt3__124__is_overaligned_for_newB7v160006Em, symObjAddr: 0x1CB0, symBinAddr: 0x1000058DC, symSize: 0x20 }
  - { offsetInCU: 0xF5BA, offset: 0xF5BA, size: 0x8, addend: 0x0, symName: __ZNSt3__121__libcpp_operator_newB7v160006IJmSt11align_val_tEEEPvDpT_, symObjAddr: 0x1CD0, symBinAddr: 0x1000058FC, symSize: 0x2C }
  - { offsetInCU: 0xF607, offset: 0xF607, size: 0x8, addend: 0x0, symName: __ZNSt3__121__libcpp_operator_newB7v160006IJmEEEPvDpT_, symObjAddr: 0x1CFC, symBinAddr: 0x100005928, symSize: 0x24 }
  - { offsetInCU: 0xF640, offset: 0xF640, size: 0x8, addend: 0x0, symName: __ZNSt3__112__to_addressB7v160006IiEEPT_S2_, symObjAddr: 0x1E18, symBinAddr: 0x100005A44, symSize: 0x14 }
  - { offsetInCU: 0xF675, offset: 0xF675, size: 0x8, addend: 0x0, symName: __ZNSt3__118__debug_db_erase_cB7v160006INS_6vectorIiNS_9allocatorIiEEEEEEvPT_, symObjAddr: 0x2144, symBinAddr: 0x100005D70, symSize: 0x10 }
  - { offsetInCU: 0xF6A6, offset: 0xF6A6, size: 0x8, addend: 0x0, symName: __ZNSt3__119__libcpp_deallocateB7v160006EPvmm, symObjAddr: 0x22E4, symBinAddr: 0x100005F10, symSize: 0x60 }
  - { offsetInCU: 0xF70B, offset: 0xF70B, size: 0x8, addend: 0x0, symName: __ZNSt3__127__do_deallocate_handle_sizeB7v160006IJSt11align_val_tEEEvPvmDpT_, symObjAddr: 0x2344, symBinAddr: 0x100005F70, symSize: 0x30 }
  - { offsetInCU: 0xF75E, offset: 0xF75E, size: 0x8, addend: 0x0, symName: __ZNSt3__127__do_deallocate_handle_sizeB7v160006IJEEEvPvmDpT_, symObjAddr: 0x2374, symBinAddr: 0x100005FA0, symSize: 0x28 }
  - { offsetInCU: 0xF79C, offset: 0xF79C, size: 0x8, addend: 0x0, symName: __ZNSt3__124__libcpp_operator_deleteB7v160006IJPvSt11align_val_tEEEvDpT_, symObjAddr: 0x239C, symBinAddr: 0x100005FC8, symSize: 0x2C }
  - { offsetInCU: 0xF7E5, offset: 0xF7E5, size: 0x8, addend: 0x0, symName: __ZNSt3__124__libcpp_operator_deleteB7v160006IJPvEEEvDpT_, symObjAddr: 0x23C8, symBinAddr: 0x100005FF4, symSize: 0x24 }
  - { offsetInCU: 0xF81A, offset: 0xF81A, size: 0x8, addend: 0x0, symName: __ZNSt3__122__make_exception_guardB7v160006INS_6vectorINS_12basic_stringIcNS_11char_traitsIcEENS_9allocatorIcEEEENS5_IS7_EEE16__destroy_vectorEEENS_28__exception_guard_exceptionsIT_EESC_, symObjAddr: 0x254C, symBinAddr: 0x100006178, symSize: 0x40 }
  - { offsetInCU: 0xF84F, offset: 0xF84F, size: 0x8, addend: 0x0, symName: __ZNSt3__119__debug_db_insert_cB7v160006INS_6vectorINS_12basic_stringIcNS_11char_traitsIcEENS_9allocatorIcEEEENS5_IS7_EEEEEEvPT_, symObjAddr: 0x25C0, symBinAddr: 0x1000061EC, symSize: 0x10 }
  - { offsetInCU: 0xF880, offset: 0xF880, size: 0x8, addend: 0x0, symName: __ZNSt3__119__allocate_at_leastB7v160006INS_9allocatorINS_12basic_stringIcNS_11char_traitsIcEENS1_IcEEEEEEEENS_19__allocation_resultINS_16allocator_traitsIT_E7pointerEEERSA_m, symObjAddr: 0x2950, symBinAddr: 0x10000657C, symSize: 0x40 }
  - { offsetInCU: 0xF8C3, offset: 0xF8C3, size: 0x8, addend: 0x0, symName: __ZNSt3__112__to_addressB7v160006INS_12basic_stringIcNS_11char_traitsIcEENS_9allocatorIcEEEEEEPT_S8_, symObjAddr: 0x2C98, symBinAddr: 0x1000068C4, symSize: 0x14 }
  - { offsetInCU: 0xF8F8, offset: 0xF8F8, size: 0x8, addend: 0x0, symName: __ZNSt3__119__debug_db_insert_cB7v160006INS_12basic_stringIcNS_11char_traitsIcEENS_9allocatorIcEEEEEEvPT_, symObjAddr: 0x2ED0, symBinAddr: 0x100006AFC, symSize: 0x10 }
  - { offsetInCU: 0xF929, offset: 0xF929, size: 0x8, addend: 0x0, symName: __ZNSt3__118__debug_db_erase_cB7v160006INS_6vectorINS_12basic_stringIcNS_11char_traitsIcEENS_9allocatorIcEEEENS5_IS7_EEEEEEvPT_, symObjAddr: 0x31F4, symBinAddr: 0x100006E20, symSize: 0x10 }
  - { offsetInCU: 0xF95A, offset: 0xF95A, size: 0x8, addend: 0x0, symName: __ZNSt3__19use_facetB7v160006INS_5ctypeIcEEEERKT_RKNS_6localeE, symObjAddr: 0x3558, symBinAddr: 0x100007184, symSize: 0x2C }
  - { offsetInCU: 0xFD3A, offset: 0xFD3A, size: 0x8, addend: 0x0, symName: __ZNSt3__125__debug_db_invalidate_allB7v160006INS_12basic_stringIcNS_11char_traitsIcEENS_9allocatorIcEEEEEEvPT_, symObjAddr: 0x3800, symBinAddr: 0x10000742C, symSize: 0x10 }
  - { offsetInCU: 0xFF8A, offset: 0xFF8A, size: 0x8, addend: 0x0, symName: __ZNSt3__118__constexpr_strlenB7v160006EPKc, symObjAddr: 0x3B58, symBinAddr: 0x100007784, symSize: 0x24 }
  - { offsetInCU: 0x10515, offset: 0x10515, size: 0x8, addend: 0x0, symName: __ZSt28__throw_bad_array_new_lengthB7v160006v, symObjAddr: 0x1C1C, symBinAddr: 0x100005848, symSize: 0x34 }
  - { offsetInCU: 0x130A8, offset: 0x130A8, size: 0x8, addend: 0x0, symName: _main, symObjAddr: 0x0, symBinAddr: 0x100003C2C, symSize: 0x744 }
  - { offsetInCU: 0x133E3, offset: 0x133E3, size: 0x8, addend: 0x0, symName: __ZNSt3__114basic_ifstreamIcNS_11char_traitsIcEEEC1EPKcj, symObjAddr: 0x744, symBinAddr: 0x100004370, symSize: 0x16C }
  - { offsetInCU: 0x13446, offset: 0x13446, size: 0x8, addend: 0x0, symName: __ZNSt3__114basic_ofstreamIcNS_11char_traitsIcEEEC1EPKcj, symObjAddr: 0x8B0, symBinAddr: 0x1000044DC, symSize: 0x16C }
  - { offsetInCU: 0x13490, offset: 0x13490, size: 0x8, addend: 0x0, symName: __ZNSt3__16vectorIiNS_9allocatorIiEEEC1Em, symObjAddr: 0xA1C, symBinAddr: 0x100004648, symSize: 0x34 }
  - { offsetInCU: 0x134CB, offset: 0x134CB, size: 0x8, addend: 0x0, symName: __ZNSt3__16vectorINS_12basic_stringIcNS_11char_traitsIcEENS_9allocatorIcEEEENS4_IS6_EEEC1Em, symObjAddr: 0xA50, symBinAddr: 0x10000467C, symSize: 0x34 }
  - { offsetInCU: 0x13506, offset: 0x13506, size: 0x8, addend: 0x0, symName: __ZNSt3__16vectorIiNS_9allocatorIiEEEixB7v160006Em, symObjAddr: 0xDA0, symBinAddr: 0x1000049CC, symSize: 0x24 }
  - { offsetInCU: 0x1353D, offset: 0x1353D, size: 0x8, addend: 0x0, symName: __ZNSt3__16vectorINS_12basic_stringIcNS_11char_traitsIcEENS_9allocatorIcEEEENS4_IS6_EEEixB7v160006Em, symObjAddr: 0xDC4, symBinAddr: 0x1000049F0, symSize: 0x2C }
  - { offsetInCU: 0x13574, offset: 0x13574, size: 0x8, addend: 0x0, symName: __ZNSt3__16vectorINS_12basic_stringIcNS_11char_traitsIcEENS_9allocatorIcEEEENS4_IS6_EEED1B7v160006Ev, symObjAddr: 0xEC8, symBinAddr: 0x100004AF4, symSize: 0x2C }
  - { offsetInCU: 0x1359E, offset: 0x1359E, size: 0x8, addend: 0x0, symName: __ZNSt3__16vectorIiNS_9allocatorIiEEED1B7v160006Ev, symObjAddr: 0xEF4, symBinAddr: 0x100004B20, symSize: 0x2C }
  - { offsetInCU: 0x135CD, offset: 0x135CD, size: 0x8, addend: 0x0, symName: __ZNSt3__114basic_ofstreamIcNS_11char_traitsIcEEED1Ev, symObjAddr: 0xF20, symBinAddr: 0x100004B4C, symSize: 0x40 }
  - { offsetInCU: 0x135FF, offset: 0x135FF, size: 0x8, addend: 0x0, symName: __ZNSt3__114basic_ifstreamIcNS_11char_traitsIcEEED1Ev, symObjAddr: 0xF60, symBinAddr: 0x100004B8C, symSize: 0x40 }
  - { offsetInCU: 0x13636, offset: 0x13636, size: 0x8, addend: 0x0, symName: __ZNKSt3__16__lessIiiEclB7v160006ERKiS3_, symObjAddr: 0xFF4, symBinAddr: 0x100004C20, symSize: 0x34 }
  - { offsetInCU: 0x13678, offset: 0x13678, size: 0x8, addend: 0x0, symName: __ZNSt3__114basic_ofstreamIcNS_11char_traitsIcEEED2Ev, symObjAddr: 0x1028, symBinAddr: 0x100004C54, symSize: 0x64 }
  - { offsetInCU: 0x136B2, offset: 0x136B2, size: 0x8, addend: 0x0, symName: __ZTv0_n24_NSt3__114basic_ofstreamIcNS_11char_traitsIcEEED1Ev, symObjAddr: 0x108C, symBinAddr: 0x100004CB8, symSize: 0x28 }
  - { offsetInCU: 0x136C9, offset: 0x136C9, size: 0x8, addend: 0x0, symName: __ZNSt3__114basic_ifstreamIcNS_11char_traitsIcEEED2Ev, symObjAddr: 0x10B4, symBinAddr: 0x100004CE0, symSize: 0x64 }
  - { offsetInCU: 0x13703, offset: 0x13703, size: 0x8, addend: 0x0, symName: __ZTv0_n24_NSt3__114basic_ifstreamIcNS_11char_traitsIcEEED1Ev, symObjAddr: 0x1118, symBinAddr: 0x100004D44, symSize: 0x28 }
  - { offsetInCU: 0x1371A, offset: 0x1371A, size: 0x8, addend: 0x0, symName: __ZNSt3__19basic_iosIcNS_11char_traitsIcEEEC2B7v160006Ev, symObjAddr: 0x1140, symBinAddr: 0x100004D6C, symSize: 0x44 }
  - { offsetInCU: 0x13744, offset: 0x13744, size: 0x8, addend: 0x0, symName: __ZNSt3__113basic_istreamIcNS_11char_traitsIcEEEC2B7v160006EPNS_15basic_streambufIcS2_EE, symObjAddr: 0x1184, symBinAddr: 0x100004DB0, symSize: 0x64 }
  - { offsetInCU: 0x13789, offset: 0x13789, size: 0x8, addend: 0x0, symName: __ZNSt3__19basic_iosIcNS_11char_traitsIcEEE8setstateB7v160006Ej, symObjAddr: 0x11E8, symBinAddr: 0x100004E14, symSize: 0x2C }
  - { offsetInCU: 0x137BE, offset: 0x137BE, size: 0x8, addend: 0x0, symName: __ZNSt3__18ios_baseC2B7v160006Ev, symObjAddr: 0x1214, symBinAddr: 0x100004E40, symSize: 0x24 }
  - { offsetInCU: 0x137E8, offset: 0x137E8, size: 0x8, addend: 0x0, symName: __ZNSt3__19basic_iosIcNS_11char_traitsIcEEE4initB7v160006EPNS_15basic_streambufIcS2_EE, symObjAddr: 0x1238, symBinAddr: 0x100004E64, symSize: 0x44 }
  - { offsetInCU: 0x1381F, offset: 0x1381F, size: 0x8, addend: 0x0, symName: __ZNSt3__111char_traitsIcE3eofEv, symObjAddr: 0x127C, symBinAddr: 0x100004EA8, symSize: 0x8 }
  - { offsetInCU: 0x13833, offset: 0x13833, size: 0x8, addend: 0x0, symName: __ZNSt3__18ios_base8setstateB7v160006Ej, symObjAddr: 0x1284, symBinAddr: 0x100004EB0, symSize: 0x34 }
  - { offsetInCU: 0x1386A, offset: 0x1386A, size: 0x8, addend: 0x0, symName: __ZNSt3__113basic_ostreamIcNS_11char_traitsIcEEEC2B7v160006EPNS_15basic_streambufIcS2_EE, symObjAddr: 0x12B8, symBinAddr: 0x100004EE4, symSize: 0x60 }
  - { offsetInCU: 0x138AF, offset: 0x138AF, size: 0x8, addend: 0x0, symName: __ZNSt3__16vectorIiNS_9allocatorIiEEEC2Em, symObjAddr: 0x1318, symBinAddr: 0x100004F44, symSize: 0xE0 }
  - { offsetInCU: 0x13909, offset: 0x13909, size: 0x8, addend: 0x0, symName: __ZNSt3__117__compressed_pairIPiNS_9allocatorIiEEEC1B7v160006IDnNS_18__default_init_tagEEEOT_OT0_, symObjAddr: 0x13F8, symBinAddr: 0x100005024, symSize: 0x3C }
  - { offsetInCU: 0x13961, offset: 0x13961, size: 0x8, addend: 0x0, symName: __ZNSt3__16vectorIiNS_9allocatorIiEEE16__destroy_vectorC1ERS3_, symObjAddr: 0x1474, symBinAddr: 0x1000050A0, symSize: 0x34 }
  - { offsetInCU: 0x1399A, offset: 0x1399A, size: 0x8, addend: 0x0, symName: __ZNSt3__16vectorIiNS_9allocatorIiEEE11__vallocateB7v160006Em, symObjAddr: 0x14B8, symBinAddr: 0x1000050E4, symSize: 0xAC }
  - { offsetInCU: 0x139DE, offset: 0x139DE, size: 0x8, addend: 0x0, symName: __ZNSt3__16vectorIiNS_9allocatorIiEEE18__construct_at_endEm, symObjAddr: 0x1564, symBinAddr: 0x100005190, symSize: 0xC8 }
  - { offsetInCU: 0x13A50, offset: 0x13A50, size: 0x8, addend: 0x0, symName: __ZNSt3__128__exception_guard_exceptionsINS_6vectorIiNS_9allocatorIiEEE16__destroy_vectorEE10__completeB7v160006Ev, symObjAddr: 0x162C, symBinAddr: 0x100005258, symSize: 0x1C }
  - { offsetInCU: 0x13A76, offset: 0x13A76, size: 0x8, addend: 0x0, symName: __ZNSt3__128__exception_guard_exceptionsINS_6vectorIiNS_9allocatorIiEEE16__destroy_vectorEED1B7v160006Ev, symObjAddr: 0x1648, symBinAddr: 0x100005274, symSize: 0x2C }
  - { offsetInCU: 0x13AA0, offset: 0x13AA0, size: 0x8, addend: 0x0, symName: __ZNSt3__117__compressed_pairIPiNS_9allocatorIiEEEC2B7v160006IDnNS_18__default_init_tagEEEOT_OT0_, symObjAddr: 0x1674, symBinAddr: 0x1000052A0, symSize: 0x40 }
  - { offsetInCU: 0x13AF8, offset: 0x13AF8, size: 0x8, addend: 0x0, symName: __ZNSt3__122__compressed_pair_elemIPiLi0ELb0EEC2B7v160006IDnvEEOT_, symObjAddr: 0x16B4, symBinAddr: 0x1000052E0, symSize: 0x1C }
  - { offsetInCU: 0x13B3A, offset: 0x13B3A, size: 0x8, addend: 0x0, symName: __ZNSt3__122__compressed_pair_elemINS_9allocatorIiEELi1ELb1EEC2B7v160006ENS_18__default_init_tagE, symObjAddr: 0x16D0, symBinAddr: 0x1000052FC, symSize: 0x2C }
  - { offsetInCU: 0x13B6F, offset: 0x13B6F, size: 0x8, addend: 0x0, symName: __ZNSt3__19allocatorIiEC2B7v160006Ev, symObjAddr: 0x16FC, symBinAddr: 0x100005328, symSize: 0x2C }
  - { offsetInCU: 0x13B99, offset: 0x13B99, size: 0x8, addend: 0x0, symName: __ZNSt3__116__non_trivial_ifILb1ENS_9allocatorIiEEEC2B7v160006Ev, symObjAddr: 0x1728, symBinAddr: 0x100005354, symSize: 0x14 }
  - { offsetInCU: 0x13BC3, offset: 0x13BC3, size: 0x8, addend: 0x0, symName: __ZNSt3__128__exception_guard_exceptionsINS_6vectorIiNS_9allocatorIiEEE16__destroy_vectorEEC1B7v160006ES5_, symObjAddr: 0x173C, symBinAddr: 0x100005368, symSize: 0x34 }
  - { offsetInCU: 0x13BFB, offset: 0x13BFB, size: 0x8, addend: 0x0, symName: __ZNSt3__128__exception_guard_exceptionsINS_6vectorIiNS_9allocatorIiEEE16__destroy_vectorEEC2B7v160006ES5_, symObjAddr: 0x1770, symBinAddr: 0x10000539C, symSize: 0x24 }
  - { offsetInCU: 0x13C33, offset: 0x13C33, size: 0x8, addend: 0x0, symName: __ZNSt3__16vectorIiNS_9allocatorIiEEE16__destroy_vectorC2ERS3_, symObjAddr: 0x1794, symBinAddr: 0x1000053C0, symSize: 0x20 }
  - { offsetInCU: 0x13C6C, offset: 0x13C6C, size: 0x8, addend: 0x0, symName: __ZNKSt3__16vectorIiNS_9allocatorIiEEE8max_sizeEv, symObjAddr: 0x17B4, symBinAddr: 0x1000053E0, symSize: 0x60 }
  - { offsetInCU: 0x13C94, offset: 0x13C94, size: 0x8, addend: 0x0, symName: __ZNKSt3__16vectorIiNS_9allocatorIiEEE20__throw_length_errorB7v160006Ev, symObjAddr: 0x1814, symBinAddr: 0x100005440, symSize: 0x1C }
  - { offsetInCU: 0x13CBA, offset: 0x13CBA, size: 0x8, addend: 0x0, symName: __ZNSt3__16vectorIiNS_9allocatorIiEEE7__allocB7v160006Ev, symObjAddr: 0x1870, symBinAddr: 0x10000549C, symSize: 0x28 }
  - { offsetInCU: 0x13CE0, offset: 0x13CE0, size: 0x8, addend: 0x0, symName: __ZNSt3__16vectorIiNS_9allocatorIiEEE9__end_capB7v160006Ev, symObjAddr: 0x1898, symBinAddr: 0x1000054C4, symSize: 0x28 }
  - { offsetInCU: 0x13D06, offset: 0x13D06, size: 0x8, addend: 0x0, symName: __ZNKSt3__16vectorIiNS_9allocatorIiEEE14__annotate_newB7v160006Em, symObjAddr: 0x18C0, symBinAddr: 0x1000054EC, symSize: 0xAC }
  - { offsetInCU: 0x13D45, offset: 0x13D45, size: 0x8, addend: 0x0, symName: __ZNSt3__116allocator_traitsINS_9allocatorIiEEE8max_sizeB7v160006IS2_vEEmRKS2_, symObjAddr: 0x1998, symBinAddr: 0x1000055C4, symSize: 0x24 }
  - { offsetInCU: 0x13D73, offset: 0x13D73, size: 0x8, addend: 0x0, symName: __ZNKSt3__16vectorIiNS_9allocatorIiEEE7__allocB7v160006Ev, symObjAddr: 0x19BC, symBinAddr: 0x1000055E8, symSize: 0x28 }
  - { offsetInCU: 0x13D99, offset: 0x13D99, size: 0x8, addend: 0x0, symName: __ZNSt3__114numeric_limitsIlE3maxB7v160006Ev, symObjAddr: 0x19E4, symBinAddr: 0x100005610, symSize: 0x14 }
  - { offsetInCU: 0x13DC1, offset: 0x13DC1, size: 0x8, addend: 0x0, symName: __ZNKSt3__16__lessImmEclB7v160006ERKmS3_, symObjAddr: 0x1A58, symBinAddr: 0x100005684, symSize: 0x34 }
  - { offsetInCU: 0x13E03, offset: 0x13E03, size: 0x8, addend: 0x0, symName: __ZNKSt3__19allocatorIiE8max_sizeB7v160006Ev, symObjAddr: 0x1A8C, symBinAddr: 0x1000056B8, symSize: 0x14 }
  - { offsetInCU: 0x13E29, offset: 0x13E29, size: 0x8, addend: 0x0, symName: __ZNKSt3__117__compressed_pairIPiNS_9allocatorIiEEE6secondB7v160006Ev, symObjAddr: 0x1AA0, symBinAddr: 0x1000056CC, symSize: 0x24 }
  - { offsetInCU: 0x13E4F, offset: 0x13E4F, size: 0x8, addend: 0x0, symName: __ZNKSt3__122__compressed_pair_elemINS_9allocatorIiEELi1ELb1EE5__getB7v160006Ev, symObjAddr: 0x1AC4, symBinAddr: 0x1000056F0, symSize: 0x14 }
  - { offsetInCU: 0x13E75, offset: 0x13E75, size: 0x8, addend: 0x0, symName: __ZNSt3__123__libcpp_numeric_limitsIlLb1EE3maxB7v160006Ev, symObjAddr: 0x1AD8, symBinAddr: 0x100005704, symSize: 0x8 }
  - { offsetInCU: 0x13E89, offset: 0x13E89, size: 0x8, addend: 0x0, symName: __ZNSt12length_errorC1B7v160006EPKc, symObjAddr: 0x1B44, symBinAddr: 0x100005770, symSize: 0x34 }
  - { offsetInCU: 0x13EC1, offset: 0x13EC1, size: 0x8, addend: 0x0, symName: __ZNSt12length_errorC2B7v160006EPKc, symObjAddr: 0x1B78, symBinAddr: 0x1000057A4, symSize: 0x4C }
  - { offsetInCU: 0x13EF9, offset: 0x13EF9, size: 0x8, addend: 0x0, symName: __ZNSt3__19allocatorIiE8allocateB7v160006Em, symObjAddr: 0x1BC4, symBinAddr: 0x1000057F0, symSize: 0x58 }
  - { offsetInCU: 0x13F2D, offset: 0x13F2D, size: 0x8, addend: 0x0, symName: __ZNSt3__117__compressed_pairIPiNS_9allocatorIiEEE6secondB7v160006Ev, symObjAddr: 0x1D20, symBinAddr: 0x10000594C, symSize: 0x24 }
  - { offsetInCU: 0x13F53, offset: 0x13F53, size: 0x8, addend: 0x0, symName: __ZNSt3__122__compressed_pair_elemINS_9allocatorIiEELi1ELb1EE5__getB7v160006Ev, symObjAddr: 0x1D44, symBinAddr: 0x100005970, symSize: 0x14 }
  - { offsetInCU: 0x13F79, offset: 0x13F79, size: 0x8, addend: 0x0, symName: __ZNSt3__117__compressed_pairIPiNS_9allocatorIiEEE5firstB7v160006Ev, symObjAddr: 0x1D58, symBinAddr: 0x100005984, symSize: 0x24 }
  - { offsetInCU: 0x13F9F, offset: 0x13F9F, size: 0x8, addend: 0x0, symName: __ZNSt3__122__compressed_pair_elemIPiLi0ELb0EE5__getB7v160006Ev, symObjAddr: 0x1D7C, symBinAddr: 0x1000059A8, symSize: 0x14 }
  - { offsetInCU: 0x13FC5, offset: 0x13FC5, size: 0x8, addend: 0x0, symName: __ZNKSt3__16vectorIiNS_9allocatorIiEEE31__annotate_contiguous_containerB7v160006EPKvS5_S5_S5_, symObjAddr: 0x1D90, symBinAddr: 0x1000059BC, symSize: 0x20 }
  - { offsetInCU: 0x1401B, offset: 0x1401B, size: 0x8, addend: 0x0, symName: __ZNKSt3__16vectorIiNS_9allocatorIiEEE4dataB7v160006Ev, symObjAddr: 0x1DB0, symBinAddr: 0x1000059DC, symSize: 0x28 }
  - { offsetInCU: 0x14041, offset: 0x14041, size: 0x8, addend: 0x0, symName: __ZNKSt3__16vectorIiNS_9allocatorIiEEE8capacityB7v160006Ev, symObjAddr: 0x1DD8, symBinAddr: 0x100005A04, symSize: 0x40 }
  - { offsetInCU: 0x14067, offset: 0x14067, size: 0x8, addend: 0x0, symName: __ZNKSt3__16vectorIiNS_9allocatorIiEEE9__end_capB7v160006Ev, symObjAddr: 0x1E2C, symBinAddr: 0x100005A58, symSize: 0x28 }
  - { offsetInCU: 0x1408D, offset: 0x1408D, size: 0x8, addend: 0x0, symName: __ZNKSt3__117__compressed_pairIPiNS_9allocatorIiEEE5firstB7v160006Ev, symObjAddr: 0x1E54, symBinAddr: 0x100005A80, symSize: 0x24 }
  - { offsetInCU: 0x140B3, offset: 0x140B3, size: 0x8, addend: 0x0, symName: __ZNKSt3__122__compressed_pair_elemIPiLi0ELb0EE5__getB7v160006Ev, symObjAddr: 0x1E78, symBinAddr: 0x100005AA4, symSize: 0x14 }
  - { offsetInCU: 0x140F2, offset: 0x140F2, size: 0x8, addend: 0x0, symName: __ZNSt3__16vectorIiNS_9allocatorIiEEE21_ConstructTransactionC1B7v160006ERS3_m, symObjAddr: 0x1E8C, symBinAddr: 0x100005AB8, symSize: 0x3C }
  - { offsetInCU: 0x1413A, offset: 0x1413A, size: 0x8, addend: 0x0, symName: __ZNSt3__116allocator_traitsINS_9allocatorIiEEE9constructB7v160006IiJEvEEvRS2_PT_DpOT0_, symObjAddr: 0x1EC8, symBinAddr: 0x100005AF4, symSize: 0x2C }
  - { offsetInCU: 0x1417C, offset: 0x1417C, size: 0x8, addend: 0x0, symName: __ZNSt3__16vectorIiNS_9allocatorIiEEE21_ConstructTransactionD1B7v160006Ev, symObjAddr: 0x1EF4, symBinAddr: 0x100005B20, symSize: 0x2C }
  - { offsetInCU: 0x141A6, offset: 0x141A6, size: 0x8, addend: 0x0, symName: __ZNSt3__16vectorIiNS_9allocatorIiEEE21_ConstructTransactionC2B7v160006ERS3_m, symObjAddr: 0x1F20, symBinAddr: 0x100005B4C, symSize: 0x44 }
  - { offsetInCU: 0x141EE, offset: 0x141EE, size: 0x8, addend: 0x0, symName: __ZNSt3__19allocatorIiE9constructB7v160006IiJEEEvPT_DpOT0_, symObjAddr: 0x1F64, symBinAddr: 0x100005B90, symSize: 0x1C }
  - { offsetInCU: 0x14230, offset: 0x14230, size: 0x8, addend: 0x0, symName: __ZNSt3__16vectorIiNS_9allocatorIiEEE21_ConstructTransactionD2B7v160006Ev, symObjAddr: 0x1F80, symBinAddr: 0x100005BAC, symSize: 0x20 }
  - { offsetInCU: 0x1425A, offset: 0x1425A, size: 0x8, addend: 0x0, symName: __ZNSt3__128__exception_guard_exceptionsINS_6vectorIiNS_9allocatorIiEEE16__destroy_vectorEED2B7v160006Ev, symObjAddr: 0x1FA0, symBinAddr: 0x100005BCC, symSize: 0x50 }
  - { offsetInCU: 0x14284, offset: 0x14284, size: 0x8, addend: 0x0, symName: __ZNSt3__16vectorIiNS_9allocatorIiEEE16__destroy_vectorclB7v160006Ev, symObjAddr: 0x1FF0, symBinAddr: 0x100005C1C, symSize: 0x9C }
  - { offsetInCU: 0x142AA, offset: 0x142AA, size: 0x8, addend: 0x0, symName: __ZNKSt3__16vectorIiNS_9allocatorIiEEE17__annotate_deleteB7v160006Ev, symObjAddr: 0x208C, symBinAddr: 0x100005CB8, symSize: 0xB8 }
  - { offsetInCU: 0x142D0, offset: 0x142D0, size: 0x8, addend: 0x0, symName: __ZNSt3__16vectorIiNS_9allocatorIiEEE7__clearB7v160006Ev, symObjAddr: 0x2154, symBinAddr: 0x100005D80, symSize: 0x28 }
  - { offsetInCU: 0x142F6, offset: 0x142F6, size: 0x8, addend: 0x0, symName: __ZNSt3__116allocator_traitsINS_9allocatorIiEEE10deallocateB7v160006ERS2_Pim, symObjAddr: 0x217C, symBinAddr: 0x100005DA8, symSize: 0x34 }
  - { offsetInCU: 0x14338, offset: 0x14338, size: 0x8, addend: 0x0, symName: __ZNKSt3__16vectorIiNS_9allocatorIiEEE4sizeB7v160006Ev, symObjAddr: 0x21B0, symBinAddr: 0x100005DDC, symSize: 0x28 }
  - { offsetInCU: 0x1435E, offset: 0x1435E, size: 0x8, addend: 0x0, symName: __ZNSt3__16vectorIiNS_9allocatorIiEEE22__base_destruct_at_endB7v160006EPi, symObjAddr: 0x21D8, symBinAddr: 0x100005E04, symSize: 0x8C }
  - { offsetInCU: 0x143A2, offset: 0x143A2, size: 0x8, addend: 0x0, symName: __ZNSt3__116allocator_traitsINS_9allocatorIiEEE7destroyB7v160006IivEEvRS2_PT_, symObjAddr: 0x2264, symBinAddr: 0x100005E90, symSize: 0x2C }
  - { offsetInCU: 0x143DF, offset: 0x143DF, size: 0x8, addend: 0x0, symName: __ZNSt3__19allocatorIiE7destroyB7v160006EPi, symObjAddr: 0x2290, symBinAddr: 0x100005EBC, symSize: 0x14 }
  - { offsetInCU: 0x14413, offset: 0x14413, size: 0x8, addend: 0x0, symName: __ZNSt3__19allocatorIiE10deallocateB7v160006EPim, symObjAddr: 0x22A4, symBinAddr: 0x100005ED0, symSize: 0x40 }
  - { offsetInCU: 0x14455, offset: 0x14455, size: 0x8, addend: 0x0, symName: __ZNSt3__16vectorIiNS_9allocatorIiEEED2B7v160006Ev, symObjAddr: 0x23EC, symBinAddr: 0x100006018, symSize: 0x44 }
  - { offsetInCU: 0x1447F, offset: 0x1447F, size: 0x8, addend: 0x0, symName: __ZNSt3__16vectorINS_12basic_stringIcNS_11char_traitsIcEENS_9allocatorIcEEEENS4_IS6_EEEC2Em, symObjAddr: 0x2430, symBinAddr: 0x10000605C, symSize: 0xE0 }
  - { offsetInCU: 0x144CF, offset: 0x144CF, size: 0x8, addend: 0x0, symName: __ZNSt3__117__compressed_pairIPNS_12basic_stringIcNS_11char_traitsIcEENS_9allocatorIcEEEENS4_IS6_EEEC1B7v160006IDnNS_18__default_init_tagEEEOT_OT0_, symObjAddr: 0x2510, symBinAddr: 0x10000613C, symSize: 0x3C }
  - { offsetInCU: 0x14527, offset: 0x14527, size: 0x8, addend: 0x0, symName: __ZNSt3__16vectorINS_12basic_stringIcNS_11char_traitsIcEENS_9allocatorIcEEEENS4_IS6_EEE16__destroy_vectorC1ERS8_, symObjAddr: 0x258C, symBinAddr: 0x1000061B8, symSize: 0x34 }
  - { offsetInCU: 0x14560, offset: 0x14560, size: 0x8, addend: 0x0, symName: __ZNSt3__16vectorINS_12basic_stringIcNS_11char_traitsIcEENS_9allocatorIcEEEENS4_IS6_EEE11__vallocateB7v160006Em, symObjAddr: 0x25D0, symBinAddr: 0x1000061FC, symSize: 0xB4 }
  - { offsetInCU: 0x145A4, offset: 0x145A4, size: 0x8, addend: 0x0, symName: __ZNSt3__16vectorINS_12basic_stringIcNS_11char_traitsIcEENS_9allocatorIcEEEENS4_IS6_EEE18__construct_at_endEm, symObjAddr: 0x2684, symBinAddr: 0x1000062B0, symSize: 0xC8 }
  - { offsetInCU: 0x14616, offset: 0x14616, size: 0x8, addend: 0x0, symName: __ZNSt3__128__exception_guard_exceptionsINS_6vectorINS_12basic_stringIcNS_11char_traitsIcEENS_9allocatorIcEEEENS5_IS7_EEE16__destroy_vectorEE10__completeB7v160006Ev, symObjAddr: 0x274C, symBinAddr: 0x100006378, symSize: 0x1C }
  - { offsetInCU: 0x1463C, offset: 0x1463C, size: 0x8, addend: 0x0, symName: __ZNSt3__128__exception_guard_exceptionsINS_6vectorINS_12basic_stringIcNS_11char_traitsIcEENS_9allocatorIcEEEENS5_IS7_EEE16__destroy_vectorEED1B7v160006Ev, symObjAddr: 0x2768, symBinAddr: 0x100006394, symSize: 0x2C }
  - { offsetInCU: 0x14666, offset: 0x14666, size: 0x8, addend: 0x0, symName: __ZNSt3__117__compressed_pairIPNS_12basic_stringIcNS_11char_traitsIcEENS_9allocatorIcEEEENS4_IS6_EEEC2B7v160006IDnNS_18__default_init_tagEEEOT_OT0_, symObjAddr: 0x2794, symBinAddr: 0x1000063C0, symSize: 0x40 }
  - { offsetInCU: 0x146BE, offset: 0x146BE, size: 0x8, addend: 0x0, symName: __ZNSt3__122__compressed_pair_elemIPNS_12basic_stringIcNS_11char_traitsIcEENS_9allocatorIcEEEELi0ELb0EEC2B7v160006IDnvEEOT_, symObjAddr: 0x27D4, symBinAddr: 0x100006400, symSize: 0x1C }
  - { offsetInCU: 0x14700, offset: 0x14700, size: 0x8, addend: 0x0, symName: __ZNSt3__122__compressed_pair_elemINS_9allocatorINS_12basic_stringIcNS_11char_traitsIcEENS1_IcEEEEEELi1ELb1EEC2B7v160006ENS_18__default_init_tagE, symObjAddr: 0x27F0, symBinAddr: 0x10000641C, symSize: 0x2C }
  - { offsetInCU: 0x14735, offset: 0x14735, size: 0x8, addend: 0x0, symName: __ZNSt3__19allocatorINS_12basic_stringIcNS_11char_traitsIcEENS0_IcEEEEEC2B7v160006Ev, symObjAddr: 0x281C, symBinAddr: 0x100006448, symSize: 0x2C }
  - { offsetInCU: 0x1475F, offset: 0x1475F, size: 0x8, addend: 0x0, symName: __ZNSt3__116__non_trivial_ifILb1ENS_9allocatorINS_12basic_stringIcNS_11char_traitsIcEENS1_IcEEEEEEEC2B7v160006Ev, symObjAddr: 0x2848, symBinAddr: 0x100006474, symSize: 0x14 }
  - { offsetInCU: 0x14789, offset: 0x14789, size: 0x8, addend: 0x0, symName: __ZNSt3__128__exception_guard_exceptionsINS_6vectorINS_12basic_stringIcNS_11char_traitsIcEENS_9allocatorIcEEEENS5_IS7_EEE16__destroy_vectorEEC1B7v160006ESA_, symObjAddr: 0x285C, symBinAddr: 0x100006488, symSize: 0x34 }
  - { offsetInCU: 0x147C1, offset: 0x147C1, size: 0x8, addend: 0x0, symName: __ZNSt3__128__exception_guard_exceptionsINS_6vectorINS_12basic_stringIcNS_11char_traitsIcEENS_9allocatorIcEEEENS5_IS7_EEE16__destroy_vectorEEC2B7v160006ESA_, symObjAddr: 0x2890, symBinAddr: 0x1000064BC, symSize: 0x24 }
  - { offsetInCU: 0x147F9, offset: 0x147F9, size: 0x8, addend: 0x0, symName: __ZNSt3__16vectorINS_12basic_stringIcNS_11char_traitsIcEENS_9allocatorIcEEEENS4_IS6_EEE16__destroy_vectorC2ERS8_, symObjAddr: 0x28B4, symBinAddr: 0x1000064E0, symSize: 0x20 }
  - { offsetInCU: 0x14832, offset: 0x14832, size: 0x8, addend: 0x0, symName: __ZNKSt3__16vectorINS_12basic_stringIcNS_11char_traitsIcEENS_9allocatorIcEEEENS4_IS6_EEE8max_sizeEv, symObjAddr: 0x28D4, symBinAddr: 0x100006500, symSize: 0x60 }
  - { offsetInCU: 0x1485A, offset: 0x1485A, size: 0x8, addend: 0x0, symName: __ZNKSt3__16vectorINS_12basic_stringIcNS_11char_traitsIcEENS_9allocatorIcEEEENS4_IS6_EEE20__throw_length_errorB7v160006Ev, symObjAddr: 0x2934, symBinAddr: 0x100006560, symSize: 0x1C }
  - { offsetInCU: 0x14880, offset: 0x14880, size: 0x8, addend: 0x0, symName: __ZNSt3__16vectorINS_12basic_stringIcNS_11char_traitsIcEENS_9allocatorIcEEEENS4_IS6_EEE7__allocB7v160006Ev, symObjAddr: 0x2990, symBinAddr: 0x1000065BC, symSize: 0x28 }
  - { offsetInCU: 0x148A6, offset: 0x148A6, size: 0x8, addend: 0x0, symName: __ZNSt3__16vectorINS_12basic_stringIcNS_11char_traitsIcEENS_9allocatorIcEEEENS4_IS6_EEE9__end_capB7v160006Ev, symObjAddr: 0x29B8, symBinAddr: 0x1000065E4, symSize: 0x28 }
  - { offsetInCU: 0x148CC, offset: 0x148CC, size: 0x8, addend: 0x0, symName: __ZNKSt3__16vectorINS_12basic_stringIcNS_11char_traitsIcEENS_9allocatorIcEEEENS4_IS6_EEE14__annotate_newB7v160006Em, symObjAddr: 0x29E0, symBinAddr: 0x10000660C, symSize: 0xC8 }
  - { offsetInCU: 0x1490B, offset: 0x1490B, size: 0x8, addend: 0x0, symName: __ZNSt3__116allocator_traitsINS_9allocatorINS_12basic_stringIcNS_11char_traitsIcEENS1_IcEEEEEEE8max_sizeB7v160006IS7_vEEmRKS7_, symObjAddr: 0x2AA8, symBinAddr: 0x1000066D4, symSize: 0x24 }
  - { offsetInCU: 0x14939, offset: 0x14939, size: 0x8, addend: 0x0, symName: __ZNKSt3__16vectorINS_12basic_stringIcNS_11char_traitsIcEENS_9allocatorIcEEEENS4_IS6_EEE7__allocB7v160006Ev, symObjAddr: 0x2ACC, symBinAddr: 0x1000066F8, symSize: 0x28 }
  - { offsetInCU: 0x1495F, offset: 0x1495F, size: 0x8, addend: 0x0, symName: __ZNKSt3__19allocatorINS_12basic_stringIcNS_11char_traitsIcEENS0_IcEEEEE8max_sizeB7v160006Ev, symObjAddr: 0x2AF4, symBinAddr: 0x100006720, symSize: 0x18 }
  - { offsetInCU: 0x14985, offset: 0x14985, size: 0x8, addend: 0x0, symName: __ZNKSt3__117__compressed_pairIPNS_12basic_stringIcNS_11char_traitsIcEENS_9allocatorIcEEEENS4_IS6_EEE6secondB7v160006Ev, symObjAddr: 0x2B0C, symBinAddr: 0x100006738, symSize: 0x24 }
  - { offsetInCU: 0x149AB, offset: 0x149AB, size: 0x8, addend: 0x0, symName: __ZNKSt3__122__compressed_pair_elemINS_9allocatorINS_12basic_stringIcNS_11char_traitsIcEENS1_IcEEEEEELi1ELb1EE5__getB7v160006Ev, symObjAddr: 0x2B30, symBinAddr: 0x10000675C, symSize: 0x14 }
  - { offsetInCU: 0x149D1, offset: 0x149D1, size: 0x8, addend: 0x0, symName: __ZNSt3__19allocatorINS_12basic_stringIcNS_11char_traitsIcEENS0_IcEEEEE8allocateB7v160006Em, symObjAddr: 0x2B44, symBinAddr: 0x100006770, symSize: 0x5C }
  - { offsetInCU: 0x14A05, offset: 0x14A05, size: 0x8, addend: 0x0, symName: __ZNSt3__117__compressed_pairIPNS_12basic_stringIcNS_11char_traitsIcEENS_9allocatorIcEEEENS4_IS6_EEE6secondB7v160006Ev, symObjAddr: 0x2BA0, symBinAddr: 0x1000067CC, symSize: 0x24 }
  - { offsetInCU: 0x14A2B, offset: 0x14A2B, size: 0x8, addend: 0x0, symName: __ZNSt3__122__compressed_pair_elemINS_9allocatorINS_12basic_stringIcNS_11char_traitsIcEENS1_IcEEEEEELi1ELb1EE5__getB7v160006Ev, symObjAddr: 0x2BC4, symBinAddr: 0x1000067F0, symSize: 0x14 }
  - { offsetInCU: 0x14A51, offset: 0x14A51, size: 0x8, addend: 0x0, symName: __ZNSt3__117__compressed_pairIPNS_12basic_stringIcNS_11char_traitsIcEENS_9allocatorIcEEEENS4_IS6_EEE5firstB7v160006Ev, symObjAddr: 0x2BD8, symBinAddr: 0x100006804, symSize: 0x24 }
  - { offsetInCU: 0x14A77, offset: 0x14A77, size: 0x8, addend: 0x0, symName: __ZNSt3__122__compressed_pair_elemIPNS_12basic_stringIcNS_11char_traitsIcEENS_9allocatorIcEEEELi0ELb0EE5__getB7v160006Ev, symObjAddr: 0x2BFC, symBinAddr: 0x100006828, symSize: 0x14 }
  - { offsetInCU: 0x14A9D, offset: 0x14A9D, size: 0x8, addend: 0x0, symName: __ZNKSt3__16vectorINS_12basic_stringIcNS_11char_traitsIcEENS_9allocatorIcEEEENS4_IS6_EEE31__annotate_contiguous_containerB7v160006EPKvSA_SA_SA_, symObjAddr: 0x2C10, symBinAddr: 0x10000683C, symSize: 0x20 }
  - { offsetInCU: 0x14AF3, offset: 0x14AF3, size: 0x8, addend: 0x0, symName: __ZNKSt3__16vectorINS_12basic_stringIcNS_11char_traitsIcEENS_9allocatorIcEEEENS4_IS6_EEE4dataB7v160006Ev, symObjAddr: 0x2C30, symBinAddr: 0x10000685C, symSize: 0x28 }
  - { offsetInCU: 0x14B19, offset: 0x14B19, size: 0x8, addend: 0x0, symName: __ZNKSt3__16vectorINS_12basic_stringIcNS_11char_traitsIcEENS_9allocatorIcEEEENS4_IS6_EEE8capacityB7v160006Ev, symObjAddr: 0x2C58, symBinAddr: 0x100006884, symSize: 0x40 }
  - { offsetInCU: 0x14B3F, offset: 0x14B3F, size: 0x8, addend: 0x0, symName: __ZNKSt3__16vectorINS_12basic_stringIcNS_11char_traitsIcEENS_9allocatorIcEEEENS4_IS6_EEE9__end_capB7v160006Ev, symObjAddr: 0x2CAC, symBinAddr: 0x1000068D8, symSize: 0x28 }
  - { offsetInCU: 0x14B65, offset: 0x14B65, size: 0x8, addend: 0x0, symName: __ZNKSt3__117__compressed_pairIPNS_12basic_stringIcNS_11char_traitsIcEENS_9allocatorIcEEEENS4_IS6_EEE5firstB7v160006Ev, symObjAddr: 0x2CD4, symBinAddr: 0x100006900, symSize: 0x24 }
  - { offsetInCU: 0x14B8B, offset: 0x14B8B, size: 0x8, addend: 0x0, symName: __ZNKSt3__122__compressed_pair_elemIPNS_12basic_stringIcNS_11char_traitsIcEENS_9allocatorIcEEEELi0ELb0EE5__getB7v160006Ev, symObjAddr: 0x2CF8, symBinAddr: 0x100006924, symSize: 0x14 }
  - { offsetInCU: 0x14BCA, offset: 0x14BCA, size: 0x8, addend: 0x0, symName: __ZNSt3__16vectorINS_12basic_stringIcNS_11char_traitsIcEENS_9allocatorIcEEEENS4_IS6_EEE21_ConstructTransactionC1B7v160006ERS8_m, symObjAddr: 0x2D0C, symBinAddr: 0x100006938, symSize: 0x3C }
  - { offsetInCU: 0x14C12, offset: 0x14C12, size: 0x8, addend: 0x0, symName: __ZNSt3__116allocator_traitsINS_9allocatorINS_12basic_stringIcNS_11char_traitsIcEENS1_IcEEEEEEE9constructB7v160006IS6_JEvEEvRS7_PT_DpOT0_, symObjAddr: 0x2D48, symBinAddr: 0x100006974, symSize: 0x2C }
  - { offsetInCU: 0x14C54, offset: 0x14C54, size: 0x8, addend: 0x0, symName: __ZNSt3__16vectorINS_12basic_stringIcNS_11char_traitsIcEENS_9allocatorIcEEEENS4_IS6_EEE21_ConstructTransactionD1B7v160006Ev, symObjAddr: 0x2D74, symBinAddr: 0x1000069A0, symSize: 0x2C }
  - { offsetInCU: 0x14C7E, offset: 0x14C7E, size: 0x8, addend: 0x0, symName: __ZNSt3__16vectorINS_12basic_stringIcNS_11char_traitsIcEENS_9allocatorIcEEEENS4_IS6_EEE21_ConstructTransactionC2B7v160006ERS8_m, symObjAddr: 0x2DA0, symBinAddr: 0x1000069CC, symSize: 0x4C }
  - { offsetInCU: 0x14CC6, offset: 0x14CC6, size: 0x8, addend: 0x0, symName: __ZNSt3__19allocatorINS_12basic_stringIcNS_11char_traitsIcEENS0_IcEEEEE9constructB7v160006IS5_JEEEvPT_DpOT0_, symObjAddr: 0x2DEC, symBinAddr: 0x100006A18, symSize: 0x28 }
  - { offsetInCU: 0x14D08, offset: 0x14D08, size: 0x8, addend: 0x0, symName: __ZNSt3__112basic_stringIcNS_11char_traitsIcEENS_9allocatorIcEEEC1B7v160006Ev, symObjAddr: 0x2E14, symBinAddr: 0x100006A40, symSize: 0x2C }
  - { offsetInCU: 0x14D32, offset: 0x14D32, size: 0x8, addend: 0x0, symName: __ZNSt3__112basic_stringIcNS_11char_traitsIcEENS_9allocatorIcEEEC2B7v160006Ev, symObjAddr: 0x2E40, symBinAddr: 0x100006A6C, symSize: 0x54 }
  - { offsetInCU: 0x14D5C, offset: 0x14D5C, size: 0x8, addend: 0x0, symName: __ZNSt3__117__compressed_pairINS_12basic_stringIcNS_11char_traitsIcEENS_9allocatorIcEEE5__repES5_EC1B7v160006INS_18__default_init_tagESA_EEOT_OT0_, symObjAddr: 0x2E94, symBinAddr: 0x100006AC0, symSize: 0x3C }
  - { offsetInCU: 0x14DB4, offset: 0x14DB4, size: 0x8, addend: 0x0, symName: __ZNSt3__112basic_stringIcNS_11char_traitsIcEENS_9allocatorIcEEE14__default_initB7v160006Ev, symObjAddr: 0x2EE0, symBinAddr: 0x100006B0C, symSize: 0x40 }
  - { offsetInCU: 0x14DDA, offset: 0x14DDA, size: 0x8, addend: 0x0, symName: __ZNSt3__117__compressed_pairINS_12basic_stringIcNS_11char_traitsIcEENS_9allocatorIcEEE5__repES5_EC2B7v160006INS_18__default_init_tagESA_EEOT_OT0_, symObjAddr: 0x2F20, symBinAddr: 0x100006B4C, symSize: 0x3C }
  - { offsetInCU: 0x14E32, offset: 0x14E32, size: 0x8, addend: 0x0, symName: __ZNSt3__122__compressed_pair_elemINS_12basic_stringIcNS_11char_traitsIcEENS_9allocatorIcEEE5__repELi0ELb0EEC2B7v160006ENS_18__default_init_tagE, symObjAddr: 0x2F5C, symBinAddr: 0x100006B88, symSize: 0x14 }
  - { offsetInCU: 0x14E67, offset: 0x14E67, size: 0x8, addend: 0x0, symName: __ZNSt3__122__compressed_pair_elemINS_9allocatorIcEELi1ELb1EEC2B7v160006ENS_18__default_init_tagE, symObjAddr: 0x2F70, symBinAddr: 0x100006B9C, symSize: 0x2C }
  - { offsetInCU: 0x14E9C, offset: 0x14E9C, size: 0x8, addend: 0x0, symName: __ZNSt3__19allocatorIcEC2B7v160006Ev, symObjAddr: 0x2F9C, symBinAddr: 0x100006BC8, symSize: 0x2C }
  - { offsetInCU: 0x14EC6, offset: 0x14EC6, size: 0x8, addend: 0x0, symName: __ZNSt3__116__non_trivial_ifILb1ENS_9allocatorIcEEEC2B7v160006Ev, symObjAddr: 0x2FC8, symBinAddr: 0x100006BF4, symSize: 0x14 }
  - { offsetInCU: 0x14EF0, offset: 0x14EF0, size: 0x8, addend: 0x0, symName: __ZNSt3__117__compressed_pairINS_12basic_stringIcNS_11char_traitsIcEENS_9allocatorIcEEE5__repES5_E5firstB7v160006Ev, symObjAddr: 0x2FDC, symBinAddr: 0x100006C08, symSize: 0x24 }
  - { offsetInCU: 0x14F16, offset: 0x14F16, size: 0x8, addend: 0x0, symName: __ZNSt3__122__compressed_pair_elemINS_12basic_stringIcNS_11char_traitsIcEENS_9allocatorIcEEE5__repELi0ELb0EE5__getB7v160006Ev, symObjAddr: 0x3000, symBinAddr: 0x100006C2C, symSize: 0x14 }
  - { offsetInCU: 0x14F3C, offset: 0x14F3C, size: 0x8, addend: 0x0, symName: __ZNSt3__16vectorINS_12basic_stringIcNS_11char_traitsIcEENS_9allocatorIcEEEENS4_IS6_EEE21_ConstructTransactionD2B7v160006Ev, symObjAddr: 0x3014, symBinAddr: 0x100006C40, symSize: 0x20 }
  - { offsetInCU: 0x14F66, offset: 0x14F66, size: 0x8, addend: 0x0, symName: __ZNSt3__128__exception_guard_exceptionsINS_6vectorINS_12basic_stringIcNS_11char_traitsIcEENS_9allocatorIcEEEENS5_IS7_EEE16__destroy_vectorEED2B7v160006Ev, symObjAddr: 0x3034, symBinAddr: 0x100006C60, symSize: 0x50 }
  - { offsetInCU: 0x14F90, offset: 0x14F90, size: 0x8, addend: 0x0, symName: __ZNSt3__16vectorINS_12basic_stringIcNS_11char_traitsIcEENS_9allocatorIcEEEENS4_IS6_EEE16__destroy_vectorclB7v160006Ev, symObjAddr: 0x3084, symBinAddr: 0x100006CB0, symSize: 0x9C }
  - { offsetInCU: 0x14FB6, offset: 0x14FB6, size: 0x8, addend: 0x0, symName: __ZNKSt3__16vectorINS_12basic_stringIcNS_11char_traitsIcEENS_9allocatorIcEEEENS4_IS6_EEE17__annotate_deleteB7v160006Ev, symObjAddr: 0x3120, symBinAddr: 0x100006D4C, symSize: 0xD4 }
  - { offsetInCU: 0x14FDC, offset: 0x14FDC, size: 0x8, addend: 0x0, symName: __ZNSt3__16vectorINS_12basic_stringIcNS_11char_traitsIcEENS_9allocatorIcEEEENS4_IS6_EEE7__clearB7v160006Ev, symObjAddr: 0x3204, symBinAddr: 0x100006E30, symSize: 0x28 }
  - { offsetInCU: 0x15002, offset: 0x15002, size: 0x8, addend: 0x0, symName: __ZNSt3__116allocator_traitsINS_9allocatorINS_12basic_stringIcNS_11char_traitsIcEENS1_IcEEEEEEE10deallocateB7v160006ERS7_PS6_m, symObjAddr: 0x322C, symBinAddr: 0x100006E58, symSize: 0x34 }
  - { offsetInCU: 0x15044, offset: 0x15044, size: 0x8, addend: 0x0, symName: __ZNKSt3__16vectorINS_12basic_stringIcNS_11char_traitsIcEENS_9allocatorIcEEEENS4_IS6_EEE4sizeB7v160006Ev, symObjAddr: 0x3260, symBinAddr: 0x100006E8C, symSize: 0x28 }
  - { offsetInCU: 0x1506A, offset: 0x1506A, size: 0x8, addend: 0x0, symName: __ZNSt3__16vectorINS_12basic_stringIcNS_11char_traitsIcEENS_9allocatorIcEEEENS4_IS6_EEE22__base_destruct_at_endB7v160006EPS6_, symObjAddr: 0x3288, symBinAddr: 0x100006EB4, symSize: 0x8C }
  - { offsetInCU: 0x150AE, offset: 0x150AE, size: 0x8, addend: 0x0, symName: __ZNSt3__116allocator_traitsINS_9allocatorINS_12basic_stringIcNS_11char_traitsIcEENS1_IcEEEEEEE7destroyB7v160006IS6_vEEvRS7_PT_, symObjAddr: 0x3314, symBinAddr: 0x100006F40, symSize: 0x2C }
  - { offsetInCU: 0x150EB, offset: 0x150EB, size: 0x8, addend: 0x0, symName: __ZNSt3__19allocatorINS_12basic_stringIcNS_11char_traitsIcEENS0_IcEEEEE7destroyB7v160006EPS5_, symObjAddr: 0x3340, symBinAddr: 0x100006F6C, symSize: 0x28 }
  - { offsetInCU: 0x1511F, offset: 0x1511F, size: 0x8, addend: 0x0, symName: __ZNSt3__19allocatorINS_12basic_stringIcNS_11char_traitsIcEENS0_IcEEEEE10deallocateB7v160006EPS5_m, symObjAddr: 0x3368, symBinAddr: 0x100006F94, symSize: 0x44 }
  - { offsetInCU: 0x15161, offset: 0x15161, size: 0x8, addend: 0x0, symName: __ZNSt3__16vectorINS_12basic_stringIcNS_11char_traitsIcEENS_9allocatorIcEEEENS4_IS6_EEED2B7v160006Ev, symObjAddr: 0x33AC, symBinAddr: 0x100006FD8, symSize: 0x44 }
  - { offsetInCU: 0x151A9, offset: 0x151A9, size: 0x8, addend: 0x0, symName: __ZNKSt3__113basic_istreamIcNS_11char_traitsIcEEE6sentrycvbB7v160006Ev, symObjAddr: 0x33F0, symBinAddr: 0x10000701C, symSize: 0x1C }
  - { offsetInCU: 0x151CF, offset: 0x151CF, size: 0x8, addend: 0x0, symName: __ZNSt3__112basic_stringIcNS_11char_traitsIcEENS_9allocatorIcEEE5clearB7v160006Ev, symObjAddr: 0x340C, symBinAddr: 0x100007038, symSize: 0x88 }
  - { offsetInCU: 0x151F7, offset: 0x151F7, size: 0x8, addend: 0x0, symName: __ZNKSt3__18ios_base5widthB7v160006Ev, symObjAddr: 0x3494, symBinAddr: 0x1000070C0, symSize: 0x18 }
  - { offsetInCU: 0x1521F, offset: 0x1521F, size: 0x8, addend: 0x0, symName: __ZNKSt3__112basic_stringIcNS_11char_traitsIcEENS_9allocatorIcEEE8max_sizeB7v160006Ev, symObjAddr: 0x34AC, symBinAddr: 0x1000070D8, symSize: 0xAC }
  - { offsetInCU: 0x15271, offset: 0x15271, size: 0x8, addend: 0x0, symName: __ZNKSt3__19basic_iosIcNS_11char_traitsIcEEE5rdbufB7v160006Ev, symObjAddr: 0x3584, symBinAddr: 0x1000071B0, symSize: 0x24 }
  - { offsetInCU: 0x15299, offset: 0x15299, size: 0x8, addend: 0x0, symName: __ZNSt3__115basic_streambufIcNS_11char_traitsIcEEE5sgetcB7v160006Ev, symObjAddr: 0x35A8, symBinAddr: 0x1000071D4, symSize: 0x70 }
  - { offsetInCU: 0x152BF, offset: 0x152BF, size: 0x8, addend: 0x0, symName: __ZNSt3__111char_traitsIcE11eq_int_typeEii, symObjAddr: 0x3618, symBinAddr: 0x100007244, symSize: 0x28 }
  - { offsetInCU: 0x152F0, offset: 0x152F0, size: 0x8, addend: 0x0, symName: __ZNSt3__111char_traitsIcE12to_char_typeEi, symObjAddr: 0x3640, symBinAddr: 0x10000726C, symSize: 0x18 }
  - { offsetInCU: 0x15340, offset: 0x15340, size: 0x8, addend: 0x0, symName: __ZNKSt3__15ctypeIcE2isB7v160006Ejc, symObjAddr: 0x3658, symBinAddr: 0x100007284, symSize: 0x7C }
  - { offsetInCU: 0x15384, offset: 0x15384, size: 0x8, addend: 0x0, symName: __ZNSt3__115basic_streambufIcNS_11char_traitsIcEEE6sbumpcB7v160006Ev, symObjAddr: 0x36D4, symBinAddr: 0x100007300, symSize: 0x78 }
  - { offsetInCU: 0x153AA, offset: 0x153AA, size: 0x8, addend: 0x0, symName: __ZNSt3__18ios_base5widthB7v160006El, symObjAddr: 0x374C, symBinAddr: 0x100007378, symSize: 0x2C }
  - { offsetInCU: 0x153F0, offset: 0x153F0, size: 0x8, addend: 0x0, symName: __ZNSt3__18ios_base18__setstate_nothrowB7v160006Ej, symObjAddr: 0x3778, symBinAddr: 0x1000073A4, symSize: 0x64 }
  - { offsetInCU: 0x15425, offset: 0x15425, size: 0x8, addend: 0x0, symName: __ZNKSt3__19basic_iosIcNS_11char_traitsIcEEE10exceptionsB7v160006Ev, symObjAddr: 0x37DC, symBinAddr: 0x100007408, symSize: 0x24 }
  - { offsetInCU: 0x1544B, offset: 0x1544B, size: 0x8, addend: 0x0, symName: __ZNKSt3__112basic_stringIcNS_11char_traitsIcEENS_9allocatorIcEEE9__is_long longB7v160006Ev, symObjAddr: 0x3810, symBinAddr: 0x10000743C, symSize: 0x38 }
  - { offsetInCU: 0x15471, offset: 0x15471, size: 0x8, addend: 0x0, symName: __ZNSt3__111char_traitsIcE6assignERcRKc, symObjAddr: 0x3848, symBinAddr: 0x100007474, symSize: 0x24 }
  - { offsetInCU: 0x154A2, offset: 0x154A2, size: 0x8, addend: 0x0, symName: __ZNSt3__112basic_stringIcNS_11char_traitsIcEENS_9allocatorIcEEE18__get_long long_pointerB7v160006Ev, symObjAddr: 0x386C, symBinAddr: 0x100007498, symSize: 0x28 }
  - { offsetInCU: 0x154C8, offset: 0x154C8, size: 0x8, addend: 0x0, symName: __ZNSt3__112basic_stringIcNS_11char_traitsIcEENS_9allocatorIcEEE15__set_long long_sizeB7v160006Em, symObjAddr: 0x3894, symBinAddr: 0x1000074C0, symSize: 0x38 }
  - { offsetInCU: 0x154FD, offset: 0x154FD, size: 0x8, addend: 0x0, symName: __ZNSt3__112basic_stringIcNS_11char_traitsIcEENS_9allocatorIcEEE19__get_short_pointerB7v160006Ev, symObjAddr: 0x38CC, symBinAddr: 0x1000074F8, symSize: 0x28 }
  - { offsetInCU: 0x15523, offset: 0x15523, size: 0x8, addend: 0x0, symName: __ZNSt3__112basic_stringIcNS_11char_traitsIcEENS_9allocatorIcEEE16__set_short_sizeB7v160006Em, symObjAddr: 0x38F4, symBinAddr: 0x100007520, symSize: 0x78 }
  - { offsetInCU: 0x15558, offset: 0x15558, size: 0x8, addend: 0x0, symName: __ZNKSt3__117__compressed_pairINS_12basic_stringIcNS_11char_traitsIcEENS_9allocatorIcEEE5__repES5_E5firstB7v160006Ev, symObjAddr: 0x396C, symBinAddr: 0x100007598, symSize: 0x24 }
  - { offsetInCU: 0x1557E, offset: 0x1557E, size: 0x8, addend: 0x0, symName: __ZNKSt3__122__compressed_pair_elemINS_12basic_stringIcNS_11char_traitsIcEENS_9allocatorIcEEE5__repELi0ELb0EE5__getB7v160006Ev, symObjAddr: 0x3990, symBinAddr: 0x1000075BC, symSize: 0x14 }
  - { offsetInCU: 0x155A4, offset: 0x155A4, size: 0x8, addend: 0x0, symName: __ZNSt3__114pointer_traitsIPcE10pointer_toB7v160006ERc, symObjAddr: 0x39A4, symBinAddr: 0x1000075D0, symSize: 0x14 }
  - { offsetInCU: 0x155D1, offset: 0x155D1, size: 0x8, addend: 0x0, symName: __ZNSt3__116allocator_traitsINS_9allocatorIcEEE8max_sizeB7v160006IS2_vEEmRKS2_, symObjAddr: 0x39B8, symBinAddr: 0x1000075E4, symSize: 0x24 }
  - { offsetInCU: 0x155FF, offset: 0x155FF, size: 0x8, addend: 0x0, symName: __ZNKSt3__112basic_stringIcNS_11char_traitsIcEENS_9allocatorIcEEE7__allocB7v160006Ev, symObjAddr: 0x39DC, symBinAddr: 0x100007608, symSize: 0x24 }
  - { offsetInCU: 0x15625, offset: 0x15625, size: 0x8, addend: 0x0, symName: __ZNSt3__114numeric_limitsImE3maxB7v160006Ev, symObjAddr: 0x3A00, symBinAddr: 0x10000762C, symSize: 0x14 }
  - { offsetInCU: 0x15639, offset: 0x15639, size: 0x8, addend: 0x0, symName: __ZNKSt3__19allocatorIcE8max_sizeB7v160006Ev, symObjAddr: 0x3A14, symBinAddr: 0x100007640, symSize: 0x14 }
  - { offsetInCU: 0x1565F, offset: 0x1565F, size: 0x8, addend: 0x0, symName: __ZNKSt3__117__compressed_pairINS_12basic_stringIcNS_11char_traitsIcEENS_9allocatorIcEEE5__repES5_E6secondB7v160006Ev, symObjAddr: 0x3A28, symBinAddr: 0x100007654, symSize: 0x24 }
  - { offsetInCU: 0x15685, offset: 0x15685, size: 0x8, addend: 0x0, symName: __ZNKSt3__122__compressed_pair_elemINS_9allocatorIcEELi1ELb1EE5__getB7v160006Ev, symObjAddr: 0x3A4C, symBinAddr: 0x100007678, symSize: 0x14 }
  - { offsetInCU: 0x156AB, offset: 0x156AB, size: 0x8, addend: 0x0, symName: __ZNSt3__123__libcpp_numeric_limitsImLb1EE3maxB7v160006Ev, symObjAddr: 0x3A60, symBinAddr: 0x10000768C, symSize: 0x8 }
  - { offsetInCU: 0x156BF, offset: 0x156BF, size: 0x8, addend: 0x0, symName: __ZNKSt3__18ios_base5rdbufB7v160006Ev, symObjAddr: 0x3A68, symBinAddr: 0x100007694, symSize: 0x18 }
  - { offsetInCU: 0x156E5, offset: 0x156E5, size: 0x8, addend: 0x0, symName: __ZNSt3__111char_traitsIcE11to_int_typeEc, symObjAddr: 0x3A80, symBinAddr: 0x1000076AC, symSize: 0x14 }
  - { offsetInCU: 0x15707, offset: 0x15707, size: 0x8, addend: 0x0, symName: __Z7isasciii, symObjAddr: 0x3A94, symBinAddr: 0x1000076C0, symSize: 0x24 }
  - { offsetInCU: 0x15734, offset: 0x15734, size: 0x8, addend: 0x0, symName: __ZNKSt3__18ios_base10exceptionsB7v160006Ev, symObjAddr: 0x3AB8, symBinAddr: 0x1000076E4, symSize: 0x18 }
  - { offsetInCU: 0x1575C, offset: 0x1575C, size: 0x8, addend: 0x0, symName: __ZNSt3__111char_traitsIcE6lengthEPKc, symObjAddr: 0x3AD0, symBinAddr: 0x1000076FC, symSize: 0x34 }
  - { offsetInCU: 0x1577F, offset: 0x1577F, size: 0x8, addend: 0x0, symName: __ZNKSt3__112basic_stringIcNS_11char_traitsIcEENS_9allocatorIcEEE4sizeB7v160006Ev, symObjAddr: 0x3B04, symBinAddr: 0x100007730, symSize: 0x54 }
  - { offsetInCU: 0x157A5, offset: 0x157A5, size: 0x8, addend: 0x0, symName: __ZNKSt3__112basic_stringIcNS_11char_traitsIcEENS_9allocatorIcEEE15__get_long long_sizeB7v160006Ev, symObjAddr: 0x3B7C, symBinAddr: 0x1000077A8, symSize: 0x28 }
  - { offsetInCU: 0x157CB, offset: 0x157CB, size: 0x8, addend: 0x0, symName: __ZNKSt3__112basic_stringIcNS_11char_traitsIcEENS_9allocatorIcEEE16__get_short_sizeB7v160006Ev, symObjAddr: 0x3BA4, symBinAddr: 0x1000077D0, symSize: 0x34 }
...
