---
triple:          'arm64-apple-darwin'
binary-path:     '/Users/dingkai/Code/IOI2024/USACO/Bronze/202401/Problem_2_Cannonball.gout'
relocations:
  - { offsetInCU: 0xC8, offset: 0xC8, size: 0x8, addend: 0x0, symName: __ZnwmPv, symObjAddr: 0x0, symBinAddr: 0x100003150, symSize: 0x18 }
  - { offsetInCU: 0xD0, offset: 0xD0, size: 0x8, addend: 0x0, symName: __ZL3PAD, symObjAddr: 0x26D8, symBinAddr: 0x100005FD0, symSize: 0x0 }
  - { offsetInCU: 0x334C, offset: 0x334C, size: 0x8, addend: 0x0, symName: __ZStL8__ioinit, symObjAddr: 0x36D50, symBinAddr: 0x10000C058, symSize: 0x0 }
  - { offsetInCU: 0x5423, offset: 0x5423, size: 0x8, addend: 0x0, symName: _location, symObjAddr: 0x36D58, symBinAddr: 0x10000C060, symSize: 0x0 }
  - { offsetInCU: 0x7CAE, offset: 0x7CAE, size: 0x8, addend: 0x0, symName: _setPADofPowerZero, symObjAddr: 0x36D70, symBinAddr: 0x10000C078, symSize: 0x0 }
  - { offsetInCU: 0x7CBA, offset: 0x7CBA, size: 0x8, addend: 0x0, symName: __ZL3PAD, symObjAddr: 0x26D8, symBinAddr: 0x100005FD0, symSize: 0x0 }
  - { offsetInCU: 0x7CD7, offset: 0x7CD7, size: 0x8, addend: 0x0, symName: __ZL6TARGET, symObjAddr: 0x26E0, symBinAddr: 0x100005FD8, symSize: 0x0 }
  - { offsetInCU: 0x7CEF, offset: 0x7CEF, size: 0x8, addend: 0x0, symName: __ZL4LEFT, symObjAddr: 0x26E8, symBinAddr: 0x100005FE0, symSize: 0x0 }
  - { offsetInCU: 0x7D0A, offset: 0x7D0A, size: 0x8, addend: 0x0, symName: __ZL5RIGHT, symObjAddr: 0x26F0, symBinAddr: 0x100005FE8, symSize: 0x0 }
  - { offsetInCU: 0xA543, offset: 0xA543, size: 0x8, addend: 0x0, symName: __ZNSt8__detail30__integer_to_chars_is_unsignedIjEE, symObjAddr: 0x26F8, symBinAddr: 0x100005FF0, symSize: 0x0 }
  - { offsetInCU: 0xA55D, offset: 0xA55D, size: 0x8, addend: 0x0, symName: __ZNSt8__detail30__integer_to_chars_is_unsignedImEE, symObjAddr: 0x26F9, symBinAddr: 0x100005FF1, symSize: 0x0 }
  - { offsetInCU: 0xA577, offset: 0xA577, size: 0x8, addend: 0x0, symName: __ZNSt8__detail30__integer_to_chars_is_unsignedIyEE, symObjAddr: 0x26FA, symBinAddr: 0x100005FF2, symSize: 0x0 }
  - { offsetInCU: 0xA5C4, offset: 0xA5C4, size: 0x8, addend: 0x0, symName: __GLOBAL__sub_I_Problem_2_Cannonball.cpp, symObjAddr: 0x26C4, symBinAddr: 0x100005814, symSize: 0x14 }
  - { offsetInCU: 0xA5CC, offset: 0xA5CC, size: 0x8, addend: 0x0, symName: __ZL3PAD, symObjAddr: 0x26D8, symBinAddr: 0x100005FD0, symSize: 0x0 }
  - { offsetInCU: 0xA605, offset: 0xA605, size: 0x8, addend: 0x0, symName: __ZNSt6vectorISt4pairIxxESaIS1_EED1Ev, symObjAddr: 0x2668, symBinAddr: 0x1000057B8, symSize: 0x5C }
  - { offsetInCU: 0xA60D, offset: 0xA60D, size: 0x8, addend: 0x0, symName: __GLOBAL__sub_I_Problem_2_Cannonball.cpp, symObjAddr: 0x26C4, symBinAddr: 0x100005814, symSize: 0x14 }
  - { offsetInCU: 0xA673, offset: 0xA673, size: 0x8, addend: 0x0, symName: __Z41__static_initialization_and_destruction_0v, symObjAddr: 0x25DC, symBinAddr: 0x10000572C, symSize: 0x8C }
  - { offsetInCU: 0xA67B, offset: 0xA67B, size: 0x8, addend: 0x0, symName: __ZNSt6vectorISt4pairIxxESaIS1_EED1Ev, symObjAddr: 0x2668, symBinAddr: 0x1000057B8, symSize: 0x5C }
  - { offsetInCU: 0xA6BF, offset: 0xA6BF, size: 0x8, addend: 0x0, symName: __ZNSt3setISt5tupleIJxxxEESt4lessIS1_ESaIS1_EED1Ev, symObjAddr: 0x25BC, symBinAddr: 0x10000570C, symSize: 0x20 }
  - { offsetInCU: 0xA6C7, offset: 0xA6C7, size: 0x8, addend: 0x0, symName: __Z41__static_initialization_and_destruction_0v, symObjAddr: 0x25DC, symBinAddr: 0x10000572C, symSize: 0x8C }
  - { offsetInCU: 0xA6BB, offset: 0xA6BB, size: 0x8, addend: 0x0, symName: __ZNSt10_Head_baseILm2ExLb0EE7_M_headERKS0_, symObjAddr: 0x25A8, symBinAddr: 0x1000056F8, symSize: 0x14 }
  - { offsetInCU: 0xA6C3, offset: 0xA6C3, size: 0x8, addend: 0x0, symName: __ZNSt3setISt5tupleIJxxxEESt4lessIS1_ESaIS1_EED1Ev, symObjAddr: 0x25BC, symBinAddr: 0x10000570C, symSize: 0x20 }
  - { offsetInCU: 0xA6EC, offset: 0xA6EC, size: 0x8, addend: 0x0, symName: __ZNSt11_Tuple_implILm2EJxEE7_M_headERKS0_, symObjAddr: 0x258C, symBinAddr: 0x1000056DC, symSize: 0x1C }
  - { offsetInCU: 0xA6F4, offset: 0xA6F4, size: 0x8, addend: 0x0, symName: __ZNSt10_Head_baseILm2ExLb0EE7_M_headERKS0_, symObjAddr: 0x25A8, symBinAddr: 0x1000056F8, symSize: 0x14 }
  - { offsetInCU: 0xA71E, offset: 0xA71E, size: 0x8, addend: 0x0, symName: __ZNSt10_Head_baseILm1ExLb0EE7_M_headERKS0_, symObjAddr: 0x2578, symBinAddr: 0x1000056C8, symSize: 0x14 }
  - { offsetInCU: 0xA726, offset: 0xA726, size: 0x8, addend: 0x0, symName: __ZNSt11_Tuple_implILm2EJxEE7_M_headERKS0_, symObjAddr: 0x258C, symBinAddr: 0x1000056DC, symSize: 0x1C }
  - { offsetInCU: 0xA79C, offset: 0xA79C, size: 0x8, addend: 0x0, symName: __ZNSt11_Tuple_implILm2EJxEEC2EOS0_, symObjAddr: 0x2550, symBinAddr: 0x1000056A0, symSize: 0x28 }
  - { offsetInCU: 0xA7A4, offset: 0xA7A4, size: 0x8, addend: 0x0, symName: __ZNSt10_Head_baseILm1ExLb0EE7_M_headERKS0_, symObjAddr: 0x2578, symBinAddr: 0x1000056C8, symSize: 0x14 }
  - { offsetInCU: 0xA832, offset: 0xA832, size: 0x8, addend: 0x0, symName: __ZSt12__get_helperILm2ExJEERKT0_RKSt11_Tuple_implIXT_EJS0_DpT1_EE, symObjAddr: 0x2534, symBinAddr: 0x100005684, symSize: 0x1C }
  - { offsetInCU: 0xA83A, offset: 0xA83A, size: 0x8, addend: 0x0, symName: __ZNSt11_Tuple_implILm2EJxEEC2EOS0_, symObjAddr: 0x2550, symBinAddr: 0x1000056A0, symSize: 0x28 }
  - { offsetInCU: 0xA82B, offset: 0xA82B, size: 0x8, addend: 0x0, symName: __ZNSt11_Tuple_implILm1EJxxEE7_M_headERKS0_, symObjAddr: 0x2514, symBinAddr: 0x100005664, symSize: 0x20 }
  - { offsetInCU: 0xA833, offset: 0xA833, size: 0x8, addend: 0x0, symName: __ZSt12__get_helperILm2ExJEERKT0_RKSt11_Tuple_implIXT_EJS0_DpT1_EE, symObjAddr: 0x2534, symBinAddr: 0x100005684, symSize: 0x1C }
  - { offsetInCU: 0xA85D, offset: 0xA85D, size: 0x8, addend: 0x0, symName: __ZNSt10_Head_baseILm0ExLb0EE7_M_headERKS0_, symObjAddr: 0x2500, symBinAddr: 0x100005650, symSize: 0x14 }
  - { offsetInCU: 0xA865, offset: 0xA865, size: 0x8, addend: 0x0, symName: __ZNSt11_Tuple_implILm1EJxxEE7_M_headERKS0_, symObjAddr: 0x2514, symBinAddr: 0x100005664, symSize: 0x20 }
  - { offsetInCU: 0xA91D, offset: 0xA91D, size: 0x8, addend: 0x0, symName: __ZNSt5tupleIJxxxEEC1EOS0_, symObjAddr: 0x24D8, symBinAddr: 0x100005628, symSize: 0x28 }
  - { offsetInCU: 0xA925, offset: 0xA925, size: 0x8, addend: 0x0, symName: __ZNSt10_Head_baseILm0ExLb0EE7_M_headERKS0_, symObjAddr: 0x2500, symBinAddr: 0x100005650, symSize: 0x14 }
  - { offsetInCU: 0xA984, offset: 0xA984, size: 0x8, addend: 0x0, symName: __ZNSt11_Tuple_implILm0EJxxxEEC2EOS0_, symObjAddr: 0x24A0, symBinAddr: 0x1000055F0, symSize: 0x38 }
  - { offsetInCU: 0xA98C, offset: 0xA98C, size: 0x8, addend: 0x0, symName: __ZNSt5tupleIJxxxEEC1EOS0_, symObjAddr: 0x24D8, symBinAddr: 0x100005628, symSize: 0x28 }
  - { offsetInCU: 0xA9DF, offset: 0xA9DF, size: 0x8, addend: 0x0, symName: __ZNSt11_Tuple_implILm1EJxxEEC2EOS0_, symObjAddr: 0x2468, symBinAddr: 0x1000055B8, symSize: 0x38 }
  - { offsetInCU: 0xA9E7, offset: 0xA9E7, size: 0x8, addend: 0x0, symName: __ZNSt11_Tuple_implILm0EJxxxEEC2EOS0_, symObjAddr: 0x24A0, symBinAddr: 0x1000055F0, symSize: 0x38 }
  - { offsetInCU: 0xA9F5, offset: 0xA9F5, size: 0x8, addend: 0x0, symName: __ZNSt15__new_allocatorISt13_Rb_tree_nodeISt5tupleIJxxxEEEE8allocateEmPKv, symObjAddr: 0x23C8, symBinAddr: 0x100005518, symSize: 0xA0 }
  - { offsetInCU: 0xA9FD, offset: 0xA9FD, size: 0x8, addend: 0x0, symName: __ZNSt11_Tuple_implILm1EJxxEEC2EOS0_, symObjAddr: 0x2468, symBinAddr: 0x1000055B8, symSize: 0x38 }
  - { offsetInCU: 0xAA7B, offset: 0xAA7B, size: 0x8, addend: 0x0, symName: __ZNSt15__tuple_compareISt5tupleIJxxxEES1_Lm3ELm3EE6__lessERKS1_S4_, symObjAddr: 0x23B0, symBinAddr: 0x100005500, symSize: 0x18 }
  - { offsetInCU: 0xAA83, offset: 0xAA83, size: 0x8, addend: 0x0, symName: __ZNSt15__new_allocatorISt13_Rb_tree_nodeISt5tupleIJxxxEEEE8allocateEmPKv, symObjAddr: 0x23C8, symBinAddr: 0x100005518, symSize: 0xA0 }
  - { offsetInCU: 0xAB4D, offset: 0xAB4D, size: 0x8, addend: 0x0, symName: __ZSt3getILm2EJxxxEERKNSt13tuple_elementIXT_ESt5tupleIJDpT0_EEE4typeERKS4_, symObjAddr: 0x2394, symBinAddr: 0x1000054E4, symSize: 0x1C }
  - { offsetInCU: 0xAB55, offset: 0xAB55, size: 0x8, addend: 0x0, symName: __ZNSt15__tuple_compareISt5tupleIJxxxEES1_Lm3ELm3EE6__lessERKS1_S4_, symObjAddr: 0x23B0, symBinAddr: 0x100005500, symSize: 0x18 }
  - { offsetInCU: 0xABB8, offset: 0xABB8, size: 0x8, addend: 0x0, symName: __ZSt12__get_helperILm1ExJxEERKT0_RKSt11_Tuple_implIXT_EJS0_DpT1_EE, symObjAddr: 0x2378, symBinAddr: 0x1000054C8, symSize: 0x1C }
  - { offsetInCU: 0xABC0, offset: 0xABC0, size: 0x8, addend: 0x0, symName: __ZSt3getILm2EJxxxEERKNSt13tuple_elementIXT_ESt5tupleIJDpT0_EEE4typeERKS4_, symObjAddr: 0x2394, symBinAddr: 0x1000054E4, symSize: 0x1C }
  - { offsetInCU: 0xABAB, offset: 0xABAB, size: 0x8, addend: 0x0, symName: __ZNSt11_Tuple_implILm0EJxxxEE7_M_headERKS0_, symObjAddr: 0x2358, symBinAddr: 0x1000054A8, symSize: 0x20 }
  - { offsetInCU: 0xABB3, offset: 0xABB3, size: 0x8, addend: 0x0, symName: __ZSt12__get_helperILm1ExJxEERKT0_RKSt11_Tuple_implIXT_EJS0_DpT1_EE, symObjAddr: 0x2378, symBinAddr: 0x1000054C8, symSize: 0x1C }
  - { offsetInCU: 0xACDA, offset: 0xACDA, size: 0x8, addend: 0x0, symName: __ZSt7forwardISt4pairIxxEEOT_RNSt16remove_referenceIS2_E4typeE, symObjAddr: 0x2344, symBinAddr: 0x100005494, symSize: 0x14 }
  - { offsetInCU: 0xACE2, offset: 0xACE2, size: 0x8, addend: 0x0, symName: __ZNSt11_Tuple_implILm0EJxxxEE7_M_headERKS0_, symObjAddr: 0x2358, symBinAddr: 0x1000054A8, symSize: 0x20 }
  - { offsetInCU: 0xAD3F, offset: 0xAD3F, size: 0x8, addend: 0x0, symName: __ZNSt15__tuple_compareISt5tupleIJxxxEES1_Lm2ELm3EE6__lessERKS1_S4_, symObjAddr: 0x22BC, symBinAddr: 0x10000540C, symSize: 0x88 }
  - { offsetInCU: 0xAD47, offset: 0xAD47, size: 0x8, addend: 0x0, symName: __ZSt7forwardISt4pairIxxEEOT_RNSt16remove_referenceIS2_E4typeE, symObjAddr: 0x2344, symBinAddr: 0x100005494, symSize: 0x14 }
  - { offsetInCU: 0xAE21, offset: 0xAE21, size: 0x8, addend: 0x0, symName: __ZSt3getILm1EJxxxEERKNSt13tuple_elementIXT_ESt5tupleIJDpT0_EEE4typeERKS4_, symObjAddr: 0x22A0, symBinAddr: 0x1000053F0, symSize: 0x1C }
  - { offsetInCU: 0xAE29, offset: 0xAE29, size: 0x8, addend: 0x0, symName: __ZNSt15__tuple_compareISt5tupleIJxxxEES1_Lm2ELm3EE6__lessERKS1_S4_, symObjAddr: 0x22BC, symBinAddr: 0x10000540C, symSize: 0x88 }
  - { offsetInCU: 0xAE9C, offset: 0xAE9C, size: 0x8, addend: 0x0, symName: __ZSt12__get_helperILm0ExJxxEERKT0_RKSt11_Tuple_implIXT_EJS0_DpT1_EE, symObjAddr: 0x2284, symBinAddr: 0x1000053D4, symSize: 0x1C }
  - { offsetInCU: 0xAEA4, offset: 0xAEA4, size: 0x8, addend: 0x0, symName: __ZSt3getILm1EJxxxEERKNSt13tuple_elementIXT_ESt5tupleIJDpT0_EEE4typeERKS4_, symObjAddr: 0x22A0, symBinAddr: 0x1000053F0, symSize: 0x1C }
  - { offsetInCU: 0xAE8D, offset: 0xAE8D, size: 0x8, addend: 0x0, symName: __ZNK9__gnu_cxx16__aligned_membufISt5tupleIJxxxEEE7_M_addrEv, symObjAddr: 0x2270, symBinAddr: 0x1000053C0, symSize: 0x14 }
  - { offsetInCU: 0xAE95, offset: 0xAE95, size: 0x8, addend: 0x0, symName: __ZSt12__get_helperILm0ExJxxEERKT0_RKSt11_Tuple_implIXT_EJS0_DpT1_EE, symObjAddr: 0x2284, symBinAddr: 0x1000053D4, symSize: 0x1C }
  - { offsetInCU: 0xAFC0, offset: 0xAFC0, size: 0x8, addend: 0x0, symName: __ZSt4moveIRSt4pairIxxEEONSt16remove_referenceIT_E4typeEOS4_, symObjAddr: 0x225C, symBinAddr: 0x1000053AC, symSize: 0x14 }
  - { offsetInCU: 0xAFC8, offset: 0xAFC8, size: 0x8, addend: 0x0, symName: __ZNK9__gnu_cxx16__aligned_membufISt5tupleIJxxxEEE7_M_addrEv, symObjAddr: 0x2270, symBinAddr: 0x1000053C0, symSize: 0x14 }
  - { offsetInCU: 0xAFF5, offset: 0xAFF5, size: 0x8, addend: 0x0, symName: __ZNSt4pairIxxEC1IxxLb1EEEv, symObjAddr: 0x2238, symBinAddr: 0x100005388, symSize: 0x24 }
  - { offsetInCU: 0xAFFD, offset: 0xAFFD, size: 0x8, addend: 0x0, symName: __ZSt4moveIRSt4pairIxxEEONSt16remove_referenceIT_E4typeEOS4_, symObjAddr: 0x225C, symBinAddr: 0x1000053AC, symSize: 0x14 }
  - { offsetInCU: 0xB029, offset: 0xB029, size: 0x8, addend: 0x0, symName: __ZN9__gnu_cxx16__aligned_membufISt5tupleIJxxxEEE7_M_addrEv, symObjAddr: 0x2224, symBinAddr: 0x100005374, symSize: 0x14 }
  - { offsetInCU: 0xB031, offset: 0xB031, size: 0x8, addend: 0x0, symName: __ZNSt4pairIxxEC1IxxLb1EEEv, symObjAddr: 0x2238, symBinAddr: 0x100005388, symSize: 0x24 }
  - { offsetInCU: 0xB05B, offset: 0xB05B, size: 0x8, addend: 0x0, symName: __ZNSt8_Rb_treeISt5tupleIJxxxEES1_St9_IdentityIS1_ESt4lessIS1_ESaIS1_EE17_M_construct_nodeIJS1_EEEvPSt13_Rb_tree_nodeIS1_EDpOT_, symObjAddr: 0x2170, symBinAddr: 0x1000052C0, symSize: 0xB4 }
  - { offsetInCU: 0xB063, offset: 0xB063, size: 0x8, addend: 0x0, symName: __ZN9__gnu_cxx16__aligned_membufISt5tupleIJxxxEEE7_M_addrEv, symObjAddr: 0x2224, symBinAddr: 0x100005374, symSize: 0x14 }
  - { offsetInCU: 0xB13C, offset: 0xB13C, size: 0x8, addend: 0x0, symName: __ZNSt8_Rb_treeISt5tupleIJxxxEES1_St9_IdentityIS1_ESt4lessIS1_ESaIS1_EE11_M_get_nodeEv, symObjAddr: 0x2134, symBinAddr: 0x100005284, symSize: 0x3C }
  - { offsetInCU: 0xB144, offset: 0xB144, size: 0x8, addend: 0x0, symName: __ZNSt8_Rb_treeISt5tupleIJxxxEES1_St9_IdentityIS1_ESt4lessIS1_ESaIS1_EE17_M_construct_nodeIJS1_EEEvPSt13_Rb_tree_nodeIS1_EDpOT_, symObjAddr: 0x2170, symBinAddr: 0x1000052C0, symSize: 0xB4 }
  - { offsetInCU: 0xB19D, offset: 0xB19D, size: 0x8, addend: 0x0, symName: __ZNSt15__tuple_compareISt5tupleIJxxxEES1_Lm1ELm3EE6__lessERKS1_S4_, symObjAddr: 0x20AC, symBinAddr: 0x1000051FC, symSize: 0x88 }
  - { offsetInCU: 0xB1A5, offset: 0xB1A5, size: 0x8, addend: 0x0, symName: __ZNSt8_Rb_treeISt5tupleIJxxxEES1_St9_IdentityIS1_ESt4lessIS1_ESaIS1_EE11_M_get_nodeEv, symObjAddr: 0x2134, symBinAddr: 0x100005284, symSize: 0x3C }
  - { offsetInCU: 0xB27F, offset: 0xB27F, size: 0x8, addend: 0x0, symName: __ZSt3getILm0EJxxxEERKNSt13tuple_elementIXT_ESt5tupleIJDpT0_EEE4typeERKS4_, symObjAddr: 0x2090, symBinAddr: 0x1000051E0, symSize: 0x1C }
  - { offsetInCU: 0xB287, offset: 0xB287, size: 0x8, addend: 0x0, symName: __ZNSt15__tuple_compareISt5tupleIJxxxEES1_Lm1ELm3EE6__lessERKS1_S4_, symObjAddr: 0x20AC, symBinAddr: 0x1000051FC, symSize: 0x88 }
  - { offsetInCU: 0xB274, offset: 0xB274, size: 0x8, addend: 0x0, symName: __ZNK9__gnu_cxx16__aligned_membufISt5tupleIJxxxEEE6_M_ptrEv, symObjAddr: 0x2074, symBinAddr: 0x1000051C4, symSize: 0x1C }
  - { offsetInCU: 0xB27C, offset: 0xB27C, size: 0x8, addend: 0x0, symName: __ZSt3getILm0EJxxxEERKNSt13tuple_elementIXT_ESt5tupleIJDpT0_EEE4typeERKS4_, symObjAddr: 0x2090, symBinAddr: 0x1000051E0, symSize: 0x1C }
  - { offsetInCU: 0xB300, offset: 0xB300, size: 0x8, addend: 0x0, symName: __ZNSt10_Head_baseILm2ExLb0EEC2IRxEEOT_, symObjAddr: 0x2044, symBinAddr: 0x100005194, symSize: 0x30 }
  - { offsetInCU: 0xB308, offset: 0xB308, size: 0x8, addend: 0x0, symName: __ZNK9__gnu_cxx16__aligned_membufISt5tupleIJxxxEEE6_M_ptrEv, symObjAddr: 0x2074, symBinAddr: 0x1000051C4, symSize: 0x1C }
  - { offsetInCU: 0xB400, offset: 0xB400, size: 0x8, addend: 0x0, symName: __ZSt19__relocate_object_aISt4pairIxxES1_SaIS1_EEvPT_PT0_RT1_, symObjAddr: 0x1F80, symBinAddr: 0x1000050D0, symSize: 0xC4 }
  - { offsetInCU: 0xB408, offset: 0xB408, size: 0x8, addend: 0x0, symName: __ZNSt10_Head_baseILm2ExLb0EEC2IRxEEOT_, symObjAddr: 0x2044, symBinAddr: 0x100005194, symSize: 0x30 }
  - { offsetInCU: 0xB504, offset: 0xB504, size: 0x8, addend: 0x0, symName: __ZSt10_ConstructISt4pairIxxEJEEvPT_DpOT0_, symObjAddr: 0x1F54, symBinAddr: 0x1000050A4, symSize: 0x2C }
  - { offsetInCU: 0xB50C, offset: 0xB50C, size: 0x8, addend: 0x0, symName: __ZSt19__relocate_object_aISt4pairIxxES1_SaIS1_EEvPT_PT0_RT1_, symObjAddr: 0x1F80, symBinAddr: 0x1000050D0, symSize: 0xC4 }
  - { offsetInCU: 0xB54F, offset: 0xB54F, size: 0x8, addend: 0x0, symName: __ZSt11__addressofISt4pairIxxEEPT_RS2_, symObjAddr: 0x1F40, symBinAddr: 0x100005090, symSize: 0x14 }
  - { offsetInCU: 0xB557, offset: 0xB557, size: 0x8, addend: 0x0, symName: __ZSt10_ConstructISt4pairIxxEJEEvPT_DpOT0_, symObjAddr: 0x1F54, symBinAddr: 0x1000050A4, symSize: 0x2C }
  - { offsetInCU: 0xB552, offset: 0xB552, size: 0x8, addend: 0x0, symName: __ZNSt15__new_allocatorISt13_Rb_tree_nodeISt5tupleIJxxxEEEE10deallocateEPS3_m, symObjAddr: 0x1F04, symBinAddr: 0x100005054, symSize: 0x3C }
  - { offsetInCU: 0xB55A, offset: 0xB55A, size: 0x8, addend: 0x0, symName: __ZSt11__addressofISt4pairIxxEEPT_RS2_, symObjAddr: 0x1F40, symBinAddr: 0x100005090, symSize: 0x14 }
  - { offsetInCU: 0xB5DD, offset: 0xB5DD, size: 0x8, addend: 0x0, symName: __ZN9__gnu_cxx16__aligned_membufISt5tupleIJxxxEEE6_M_ptrEv, symObjAddr: 0x1EE8, symBinAddr: 0x100005038, symSize: 0x1C }
  - { offsetInCU: 0xB5E5, offset: 0xB5E5, size: 0x8, addend: 0x0, symName: __ZNSt15__new_allocatorISt13_Rb_tree_nodeISt5tupleIJxxxEEEE10deallocateEPS3_m, symObjAddr: 0x1F04, symBinAddr: 0x100005054, symSize: 0x3C }
  - { offsetInCU: 0xB60C, offset: 0xB60C, size: 0x8, addend: 0x0, symName: __ZNSt8_Rb_treeISt5tupleIJxxxEES1_St9_IdentityIS1_ESt4lessIS1_ESaIS1_EE14_M_create_nodeIJS1_EEEPSt13_Rb_tree_nodeIS1_EDpOT_, symObjAddr: 0x1EA8, symBinAddr: 0x100004FF8, symSize: 0x40 }
  - { offsetInCU: 0xB614, offset: 0xB614, size: 0x8, addend: 0x0, symName: __ZN9__gnu_cxx16__aligned_membufISt5tupleIJxxxEEE6_M_ptrEv, symObjAddr: 0x1EE8, symBinAddr: 0x100005038, symSize: 0x1C }
  - { offsetInCU: 0xB6E2, offset: 0xB6E2, size: 0x8, addend: 0x0, symName: __ZSt7forwardIRPSt18_Rb_tree_node_baseEOT_RNSt16remove_referenceIS3_E4typeE, symObjAddr: 0x1E94, symBinAddr: 0x100004FE4, symSize: 0x14 }
  - { offsetInCU: 0xB6EA, offset: 0xB6EA, size: 0x8, addend: 0x0, symName: __ZNSt8_Rb_treeISt5tupleIJxxxEES1_St9_IdentityIS1_ESt4lessIS1_ESaIS1_EE14_M_create_nodeIJS1_EEEPSt13_Rb_tree_nodeIS1_EDpOT_, symObjAddr: 0x1EA8, symBinAddr: 0x100004FF8, symSize: 0x40 }
  - { offsetInCU: 0xB777, offset: 0xB777, size: 0x8, addend: 0x0, symName: __ZSt7forwardIRPSt13_Rb_tree_nodeISt5tupleIJxxxEEEEOT_RNSt16remove_referenceIS6_E4typeE, symObjAddr: 0x1E80, symBinAddr: 0x100004FD0, symSize: 0x14 }
  - { offsetInCU: 0xB77F, offset: 0xB77F, size: 0x8, addend: 0x0, symName: __ZSt7forwardIRPSt18_Rb_tree_node_baseEOT_RNSt16remove_referenceIS3_E4typeE, symObjAddr: 0x1E94, symBinAddr: 0x100004FE4, symSize: 0x14 }
  - { offsetInCU: 0xB722, offset: 0xB722, size: 0x8, addend: 0x0, symName: __ZNSt15__tuple_compareISt5tupleIJxxxEES1_Lm0ELm3EE6__lessERKS1_S4_, symObjAddr: 0x1DF8, symBinAddr: 0x100004F48, symSize: 0x88 }
  - { offsetInCU: 0xB72A, offset: 0xB72A, size: 0x8, addend: 0x0, symName: __ZSt7forwardIRPSt13_Rb_tree_nodeISt5tupleIJxxxEEEEOT_RNSt16remove_referenceIS6_E4typeE, symObjAddr: 0x1E80, symBinAddr: 0x100004FD0, symSize: 0x14 }
  - { offsetInCU: 0xB768, offset: 0xB768, size: 0x8, addend: 0x0, symName: __ZNKSt9_IdentityISt5tupleIJxxxEEEclERKS1_, symObjAddr: 0x1DE0, symBinAddr: 0x100004F30, symSize: 0x18 }
  - { offsetInCU: 0xB770, offset: 0xB770, size: 0x8, addend: 0x0, symName: __ZNSt15__tuple_compareISt5tupleIJxxxEES1_Lm0ELm3EE6__lessERKS1_S4_, symObjAddr: 0x1DF8, symBinAddr: 0x100004F48, symSize: 0x88 }
  - { offsetInCU: 0xB7AB, offset: 0xB7AB, size: 0x8, addend: 0x0, symName: __ZNKSt13_Rb_tree_nodeISt5tupleIJxxxEEE9_M_valptrEv, symObjAddr: 0x1DC0, symBinAddr: 0x100004F10, symSize: 0x20 }
  - { offsetInCU: 0xB7B3, offset: 0xB7B3, size: 0x8, addend: 0x0, symName: __ZNKSt9_IdentityISt5tupleIJxxxEEEclERKS1_, symObjAddr: 0x1DE0, symBinAddr: 0x100004F30, symSize: 0x18 }
  - { offsetInCU: 0xB837, offset: 0xB837, size: 0x8, addend: 0x0, symName: __ZNSt10_Head_baseILm1ExLb0EEC2IRxEEOT_, symObjAddr: 0x1D90, symBinAddr: 0x100004EE0, symSize: 0x30 }
  - { offsetInCU: 0xB83F, offset: 0xB83F, size: 0x8, addend: 0x0, symName: __ZNKSt13_Rb_tree_nodeISt5tupleIJxxxEEE9_M_valptrEv, symObjAddr: 0x1DC0, symBinAddr: 0x100004F10, symSize: 0x20 }
  - { offsetInCU: 0xB8B4, offset: 0xB8B4, size: 0x8, addend: 0x0, symName: __ZNSt11_Tuple_implILm2EJxEEC2IRxEEOT_, symObjAddr: 0x1D54, symBinAddr: 0x100004EA4, symSize: 0x3C }
  - { offsetInCU: 0xB8BC, offset: 0xB8BC, size: 0x8, addend: 0x0, symName: __ZNSt10_Head_baseILm1ExLb0EEC2IRxEEOT_, symObjAddr: 0x1D90, symBinAddr: 0x100004EE0, symSize: 0x30 }
  - { offsetInCU: 0xB8D5, offset: 0xB8D5, size: 0x8, addend: 0x0, symName: __ZNSt12_Destroy_auxILb1EE9__destroyIPSt4pairIxxEEEvT_S5_, symObjAddr: 0x1D3C, symBinAddr: 0x100004E8C, symSize: 0x18 }
  - { offsetInCU: 0xB8DD, offset: 0xB8DD, size: 0x8, addend: 0x0, symName: __ZNSt11_Tuple_implILm2EJxEEC2IRxEEOT_, symObjAddr: 0x1D54, symBinAddr: 0x100004EA4, symSize: 0x3C }
  - { offsetInCU: 0xB9F7, offset: 0xB9F7, size: 0x8, addend: 0x0, symName: __ZSt14__relocate_a_1IPSt4pairIxxES2_SaIS1_EET0_T_S5_S4_RT1_, symObjAddr: 0x1CB8, symBinAddr: 0x100004E08, symSize: 0x84 }
  - { offsetInCU: 0xB9FF, offset: 0xB9FF, size: 0x8, addend: 0x0, symName: __ZNSt12_Destroy_auxILb1EE9__destroyIPSt4pairIxxEEEvT_S5_, symObjAddr: 0x1D3C, symBinAddr: 0x100004E8C, symSize: 0x18 }
  - { offsetInCU: 0xBA30, offset: 0xBA30, size: 0x8, addend: 0x0, symName: __ZSt12__niter_baseIPSt4pairIxxEET_S3_, symObjAddr: 0x1CA4, symBinAddr: 0x100004DF4, symSize: 0x14 }
  - { offsetInCU: 0xBA38, offset: 0xBA38, size: 0x8, addend: 0x0, symName: __ZSt14__relocate_a_1IPSt4pairIxxES2_SaIS1_EET0_T_S5_S4_RT1_, symObjAddr: 0x1CB8, symBinAddr: 0x100004E08, symSize: 0x84 }
  - { offsetInCU: 0xBA1A, offset: 0xBA1A, size: 0x8, addend: 0x0, symName: __ZNSt15__new_allocatorISt4pairIxxEE8allocateEmPKv, symObjAddr: 0x1C28, symBinAddr: 0x100004D78, symSize: 0x7C }
  - { offsetInCU: 0xBA22, offset: 0xBA22, size: 0x8, addend: 0x0, symName: __ZSt12__niter_baseIPSt4pairIxxEET_S3_, symObjAddr: 0x1CA4, symBinAddr: 0x100004DF4, symSize: 0x14 }
  - { offsetInCU: 0xBAA0, offset: 0xBAA0, size: 0x8, addend: 0x0, symName: __ZNSt27__uninitialized_default_n_1ILb0EE18__uninit_default_nIPSt4pairIxxEmEET_S5_T0_, symObjAddr: 0x1BA0, symBinAddr: 0x100004CF0, symSize: 0x88 }
  - { offsetInCU: 0xBAA8, offset: 0xBAA8, size: 0x8, addend: 0x0, symName: __ZNSt15__new_allocatorISt4pairIxxEE8allocateEmPKv, symObjAddr: 0x1C28, symBinAddr: 0x100004D78, symSize: 0x7C }
  - { offsetInCU: 0xBB45, offset: 0xBB45, size: 0x8, addend: 0x0, symName: __ZSt3minImERKT_S2_S2_, symObjAddr: 0x1B68, symBinAddr: 0x100004CB8, symSize: 0x38 }
  - { offsetInCU: 0xBB4D, offset: 0xBB4D, size: 0x8, addend: 0x0, symName: __ZNSt27__uninitialized_default_n_1ILb0EE18__uninit_default_nIPSt4pairIxxEmEET_S5_T0_, symObjAddr: 0x1BA0, symBinAddr: 0x100004CF0, symSize: 0x88 }
  - { offsetInCU: 0xBC0F, offset: 0xBC0F, size: 0x8, addend: 0x0, symName: __ZNSt13_Rb_tree_nodeISt5tupleIJxxxEEE9_M_valptrEv, symObjAddr: 0x1B48, symBinAddr: 0x100004C98, symSize: 0x20 }
  - { offsetInCU: 0xBC17, offset: 0xBC17, size: 0x8, addend: 0x0, symName: __ZSt3minImERKT_S2_S2_, symObjAddr: 0x1B68, symBinAddr: 0x100004CB8, symSize: 0x38 }
  - { offsetInCU: 0xBC3E, offset: 0xBC3E, size: 0x8, addend: 0x0, symName: __ZNSt8_Rb_treeISt5tupleIJxxxEES1_St9_IdentityIS1_ESt4lessIS1_ESaIS1_EE21_M_get_Node_allocatorEv, symObjAddr: 0x1B34, symBinAddr: 0x100004C84, symSize: 0x14 }
  - { offsetInCU: 0xBC46, offset: 0xBC46, size: 0x8, addend: 0x0, symName: __ZNSt13_Rb_tree_nodeISt5tupleIJxxxEEE9_M_valptrEv, symObjAddr: 0x1B48, symBinAddr: 0x100004C98, symSize: 0x20 }
  - { offsetInCU: 0xBCB3, offset: 0xBCB3, size: 0x8, addend: 0x0, symName: __ZSt7forwardIbEOT_RNSt16remove_referenceIS0_E4typeE, symObjAddr: 0x1B20, symBinAddr: 0x100004C70, symSize: 0x14 }
  - { offsetInCU: 0xBCBB, offset: 0xBCBB, size: 0x8, addend: 0x0, symName: __ZNSt8_Rb_treeISt5tupleIJxxxEES1_St9_IdentityIS1_ESt4lessIS1_ESaIS1_EE21_M_get_Node_allocatorEv, symObjAddr: 0x1B34, symBinAddr: 0x100004C84, symSize: 0x14 }
  - { offsetInCU: 0xBD79, offset: 0xBD79, size: 0x8, addend: 0x0, symName: __ZSt7forwardISt17_Rb_tree_iteratorISt5tupleIJxxxEEEEOT_RNSt16remove_referenceIS4_E4typeE, symObjAddr: 0x1B0C, symBinAddr: 0x100004C5C, symSize: 0x14 }
  - { offsetInCU: 0xBD81, offset: 0xBD81, size: 0x8, addend: 0x0, symName: __ZSt7forwardIbEOT_RNSt16remove_referenceIS0_E4typeE, symObjAddr: 0x1B20, symBinAddr: 0x100004C70, symSize: 0x14 }
  - { offsetInCU: 0xBD28, offset: 0xBD28, size: 0x8, addend: 0x0, symName: __ZNKSt8_Rb_treeISt5tupleIJxxxEES1_St9_IdentityIS1_ESt4lessIS1_ESaIS1_EE11_Alloc_nodeclIS1_EEPSt13_Rb_tree_nodeIS1_EOT_, symObjAddr: 0x1AD0, symBinAddr: 0x100004C20, symSize: 0x3C }
  - { offsetInCU: 0xBD30, offset: 0xBD30, size: 0x8, addend: 0x0, symName: __ZSt7forwardISt17_Rb_tree_iteratorISt5tupleIJxxxEEEEOT_RNSt16remove_referenceIS4_E4typeE, symObjAddr: 0x1B0C, symBinAddr: 0x100004C5C, symSize: 0x14 }
  - { offsetInCU: 0xBE0D, offset: 0xBE0D, size: 0x8, addend: 0x0, symName: __ZNSt4pairIPSt18_Rb_tree_node_baseS1_EC1IS1_S1_Lb1EEERKS1_S5_, symObjAddr: 0x1A94, symBinAddr: 0x100004BE4, symSize: 0x3C }
  - { offsetInCU: 0xBE15, offset: 0xBE15, size: 0x8, addend: 0x0, symName: __ZNKSt8_Rb_treeISt5tupleIJxxxEES1_St9_IdentityIS1_ESt4lessIS1_ESaIS1_EE11_Alloc_nodeclIS1_EEPSt13_Rb_tree_nodeIS1_EOT_, symObjAddr: 0x1AD0, symBinAddr: 0x100004C20, symSize: 0x3C }
  - { offsetInCU: 0xBE31, offset: 0xBE31, size: 0x8, addend: 0x0, symName: __ZNSt17_Rb_tree_iteratorISt5tupleIJxxxEEEmmEv, symObjAddr: 0x1A64, symBinAddr: 0x100004BB4, symSize: 0x30 }
  - { offsetInCU: 0xBE39, offset: 0xBE39, size: 0x8, addend: 0x0, symName: __ZNSt4pairIPSt18_Rb_tree_node_baseS1_EC1IS1_S1_Lb1EEERKS1_S5_, symObjAddr: 0x1A94, symBinAddr: 0x100004BE4, symSize: 0x3C }
  - { offsetInCU: 0xBF14, offset: 0xBF14, size: 0x8, addend: 0x0, symName: __ZNSt4pairIPSt18_Rb_tree_node_baseS1_EC1IRPSt13_Rb_tree_nodeISt5tupleIJxxxEEERS1_Lb1EEEOT_OT0_, symObjAddr: 0x1A1C, symBinAddr: 0x100004B6C, symSize: 0x48 }
  - { offsetInCU: 0xBF1C, offset: 0xBF1C, size: 0x8, addend: 0x0, symName: __ZNSt17_Rb_tree_iteratorISt5tupleIJxxxEEEmmEv, symObjAddr: 0x1A64, symBinAddr: 0x100004BB4, symSize: 0x30 }
  - { offsetInCU: 0xBF51, offset: 0xBF51, size: 0x8, addend: 0x0, symName: __ZSteqRKSt17_Rb_tree_iteratorISt5tupleIJxxxEEES4_, symObjAddr: 0x19EC, symBinAddr: 0x100004B3C, symSize: 0x30 }
  - { offsetInCU: 0xBF59, offset: 0xBF59, size: 0x8, addend: 0x0, symName: __ZNSt4pairIPSt18_Rb_tree_node_baseS1_EC1IRPSt13_Rb_tree_nodeISt5tupleIJxxxEEERS1_Lb1EEEOT_OT0_, symObjAddr: 0x1A1C, symBinAddr: 0x100004B6C, symSize: 0x48 }
  - { offsetInCU: 0xBF72, offset: 0xBF72, size: 0x8, addend: 0x0, symName: __ZNSt8_Rb_treeISt5tupleIJxxxEES1_St9_IdentityIS1_ESt4lessIS1_ESaIS1_EE5beginEv, symObjAddr: 0x19C4, symBinAddr: 0x100004B14, symSize: 0x28 }
  - { offsetInCU: 0xBF7A, offset: 0xBF7A, size: 0x8, addend: 0x0, symName: __ZSteqRKSt17_Rb_tree_iteratorISt5tupleIJxxxEEES4_, symObjAddr: 0x19EC, symBinAddr: 0x100004B3C, symSize: 0x30 }
  - { offsetInCU: 0xBFA1, offset: 0xBFA1, size: 0x8, addend: 0x0, symName: __ZNSt8_Rb_treeISt5tupleIJxxxEES1_St9_IdentityIS1_ESt4lessIS1_ESaIS1_EE6_M_endEv, symObjAddr: 0x19AC, symBinAddr: 0x100004AFC, symSize: 0x18 }
  - { offsetInCU: 0xBFA9, offset: 0xBFA9, size: 0x8, addend: 0x0, symName: __ZNSt8_Rb_treeISt5tupleIJxxxEES1_St9_IdentityIS1_ESt4lessIS1_ESaIS1_EE5beginEv, symObjAddr: 0x19C4, symBinAddr: 0x100004B14, symSize: 0x28 }
  - { offsetInCU: 0xC06E, offset: 0xC06E, size: 0x8, addend: 0x0, symName: __ZStltIJxxxEJxxxEEbRKSt5tupleIJDpT_EERKS0_IJDpT0_EE, symObjAddr: 0x1984, symBinAddr: 0x100004AD4, symSize: 0x28 }
  - { offsetInCU: 0xC076, offset: 0xC076, size: 0x8, addend: 0x0, symName: __ZNSt8_Rb_treeISt5tupleIJxxxEES1_St9_IdentityIS1_ESt4lessIS1_ESaIS1_EE6_M_endEv, symObjAddr: 0x19AC, symBinAddr: 0x100004AFC, symSize: 0x18 }
  - { offsetInCU: 0xC065, offset: 0xC065, size: 0x8, addend: 0x0, symName: __ZNSt8_Rb_treeISt5tupleIJxxxEES1_St9_IdentityIS1_ESt4lessIS1_ESaIS1_EE8_S_rightEPKSt18_Rb_tree_node_base, symObjAddr: 0x196C, symBinAddr: 0x100004ABC, symSize: 0x18 }
  - { offsetInCU: 0xC06D, offset: 0xC06D, size: 0x8, addend: 0x0, symName: __ZStltIJxxxEJxxxEEbRKSt5tupleIJDpT_EERKS0_IJDpT0_EE, symObjAddr: 0x1984, symBinAddr: 0x100004AD4, symSize: 0x28 }
  - { offsetInCU: 0xC097, offset: 0xC097, size: 0x8, addend: 0x0, symName: __ZNSt8_Rb_treeISt5tupleIJxxxEES1_St9_IdentityIS1_ESt4lessIS1_ESaIS1_EE7_S_leftEPKSt18_Rb_tree_node_base, symObjAddr: 0x1954, symBinAddr: 0x100004AA4, symSize: 0x18 }
  - { offsetInCU: 0xC09F, offset: 0xC09F, size: 0x8, addend: 0x0, symName: __ZNSt8_Rb_treeISt5tupleIJxxxEES1_St9_IdentityIS1_ESt4lessIS1_ESaIS1_EE8_S_rightEPKSt18_Rb_tree_node_base, symObjAddr: 0x196C, symBinAddr: 0x100004ABC, symSize: 0x18 }
  - { offsetInCU: 0xC0C9, offset: 0xC0C9, size: 0x8, addend: 0x0, symName: __ZNSt8_Rb_treeISt5tupleIJxxxEES1_St9_IdentityIS1_ESt4lessIS1_ESaIS1_EE6_S_keyEPKSt13_Rb_tree_nodeIS1_E, symObjAddr: 0x192C, symBinAddr: 0x100004A7C, symSize: 0x28 }
  - { offsetInCU: 0xC0D1, offset: 0xC0D1, size: 0x8, addend: 0x0, symName: __ZNSt8_Rb_treeISt5tupleIJxxxEES1_St9_IdentityIS1_ESt4lessIS1_ESaIS1_EE7_S_leftEPKSt18_Rb_tree_node_base, symObjAddr: 0x1954, symBinAddr: 0x100004AA4, symSize: 0x18 }
  - { offsetInCU: 0xC158, offset: 0xC158, size: 0x8, addend: 0x0, symName: __ZNSt10_Head_baseILm0ExLb0EEC2IRxEEOT_, symObjAddr: 0x18FC, symBinAddr: 0x100004A4C, symSize: 0x30 }
  - { offsetInCU: 0xC160, offset: 0xC160, size: 0x8, addend: 0x0, symName: __ZNSt8_Rb_treeISt5tupleIJxxxEES1_St9_IdentityIS1_ESt4lessIS1_ESaIS1_EE6_S_keyEPKSt13_Rb_tree_nodeIS1_E, symObjAddr: 0x192C, symBinAddr: 0x100004A7C, symSize: 0x28 }
  - { offsetInCU: 0xC200, offset: 0xC200, size: 0x8, addend: 0x0, symName: __ZNSt11_Tuple_implILm1EJxxEEC2IRxJS2_EvEEOT_DpOT0_, symObjAddr: 0x18A0, symBinAddr: 0x1000049F0, symSize: 0x5C }
  - { offsetInCU: 0xC208, offset: 0xC208, size: 0x8, addend: 0x0, symName: __ZNSt10_Head_baseILm0ExLb0EEC2IRxEEOT_, symObjAddr: 0x18FC, symBinAddr: 0x100004A4C, symSize: 0x30 }
  - { offsetInCU: 0xC28B, offset: 0xC28B, size: 0x8, addend: 0x0, symName: __ZSt8_DestroyIPSt4pairIxxEEvT_S3_, symObjAddr: 0x1878, symBinAddr: 0x1000049C8, symSize: 0x28 }
  - { offsetInCU: 0xC293, offset: 0xC293, size: 0x8, addend: 0x0, symName: __ZNSt11_Tuple_implILm1EJxxEEC2IRxJS2_EvEEOT_DpOT0_, symObjAddr: 0x18A0, symBinAddr: 0x1000049F0, symSize: 0x5C }
  - { offsetInCU: 0xC365, offset: 0xC365, size: 0x8, addend: 0x0, symName: __ZSt12__relocate_aIPSt4pairIxxES2_SaIS1_EET0_T_S5_S4_RT1_, symObjAddr: 0x181C, symBinAddr: 0x10000496C, symSize: 0x5C }
  - { offsetInCU: 0xC36D, offset: 0xC36D, size: 0x8, addend: 0x0, symName: __ZSt8_DestroyIPSt4pairIxxEEvT_S3_, symObjAddr: 0x1878, symBinAddr: 0x1000049C8, symSize: 0x28 }
  - { offsetInCU: 0xC38B, offset: 0xC38B, size: 0x8, addend: 0x0, symName: __ZSt3maxImERKT_S2_S2_, symObjAddr: 0x17E4, symBinAddr: 0x100004934, symSize: 0x38 }
  - { offsetInCU: 0xC393, offset: 0xC393, size: 0x8, addend: 0x0, symName: __ZSt12__relocate_aIPSt4pairIxxES2_SaIS1_EET0_T_S5_S4_RT1_, symObjAddr: 0x181C, symBinAddr: 0x10000496C, symSize: 0x5C }
  - { offsetInCU: 0xC44C, offset: 0xC44C, size: 0x8, addend: 0x0, symName: __ZSt25__uninitialized_default_nIPSt4pairIxxEmET_S3_T0_, symObjAddr: 0x17B8, symBinAddr: 0x100004908, symSize: 0x2C }
  - { offsetInCU: 0xC454, offset: 0xC454, size: 0x8, addend: 0x0, symName: __ZSt3maxImERKT_S2_S2_, symObjAddr: 0x17E4, symBinAddr: 0x100004934, symSize: 0x38 }
  - { offsetInCU: 0xC43A, offset: 0xC43A, size: 0x8, addend: 0x0, symName: __ZNKSt12_Vector_baseISt4pairIxxESaIS1_EE19_M_get_Tp_allocatorEv, symObjAddr: 0x17A4, symBinAddr: 0x1000048F4, symSize: 0x14 }
  - { offsetInCU: 0xC442, offset: 0xC442, size: 0x8, addend: 0x0, symName: __ZSt25__uninitialized_default_nIPSt4pairIxxEmET_S3_T0_, symObjAddr: 0x17B8, symBinAddr: 0x100004908, symSize: 0x2C }
  - { offsetInCU: 0xC469, offset: 0xC469, size: 0x8, addend: 0x0, symName: __ZNSt6vectorISt4pairIxxESaIS1_EE11_S_max_sizeERKS2_, symObjAddr: 0x1750, symBinAddr: 0x1000048A0, symSize: 0x54 }
  - { offsetInCU: 0xC471, offset: 0xC471, size: 0x8, addend: 0x0, symName: __ZNKSt12_Vector_baseISt4pairIxxESaIS1_EE19_M_get_Tp_allocatorEv, symObjAddr: 0x17A4, symBinAddr: 0x1000048F4, symSize: 0x14 }
  - { offsetInCU: 0xC535, offset: 0xC535, size: 0x8, addend: 0x0, symName: __ZNSt8_Rb_treeISt5tupleIJxxxEES1_St9_IdentityIS1_ESt4lessIS1_ESaIS1_EE11_M_put_nodeEPSt13_Rb_tree_nodeIS1_E, symObjAddr: 0x1704, symBinAddr: 0x100004854, symSize: 0x4C }
  - { offsetInCU: 0xC53D, offset: 0xC53D, size: 0x8, addend: 0x0, symName: __ZNSt6vectorISt4pairIxxESaIS1_EE11_S_max_sizeERKS2_, symObjAddr: 0x1750, symBinAddr: 0x1000048A0, symSize: 0x54 }
  - { offsetInCU: 0xC5B6, offset: 0xC5B6, size: 0x8, addend: 0x0, symName: __ZNSt8_Rb_treeISt5tupleIJxxxEES1_St9_IdentityIS1_ESt4lessIS1_ESaIS1_EE15_M_destroy_nodeEPSt13_Rb_tree_nodeIS1_E, symObjAddr: 0x16AC, symBinAddr: 0x1000047FC, symSize: 0x58 }
  - { offsetInCU: 0xC5BE, offset: 0xC5BE, size: 0x8, addend: 0x0, symName: __ZNSt8_Rb_treeISt5tupleIJxxxEES1_St9_IdentityIS1_ESt4lessIS1_ESaIS1_EE11_M_put_nodeEPSt13_Rb_tree_nodeIS1_E, symObjAddr: 0x1704, symBinAddr: 0x100004854, symSize: 0x4C }
  - { offsetInCU: 0xC65D, offset: 0xC65D, size: 0x8, addend: 0x0, symName: __ZNSt15__new_allocatorISt4pairIxxEE10deallocateEPS1_m, symObjAddr: 0x167C, symBinAddr: 0x1000047CC, symSize: 0x30 }
  - { offsetInCU: 0xC665, offset: 0xC665, size: 0x8, addend: 0x0, symName: __ZNSt8_Rb_treeISt5tupleIJxxxEES1_St9_IdentityIS1_ESt4lessIS1_ESaIS1_EE15_M_destroy_nodeEPSt13_Rb_tree_nodeIS1_E, symObjAddr: 0x16AC, symBinAddr: 0x1000047FC, symSize: 0x58 }
  - { offsetInCU: 0xC72B, offset: 0xC72B, size: 0x8, addend: 0x0, symName: __ZNSt23_Rb_tree_const_iteratorISt5tupleIJxxxEEEC1ERKSt17_Rb_tree_iteratorIS1_E, symObjAddr: 0x1654, symBinAddr: 0x1000047A4, symSize: 0x28 }
  - { offsetInCU: 0xC733, offset: 0xC733, size: 0x8, addend: 0x0, symName: __ZNSt15__new_allocatorISt4pairIxxEE10deallocateEPS1_m, symObjAddr: 0x167C, symBinAddr: 0x1000047CC, symSize: 0x30 }
  - { offsetInCU: 0xC75E, offset: 0xC75E, size: 0x8, addend: 0x0, symName: __ZSt7forwardIRbEOT_RNSt16remove_referenceIS1_E4typeE, symObjAddr: 0x1640, symBinAddr: 0x100004790, symSize: 0x14 }
  - { offsetInCU: 0xC766, offset: 0xC766, size: 0x8, addend: 0x0, symName: __ZNSt23_Rb_tree_const_iteratorISt5tupleIJxxxEEEC1ERKSt17_Rb_tree_iteratorIS1_E, symObjAddr: 0x1654, symBinAddr: 0x1000047A4, symSize: 0x28 }
  - { offsetInCU: 0xC823, offset: 0xC823, size: 0x8, addend: 0x0, symName: __ZSt7forwardIRSt17_Rb_tree_iteratorISt5tupleIJxxxEEEEOT_RNSt16remove_referenceIS5_E4typeE, symObjAddr: 0x162C, symBinAddr: 0x10000477C, symSize: 0x14 }
  - { offsetInCU: 0xC82B, offset: 0xC82B, size: 0x8, addend: 0x0, symName: __ZSt7forwardIRbEOT_RNSt16remove_referenceIS1_E4typeE, symObjAddr: 0x1640, symBinAddr: 0x100004790, symSize: 0x14 }
  - { offsetInCU: 0xC82C, offset: 0xC82C, size: 0x8, addend: 0x0, symName: __ZNSt17_Rb_tree_iteratorISt5tupleIJxxxEEEC1EPSt18_Rb_tree_node_base, symObjAddr: 0x1608, symBinAddr: 0x100004758, symSize: 0x24 }
  - { offsetInCU: 0xC834, offset: 0xC834, size: 0x8, addend: 0x0, symName: __ZSt7forwardIRSt17_Rb_tree_iteratorISt5tupleIJxxxEEEEOT_RNSt16remove_referenceIS5_E4typeE, symObjAddr: 0x162C, symBinAddr: 0x10000477C, symSize: 0x14 }
  - { offsetInCU: 0xC8BF, offset: 0xC8BF, size: 0x8, addend: 0x0, symName: __ZNSt4pairISt17_Rb_tree_iteratorISt5tupleIJxxxEEEbEC1IS3_bLb1EEEOT_OT0_, symObjAddr: 0x15BC, symBinAddr: 0x10000470C, symSize: 0x4C }
  - { offsetInCU: 0xC8C7, offset: 0xC8C7, size: 0x8, addend: 0x0, symName: __ZNSt17_Rb_tree_iteratorISt5tupleIJxxxEEEC1EPSt18_Rb_tree_node_base, symObjAddr: 0x1608, symBinAddr: 0x100004758, symSize: 0x24 }
  - { offsetInCU: 0xC8E1, offset: 0xC8E1, size: 0x8, addend: 0x0, symName: __ZNSt8_Rb_treeISt5tupleIJxxxEES1_St9_IdentityIS1_ESt4lessIS1_ESaIS1_EE10_M_insert_IS1_NS7_11_Alloc_nodeEEESt17_Rb_tree_iteratorIS1_EPSt18_Rb_tree_node_baseSD_OT_RT0_, symObjAddr: 0x14C8, symBinAddr: 0x100004618, symSize: 0xF4 }
  - { offsetInCU: 0xC8E9, offset: 0xC8E9, size: 0x8, addend: 0x0, symName: __ZNSt4pairISt17_Rb_tree_iteratorISt5tupleIJxxxEEEbEC1IS3_bLb1EEEOT_OT0_, symObjAddr: 0x15BC, symBinAddr: 0x10000470C, symSize: 0x4C }
  - { offsetInCU: 0xCA2B, offset: 0xCA2B, size: 0x8, addend: 0x0, symName: __ZSt7forwardISt5tupleIJxxxEEEOT_RNSt16remove_referenceIS2_E4typeE, symObjAddr: 0x14B4, symBinAddr: 0x100004604, symSize: 0x14 }
  - { offsetInCU: 0xCA33, offset: 0xCA33, size: 0x8, addend: 0x0, symName: __ZNSt8_Rb_treeISt5tupleIJxxxEES1_St9_IdentityIS1_ESt4lessIS1_ESaIS1_EE10_M_insert_IS1_NS7_11_Alloc_nodeEEESt17_Rb_tree_iteratorIS1_EPSt18_Rb_tree_node_baseSD_OT_RT0_, symObjAddr: 0x14C8, symBinAddr: 0x100004618, symSize: 0xF4 }
  - { offsetInCU: 0xCA7C, offset: 0xCA7C, size: 0x8, addend: 0x0, symName: __ZNSt8_Rb_treeISt5tupleIJxxxEES1_St9_IdentityIS1_ESt4lessIS1_ESaIS1_EE11_Alloc_nodeC1ERS7_, symObjAddr: 0x1490, symBinAddr: 0x1000045E0, symSize: 0x24 }
  - { offsetInCU: 0xCA84, offset: 0xCA84, size: 0x8, addend: 0x0, symName: __ZSt7forwardISt5tupleIJxxxEEEOT_RNSt16remove_referenceIS2_E4typeE, symObjAddr: 0x14B4, symBinAddr: 0x100004604, symSize: 0x14 }
  - { offsetInCU: 0xCA5B, offset: 0xCA5B, size: 0x8, addend: 0x0, symName: __ZNKSt9_IdentityISt5tupleIJxxxEEEclERS1_, symObjAddr: 0x1478, symBinAddr: 0x1000045C8, symSize: 0x18 }
  - { offsetInCU: 0xCA63, offset: 0xCA63, size: 0x8, addend: 0x0, symName: __ZNSt8_Rb_treeISt5tupleIJxxxEES1_St9_IdentityIS1_ESt4lessIS1_ESaIS1_EE11_Alloc_nodeC1ERS7_, symObjAddr: 0x1490, symBinAddr: 0x1000045E0, symSize: 0x24 }
  - { offsetInCU: 0xCA9E, offset: 0xCA9E, size: 0x8, addend: 0x0, symName: __ZNSt8_Rb_treeISt5tupleIJxxxEES1_St9_IdentityIS1_ESt4lessIS1_ESaIS1_EE24_M_get_insert_unique_posERKS1_, symObjAddr: 0x1314, symBinAddr: 0x100004464, symSize: 0x164 }
  - { offsetInCU: 0xCAA6, offset: 0xCAA6, size: 0x8, addend: 0x0, symName: __ZNKSt9_IdentityISt5tupleIJxxxEEEclERS1_, symObjAddr: 0x1478, symBinAddr: 0x1000045C8, symSize: 0x18 }
  - { offsetInCU: 0xCBAB, offset: 0xCBAB, size: 0x8, addend: 0x0, symName: __ZNSt23_Rb_tree_const_iteratorISt5tupleIJxxxEEEC1EPKSt18_Rb_tree_node_base, symObjAddr: 0x12F0, symBinAddr: 0x100004440, symSize: 0x24 }
  - { offsetInCU: 0xCBB3, offset: 0xCBB3, size: 0x8, addend: 0x0, symName: __ZNSt8_Rb_treeISt5tupleIJxxxEES1_St9_IdentityIS1_ESt4lessIS1_ESaIS1_EE24_M_get_insert_unique_posERKS1_, symObjAddr: 0x1314, symBinAddr: 0x100004464, symSize: 0x164 }
  - { offsetInCU: 0xCB9A, offset: 0xCB9A, size: 0x8, addend: 0x0, symName: __ZNKSt4lessISt5tupleIJxxxEEEclERKS1_S4_, symObjAddr: 0x12C4, symBinAddr: 0x100004414, symSize: 0x2C }
  - { offsetInCU: 0xCBA2, offset: 0xCBA2, size: 0x8, addend: 0x0, symName: __ZNSt23_Rb_tree_const_iteratorISt5tupleIJxxxEEEC1EPKSt18_Rb_tree_node_base, symObjAddr: 0x12F0, symBinAddr: 0x100004440, symSize: 0x24 }
  - { offsetInCU: 0xCBF1, offset: 0xCBF1, size: 0x8, addend: 0x0, symName: __ZNSt8_Rb_treeISt5tupleIJxxxEES1_St9_IdentityIS1_ESt4lessIS1_ESaIS1_EE6_S_keyEPKSt18_Rb_tree_node_base, symObjAddr: 0x12A8, symBinAddr: 0x1000043F8, symSize: 0x1C }
  - { offsetInCU: 0xCBF9, offset: 0xCBF9, size: 0x8, addend: 0x0, symName: __ZNKSt4lessISt5tupleIJxxxEEEclERKS1_S4_, symObjAddr: 0x12C4, symBinAddr: 0x100004414, symSize: 0x2C }
  - { offsetInCU: 0xCC23, offset: 0xCC23, size: 0x8, addend: 0x0, symName: __ZNKSt8_Rb_treeISt5tupleIJxxxEES1_St9_IdentityIS1_ESt4lessIS1_ESaIS1_EE14_M_lower_boundEPKSt13_Rb_tree_nodeIS1_EPKSt18_Rb_tree_node_baseRKS1_, symObjAddr: 0x1208, symBinAddr: 0x100004358, symSize: 0xA0 }
  - { offsetInCU: 0xCC2B, offset: 0xCC2B, size: 0x8, addend: 0x0, symName: __ZNSt8_Rb_treeISt5tupleIJxxxEES1_St9_IdentityIS1_ESt4lessIS1_ESaIS1_EE6_S_keyEPKSt18_Rb_tree_node_base, symObjAddr: 0x12A8, symBinAddr: 0x1000043F8, symSize: 0x1C }
  - { offsetInCU: 0xCC8E, offset: 0xCC8E, size: 0x8, addend: 0x0, symName: __ZNKSt8_Rb_treeISt5tupleIJxxxEES1_St9_IdentityIS1_ESt4lessIS1_ESaIS1_EE6_M_endEv, symObjAddr: 0x11F0, symBinAddr: 0x100004340, symSize: 0x18 }
  - { offsetInCU: 0xCC96, offset: 0xCC96, size: 0x8, addend: 0x0, symName: __ZNKSt8_Rb_treeISt5tupleIJxxxEES1_St9_IdentityIS1_ESt4lessIS1_ESaIS1_EE14_M_lower_boundEPKSt13_Rb_tree_nodeIS1_EPKSt18_Rb_tree_node_baseRKS1_, symObjAddr: 0x1208, symBinAddr: 0x100004358, symSize: 0xA0 }
  - { offsetInCU: 0xCCBD, offset: 0xCCBD, size: 0x8, addend: 0x0, symName: __ZNKSt8_Rb_treeISt5tupleIJxxxEES1_St9_IdentityIS1_ESt4lessIS1_ESaIS1_EE8_M_beginEv, symObjAddr: 0x11D8, symBinAddr: 0x100004328, symSize: 0x18 }
  - { offsetInCU: 0xCCC5, offset: 0xCCC5, size: 0x8, addend: 0x0, symName: __ZNKSt8_Rb_treeISt5tupleIJxxxEES1_St9_IdentityIS1_ESt4lessIS1_ESaIS1_EE6_M_endEv, symObjAddr: 0x11F0, symBinAddr: 0x100004340, symSize: 0x18 }
  - { offsetInCU: 0xCD8A, offset: 0xCD8A, size: 0x8, addend: 0x0, symName: __ZNSt11_Tuple_implILm0EJxxxEEC2IRxJS2_S2_EvEEOT_DpOT0_, symObjAddr: 0x1168, symBinAddr: 0x1000042B8, symSize: 0x70 }
  - { offsetInCU: 0xCD92, offset: 0xCD92, size: 0x8, addend: 0x0, symName: __ZNKSt8_Rb_treeISt5tupleIJxxxEES1_St9_IdentityIS1_ESt4lessIS1_ESaIS1_EE8_M_beginEv, symObjAddr: 0x11D8, symBinAddr: 0x100004328, symSize: 0x18 }
  - { offsetInCU: 0xCE25, offset: 0xCE25, size: 0x8, addend: 0x0, symName: __ZNSt6vectorISt4pairIxxESaIS1_EE11_S_relocateEPS1_S4_S4_RS2_, symObjAddr: 0x1134, symBinAddr: 0x100004284, symSize: 0x34 }
  - { offsetInCU: 0xCE2D, offset: 0xCE2D, size: 0x8, addend: 0x0, symName: __ZNSt11_Tuple_implILm0EJxxxEEC2IRxJS2_S2_EvEEOT_DpOT0_, symObjAddr: 0x1168, symBinAddr: 0x1000042B8, symSize: 0x70 }
  - { offsetInCU: 0xCE93, offset: 0xCE93, size: 0x8, addend: 0x0, symName: __ZNSt12_Vector_baseISt4pairIxxESaIS1_EE11_M_allocateEm, symObjAddr: 0x10E4, symBinAddr: 0x100004234, symSize: 0x50 }
  - { offsetInCU: 0xCE9B, offset: 0xCE9B, size: 0x8, addend: 0x0, symName: __ZNSt6vectorISt4pairIxxESaIS1_EE11_S_relocateEPS1_S4_S4_RS2_, symObjAddr: 0x1134, symBinAddr: 0x100004284, symSize: 0x34 }
  - { offsetInCU: 0xCF08, offset: 0xCF08, size: 0x8, addend: 0x0, symName: __ZNKSt6vectorISt4pairIxxESaIS1_EE12_M_check_lenEmPKc, symObjAddr: 0x1014, symBinAddr: 0x100004164, symSize: 0xD0 }
  - { offsetInCU: 0xCF10, offset: 0xCF10, size: 0x8, addend: 0x0, symName: __ZNSt12_Vector_baseISt4pairIxxESaIS1_EE11_M_allocateEm, symObjAddr: 0x10E4, symBinAddr: 0x100004234, symSize: 0x50 }
  - { offsetInCU: 0xD03F, offset: 0xD03F, size: 0x8, addend: 0x0, symName: __ZSt27__uninitialized_default_n_aIPSt4pairIxxEmS1_ET_S3_T0_RSaIT1_E, symObjAddr: 0xFEC, symBinAddr: 0x10000413C, symSize: 0x28 }
  - { offsetInCU: 0xD047, offset: 0xD047, size: 0x8, addend: 0x0, symName: __ZNKSt6vectorISt4pairIxxESaIS1_EE12_M_check_lenEmPKc, symObjAddr: 0x1014, symBinAddr: 0x100004164, symSize: 0xD0 }
  - { offsetInCU: 0xCFF9, offset: 0xCFF9, size: 0x8, addend: 0x0, symName: __ZNSt12_Vector_baseISt4pairIxxESaIS1_EE19_M_get_Tp_allocatorEv, symObjAddr: 0xFD8, symBinAddr: 0x100004128, symSize: 0x14 }
  - { offsetInCU: 0xD001, offset: 0xD001, size: 0x8, addend: 0x0, symName: __ZSt27__uninitialized_default_n_aIPSt4pairIxxEmS1_ET_S3_T0_RSaIT1_E, symObjAddr: 0xFEC, symBinAddr: 0x10000413C, symSize: 0x28 }
  - { offsetInCU: 0xD028, offset: 0xD028, size: 0x8, addend: 0x0, symName: __ZNKSt6vectorISt4pairIxxESaIS1_EE8max_sizeEv, symObjAddr: 0xFB8, symBinAddr: 0x100004108, symSize: 0x20 }
  - { offsetInCU: 0xD030, offset: 0xD030, size: 0x8, addend: 0x0, symName: __ZNSt12_Vector_baseISt4pairIxxESaIS1_EE19_M_get_Tp_allocatorEv, symObjAddr: 0xFD8, symBinAddr: 0x100004128, symSize: 0x14 }
  - { offsetInCU: 0xD057, offset: 0xD057, size: 0x8, addend: 0x0, symName: __ZNKSt8_Rb_treeISt5tupleIJxxxEES1_St9_IdentityIS1_ESt4lessIS1_ESaIS1_EE9_M_mbeginEv, symObjAddr: 0xFA0, symBinAddr: 0x1000040F0, symSize: 0x18 }
  - { offsetInCU: 0xD05F, offset: 0xD05F, size: 0x8, addend: 0x0, symName: __ZNKSt6vectorISt4pairIxxESaIS1_EE8max_sizeEv, symObjAddr: 0xFB8, symBinAddr: 0x100004108, symSize: 0x20 }
  - { offsetInCU: 0xD086, offset: 0xD086, size: 0x8, addend: 0x0, symName: __ZNSt8_Rb_treeISt5tupleIJxxxEES1_St9_IdentityIS1_ESt4lessIS1_ESaIS1_EE12_M_drop_nodeEPSt13_Rb_tree_nodeIS1_E, symObjAddr: 0xF6C, symBinAddr: 0x1000040BC, symSize: 0x34 }
  - { offsetInCU: 0xD08E, offset: 0xD08E, size: 0x8, addend: 0x0, symName: __ZNKSt8_Rb_treeISt5tupleIJxxxEES1_St9_IdentityIS1_ESt4lessIS1_ESaIS1_EE9_M_mbeginEv, symObjAddr: 0xFA0, symBinAddr: 0x1000040F0, symSize: 0x18 }
  - { offsetInCU: 0xD0C9, offset: 0xD0C9, size: 0x8, addend: 0x0, symName: __ZNSt8_Rb_treeISt5tupleIJxxxEES1_St9_IdentityIS1_ESt4lessIS1_ESaIS1_EE7_S_leftEPSt18_Rb_tree_node_base, symObjAddr: 0xF54, symBinAddr: 0x1000040A4, symSize: 0x18 }
  - { offsetInCU: 0xD0D1, offset: 0xD0D1, size: 0x8, addend: 0x0, symName: __ZNSt8_Rb_treeISt5tupleIJxxxEES1_St9_IdentityIS1_ESt4lessIS1_ESaIS1_EE12_M_drop_nodeEPSt13_Rb_tree_nodeIS1_E, symObjAddr: 0xF6C, symBinAddr: 0x1000040BC, symSize: 0x34 }
  - { offsetInCU: 0xD0FB, offset: 0xD0FB, size: 0x8, addend: 0x0, symName: __ZNSt8_Rb_treeISt5tupleIJxxxEES1_St9_IdentityIS1_ESt4lessIS1_ESaIS1_EE8_S_rightEPSt18_Rb_tree_node_base, symObjAddr: 0xF3C, symBinAddr: 0x10000408C, symSize: 0x18 }
  - { offsetInCU: 0xD103, offset: 0xD103, size: 0x8, addend: 0x0, symName: __ZNSt8_Rb_treeISt5tupleIJxxxEES1_St9_IdentityIS1_ESt4lessIS1_ESaIS1_EE7_S_leftEPSt18_Rb_tree_node_base, symObjAddr: 0xF54, symBinAddr: 0x1000040A4, symSize: 0x18 }
  - { offsetInCU: 0xD259, offset: 0xD259, size: 0x8, addend: 0x0, symName: __ZNSt4pairISt23_Rb_tree_const_iteratorISt5tupleIJxxxEEEbEC1IRSt17_Rb_tree_iteratorIS2_ERbLb1EEEOT_OT0_, symObjAddr: 0xEE8, symBinAddr: 0x100004038, symSize: 0x54 }
  - { offsetInCU: 0xD261, offset: 0xD261, size: 0x8, addend: 0x0, symName: __ZNSt8_Rb_treeISt5tupleIJxxxEES1_St9_IdentityIS1_ESt4lessIS1_ESaIS1_EE8_S_rightEPSt18_Rb_tree_node_base, symObjAddr: 0xF3C, symBinAddr: 0x10000408C, symSize: 0x18 }
  - { offsetInCU: 0xD252, offset: 0xD252, size: 0x8, addend: 0x0, symName: __ZNSt8_Rb_treeISt5tupleIJxxxEES1_St9_IdentityIS1_ESt4lessIS1_ESaIS1_EE16_M_insert_uniqueIS1_EESt4pairISt17_Rb_tree_iteratorIS1_EbEOT_, symObjAddr: 0xE1C, symBinAddr: 0x100003F6C, symSize: 0xCC }
  - { offsetInCU: 0xD25A, offset: 0xD25A, size: 0x8, addend: 0x0, symName: __ZNSt4pairISt23_Rb_tree_const_iteratorISt5tupleIJxxxEEEbEC1IRSt17_Rb_tree_iteratorIS2_ERbLb1EEEOT_OT0_, symObjAddr: 0xEE8, symBinAddr: 0x100004038, symSize: 0x54 }
  - { offsetInCU: 0xD363, offset: 0xD363, size: 0x8, addend: 0x0, symName: __ZSt4moveIRSt5tupleIJxxxEEEONSt16remove_referenceIT_E4typeEOS4_, symObjAddr: 0xE08, symBinAddr: 0x100003F58, symSize: 0x14 }
  - { offsetInCU: 0xD36B, offset: 0xD36B, size: 0x8, addend: 0x0, symName: __ZNSt8_Rb_treeISt5tupleIJxxxEES1_St9_IdentityIS1_ESt4lessIS1_ESaIS1_EE16_M_insert_uniqueIS1_EESt4pairISt17_Rb_tree_iteratorIS1_EbEOT_, symObjAddr: 0xE1C, symBinAddr: 0x100003F6C, symSize: 0xCC }
  - { offsetInCU: 0xD376, offset: 0xD376, size: 0x8, addend: 0x0, symName: __ZSteqRKSt23_Rb_tree_const_iteratorISt5tupleIJxxxEEES4_, symObjAddr: 0xDD8, symBinAddr: 0x100003F28, symSize: 0x30 }
  - { offsetInCU: 0xD37E, offset: 0xD37E, size: 0x8, addend: 0x0, symName: __ZSt4moveIRSt5tupleIJxxxEEEONSt16remove_referenceIT_E4typeEOS4_, symObjAddr: 0xE08, symBinAddr: 0x100003F58, symSize: 0x14 }
  - { offsetInCU: 0xD391, offset: 0xD391, size: 0x8, addend: 0x0, symName: __ZNKSt8_Rb_treeISt5tupleIJxxxEES1_St9_IdentityIS1_ESt4lessIS1_ESaIS1_EE3endEv, symObjAddr: 0xDB0, symBinAddr: 0x100003F00, symSize: 0x28 }
  - { offsetInCU: 0xD399, offset: 0xD399, size: 0x8, addend: 0x0, symName: __ZSteqRKSt23_Rb_tree_const_iteratorISt5tupleIJxxxEEES4_, symObjAddr: 0xDD8, symBinAddr: 0x100003F28, symSize: 0x30 }
  - { offsetInCU: 0xD3C0, offset: 0xD3C0, size: 0x8, addend: 0x0, symName: __ZNKSt8_Rb_treeISt5tupleIJxxxEES1_St9_IdentityIS1_ESt4lessIS1_ESaIS1_EE4findERKS1_, symObjAddr: 0xD00, symBinAddr: 0x100003E50, symSize: 0xB0 }
  - { offsetInCU: 0xD3C8, offset: 0xD3C8, size: 0x8, addend: 0x0, symName: __ZNKSt8_Rb_treeISt5tupleIJxxxEES1_St9_IdentityIS1_ESt4lessIS1_ESaIS1_EE3endEv, symObjAddr: 0xDB0, symBinAddr: 0x100003F00, symSize: 0x28 }
  - { offsetInCU: 0xD4B0, offset: 0xD4B0, size: 0x8, addend: 0x0, symName: __ZNSt5tupleIJxxxEEC1IJRxS2_S2_ELb1ELb1EEEDpOT_, symObjAddr: 0xC94, symBinAddr: 0x100003DE4, symSize: 0x6C }
  - { offsetInCU: 0xD4B8, offset: 0xD4B8, size: 0x8, addend: 0x0, symName: __ZNKSt8_Rb_treeISt5tupleIJxxxEES1_St9_IdentityIS1_ESt4lessIS1_ESaIS1_EE4findERKS1_, symObjAddr: 0xD00, symBinAddr: 0x100003E50, symSize: 0xB0 }
  - { offsetInCU: 0xD55A, offset: 0xD55A, size: 0x8, addend: 0x0, symName: __ZSt7forwardIRxEOT_RNSt16remove_referenceIS1_E4typeE, symObjAddr: 0xC80, symBinAddr: 0x100003DD0, symSize: 0x14 }
  - { offsetInCU: 0xD562, offset: 0xD562, size: 0x8, addend: 0x0, symName: __ZNSt5tupleIJxxxEEC1IJRxS2_S2_ELb1ELb1EEEDpOT_, symObjAddr: 0xC94, symBinAddr: 0x100003DE4, symSize: 0x6C }
  - { offsetInCU: 0xD55D, offset: 0xD55D, size: 0x8, addend: 0x0, symName: __ZNK9__gnu_cxx17__normal_iteratorIPSt4pairIxxESt6vectorIS2_SaIS2_EEE4baseEv, symObjAddr: 0xC6C, symBinAddr: 0x100003DBC, symSize: 0x14 }
  - { offsetInCU: 0xD565, offset: 0xD565, size: 0x8, addend: 0x0, symName: __ZSt7forwardIRxEOT_RNSt16remove_referenceIS1_E4typeE, symObjAddr: 0xC80, symBinAddr: 0x100003DD0, symSize: 0x14 }
  - { offsetInCU: 0xD602, offset: 0xD602, size: 0x8, addend: 0x0, symName: __ZN9__gnu_cxx17__normal_iteratorIPSt4pairIxxESt6vectorIS2_SaIS2_EEEC1ERKS3_, symObjAddr: 0xC44, symBinAddr: 0x100003D94, symSize: 0x28 }
  - { offsetInCU: 0xD60A, offset: 0xD60A, size: 0x8, addend: 0x0, symName: __ZNK9__gnu_cxx17__normal_iteratorIPSt4pairIxxESt6vectorIS2_SaIS2_EEE4baseEv, symObjAddr: 0xC6C, symBinAddr: 0x100003DBC, symSize: 0x14 }
  - { offsetInCU: 0xD5F0, offset: 0xD5F0, size: 0x8, addend: 0x0, symName: __ZNSt6vectorISt4pairIxxESaIS1_EE15_M_erase_at_endEPS1_, symObjAddr: 0xBBC, symBinAddr: 0x100003D0C, symSize: 0x88 }
  - { offsetInCU: 0xD5F8, offset: 0xD5F8, size: 0x8, addend: 0x0, symName: __ZN9__gnu_cxx17__normal_iteratorIPSt4pairIxxESt6vectorIS2_SaIS2_EEEC1ERKS3_, symObjAddr: 0xC44, symBinAddr: 0x100003D94, symSize: 0x28 }
  - { offsetInCU: 0xD697, offset: 0xD697, size: 0x8, addend: 0x0, symName: __ZNSt6vectorISt4pairIxxESaIS1_EE17_M_default_appendEm, symObjAddr: 0x9BC, symBinAddr: 0x100003B0C, symSize: 0x200 }
  - { offsetInCU: 0xD69F, offset: 0xD69F, size: 0x8, addend: 0x0, symName: __ZNSt6vectorISt4pairIxxESaIS1_EE15_M_erase_at_endEPS1_, symObjAddr: 0xBBC, symBinAddr: 0x100003D0C, symSize: 0x88 }
  - { offsetInCU: 0xD776, offset: 0xD776, size: 0x8, addend: 0x0, symName: __ZNKSt6vectorISt4pairIxxESaIS1_EE4sizeEv, symObjAddr: 0x994, symBinAddr: 0x100003AE4, symSize: 0x28 }
  - { offsetInCU: 0xD77E, offset: 0xD77E, size: 0x8, addend: 0x0, symName: __ZNSt6vectorISt4pairIxxESaIS1_EE17_M_default_appendEm, symObjAddr: 0x9BC, symBinAddr: 0x100003B0C, symSize: 0x200 }
  - { offsetInCU: 0xD7A5, offset: 0xD7A5, size: 0x8, addend: 0x0, symName: __ZNSt8_Rb_treeISt5tupleIJxxxEES1_St9_IdentityIS1_ESt4lessIS1_ESaIS1_EE8_M_beginEv, symObjAddr: 0x978, symBinAddr: 0x100003AC8, symSize: 0x1C }
  - { offsetInCU: 0xD7AD, offset: 0xD7AD, size: 0x8, addend: 0x0, symName: __ZNKSt6vectorISt4pairIxxESaIS1_EE4sizeEv, symObjAddr: 0x994, symBinAddr: 0x100003AE4, symSize: 0x28 }
  - { offsetInCU: 0xD7D4, offset: 0xD7D4, size: 0x8, addend: 0x0, symName: __ZNSt8_Rb_treeISt5tupleIJxxxEES1_St9_IdentityIS1_ESt4lessIS1_ESaIS1_EE8_M_eraseEPSt13_Rb_tree_nodeIS1_E, symObjAddr: 0x914, symBinAddr: 0x100003A64, symSize: 0x64 }
  - { offsetInCU: 0xD7DC, offset: 0xD7DC, size: 0x8, addend: 0x0, symName: __ZNSt8_Rb_treeISt5tupleIJxxxEES1_St9_IdentityIS1_ESt4lessIS1_ESaIS1_EE8_M_beginEv, symObjAddr: 0x978, symBinAddr: 0x100003AC8, symSize: 0x1C }
  - { offsetInCU: 0xD8A3, offset: 0xD8A3, size: 0x8, addend: 0x0, symName: __ZNSt15__new_allocatorISt13_Rb_tree_nodeISt5tupleIJxxxEEEED2Ev, symObjAddr: 0x900, symBinAddr: 0x100003A50, symSize: 0x14 }
  - { offsetInCU: 0xD8AB, offset: 0xD8AB, size: 0x8, addend: 0x0, symName: __ZNSt8_Rb_treeISt5tupleIJxxxEES1_St9_IdentityIS1_ESt4lessIS1_ESaIS1_EE8_M_eraseEPSt13_Rb_tree_nodeIS1_E, symObjAddr: 0x914, symBinAddr: 0x100003A64, symSize: 0x64 }
  - { offsetInCU: 0xD8E5, offset: 0xD8E5, size: 0x8, addend: 0x0, symName: __ZNSt20_Rb_tree_key_compareISt4lessISt5tupleIJxxxEEEEC2Ev, symObjAddr: 0x8EC, symBinAddr: 0x100003A3C, symSize: 0x14 }
  - { offsetInCU: 0xD8ED, offset: 0xD8ED, size: 0x8, addend: 0x0, symName: __ZNSt15__new_allocatorISt13_Rb_tree_nodeISt5tupleIJxxxEEEED2Ev, symObjAddr: 0x900, symBinAddr: 0x100003A50, symSize: 0x14 }
  - { offsetInCU: 0xD8F2, offset: 0xD8F2, size: 0x8, addend: 0x0, symName: __ZNSt12_Vector_baseISt4pairIxxESaIS1_EE13_M_deallocateEPS1_m, symObjAddr: 0x894, symBinAddr: 0x1000039E4, symSize: 0x58 }
  - { offsetInCU: 0xD8FA, offset: 0xD8FA, size: 0x8, addend: 0x0, symName: __ZNSt20_Rb_tree_key_compareISt4lessISt5tupleIJxxxEEEEC2Ev, symObjAddr: 0x8EC, symBinAddr: 0x100003A3C, symSize: 0x14 }
  - { offsetInCU: 0xD9D6, offset: 0xD9D6, size: 0x8, addend: 0x0, symName: __ZNSt15__new_allocatorISt4pairIxxEED2Ev, symObjAddr: 0x880, symBinAddr: 0x1000039D0, symSize: 0x14 }
  - { offsetInCU: 0xD9DE, offset: 0xD9DE, size: 0x8, addend: 0x0, symName: __ZNSt12_Vector_baseISt4pairIxxESaIS1_EE13_M_deallocateEPS1_m, symObjAddr: 0x894, symBinAddr: 0x1000039E4, symSize: 0x58 }
  - { offsetInCU: 0xDA34, offset: 0xDA34, size: 0x8, addend: 0x0, symName: __ZNSt12_Vector_baseISt4pairIxxESaIS1_EE17_Vector_impl_dataC2Ev, symObjAddr: 0x854, symBinAddr: 0x1000039A4, symSize: 0x2C }
  - { offsetInCU: 0xDA3C, offset: 0xDA3C, size: 0x8, addend: 0x0, symName: __ZNSt15__new_allocatorISt4pairIxxEED2Ev, symObjAddr: 0x880, symBinAddr: 0x1000039D0, symSize: 0x14 }
  - { offsetInCU: 0xDA3C, offset: 0xDA3C, size: 0x8, addend: 0x0, symName: __ZNSt3setISt5tupleIJxxxEESt4lessIS1_ESaIS1_EE6insertEOS1_, symObjAddr: 0x800, symBinAddr: 0x100003950, symSize: 0x54 }
  - { offsetInCU: 0xDA44, offset: 0xDA44, size: 0x8, addend: 0x0, symName: __ZNSt12_Vector_baseISt4pairIxxESaIS1_EE17_Vector_impl_dataC2Ev, symObjAddr: 0x854, symBinAddr: 0x1000039A4, symSize: 0x2C }
  - { offsetInCU: 0xDA93, offset: 0xDA93, size: 0x8, addend: 0x0, symName: __ZNKSt3setISt5tupleIJxxxEESt4lessIS1_ESaIS1_EE5countERKS1_, symObjAddr: 0x7A4, symBinAddr: 0x1000038F4, symSize: 0x5C }
  - { offsetInCU: 0xDA9B, offset: 0xDA9B, size: 0x8, addend: 0x0, symName: __ZNSt3setISt5tupleIJxxxEESt4lessIS1_ESaIS1_EE6insertEOS1_, symObjAddr: 0x800, symBinAddr: 0x100003950, symSize: 0x54 }
  - { offsetInCU: 0xDB82, offset: 0xDB82, size: 0x8, addend: 0x0, symName: __ZSt10make_tupleIJRxS0_S0_EESt5tupleIJDpNSt25__strip_reference_wrapperINSt5decayIT_E4typeEE6__typeEEEDpOS4_, symObjAddr: 0x73C, symBinAddr: 0x10000388C, symSize: 0x68 }
  - { offsetInCU: 0xDB8A, offset: 0xDB8A, size: 0x8, addend: 0x0, symName: __ZNKSt3setISt5tupleIJxxxEESt4lessIS1_ESaIS1_EE5countERKS1_, symObjAddr: 0x7A4, symBinAddr: 0x1000038F4, symSize: 0x5C }
  - { offsetInCU: 0xDB4C, offset: 0xDB4C, size: 0x8, addend: 0x0, symName: __ZNSt6vectorISt4pairIxxESaIS1_EEixEm, symObjAddr: 0x714, symBinAddr: 0x100003864, symSize: 0x28 }
  - { offsetInCU: 0xDB54, offset: 0xDB54, size: 0x8, addend: 0x0, symName: __ZSt10make_tupleIJRxS0_S0_EESt5tupleIJDpNSt25__strip_reference_wrapperINSt5decayIT_E4typeEE6__typeEEEDpOS4_, symObjAddr: 0x73C, symBinAddr: 0x10000388C, symSize: 0x68 }
  - { offsetInCU: 0xDB8F, offset: 0xDB8F, size: 0x8, addend: 0x0, symName: __ZNK9__gnu_cxx17__normal_iteratorIPSt4pairIxxESt6vectorIS2_SaIS2_EEEdeEv, symObjAddr: 0x6FC, symBinAddr: 0x10000384C, symSize: 0x18 }
  - { offsetInCU: 0xDB97, offset: 0xDB97, size: 0x8, addend: 0x0, symName: __ZNSt6vectorISt4pairIxxESaIS1_EEixEm, symObjAddr: 0x714, symBinAddr: 0x100003864, symSize: 0x28 }
  - { offsetInCU: 0xDBBE, offset: 0xDBBE, size: 0x8, addend: 0x0, symName: __ZN9__gnu_cxx17__normal_iteratorIPSt4pairIxxESt6vectorIS2_SaIS2_EEEppEv, symObjAddr: 0x6D4, symBinAddr: 0x100003824, symSize: 0x28 }
  - { offsetInCU: 0xDBC6, offset: 0xDBC6, size: 0x8, addend: 0x0, symName: __ZNK9__gnu_cxx17__normal_iteratorIPSt4pairIxxESt6vectorIS2_SaIS2_EEEdeEv, symObjAddr: 0x6FC, symBinAddr: 0x10000384C, symSize: 0x18 }
  - { offsetInCU: 0xDCB7, offset: 0xDCB7, size: 0x8, addend: 0x0, symName: __ZN9__gnu_cxxneIPSt4pairIxxESt6vectorIS2_SaIS2_EEEEbRKNS_17__normal_iteratorIT_T0_EESC_, symObjAddr: 0x690, symBinAddr: 0x1000037E0, symSize: 0x44 }
  - { offsetInCU: 0xDCBF, offset: 0xDCBF, size: 0x8, addend: 0x0, symName: __ZN9__gnu_cxx17__normal_iteratorIPSt4pairIxxESt6vectorIS2_SaIS2_EEEppEv, symObjAddr: 0x6D4, symBinAddr: 0x100003824, symSize: 0x28 }
  - { offsetInCU: 0xDC64, offset: 0xDC64, size: 0x8, addend: 0x0, symName: __ZNSt6vectorISt4pairIxxESaIS1_EE3endEv, symObjAddr: 0x668, symBinAddr: 0x1000037B8, symSize: 0x28 }
  - { offsetInCU: 0xDC6C, offset: 0xDC6C, size: 0x8, addend: 0x0, symName: __ZN9__gnu_cxxneIPSt4pairIxxESt6vectorIS2_SaIS2_EEEEbRKNS_17__normal_iteratorIT_T0_EESC_, symObjAddr: 0x690, symBinAddr: 0x1000037E0, symSize: 0x44 }
  - { offsetInCU: 0xDC93, offset: 0xDC93, size: 0x8, addend: 0x0, symName: __ZNSt6vectorISt4pairIxxESaIS1_EE5beginEv, symObjAddr: 0x644, symBinAddr: 0x100003794, symSize: 0x24 }
  - { offsetInCU: 0xDC9B, offset: 0xDC9B, size: 0x8, addend: 0x0, symName: __ZNSt6vectorISt4pairIxxESaIS1_EE3endEv, symObjAddr: 0x668, symBinAddr: 0x1000037B8, symSize: 0x28 }
  - { offsetInCU: 0xDCC2, offset: 0xDCC2, size: 0x8, addend: 0x0, symName: __ZNSt6vectorISt4pairIxxESaIS1_EE6resizeEm, symObjAddr: 0x594, symBinAddr: 0x1000036E4, symSize: 0xB0 }
  - { offsetInCU: 0xDCCA, offset: 0xDCCA, size: 0x8, addend: 0x0, symName: __ZNSt6vectorISt4pairIxxESaIS1_EE5beginEv, symObjAddr: 0x644, symBinAddr: 0x100003794, symSize: 0x24 }
  - { offsetInCU: 0xDD77, offset: 0xDD77, size: 0x8, addend: 0x0, symName: __ZNSt8_Rb_treeISt5tupleIJxxxEES1_St9_IdentityIS1_ESt4lessIS1_ESaIS1_EED1Ev, symObjAddr: 0x560, symBinAddr: 0x1000036B0, symSize: 0x34 }
  - { offsetInCU: 0xDD7F, offset: 0xDD7F, size: 0x8, addend: 0x0, symName: __ZNSt6vectorISt4pairIxxESaIS1_EE6resizeEm, symObjAddr: 0x594, symBinAddr: 0x1000036E4, symSize: 0xB0 }
  - { offsetInCU: 0xDDFD, offset: 0xDDFD, size: 0x8, addend: 0x0, symName: __ZNSt8_Rb_treeISt5tupleIJxxxEES1_St9_IdentityIS1_ESt4lessIS1_ESaIS1_EE13_Rb_tree_implIS5_Lb1EEC1Ev, symObjAddr: 0x51C, symBinAddr: 0x10000366C, symSize: 0x44 }
  - { offsetInCU: 0xDE05, offset: 0xDE05, size: 0x8, addend: 0x0, symName: __ZNSt8_Rb_treeISt5tupleIJxxxEES1_St9_IdentityIS1_ESt4lessIS1_ESaIS1_EED1Ev, symObjAddr: 0x560, symBinAddr: 0x1000036B0, symSize: 0x34 }
  - { offsetInCU: 0xDE67, offset: 0xDE67, size: 0x8, addend: 0x0, symName: __ZNSt12_Vector_baseISt4pairIxxESaIS1_EED2Ev, symObjAddr: 0x4CC, symBinAddr: 0x10000361C, symSize: 0x50 }
  - { offsetInCU: 0xDE6F, offset: 0xDE6F, size: 0x8, addend: 0x0, symName: __ZNSt8_Rb_treeISt5tupleIJxxxEES1_St9_IdentityIS1_ESt4lessIS1_ESaIS1_EE13_Rb_tree_implIS5_Lb1EEC1Ev, symObjAddr: 0x51C, symBinAddr: 0x10000366C, symSize: 0x44 }
  - { offsetInCU: 0xDEE3, offset: 0xDEE3, size: 0x8, addend: 0x0, symName: __ZNSt12_Vector_baseISt4pairIxxESaIS1_EE12_Vector_implC1Ev, symObjAddr: 0x494, symBinAddr: 0x1000035E4, symSize: 0x38 }
  - { offsetInCU: 0xDEEB, offset: 0xDEEB, size: 0x8, addend: 0x0, symName: __ZNSt12_Vector_baseISt4pairIxxESaIS1_EED2Ev, symObjAddr: 0x4CC, symBinAddr: 0x10000361C, symSize: 0x50 }
  - { offsetInCU: 0xDF2D, offset: 0xDF2D, size: 0x8, addend: 0x0, symName: _main, symObjAddr: 0x154, symBinAddr: 0x1000032A4, symSize: 0x340 }
  - { offsetInCU: 0xDF35, offset: 0xDF35, size: 0x8, addend: 0x0, symName: __ZNSt12_Vector_baseISt4pairIxxESaIS1_EE12_Vector_implC1Ev, symObjAddr: 0x494, symBinAddr: 0x1000035E4, symSize: 0x38 }
  - { offsetInCU: 0xE077, offset: 0xE077, size: 0x8, addend: 0x0, symName: __ZNSt3setISt5tupleIJxxxEESt4lessIS1_ESaIS1_EEC1Ev, symObjAddr: 0x134, symBinAddr: 0x100003284, symSize: 0x20 }
  - { offsetInCU: 0xE07F, offset: 0xE07F, size: 0x8, addend: 0x0, symName: _main, symObjAddr: 0x154, symBinAddr: 0x1000032A4, symSize: 0x340 }
  - { offsetInCU: 0xE0D7, offset: 0xE0D7, size: 0x8, addend: 0x0, symName: __ZNSt8_Rb_treeISt5tupleIJxxxEES1_St9_IdentityIS1_ESt4lessIS1_ESaIS1_EEC1Ev, symObjAddr: 0x114, symBinAddr: 0x100003264, symSize: 0x20 }
  - { offsetInCU: 0xE0DF, offset: 0xE0DF, size: 0x8, addend: 0x0, symName: __ZNSt3setISt5tupleIJxxxEESt4lessIS1_ESaIS1_EEC1Ev, symObjAddr: 0x134, symBinAddr: 0x100003284, symSize: 0x20 }
  - { offsetInCU: 0xE148, offset: 0xE148, size: 0x8, addend: 0x0, symName: __ZNSt8_Rb_treeISt5tupleIJxxxEES1_St9_IdentityIS1_ESt4lessIS1_ESaIS1_EE13_Rb_tree_implIS5_Lb1EED1Ev, symObjAddr: 0xE8, symBinAddr: 0x100003238, symSize: 0x2C }
  - { offsetInCU: 0xE150, offset: 0xE150, size: 0x8, addend: 0x0, symName: __ZNSt8_Rb_treeISt5tupleIJxxxEES1_St9_IdentityIS1_ESt4lessIS1_ESaIS1_EEC1Ev, symObjAddr: 0x114, symBinAddr: 0x100003264, symSize: 0x20 }
  - { offsetInCU: 0xE177, offset: 0xE177, size: 0x8, addend: 0x0, symName: __ZNSt6vectorISt4pairIxxESaIS1_EEC1Ev, symObjAddr: 0xC8, symBinAddr: 0x100003218, symSize: 0x20 }
  - { offsetInCU: 0xE17F, offset: 0xE17F, size: 0x8, addend: 0x0, symName: __ZNSt8_Rb_treeISt5tupleIJxxxEES1_St9_IdentityIS1_ESt4lessIS1_ESaIS1_EE13_Rb_tree_implIS5_Lb1EED1Ev, symObjAddr: 0xE8, symBinAddr: 0x100003238, symSize: 0x2C }
  - { offsetInCU: 0xE1C5, offset: 0xE1C5, size: 0x8, addend: 0x0, symName: __ZNSt12_Vector_baseISt4pairIxxESaIS1_EEC2Ev, symObjAddr: 0xA8, symBinAddr: 0x1000031F8, symSize: 0x20 }
  - { offsetInCU: 0xE1CD, offset: 0xE1CD, size: 0x8, addend: 0x0, symName: __ZNSt6vectorISt4pairIxxESaIS1_EEC1Ev, symObjAddr: 0xC8, symBinAddr: 0x100003218, symSize: 0x20 }
  - { offsetInCU: 0xE22B, offset: 0xE22B, size: 0x8, addend: 0x0, symName: __ZNSt12_Vector_baseISt4pairIxxESaIS1_EE12_Vector_implD1Ev, symObjAddr: 0x7C, symBinAddr: 0x1000031CC, symSize: 0x2C }
  - { offsetInCU: 0xE233, offset: 0xE233, size: 0x8, addend: 0x0, symName: __ZNSt12_Vector_baseISt4pairIxxESaIS1_EEC2Ev, symObjAddr: 0xA8, symBinAddr: 0x1000031F8, symSize: 0x20 }
  - { offsetInCU: 0xE245, offset: 0xE245, size: 0x8, addend: 0x0, symName: __ZNSt15_Rb_tree_header8_M_resetEv, symObjAddr: 0x40, symBinAddr: 0x100003190, symSize: 0x3C }
  - { offsetInCU: 0xE24D, offset: 0xE24D, size: 0x8, addend: 0x0, symName: __ZNSt12_Vector_baseISt4pairIxxESaIS1_EE12_Vector_implD1Ev, symObjAddr: 0x7C, symBinAddr: 0x1000031CC, symSize: 0x2C }
  - { offsetInCU: 0xE2A8, offset: 0xE2A8, size: 0x8, addend: 0x0, symName: __ZNSt15_Rb_tree_headerC2Ev, symObjAddr: 0x18, symBinAddr: 0x100003168, symSize: 0x28 }
  - { offsetInCU: 0xE2B0, offset: 0xE2B0, size: 0x8, addend: 0x0, symName: __ZNSt15_Rb_tree_header8_M_resetEv, symObjAddr: 0x40, symBinAddr: 0x100003190, symSize: 0x3C }
  - { offsetInCU: 0xE2CC, offset: 0xE2CC, size: 0x8, addend: 0x0, symName: __ZnwmPv, symObjAddr: 0x0, symBinAddr: 0x100003150, symSize: 0x18 }
  - { offsetInCU: 0xE2D4, offset: 0xE2D4, size: 0x8, addend: 0x0, symName: __ZNSt15_Rb_tree_headerC2Ev, symObjAddr: 0x18, symBinAddr: 0x100003168, symSize: 0x28 }
...
