---
triple:          'arm64-apple-darwin'
binary-path:     '/Users/dingkai/Code/IOI2024/cses/SortingAndSearch/Movie Festival II.gout'
relocations:
  - { offsetInCU: 0xC6, offset: 0xC6, size: 0x8, addend: 0x0, symName: __ZN9__gnu_cxx5__ops16__iter_less_iterEv, symObjAddr: 0x0, symBinAddr: 0x1000016B4, symSize: 0x8 }
  - { offsetInCU: 0xCE, offset: 0xCE, size: 0x8, addend: 0x0, symName: __ZL3FIN, symObjAddr: 0x39AC, symBinAddr: 0x10000591C, symSize: 0x0 }
  - { offsetInCU: 0x3863, offset: 0x3863, size: 0x8, addend: 0x0, symName: __ZStL8__ioinit, symObjAddr: 0x32210, symBinAddr: 0x10000C040, symSize: 0x0 }
  - { offsetInCU: 0x52AC, offset: 0x52AC, size: 0x8, addend: 0x0, symName: _movie, symObjAddr: 0x32218, symBinAddr: 0x10000C048, symSize: 0x0 }
  - { offsetInCU: 0x70F0, offset: 0x70F0, size: 0x8, addend: 0x0, symName: _memberFinTime, symObjAddr: 0x32230, symBinAddr: 0x10000C060, symSize: 0x0 }
  - { offsetInCU: 0x7100, offset: 0x7100, size: 0x8, addend: 0x0, symName: __ZL3FIN, symObjAddr: 0x39AC, symBinAddr: 0x10000591C, symSize: 0x0 }
  - { offsetInCU: 0x711C, offset: 0x711C, size: 0x8, addend: 0x0, symName: __ZL5START, symObjAddr: 0x39B0, symBinAddr: 0x100005920, symSize: 0x0 }
  - { offsetInCU: 0x86F2, offset: 0x86F2, size: 0x8, addend: 0x0, symName: __ZNSt8__detail30__integer_to_chars_is_unsignedIjEE, symObjAddr: 0x39B4, symBinAddr: 0x100005924, symSize: 0x0 }
  - { offsetInCU: 0x870C, offset: 0x870C, size: 0x8, addend: 0x0, symName: __ZNSt8__detail30__integer_to_chars_is_unsignedImEE, symObjAddr: 0x39B5, symBinAddr: 0x100005925, symSize: 0x0 }
  - { offsetInCU: 0x8726, offset: 0x8726, size: 0x8, addend: 0x0, symName: __ZNSt8__detail30__integer_to_chars_is_unsignedIyEE, symObjAddr: 0x39B6, symBinAddr: 0x100005926, symSize: 0x0 }
  - { offsetInCU: 0x8759, offset: 0x8759, size: 0x8, addend: 0x0, symName: __GLOBAL__sub_I_Movie_Festival_II.cpp, symObjAddr: 0x3998, symBinAddr: 0x10000504C, symSize: 0x14 }
  - { offsetInCU: 0x8761, offset: 0x8761, size: 0x8, addend: 0x0, symName: __ZL3FIN, symObjAddr: 0x39AC, symBinAddr: 0x10000591C, symSize: 0x0 }
  - { offsetInCU: 0x87A1, offset: 0x87A1, size: 0x8, addend: 0x0, symName: __ZNSt6vectorISt5arrayIiLm2EESaIS1_EED1Ev, symObjAddr: 0x393C, symBinAddr: 0x100004FF0, symSize: 0x5C }
  - { offsetInCU: 0x87A9, offset: 0x87A9, size: 0x8, addend: 0x0, symName: __GLOBAL__sub_I_Movie_Festival_II.cpp, symObjAddr: 0x3998, symBinAddr: 0x10000504C, symSize: 0x14 }
  - { offsetInCU: 0x880B, offset: 0x880B, size: 0x8, addend: 0x0, symName: __Z41__static_initialization_and_destruction_0v, symObjAddr: 0x38B0, symBinAddr: 0x100004F64, symSize: 0x8C }
  - { offsetInCU: 0x8813, offset: 0x8813, size: 0x8, addend: 0x0, symName: __ZNSt6vectorISt5arrayIiLm2EESaIS1_EED1Ev, symObjAddr: 0x393C, symBinAddr: 0x100004FF0, symSize: 0x5C }
  - { offsetInCU: 0x8864, offset: 0x8864, size: 0x8, addend: 0x0, symName: __ZNSt14priority_queueIiSt6vectorIiSaIiEESt7greaterIiEED1Ev, symObjAddr: 0x3890, symBinAddr: 0x100004F44, symSize: 0x20 }
  - { offsetInCU: 0x886C, offset: 0x886C, size: 0x8, addend: 0x0, symName: __Z41__static_initialization_and_destruction_0v, symObjAddr: 0x38B0, symBinAddr: 0x100004F64, symSize: 0x8C }
  - { offsetInCU: 0x886A, offset: 0x886A, size: 0x8, addend: 0x0, symName: __ZNK9__gnu_cxx5__ops15_Iter_less_iterclIPKiS4_EEbT_T0_, symObjAddr: 0x385C, symBinAddr: 0x100004F10, symSize: 0x34 }
  - { offsetInCU: 0x8872, offset: 0x8872, size: 0x8, addend: 0x0, symName: __ZNSt14priority_queueIiSt6vectorIiSaIiEESt7greaterIiEED1Ev, symObjAddr: 0x3890, symBinAddr: 0x100004F44, symSize: 0x20 }
  - { offsetInCU: 0x88D9, offset: 0x88D9, size: 0x8, addend: 0x0, symName: __ZNSt8__lc_raiISt26random_access_iterator_tagS0_E6__cnd2IPKiEEbT_S5_, symObjAddr: 0x3844, symBinAddr: 0x100004EF8, symSize: 0x18 }
  - { offsetInCU: 0x88E1, offset: 0x88E1, size: 0x8, addend: 0x0, symName: __ZNK9__gnu_cxx5__ops15_Iter_less_iterclIPKiS4_EEbT_T0_, symObjAddr: 0x385C, symBinAddr: 0x100004F10, symSize: 0x34 }
  - { offsetInCU: 0x891C, offset: 0x891C, size: 0x8, addend: 0x0, symName: __ZNSt8__lc_raiISt26random_access_iterator_tagS0_E10__newlast1IPKiS4_EET_S5_S5_T0_S6_, symObjAddr: 0x37D8, symBinAddr: 0x100004E8C, symSize: 0x6C }
  - { offsetInCU: 0x8924, offset: 0x8924, size: 0x8, addend: 0x0, symName: __ZNSt8__lc_raiISt26random_access_iterator_tagS0_E6__cnd2IPKiEEbT_S5_, symObjAddr: 0x3844, symBinAddr: 0x100004EF8, symSize: 0x18 }
  - { offsetInCU: 0x8A8A, offset: 0x8A8A, size: 0x8, addend: 0x0, symName: __ZSt30__lexicographical_compare_implIPKiS1_N9__gnu_cxx5__ops15_Iter_less_iterEEbT_S5_T0_S6_T1_, symObjAddr: 0x36BC, symBinAddr: 0x100004D70, symSize: 0x11C }
  - { offsetInCU: 0x8A92, offset: 0x8A92, size: 0x8, addend: 0x0, symName: __ZNSt8__lc_raiISt26random_access_iterator_tagS0_E10__newlast1IPKiS4_EET_S5_S5_T0_S6_, symObjAddr: 0x37D8, symBinAddr: 0x100004E8C, symSize: 0x6C }
  - { offsetInCU: 0x8B28, offset: 0x8B28, size: 0x8, addend: 0x0, symName: __ZSt4swapIiENSt9enable_ifIXsrSt6__and_IJSt6__not_ISt15__is_tuple_likeIT_EESt21is_move_constructibleIS4_ESt18is_move_assignableIS4_EEE5valueEvE4typeERS4_SE_, symObjAddr: 0x3668, symBinAddr: 0x100004D1C, symSize: 0x54 }
  - { offsetInCU: 0x8B30, offset: 0x8B30, size: 0x8, addend: 0x0, symName: __ZSt30__lexicographical_compare_implIPKiS1_N9__gnu_cxx5__ops15_Iter_less_iterEEbT_S5_T0_S6_T1_, symObjAddr: 0x36BC, symBinAddr: 0x100004D70, symSize: 0x11C }
  - { offsetInCU: 0x8AEA, offset: 0x8AEA, size: 0x8, addend: 0x0, symName: __ZNSt11__copy_moveILb1ELb0ESt26random_access_iterator_tagE12__assign_oneISt5arrayIiLm2EES4_EEvPT_PT0_, symObjAddr: 0x3634, symBinAddr: 0x100004CE8, symSize: 0x34 }
  - { offsetInCU: 0x8AF2, offset: 0x8AF2, size: 0x8, addend: 0x0, symName: __ZSt4swapIiENSt9enable_ifIXsrSt6__and_IJSt6__not_ISt15__is_tuple_likeIT_EESt21is_move_constructibleIS4_ESt18is_move_assignableIS4_EEE5valueEvE4typeERS4_SE_, symObjAddr: 0x3668, symBinAddr: 0x100004D1C, symSize: 0x54 }
  - { offsetInCU: 0x8B4A, offset: 0x8B4A, size: 0x8, addend: 0x0, symName: __ZNSt25__lexicographical_compareILb0EE4__lcIPKiS3_EEbT_S4_T0_S5_, symObjAddr: 0x35EC, symBinAddr: 0x100004CA0, symSize: 0x48 }
  - { offsetInCU: 0x8B52, offset: 0x8B52, size: 0x8, addend: 0x0, symName: __ZNSt11__copy_moveILb1ELb0ESt26random_access_iterator_tagE12__assign_oneISt5arrayIiLm2EES4_EEvPT_PT0_, symObjAddr: 0x3634, symBinAddr: 0x100004CE8, symSize: 0x34 }
  - { offsetInCU: 0x8C04, offset: 0x8C04, size: 0x8, addend: 0x0, symName: __ZSt9iter_swapIPiS0_EvT_T0_, symObjAddr: 0x35C4, symBinAddr: 0x100004C78, symSize: 0x28 }
  - { offsetInCU: 0x8C0C, offset: 0x8C0C, size: 0x8, addend: 0x0, symName: __ZNSt25__lexicographical_compareILb0EE4__lcIPKiS3_EEbT_S4_T0_S5_, symObjAddr: 0x35EC, symBinAddr: 0x100004CA0, symSize: 0x48 }
  - { offsetInCU: 0x8C4D, offset: 0x8C4D, size: 0x8, addend: 0x0, symName: __ZNSt20__copy_move_backwardILb1ELb1ESt26random_access_iterator_tagE13__copy_move_bISt5arrayIiLm2EES4_EEPT0_PT_S8_S6_, symObjAddr: 0x3518, symBinAddr: 0x100004BCC, symSize: 0xAC }
  - { offsetInCU: 0x8C55, offset: 0x8C55, size: 0x8, addend: 0x0, symName: __ZSt9iter_swapIPiS0_EvT_T0_, symObjAddr: 0x35C4, symBinAddr: 0x100004C78, symSize: 0x28 }
  - { offsetInCU: 0x8D4A, offset: 0x8D4A, size: 0x8, addend: 0x0, symName: __ZSt30__lexicographical_compare_aux1IPKiS1_EbT_S2_T0_S3_, symObjAddr: 0x34DC, symBinAddr: 0x100004B90, symSize: 0x3C }
  - { offsetInCU: 0x8D52, offset: 0x8D52, size: 0x8, addend: 0x0, symName: __ZNSt20__copy_move_backwardILb1ELb1ESt26random_access_iterator_tagE13__copy_move_bISt5arrayIiLm2EES4_EEPT0_PT_S8_S6_, symObjAddr: 0x3518, symBinAddr: 0x100004BCC, symSize: 0xAC }
  - { offsetInCU: 0x8DB9, offset: 0x8DB9, size: 0x8, addend: 0x0, symName: __ZSt12__niter_baseIPKiET_S2_, symObjAddr: 0x34C8, symBinAddr: 0x100004B7C, symSize: 0x14 }
  - { offsetInCU: 0x8DC1, offset: 0x8DC1, size: 0x8, addend: 0x0, symName: __ZSt30__lexicographical_compare_aux1IPKiS1_EbT_S2_T0_S3_, symObjAddr: 0x34DC, symBinAddr: 0x100004B90, symSize: 0x3C }
  - { offsetInCU: 0x8E0A, offset: 0x8E0A, size: 0x8, addend: 0x0, symName: __ZSt11swap_rangesIPiS0_ET0_T_S2_S1_, symObjAddr: 0x3470, symBinAddr: 0x100004B24, symSize: 0x58 }
  - { offsetInCU: 0x8E12, offset: 0x8E12, size: 0x8, addend: 0x0, symName: __ZSt12__niter_baseIPKiET_S2_, symObjAddr: 0x34C8, symBinAddr: 0x100004B7C, symSize: 0x14 }
  - { offsetInCU: 0x8E47, offset: 0x8E47, size: 0x8, addend: 0x0, symName: __ZNSt5arrayIiLm2EE3endEv, symObjAddr: 0x3450, symBinAddr: 0x100004B04, symSize: 0x20 }
  - { offsetInCU: 0x8E4F, offset: 0x8E4F, size: 0x8, addend: 0x0, symName: __ZSt11swap_rangesIPiS0_ET0_T_S2_S1_, symObjAddr: 0x3470, symBinAddr: 0x100004B24, symSize: 0x58 }
  - { offsetInCU: 0x8E9C, offset: 0x8E9C, size: 0x8, addend: 0x0, symName: __ZNSt5arrayIiLm2EE5beginEv, symObjAddr: 0x3434, symBinAddr: 0x100004AE8, symSize: 0x1C }
  - { offsetInCU: 0x8EA4, offset: 0x8EA4, size: 0x8, addend: 0x0, symName: __ZNSt5arrayIiLm2EE3endEv, symObjAddr: 0x3450, symBinAddr: 0x100004B04, symSize: 0x20 }
  - { offsetInCU: 0x8F04, offset: 0x8F04, size: 0x8, addend: 0x0, symName: __ZNK9__gnu_cxx5__ops14_Iter_less_valclINS_17__normal_iteratorIPSt5arrayIiLm2EESt6vectorIS5_SaIS5_EEEES5_EEbT_RT0_, symObjAddr: 0x3404, symBinAddr: 0x100004AB8, symSize: 0x30 }
  - { offsetInCU: 0x8F0C, offset: 0x8F0C, size: 0x8, addend: 0x0, symName: __ZNSt5arrayIiLm2EE5beginEv, symObjAddr: 0x3434, symBinAddr: 0x100004AE8, symSize: 0x1C }
  - { offsetInCU: 0x901B, offset: 0x901B, size: 0x8, addend: 0x0, symName: __ZSt9__fill_a1IPSt5arrayIiLm2EES1_EN9__gnu_cxx11__enable_ifIXntsrSt11__is_scalarIT0_E7__valueEvE6__typeET_SA_RKS6_, symObjAddr: 0x33B4, symBinAddr: 0x100004A68, symSize: 0x50 }
  - { offsetInCU: 0x9023, offset: 0x9023, size: 0x8, addend: 0x0, symName: __ZNK9__gnu_cxx5__ops14_Iter_less_valclINS_17__normal_iteratorIPSt5arrayIiLm2EESt6vectorIS5_SaIS5_EEEES5_EEbT_RT0_, symObjAddr: 0x3404, symBinAddr: 0x100004AB8, symSize: 0x30 }
  - { offsetInCU: 0x9095, offset: 0x9095, size: 0x8, addend: 0x0, symName: __ZSt23__copy_move_backward_a2ILb1EPSt5arrayIiLm2EES2_ET1_T0_S4_S3_, symObjAddr: 0x3388, symBinAddr: 0x100004A3C, symSize: 0x2C }
  - { offsetInCU: 0x909D, offset: 0x909D, size: 0x8, addend: 0x0, symName: __ZSt9__fill_a1IPSt5arrayIiLm2EES1_EN9__gnu_cxx11__enable_ifIXntsrSt11__is_scalarIT0_E7__valueEvE6__typeET_SA_RKS6_, symObjAddr: 0x33B4, symBinAddr: 0x100004A68, symSize: 0x50 }
  - { offsetInCU: 0x9107, offset: 0x9107, size: 0x8, addend: 0x0, symName: __ZSt29__lexicographical_compare_auxIPKiS1_EbT_S2_T0_S3_, symObjAddr: 0x3314, symBinAddr: 0x1000049C8, symSize: 0x74 }
  - { offsetInCU: 0x910F, offset: 0x910F, size: 0x8, addend: 0x0, symName: __ZSt23__copy_move_backward_a2ILb1EPSt5arrayIiLm2EES2_ET1_T0_S4_S3_, symObjAddr: 0x3388, symBinAddr: 0x100004A3C, symSize: 0x2C }
  - { offsetInCU: 0x9129, offset: 0x9129, size: 0x8, addend: 0x0, symName: __ZNKSt5arrayIiLm2EE4dataEv, symObjAddr: 0x3300, symBinAddr: 0x1000049B4, symSize: 0x14 }
  - { offsetInCU: 0x9131, offset: 0x9131, size: 0x8, addend: 0x0, symName: __ZSt29__lexicographical_compare_auxIPKiS1_EbT_S2_T0_S3_, symObjAddr: 0x3314, symBinAddr: 0x1000049C8, symSize: 0x74 }
  - { offsetInCU: 0x9158, offset: 0x9158, size: 0x8, addend: 0x0, symName: __ZNSt5arrayIiLm2EE4swapERS0_, symObjAddr: 0x32AC, symBinAddr: 0x100004960, symSize: 0x54 }
  - { offsetInCU: 0x9160, offset: 0x9160, size: 0x8, addend: 0x0, symName: __ZNKSt5arrayIiLm2EE4dataEv, symObjAddr: 0x3300, symBinAddr: 0x1000049B4, symSize: 0x14 }
  - { offsetInCU: 0x92C5, offset: 0x92C5, size: 0x8, addend: 0x0, symName: __ZSt11__push_heapIN9__gnu_cxx17__normal_iteratorIPSt5arrayIiLm2EESt6vectorIS3_SaIS3_EEEElS3_NS0_5__ops14_Iter_less_valEEvT_T0_SC_T1_RT2_, symObjAddr: 0x3174, symBinAddr: 0x100004828, symSize: 0x138 }
  - { offsetInCU: 0x92CD, offset: 0x92CD, size: 0x8, addend: 0x0, symName: __ZNSt5arrayIiLm2EE4swapERS0_, symObjAddr: 0x32AC, symBinAddr: 0x100004960, symSize: 0x54 }
  - { offsetInCU: 0x92EE, offset: 0x92EE, size: 0x8, addend: 0x0, symName: __ZSt4moveIRN9__gnu_cxx5__ops15_Iter_less_iterEEONSt16remove_referenceIT_E4typeEOS5_, symObjAddr: 0x3160, symBinAddr: 0x100004814, symSize: 0x14 }
  - { offsetInCU: 0x92F6, offset: 0x92F6, size: 0x8, addend: 0x0, symName: __ZSt11__push_heapIN9__gnu_cxx17__normal_iteratorIPSt5arrayIiLm2EESt6vectorIS3_SaIS3_EEEElS3_NS0_5__ops14_Iter_less_valEEvT_T0_SC_T1_RT2_, symObjAddr: 0x3174, symBinAddr: 0x100004828, symSize: 0x138 }
  - { offsetInCU: 0x932D, offset: 0x932D, size: 0x8, addend: 0x0, symName: __ZSt8__fill_aIPSt5arrayIiLm2EES1_EvT_S3_RKT0_, symObjAddr: 0x3130, symBinAddr: 0x1000047E4, symSize: 0x30 }
  - { offsetInCU: 0x9335, offset: 0x9335, size: 0x8, addend: 0x0, symName: __ZSt4moveIRN9__gnu_cxx5__ops15_Iter_less_iterEEONSt16remove_referenceIT_E4typeEOS5_, symObjAddr: 0x3160, symBinAddr: 0x100004814, symSize: 0x14 }
  - { offsetInCU: 0x945C, offset: 0x945C, size: 0x8, addend: 0x0, symName: __ZSt12__niter_wrapIN9__gnu_cxx17__normal_iteratorIPSt5arrayIiLm2EESt6vectorIS3_SaIS3_EEEES4_ET_S9_T0_, symObjAddr: 0x30F4, symBinAddr: 0x1000047A8, symSize: 0x3C }
  - { offsetInCU: 0x9464, offset: 0x9464, size: 0x8, addend: 0x0, symName: __ZSt8__fill_aIPSt5arrayIiLm2EES1_EvT_S3_RKT0_, symObjAddr: 0x3130, symBinAddr: 0x1000047E4, symSize: 0x30 }
  - { offsetInCU: 0x9476, offset: 0x9476, size: 0x8, addend: 0x0, symName: __ZSt23__copy_move_backward_a1ILb1EPSt5arrayIiLm2EES2_ET1_T0_S4_S3_, symObjAddr: 0x30C8, symBinAddr: 0x10000477C, symSize: 0x2C }
  - { offsetInCU: 0x947E, offset: 0x947E, size: 0x8, addend: 0x0, symName: __ZSt12__niter_wrapIN9__gnu_cxx17__normal_iteratorIPSt5arrayIiLm2EESt6vectorIS3_SaIS3_EEEES4_ET_S9_T0_, symObjAddr: 0x30F4, symBinAddr: 0x1000047A8, symSize: 0x3C }
  - { offsetInCU: 0x9522, offset: 0x9522, size: 0x8, addend: 0x0, symName: __ZSt12__niter_baseIPSt5arrayIiLm2EESt6vectorIS1_SaIS1_EEET_N9__gnu_cxx17__normal_iteratorIS6_T0_EE, symObjAddr: 0x30A8, symBinAddr: 0x10000475C, symSize: 0x20 }
  - { offsetInCU: 0x952A, offset: 0x952A, size: 0x8, addend: 0x0, symName: __ZSt23__copy_move_backward_a1ILb1EPSt5arrayIiLm2EES2_ET1_T0_S4_S3_, symObjAddr: 0x30C8, symBinAddr: 0x10000477C, symSize: 0x2C }
  - { offsetInCU: 0x9535, offset: 0x9535, size: 0x8, addend: 0x0, symName: __ZSt23lexicographical_compareIPKiS1_EbT_S2_T0_S3_, symObjAddr: 0x3070, symBinAddr: 0x100004724, symSize: 0x38 }
  - { offsetInCU: 0x953D, offset: 0x953D, size: 0x8, addend: 0x0, symName: __ZSt12__niter_baseIPSt5arrayIiLm2EESt6vectorIS1_SaIS1_EEET_N9__gnu_cxx17__normal_iteratorIS6_T0_EE, symObjAddr: 0x30A8, symBinAddr: 0x10000475C, symSize: 0x20 }
  - { offsetInCU: 0x9563, offset: 0x9563, size: 0x8, addend: 0x0, symName: __ZNKSt5arrayIiLm2EE3endEv, symObjAddr: 0x3050, symBinAddr: 0x100004704, symSize: 0x20 }
  - { offsetInCU: 0x956B, offset: 0x956B, size: 0x8, addend: 0x0, symName: __ZSt23lexicographical_compareIPKiS1_EbT_S2_T0_S3_, symObjAddr: 0x3070, symBinAddr: 0x100004724, symSize: 0x38 }
  - { offsetInCU: 0x9592, offset: 0x9592, size: 0x8, addend: 0x0, symName: __ZNKSt5arrayIiLm2EE5beginEv, symObjAddr: 0x3034, symBinAddr: 0x1000046E8, symSize: 0x1C }
  - { offsetInCU: 0x959A, offset: 0x959A, size: 0x8, addend: 0x0, symName: __ZNKSt5arrayIiLm2EE3endEv, symObjAddr: 0x3050, symBinAddr: 0x100004704, symSize: 0x20 }
  - { offsetInCU: 0x9642, offset: 0x9642, size: 0x8, addend: 0x0, symName: __ZSt4swapIiLm2EENSt9enable_ifIXsrNSt14__array_traitsIT_XT0_EE13_Is_swappableE5valueEvE4typeERSt5arrayIS2_XT0_EES9_, symObjAddr: 0x300C, symBinAddr: 0x1000046C0, symSize: 0x28 }
  - { offsetInCU: 0x964A, offset: 0x964A, size: 0x8, addend: 0x0, symName: __ZNKSt5arrayIiLm2EE5beginEv, symObjAddr: 0x3034, symBinAddr: 0x1000046E8, symSize: 0x1C }
  - { offsetInCU: 0x9757, offset: 0x9757, size: 0x8, addend: 0x0, symName: __ZSt13__adjust_heapIN9__gnu_cxx17__normal_iteratorIPSt5arrayIiLm2EESt6vectorIS3_SaIS3_EEEElS3_NS0_5__ops15_Iter_less_iterEEvT_T0_SC_T1_T2_, symObjAddr: 0x2E28, symBinAddr: 0x1000044DC, symSize: 0x1E4 }
  - { offsetInCU: 0x975F, offset: 0x975F, size: 0x8, addend: 0x0, symName: __ZSt4swapIiLm2EENSt9enable_ifIXsrNSt14__array_traitsIT_XT0_EE13_Is_swappableE5valueEvE4typeERSt5arrayIS2_XT0_EES9_, symObjAddr: 0x300C, symBinAddr: 0x1000046C0, symSize: 0x28 }
  - { offsetInCU: 0x97B9, offset: 0x97B9, size: 0x8, addend: 0x0, symName: __ZSt10__fill_n_aIPSt5arrayIiLm2EEmS1_ET_S3_T0_RKT1_St26random_access_iterator_tag, symObjAddr: 0x2DC4, symBinAddr: 0x100004478, symSize: 0x64 }
  - { offsetInCU: 0x97C1, offset: 0x97C1, size: 0x8, addend: 0x0, symName: __ZSt13__adjust_heapIN9__gnu_cxx17__normal_iteratorIPSt5arrayIiLm2EESt6vectorIS3_SaIS3_EEEElS3_NS0_5__ops15_Iter_less_iterEEvT_T0_SC_T1_T2_, symObjAddr: 0x2E28, symBinAddr: 0x1000044DC, symSize: 0x1E4 }
  - { offsetInCU: 0x987D, offset: 0x987D, size: 0x8, addend: 0x0, symName: __ZSt14__relocate_a_1IiiENSt9enable_ifIXsrSt24__is_bitwise_relocatableIT_vE5valueEPS2_E4typeES4_S4_S4_RSaIT0_E, symObjAddr: 0x2D5C, symBinAddr: 0x100004410, symSize: 0x68 }
  - { offsetInCU: 0x9885, offset: 0x9885, size: 0x8, addend: 0x0, symName: __ZSt10__fill_n_aIPSt5arrayIiLm2EEmS1_ET_S3_T0_RKT1_St26random_access_iterator_tag, symObjAddr: 0x2DC4, symBinAddr: 0x100004478, symSize: 0x64 }
  - { offsetInCU: 0x98CE, offset: 0x98CE, size: 0x8, addend: 0x0, symName: __ZSt12__niter_baseIPiET_S1_, symObjAddr: 0x2D48, symBinAddr: 0x1000043FC, symSize: 0x14 }
  - { offsetInCU: 0x98D6, offset: 0x98D6, size: 0x8, addend: 0x0, symName: __ZSt14__relocate_a_1IiiENSt9enable_ifIXsrSt24__is_bitwise_relocatableIT_vE5valueEPS2_E4typeES4_S4_S4_RSaIT0_E, symObjAddr: 0x2D5C, symBinAddr: 0x100004410, symSize: 0x68 }
  - { offsetInCU: 0x98E6, offset: 0x98E6, size: 0x8, addend: 0x0, symName: __ZNSt15__new_allocatorIiE8allocateEmPKv, symObjAddr: 0x2CCC, symBinAddr: 0x100004380, symSize: 0x7C }
  - { offsetInCU: 0x98EE, offset: 0x98EE, size: 0x8, addend: 0x0, symName: __ZSt12__niter_baseIPiET_S1_, symObjAddr: 0x2D48, symBinAddr: 0x1000043FC, symSize: 0x14 }
  - { offsetInCU: 0x996C, offset: 0x996C, size: 0x8, addend: 0x0, symName: __ZNKSt12_Vector_baseIiSaIiEE19_M_get_Tp_allocatorEv, symObjAddr: 0x2CB8, symBinAddr: 0x10000436C, symSize: 0x14 }
  - { offsetInCU: 0x9974, offset: 0x9974, size: 0x8, addend: 0x0, symName: __ZNSt15__new_allocatorIiE8allocateEmPKv, symObjAddr: 0x2CCC, symBinAddr: 0x100004380, symSize: 0x7C }
  - { offsetInCU: 0x999B, offset: 0x999B, size: 0x8, addend: 0x0, symName: __ZNSt6vectorIiSaIiEE11_S_max_sizeERKS0_, symObjAddr: 0x2C64, symBinAddr: 0x100004318, symSize: 0x54 }
  - { offsetInCU: 0x99A3, offset: 0x99A3, size: 0x8, addend: 0x0, symName: __ZNKSt12_Vector_baseIiSaIiEE19_M_get_Tp_allocatorEv, symObjAddr: 0x2CB8, symBinAddr: 0x10000436C, symSize: 0x14 }
  - { offsetInCU: 0x9A7A, offset: 0x9A7A, size: 0x8, addend: 0x0, symName: __ZNK9__gnu_cxx5__ops14_Val_less_iterclISt5arrayIiLm2EENS_17__normal_iteratorIPS4_St6vectorIS4_SaIS4_EEEEEEbRT_T0_, symObjAddr: 0x2C30, symBinAddr: 0x1000042E4, symSize: 0x34 }
  - { offsetInCU: 0x9A82, offset: 0x9A82, size: 0x8, addend: 0x0, symName: __ZNSt6vectorIiSaIiEE11_S_max_sizeERKS0_, symObjAddr: 0x2C64, symBinAddr: 0x100004318, symSize: 0x54 }
  - { offsetInCU: 0x9C30, offset: 0x9C30, size: 0x8, addend: 0x0, symName: __ZSt22__copy_move_backward_aILb1EN9__gnu_cxx17__normal_iteratorIPSt5arrayIiLm2EESt6vectorIS3_SaIS3_EEEES8_ET1_T0_SA_S9_, symObjAddr: 0x2BD0, symBinAddr: 0x100004284, symSize: 0x60 }
  - { offsetInCU: 0x9C38, offset: 0x9C38, size: 0x8, addend: 0x0, symName: __ZNK9__gnu_cxx5__ops14_Val_less_iterclISt5arrayIiLm2EENS_17__normal_iteratorIPS4_St6vectorIS4_SaIS4_EEEEEEbRT_T0_, symObjAddr: 0x2C30, symBinAddr: 0x1000042E4, symSize: 0x34 }
  - { offsetInCU: 0x9C41, offset: 0x9C41, size: 0x8, addend: 0x0, symName: __ZSt12__miter_baseIN9__gnu_cxx17__normal_iteratorIPSt5arrayIiLm2EESt6vectorIS3_SaIS3_EEEEET_S9_, symObjAddr: 0x2BBC, symBinAddr: 0x100004270, symSize: 0x14 }
  - { offsetInCU: 0x9C49, offset: 0x9C49, size: 0x8, addend: 0x0, symName: __ZSt22__copy_move_backward_aILb1EN9__gnu_cxx17__normal_iteratorIPSt5arrayIiLm2EESt6vectorIS3_SaIS3_EEEES8_ET1_T0_SA_S9_, symObjAddr: 0x2BD0, symBinAddr: 0x100004284, symSize: 0x60 }
  - { offsetInCU: 0x9C01, offset: 0x9C01, size: 0x8, addend: 0x0, symName: __ZStltIiLm2EEbRKSt5arrayIT_XT0_EES4_, symObjAddr: 0x2B50, symBinAddr: 0x100004204, symSize: 0x6C }
  - { offsetInCU: 0x9C09, offset: 0x9C09, size: 0x8, addend: 0x0, symName: __ZSt12__miter_baseIN9__gnu_cxx17__normal_iteratorIPSt5arrayIiLm2EESt6vectorIS3_SaIS3_EEEEET_S9_, symObjAddr: 0x2BBC, symBinAddr: 0x100004270, symSize: 0x14 }
  - { offsetInCU: 0x9D49, offset: 0x9D49, size: 0x8, addend: 0x0, symName: __ZSt9iter_swapIN9__gnu_cxx17__normal_iteratorIPSt5arrayIiLm2EESt6vectorIS3_SaIS3_EEEES8_EvT_T0_, symObjAddr: 0x2B0C, symBinAddr: 0x1000041C0, symSize: 0x44 }
  - { offsetInCU: 0x9D51, offset: 0x9D51, size: 0x8, addend: 0x0, symName: __ZStltIiLm2EEbRKSt5arrayIT_XT0_EES4_, symObjAddr: 0x2B50, symBinAddr: 0x100004204, symSize: 0x6C }
  - { offsetInCU: 0x9C94, offset: 0x9C94, size: 0x8, addend: 0x0, symName: __ZN9__gnu_cxx17__normal_iteratorIPSt5arrayIiLm2EESt6vectorIS2_SaIS2_EEEmmEv, symObjAddr: 0x2AE4, symBinAddr: 0x100004198, symSize: 0x28 }
  - { offsetInCU: 0x9C9C, offset: 0x9C9C, size: 0x8, addend: 0x0, symName: __ZSt9iter_swapIN9__gnu_cxx17__normal_iteratorIPSt5arrayIiLm2EESt6vectorIS3_SaIS3_EEEES8_EvT_T0_, symObjAddr: 0x2B0C, symBinAddr: 0x1000041C0, symSize: 0x44 }
  - { offsetInCU: 0x9DC9, offset: 0x9DC9, size: 0x8, addend: 0x0, symName: __ZSt10__pop_heapIN9__gnu_cxx17__normal_iteratorIPSt5arrayIiLm2EESt6vectorIS3_SaIS3_EEEENS0_5__ops15_Iter_less_iterEEvT_SB_SB_RT0_, symObjAddr: 0x2A50, symBinAddr: 0x100004104, symSize: 0x94 }
  - { offsetInCU: 0x9DD1, offset: 0x9DD1, size: 0x8, addend: 0x0, symName: __ZN9__gnu_cxx17__normal_iteratorIPSt5arrayIiLm2EESt6vectorIS2_SaIS2_EEEmmEv, symObjAddr: 0x2AE4, symBinAddr: 0x100004198, symSize: 0x28 }
  - { offsetInCU: 0x9E25, offset: 0x9E25, size: 0x8, addend: 0x0, symName: __ZN9__gnu_cxxltIPSt5arrayIiLm2EESt6vectorIS2_SaIS2_EEEEbRKNS_17__normal_iteratorIT_T0_EESC_, symObjAddr: 0x2A0C, symBinAddr: 0x1000040C0, symSize: 0x44 }
  - { offsetInCU: 0x9E2D, offset: 0x9E2D, size: 0x8, addend: 0x0, symName: __ZSt10__pop_heapIN9__gnu_cxx17__normal_iteratorIPSt5arrayIiLm2EESt6vectorIS3_SaIS3_EEEENS0_5__ops15_Iter_less_iterEEvT_SB_SB_RT0_, symObjAddr: 0x2A50, symBinAddr: 0x100004104, symSize: 0x94 }
  - { offsetInCU: 0x9EFE, offset: 0x9EFE, size: 0x8, addend: 0x0, symName: __ZSt11__make_heapIN9__gnu_cxx17__normal_iteratorIPSt5arrayIiLm2EESt6vectorIS3_SaIS3_EEEENS0_5__ops15_Iter_less_iterEEvT_SB_RT0_, symObjAddr: 0x2930, symBinAddr: 0x100003FE4, symSize: 0xDC }
  - { offsetInCU: 0x9F06, offset: 0x9F06, size: 0x8, addend: 0x0, symName: __ZN9__gnu_cxxltIPSt5arrayIiLm2EESt6vectorIS2_SaIS2_EEEEbRKNS_17__normal_iteratorIT_T0_EESC_, symObjAddr: 0x2A0C, symBinAddr: 0x1000040C0, symSize: 0x44 }
  - { offsetInCU: 0x9F7B, offset: 0x9F7B, size: 0x8, addend: 0x0, symName: __ZSt6fill_nIPSt5arrayIiLm2EEmS1_ET_S3_T0_RKT1_, symObjAddr: 0x28E8, symBinAddr: 0x100003F9C, symSize: 0x48 }
  - { offsetInCU: 0x9F83, offset: 0x9F83, size: 0x8, addend: 0x0, symName: __ZSt11__make_heapIN9__gnu_cxx17__normal_iteratorIPSt5arrayIiLm2EESt6vectorIS3_SaIS3_EEEENS0_5__ops15_Iter_less_iterEEvT_SB_RT0_, symObjAddr: 0x2930, symBinAddr: 0x100003FE4, symSize: 0xDC }
  - { offsetInCU: 0xA002, offset: 0xA002, size: 0x8, addend: 0x0, symName: __ZSt10_ConstructISt5arrayIiLm2EEJEEvPT_DpOT0_, symObjAddr: 0x28A4, symBinAddr: 0x100003F58, symSize: 0x44 }
  - { offsetInCU: 0xA00A, offset: 0xA00A, size: 0x8, addend: 0x0, symName: __ZSt6fill_nIPSt5arrayIiLm2EEmS1_ET_S3_T0_RKT1_, symObjAddr: 0x28E8, symBinAddr: 0x100003F9C, symSize: 0x48 }
  - { offsetInCU: 0xA04E, offset: 0xA04E, size: 0x8, addend: 0x0, symName: __ZSt11__addressofISt5arrayIiLm2EEEPT_RS2_, symObjAddr: 0x2890, symBinAddr: 0x100003F44, symSize: 0x14 }
  - { offsetInCU: 0xA056, offset: 0xA056, size: 0x8, addend: 0x0, symName: __ZSt10_ConstructISt5arrayIiLm2EEJEEvPT_DpOT0_, symObjAddr: 0x28A4, symBinAddr: 0x100003F58, symSize: 0x44 }
  - { offsetInCU: 0xA0DD, offset: 0xA0DD, size: 0x8, addend: 0x0, symName: __ZN9__gnu_cxx5__ops14_Iter_comp_valISt7greaterIiEEC1EONS0_15_Iter_comp_iterIS3_EE, symObjAddr: 0x286C, symBinAddr: 0x100003F20, symSize: 0x24 }
  - { offsetInCU: 0xA0E5, offset: 0xA0E5, size: 0x8, addend: 0x0, symName: __ZSt11__addressofISt5arrayIiLm2EEEPT_RS2_, symObjAddr: 0x2890, symBinAddr: 0x100003F44, symSize: 0x14 }
  - { offsetInCU: 0xA169, offset: 0xA169, size: 0x8, addend: 0x0, symName: __ZSt4moveIRN9__gnu_cxx5__ops15_Iter_comp_iterISt7greaterIiEEEEONSt16remove_referenceIT_E4typeEOS8_, symObjAddr: 0x2858, symBinAddr: 0x100003F0C, symSize: 0x14 }
  - { offsetInCU: 0xA171, offset: 0xA171, size: 0x8, addend: 0x0, symName: __ZN9__gnu_cxx5__ops14_Iter_comp_valISt7greaterIiEEC1EONS0_15_Iter_comp_iterIS3_EE, symObjAddr: 0x286C, symBinAddr: 0x100003F20, symSize: 0x24 }
  - { offsetInCU: 0xA123, offset: 0xA123, size: 0x8, addend: 0x0, symName: __ZN9__gnu_cxx5__ops15_Iter_comp_iterISt7greaterIiEEclINS_17__normal_iteratorIPiSt6vectorIiSaIiEEEESB_EEbT_T0_, symObjAddr: 0x2808, symBinAddr: 0x100003EBC, symSize: 0x50 }
  - { offsetInCU: 0xA12B, offset: 0xA12B, size: 0x8, addend: 0x0, symName: __ZSt4moveIRN9__gnu_cxx5__ops15_Iter_comp_iterISt7greaterIiEEEEONSt16remove_referenceIT_E4typeEOS8_, symObjAddr: 0x2858, symBinAddr: 0x100003F0C, symSize: 0x14 }
  - { offsetInCU: 0xA192, offset: 0xA192, size: 0x8, addend: 0x0, symName: __ZNKSt7greaterIiEclERKiS2_, symObjAddr: 0x27D4, symBinAddr: 0x100003E88, symSize: 0x34 }
  - { offsetInCU: 0xA19A, offset: 0xA19A, size: 0x8, addend: 0x0, symName: __ZN9__gnu_cxx5__ops15_Iter_comp_iterISt7greaterIiEEclINS_17__normal_iteratorIPiSt6vectorIiSaIiEEEESB_EEbT_T0_, symObjAddr: 0x2808, symBinAddr: 0x100003EBC, symSize: 0x50 }
  - { offsetInCU: 0xA24B, offset: 0xA24B, size: 0x8, addend: 0x0, symName: __ZSt12__relocate_aIPiS0_SaIiEET0_T_S3_S2_RT1_, symObjAddr: 0x2778, symBinAddr: 0x100003E2C, symSize: 0x5C }
  - { offsetInCU: 0xA253, offset: 0xA253, size: 0x8, addend: 0x0, symName: __ZNKSt7greaterIiEclERKiS2_, symObjAddr: 0x27D4, symBinAddr: 0x100003E88, symSize: 0x34 }
  - { offsetInCU: 0xA2B8, offset: 0xA2B8, size: 0x8, addend: 0x0, symName: __ZNKSt6vectorIiSaIiEE8max_sizeEv, symObjAddr: 0x2758, symBinAddr: 0x100003E0C, symSize: 0x20 }
  - { offsetInCU: 0xA2C0, offset: 0xA2C0, size: 0x8, addend: 0x0, symName: __ZSt12__relocate_aIPiS0_SaIiEET0_T_S3_S2_RT1_, symObjAddr: 0x2778, symBinAddr: 0x100003E2C, symSize: 0x5C }
  - { offsetInCU: 0xA403, offset: 0xA403, size: 0x8, addend: 0x0, symName: __ZSt25__unguarded_linear_insertIN9__gnu_cxx17__normal_iteratorIPSt5arrayIiLm2EESt6vectorIS3_SaIS3_EEEENS0_5__ops14_Val_less_iterEEvT_T0_, symObjAddr: 0x2698, symBinAddr: 0x100003D4C, symSize: 0xC0 }
  - { offsetInCU: 0xA40B, offset: 0xA40B, size: 0x8, addend: 0x0, symName: __ZNKSt6vectorIiSaIiEE8max_sizeEv, symObjAddr: 0x2758, symBinAddr: 0x100003E0C, symSize: 0x20 }
  - { offsetInCU: 0xA49E, offset: 0xA49E, size: 0x8, addend: 0x0, symName: __ZSt13move_backwardIN9__gnu_cxx17__normal_iteratorIPSt5arrayIiLm2EESt6vectorIS3_SaIS3_EEEES8_ET0_T_SA_S9_, symObjAddr: 0x2650, symBinAddr: 0x100003D04, symSize: 0x48 }
  - { offsetInCU: 0xA4A6, offset: 0xA4A6, size: 0x8, addend: 0x0, symName: __ZSt25__unguarded_linear_insertIN9__gnu_cxx17__normal_iteratorIPSt5arrayIiLm2EESt6vectorIS3_SaIS3_EEEENS0_5__ops14_Val_less_iterEEvT_T0_, symObjAddr: 0x2698, symBinAddr: 0x100003D4C, symSize: 0xC0 }
  - { offsetInCU: 0xA453, offset: 0xA453, size: 0x8, addend: 0x0, symName: __ZSt4moveIRSt5arrayIiLm2EEEONSt16remove_referenceIT_E4typeEOS4_, symObjAddr: 0x263C, symBinAddr: 0x100003CF0, symSize: 0x14 }
  - { offsetInCU: 0xA45B, offset: 0xA45B, size: 0x8, addend: 0x0, symName: __ZSt13move_backwardIN9__gnu_cxx17__normal_iteratorIPSt5arrayIiLm2EESt6vectorIS3_SaIS3_EEEES8_ET0_T_SA_S9_, symObjAddr: 0x2650, symBinAddr: 0x100003D04, symSize: 0x48 }
  - { offsetInCU: 0xA449, offset: 0xA449, size: 0x8, addend: 0x0, symName: __ZNK9__gnu_cxx17__normal_iteratorIPSt5arrayIiLm2EESt6vectorIS2_SaIS2_EEEdeEv, symObjAddr: 0x2624, symBinAddr: 0x100003CD8, symSize: 0x18 }
  - { offsetInCU: 0xA451, offset: 0xA451, size: 0x8, addend: 0x0, symName: __ZSt4moveIRSt5arrayIiLm2EEEONSt16remove_referenceIT_E4typeEOS4_, symObjAddr: 0x263C, symBinAddr: 0x100003CF0, symSize: 0x14 }
  - { offsetInCU: 0xA478, offset: 0xA478, size: 0x8, addend: 0x0, symName: __ZNK9__gnu_cxx5__ops15_Iter_less_iterclINS_17__normal_iteratorIPSt5arrayIiLm2EESt6vectorIS5_SaIS5_EEEESA_EEbT_T0_, symObjAddr: 0x25DC, symBinAddr: 0x100003C90, symSize: 0x48 }
  - { offsetInCU: 0xA480, offset: 0xA480, size: 0x8, addend: 0x0, symName: __ZNK9__gnu_cxx17__normal_iteratorIPSt5arrayIiLm2EESt6vectorIS2_SaIS2_EEEdeEv, symObjAddr: 0x2624, symBinAddr: 0x100003CD8, symSize: 0x18 }
  - { offsetInCU: 0xA4E7, offset: 0xA4E7, size: 0x8, addend: 0x0, symName: __ZN9__gnu_cxx17__normal_iteratorIPSt5arrayIiLm2EESt6vectorIS2_SaIS2_EEEppEv, symObjAddr: 0x25B4, symBinAddr: 0x100003C68, symSize: 0x28 }
  - { offsetInCU: 0xA4EF, offset: 0xA4EF, size: 0x8, addend: 0x0, symName: __ZNK9__gnu_cxx5__ops15_Iter_less_iterclINS_17__normal_iteratorIPSt5arrayIiLm2EESt6vectorIS5_SaIS5_EEEESA_EEbT_T0_, symObjAddr: 0x25DC, symBinAddr: 0x100003C90, symSize: 0x48 }
  - { offsetInCU: 0xA5BA, offset: 0xA5BA, size: 0x8, addend: 0x0, symName: __ZN9__gnu_cxxeqIPSt5arrayIiLm2EESt6vectorIS2_SaIS2_EEEEbRKNS_17__normal_iteratorIT_T0_EESC_, symObjAddr: 0x2570, symBinAddr: 0x100003C24, symSize: 0x44 }
  - { offsetInCU: 0xA5C2, offset: 0xA5C2, size: 0x8, addend: 0x0, symName: __ZN9__gnu_cxx17__normal_iteratorIPSt5arrayIiLm2EESt6vectorIS2_SaIS2_EEEppEv, symObjAddr: 0x25B4, symBinAddr: 0x100003C68, symSize: 0x28 }
  - { offsetInCU: 0xA6A5, offset: 0xA6A5, size: 0x8, addend: 0x0, symName: __ZSt21__unguarded_partitionIN9__gnu_cxx17__normal_iteratorIPSt5arrayIiLm2EESt6vectorIS3_SaIS3_EEEENS0_5__ops15_Iter_less_iterEET_SB_SB_SB_T0_, symObjAddr: 0x24AC, symBinAddr: 0x100003B60, symSize: 0xC4 }
  - { offsetInCU: 0xA6AD, offset: 0xA6AD, size: 0x8, addend: 0x0, symName: __ZN9__gnu_cxxeqIPSt5arrayIiLm2EESt6vectorIS2_SaIS2_EEEEbRKNS_17__normal_iteratorIT_T0_EESC_, symObjAddr: 0x2570, symBinAddr: 0x100003C24, symSize: 0x44 }
  - { offsetInCU: 0xA738, offset: 0xA738, size: 0x8, addend: 0x0, symName: __ZSt22__move_median_to_firstIN9__gnu_cxx17__normal_iteratorIPSt5arrayIiLm2EESt6vectorIS3_SaIS3_EEEENS0_5__ops15_Iter_less_iterEEvT_SB_SB_SB_T0_, symObjAddr: 0x2388, symBinAddr: 0x100003A3C, symSize: 0x124 }
  - { offsetInCU: 0xA740, offset: 0xA740, size: 0x8, addend: 0x0, symName: __ZSt21__unguarded_partitionIN9__gnu_cxx17__normal_iteratorIPSt5arrayIiLm2EESt6vectorIS3_SaIS3_EEEENS0_5__ops15_Iter_less_iterEET_SB_SB_SB_T0_, symObjAddr: 0x24AC, symBinAddr: 0x100003B60, symSize: 0xC4 }
  - { offsetInCU: 0xA6B3, offset: 0xA6B3, size: 0x8, addend: 0x0, symName: __ZNK9__gnu_cxx17__normal_iteratorIPSt5arrayIiLm2EESt6vectorIS2_SaIS2_EEEmiEl, symObjAddr: 0x2344, symBinAddr: 0x1000039F8, symSize: 0x44 }
  - { offsetInCU: 0xA6BB, offset: 0xA6BB, size: 0x8, addend: 0x0, symName: __ZSt22__move_median_to_firstIN9__gnu_cxx17__normal_iteratorIPSt5arrayIiLm2EESt6vectorIS3_SaIS3_EEEENS0_5__ops15_Iter_less_iterEEvT_SB_SB_SB_T0_, symObjAddr: 0x2388, symBinAddr: 0x100003A3C, symSize: 0x124 }
  - { offsetInCU: 0xA7FC, offset: 0xA7FC, size: 0x8, addend: 0x0, symName: __ZSt11__sort_heapIN9__gnu_cxx17__normal_iteratorIPSt5arrayIiLm2EESt6vectorIS3_SaIS3_EEEENS0_5__ops15_Iter_less_iterEEvT_SB_RT0_, symObjAddr: 0x22DC, symBinAddr: 0x100003990, symSize: 0x68 }
  - { offsetInCU: 0xA804, offset: 0xA804, size: 0x8, addend: 0x0, symName: __ZNK9__gnu_cxx17__normal_iteratorIPSt5arrayIiLm2EESt6vectorIS2_SaIS2_EEEmiEl, symObjAddr: 0x2344, symBinAddr: 0x1000039F8, symSize: 0x44 }
  - { offsetInCU: 0xA87B, offset: 0xA87B, size: 0x8, addend: 0x0, symName: __ZSt13__heap_selectIN9__gnu_cxx17__normal_iteratorIPSt5arrayIiLm2EESt6vectorIS3_SaIS3_EEEENS0_5__ops15_Iter_less_iterEEvT_SB_SB_T0_, symObjAddr: 0x2238, symBinAddr: 0x1000038EC, symSize: 0xA4 }
  - { offsetInCU: 0xA883, offset: 0xA883, size: 0x8, addend: 0x0, symName: __ZSt11__sort_heapIN9__gnu_cxx17__normal_iteratorIPSt5arrayIiLm2EESt6vectorIS3_SaIS3_EEEENS0_5__ops15_Iter_less_iterEEvT_SB_RT0_, symObjAddr: 0x22DC, symBinAddr: 0x100003990, symSize: 0x68 }
  - { offsetInCU: 0xA861, offset: 0xA861, size: 0x8, addend: 0x0, symName: __ZSt13__countl_zeroImEiT_, symObjAddr: 0x21E4, symBinAddr: 0x100003898, symSize: 0x54 }
  - { offsetInCU: 0xA869, offset: 0xA869, size: 0x8, addend: 0x0, symName: __ZSt13__heap_selectIN9__gnu_cxx17__normal_iteratorIPSt5arrayIiLm2EESt6vectorIS3_SaIS3_EEEENS0_5__ops15_Iter_less_iterEEvT_SB_SB_T0_, symObjAddr: 0x2238, symBinAddr: 0x1000038EC, symSize: 0xA4 }
  - { offsetInCU: 0xA8DD, offset: 0xA8DD, size: 0x8, addend: 0x0, symName: __ZNSt12_Destroy_auxILb1EE9__destroyIPSt5arrayIiLm2EEEEvT_S5_, symObjAddr: 0x21CC, symBinAddr: 0x100003880, symSize: 0x18 }
  - { offsetInCU: 0xA8E5, offset: 0xA8E5, size: 0x8, addend: 0x0, symName: __ZSt13__countl_zeroImEiT_, symObjAddr: 0x21E4, symBinAddr: 0x100003898, symSize: 0x54 }
  - { offsetInCU: 0xA9EB, offset: 0xA9EB, size: 0x8, addend: 0x0, symName: __ZSt14__relocate_a_1ISt5arrayIiLm2EES1_ENSt9enable_ifIXsrSt24__is_bitwise_relocatableIT_vE5valueEPS4_E4typeES6_S6_S6_RSaIT0_E, symObjAddr: 0x2164, symBinAddr: 0x100003818, symSize: 0x68 }
  - { offsetInCU: 0xA9F3, offset: 0xA9F3, size: 0x8, addend: 0x0, symName: __ZNSt12_Destroy_auxILb1EE9__destroyIPSt5arrayIiLm2EEEEvT_S5_, symObjAddr: 0x21CC, symBinAddr: 0x100003880, symSize: 0x18 }
  - { offsetInCU: 0xAA2A, offset: 0xAA2A, size: 0x8, addend: 0x0, symName: __ZSt12__niter_baseIPSt5arrayIiLm2EEET_S3_, symObjAddr: 0x2150, symBinAddr: 0x100003804, symSize: 0x14 }
  - { offsetInCU: 0xAA32, offset: 0xAA32, size: 0x8, addend: 0x0, symName: __ZSt14__relocate_a_1ISt5arrayIiLm2EES1_ENSt9enable_ifIXsrSt24__is_bitwise_relocatableIT_vE5valueEPS4_E4typeES6_S6_S6_RSaIT0_E, symObjAddr: 0x2164, symBinAddr: 0x100003818, symSize: 0x68 }
  - { offsetInCU: 0xAA25, offset: 0xAA25, size: 0x8, addend: 0x0, symName: __ZNSt15__new_allocatorISt5arrayIiLm2EEE8allocateEmPKv, symObjAddr: 0x20D4, symBinAddr: 0x100003788, symSize: 0x7C }
  - { offsetInCU: 0xAA2D, offset: 0xAA2D, size: 0x8, addend: 0x0, symName: __ZSt12__niter_baseIPSt5arrayIiLm2EEET_S3_, symObjAddr: 0x2150, symBinAddr: 0x100003804, symSize: 0x14 }
  - { offsetInCU: 0xAAAB, offset: 0xAAAB, size: 0x8, addend: 0x0, symName: __ZNSt27__uninitialized_default_n_1ILb1EE18__uninit_default_nIPSt5arrayIiLm2EEmEET_S5_T0_, symObjAddr: 0x2070, symBinAddr: 0x100003724, symSize: 0x64 }
  - { offsetInCU: 0xAAB3, offset: 0xAAB3, size: 0x8, addend: 0x0, symName: __ZNSt15__new_allocatorISt5arrayIiLm2EEE8allocateEmPKv, symObjAddr: 0x20D4, symBinAddr: 0x100003788, symSize: 0x7C }
  - { offsetInCU: 0xAB57, offset: 0xAB57, size: 0x8, addend: 0x0, symName: __ZNSt12_Destroy_auxILb1EE9__destroyIPiEEvT_S3_, symObjAddr: 0x2058, symBinAddr: 0x10000370C, symSize: 0x18 }
  - { offsetInCU: 0xAB5F, offset: 0xAB5F, size: 0x8, addend: 0x0, symName: __ZNSt27__uninitialized_default_n_1ILb1EE18__uninit_default_nIPSt5arrayIiLm2EEmEET_S5_T0_, symObjAddr: 0x2070, symBinAddr: 0x100003724, symSize: 0x64 }
  - { offsetInCU: 0xAB9A, offset: 0xAB9A, size: 0x8, addend: 0x0, symName: __ZNSt15__new_allocatorIiE10deallocateEPim, symObjAddr: 0x2028, symBinAddr: 0x1000036DC, symSize: 0x30 }
  - { offsetInCU: 0xABA2, offset: 0xABA2, size: 0x8, addend: 0x0, symName: __ZNSt12_Destroy_auxILb1EE9__destroyIPiEEvT_S3_, symObjAddr: 0x2058, symBinAddr: 0x10000370C, symSize: 0x18 }
  - { offsetInCU: 0xAD37, offset: 0xAD37, size: 0x8, addend: 0x0, symName: __ZSt13__adjust_heapIN9__gnu_cxx17__normal_iteratorIPiSt6vectorIiSaIiEEEEliNS0_5__ops15_Iter_comp_iterISt7greaterIiEEEEvT_T0_SD_T1_T2_, symObjAddr: 0x1E50, symBinAddr: 0x100003504, symSize: 0x1D8 }
  - { offsetInCU: 0xAD3F, offset: 0xAD3F, size: 0x8, addend: 0x0, symName: __ZNSt15__new_allocatorIiE10deallocateEPim, symObjAddr: 0x2028, symBinAddr: 0x1000036DC, symSize: 0x30 }
  - { offsetInCU: 0xAD81, offset: 0xAD81, size: 0x8, addend: 0x0, symName: __ZN9__gnu_cxx17__normal_iteratorIPKiSt6vectorIiSaIiEEEC1ERKS2_, symObjAddr: 0x1E28, symBinAddr: 0x1000034DC, symSize: 0x28 }
  - { offsetInCU: 0xAD89, offset: 0xAD89, size: 0x8, addend: 0x0, symName: __ZSt13__adjust_heapIN9__gnu_cxx17__normal_iteratorIPiSt6vectorIiSaIiEEEEliNS0_5__ops15_Iter_comp_iterISt7greaterIiEEEEvT_T0_SD_T1_T2_, symObjAddr: 0x1E50, symBinAddr: 0x100003504, symSize: 0x1D8 }
  - { offsetInCU: 0xAD7C, offset: 0xAD7C, size: 0x8, addend: 0x0, symName: __ZN9__gnu_cxx5__ops14_Iter_comp_valISt7greaterIiEEclINS_17__normal_iteratorIPiSt6vectorIiSaIiEEEEiEEbT_RT0_, symObjAddr: 0x1DE4, symBinAddr: 0x100003498, symSize: 0x44 }
  - { offsetInCU: 0xAD84, offset: 0xAD84, size: 0x8, addend: 0x0, symName: __ZN9__gnu_cxx17__normal_iteratorIPKiSt6vectorIiSaIiEEEC1ERKS2_, symObjAddr: 0x1E28, symBinAddr: 0x1000034DC, symSize: 0x28 }
  - { offsetInCU: 0xADEB, offset: 0xADEB, size: 0x8, addend: 0x0, symName: __ZNK9__gnu_cxx17__normal_iteratorIPiSt6vectorIiSaIiEEEplEl, symObjAddr: 0x1DA4, symBinAddr: 0x100003458, symSize: 0x40 }
  - { offsetInCU: 0xADF3, offset: 0xADF3, size: 0x8, addend: 0x0, symName: __ZN9__gnu_cxx5__ops14_Iter_comp_valISt7greaterIiEEclINS_17__normal_iteratorIPiSt6vectorIiSaIiEEEEiEEbT_RT0_, symObjAddr: 0x1DE4, symBinAddr: 0x100003498, symSize: 0x44 }
  - { offsetInCU: 0xAE2E, offset: 0xAE2E, size: 0x8, addend: 0x0, symName: __ZNK9__gnu_cxx17__normal_iteratorIPiSt6vectorIiSaIiEEE4baseEv, symObjAddr: 0x1D90, symBinAddr: 0x100003444, symSize: 0x14 }
  - { offsetInCU: 0xAE36, offset: 0xAE36, size: 0x8, addend: 0x0, symName: __ZNK9__gnu_cxx17__normal_iteratorIPiSt6vectorIiSaIiEEEplEl, symObjAddr: 0x1DA4, symBinAddr: 0x100003458, symSize: 0x40 }
  - { offsetInCU: 0xAE5D, offset: 0xAE5D, size: 0x8, addend: 0x0, symName: __ZNSt6vectorIiSaIiEE11_S_relocateEPiS2_S2_RS0_, symObjAddr: 0x1D5C, symBinAddr: 0x100003410, symSize: 0x34 }
  - { offsetInCU: 0xAE65, offset: 0xAE65, size: 0x8, addend: 0x0, symName: __ZNK9__gnu_cxx17__normal_iteratorIPiSt6vectorIiSaIiEEE4baseEv, symObjAddr: 0x1D90, symBinAddr: 0x100003444, symSize: 0x14 }
  - { offsetInCU: 0xAECB, offset: 0xAECB, size: 0x8, addend: 0x0, symName: __ZNSt12_Vector_baseIiSaIiEE11_M_allocateEm, symObjAddr: 0x1D0C, symBinAddr: 0x1000033C0, symSize: 0x50 }
  - { offsetInCU: 0xAED3, offset: 0xAED3, size: 0x8, addend: 0x0, symName: __ZNSt6vectorIiSaIiEE11_S_relocateEPiS2_S2_RS0_, symObjAddr: 0x1D5C, symBinAddr: 0x100003410, symSize: 0x34 }
  - { offsetInCU: 0xAF40, offset: 0xAF40, size: 0x8, addend: 0x0, symName: __ZNKSt6vectorIiSaIiEE12_M_check_lenEmPKc, symObjAddr: 0x1C3C, symBinAddr: 0x1000032F0, symSize: 0xD0 }
  - { offsetInCU: 0xAF48, offset: 0xAF48, size: 0x8, addend: 0x0, symName: __ZNSt12_Vector_baseIiSaIiEE11_M_allocateEm, symObjAddr: 0x1D0C, symBinAddr: 0x1000033C0, symSize: 0x50 }
  - { offsetInCU: 0xB04C, offset: 0xB04C, size: 0x8, addend: 0x0, symName: __ZSt7forwardIRKiEOT_RNSt16remove_referenceIS2_E4typeE, symObjAddr: 0x1C28, symBinAddr: 0x1000032DC, symSize: 0x14 }
  - { offsetInCU: 0xB054, offset: 0xB054, size: 0x8, addend: 0x0, symName: __ZNKSt6vectorIiSaIiEE12_M_check_lenEmPKc, symObjAddr: 0x1C3C, symBinAddr: 0x1000032F0, symSize: 0xD0 }
  - { offsetInCU: 0xB175, offset: 0xB175, size: 0x8, addend: 0x0, symName: __ZSt26__unguarded_insertion_sortIN9__gnu_cxx17__normal_iteratorIPSt5arrayIiLm2EESt6vectorIS3_SaIS3_EEEENS0_5__ops15_Iter_less_iterEEvT_SB_T0_, symObjAddr: 0x1BB8, symBinAddr: 0x10000326C, symSize: 0x70 }
  - { offsetInCU: 0xB17D, offset: 0xB17D, size: 0x8, addend: 0x0, symName: __ZSt7forwardIRKiEOT_RNSt16remove_referenceIS2_E4typeE, symObjAddr: 0x1C28, symBinAddr: 0x1000032DC, symSize: 0x14 }
  - { offsetInCU: 0xB200, offset: 0xB200, size: 0x8, addend: 0x0, symName: __ZSt16__insertion_sortIN9__gnu_cxx17__normal_iteratorIPSt5arrayIiLm2EESt6vectorIS3_SaIS3_EEEENS0_5__ops15_Iter_less_iterEEvT_SB_T0_, symObjAddr: 0x1AA8, symBinAddr: 0x10000315C, symSize: 0x110 }
  - { offsetInCU: 0xB208, offset: 0xB208, size: 0x8, addend: 0x0, symName: __ZSt26__unguarded_insertion_sortIN9__gnu_cxx17__normal_iteratorIPSt5arrayIiLm2EESt6vectorIS3_SaIS3_EEEENS0_5__ops15_Iter_less_iterEEvT_SB_T0_, symObjAddr: 0x1BB8, symBinAddr: 0x10000326C, symSize: 0x70 }
  - { offsetInCU: 0xB1B6, offset: 0xB1B6, size: 0x8, addend: 0x0, symName: __ZNK9__gnu_cxx17__normal_iteratorIPSt5arrayIiLm2EESt6vectorIS2_SaIS2_EEEplEl, symObjAddr: 0x1A68, symBinAddr: 0x10000311C, symSize: 0x40 }
  - { offsetInCU: 0xB1BE, offset: 0xB1BE, size: 0x8, addend: 0x0, symName: __ZSt16__insertion_sortIN9__gnu_cxx17__normal_iteratorIPSt5arrayIiLm2EESt6vectorIS3_SaIS3_EEEENS0_5__ops15_Iter_less_iterEEvT_SB_T0_, symObjAddr: 0x1AA8, symBinAddr: 0x10000315C, symSize: 0x110 }
  - { offsetInCU: 0xB324, offset: 0xB324, size: 0x8, addend: 0x0, symName: __ZSt27__unguarded_partition_pivotIN9__gnu_cxx17__normal_iteratorIPSt5arrayIiLm2EESt6vectorIS3_SaIS3_EEEENS0_5__ops15_Iter_less_iterEET_SB_SB_T0_, symObjAddr: 0x19C4, symBinAddr: 0x100003078, symSize: 0xA4 }
  - { offsetInCU: 0xB32C, offset: 0xB32C, size: 0x8, addend: 0x0, symName: __ZNK9__gnu_cxx17__normal_iteratorIPSt5arrayIiLm2EESt6vectorIS2_SaIS2_EEEplEl, symObjAddr: 0x1A68, symBinAddr: 0x10000311C, symSize: 0x40 }
  - { offsetInCU: 0xB39C, offset: 0xB39C, size: 0x8, addend: 0x0, symName: __ZSt14__partial_sortIN9__gnu_cxx17__normal_iteratorIPSt5arrayIiLm2EESt6vectorIS3_SaIS3_EEEENS0_5__ops15_Iter_less_iterEEvT_SB_SB_T0_, symObjAddr: 0x1978, symBinAddr: 0x10000302C, symSize: 0x4C }
  - { offsetInCU: 0xB3A4, offset: 0xB3A4, size: 0x8, addend: 0x0, symName: __ZSt27__unguarded_partition_pivotIN9__gnu_cxx17__normal_iteratorIPSt5arrayIiLm2EESt6vectorIS3_SaIS3_EEEENS0_5__ops15_Iter_less_iterEET_SB_SB_T0_, symObjAddr: 0x19C4, symBinAddr: 0x100003078, symSize: 0xA4 }
  - { offsetInCU: 0xB357, offset: 0xB357, size: 0x8, addend: 0x0, symName: __ZSt11__bit_widthImEiT_, symObjAddr: 0x1948, symBinAddr: 0x100002FFC, symSize: 0x30 }
  - { offsetInCU: 0xB35F, offset: 0xB35F, size: 0x8, addend: 0x0, symName: __ZSt14__partial_sortIN9__gnu_cxx17__normal_iteratorIPSt5arrayIiLm2EESt6vectorIS3_SaIS3_EEEENS0_5__ops15_Iter_less_iterEEvT_SB_SB_T0_, symObjAddr: 0x1978, symBinAddr: 0x10000302C, symSize: 0x4C }
  - { offsetInCU: 0xB37B, offset: 0xB37B, size: 0x8, addend: 0x0, symName: __ZNK9__gnu_cxx17__normal_iteratorIPSt5arrayIiLm2EESt6vectorIS2_SaIS2_EEE4baseEv, symObjAddr: 0x1934, symBinAddr: 0x100002FE8, symSize: 0x14 }
  - { offsetInCU: 0xB383, offset: 0xB383, size: 0x8, addend: 0x0, symName: __ZSt11__bit_widthImEiT_, symObjAddr: 0x1948, symBinAddr: 0x100002FFC, symSize: 0x30 }
  - { offsetInCU: 0xB3EE, offset: 0xB3EE, size: 0x8, addend: 0x0, symName: __ZSt8_DestroyIPSt5arrayIiLm2EEEvT_S3_, symObjAddr: 0x190C, symBinAddr: 0x100002FC0, symSize: 0x28 }
  - { offsetInCU: 0xB3F6, offset: 0xB3F6, size: 0x8, addend: 0x0, symName: __ZNK9__gnu_cxx17__normal_iteratorIPSt5arrayIiLm2EESt6vectorIS2_SaIS2_EEE4baseEv, symObjAddr: 0x1934, symBinAddr: 0x100002FE8, symSize: 0x14 }
  - { offsetInCU: 0xB49F, offset: 0xB49F, size: 0x8, addend: 0x0, symName: __ZSt12__relocate_aIPSt5arrayIiLm2EES2_SaIS1_EET0_T_S5_S4_RT1_, symObjAddr: 0x18B0, symBinAddr: 0x100002F64, symSize: 0x5C }
  - { offsetInCU: 0xB4A7, offset: 0xB4A7, size: 0x8, addend: 0x0, symName: __ZSt8_DestroyIPSt5arrayIiLm2EEEvT_S3_, symObjAddr: 0x190C, symBinAddr: 0x100002FC0, symSize: 0x28 }
  - { offsetInCU: 0xB550, offset: 0xB550, size: 0x8, addend: 0x0, symName: __ZSt25__uninitialized_default_nIPSt5arrayIiLm2EEmET_S3_T0_, symObjAddr: 0x1884, symBinAddr: 0x100002F38, symSize: 0x2C }
  - { offsetInCU: 0xB558, offset: 0xB558, size: 0x8, addend: 0x0, symName: __ZSt12__relocate_aIPSt5arrayIiLm2EES2_SaIS1_EET0_T_S5_S4_RT1_, symObjAddr: 0x18B0, symBinAddr: 0x100002F64, symSize: 0x5C }
  - { offsetInCU: 0xB54F, offset: 0xB54F, size: 0x8, addend: 0x0, symName: __ZNKSt12_Vector_baseISt5arrayIiLm2EESaIS1_EE19_M_get_Tp_allocatorEv, symObjAddr: 0x1870, symBinAddr: 0x100002F24, symSize: 0x14 }
  - { offsetInCU: 0xB557, offset: 0xB557, size: 0x8, addend: 0x0, symName: __ZSt25__uninitialized_default_nIPSt5arrayIiLm2EEmET_S3_T0_, symObjAddr: 0x1884, symBinAddr: 0x100002F38, symSize: 0x2C }
  - { offsetInCU: 0xB57E, offset: 0xB57E, size: 0x8, addend: 0x0, symName: __ZNSt6vectorISt5arrayIiLm2EESaIS1_EE11_S_max_sizeERKS2_, symObjAddr: 0x181C, symBinAddr: 0x100002ED0, symSize: 0x54 }
  - { offsetInCU: 0xB586, offset: 0xB586, size: 0x8, addend: 0x0, symName: __ZNKSt12_Vector_baseISt5arrayIiLm2EESaIS1_EE19_M_get_Tp_allocatorEv, symObjAddr: 0x1870, symBinAddr: 0x100002F24, symSize: 0x14 }
  - { offsetInCU: 0xB671, offset: 0xB671, size: 0x8, addend: 0x0, symName: __ZSt8_DestroyIPiEvT_S1_, symObjAddr: 0x17F4, symBinAddr: 0x100002EA8, symSize: 0x28 }
  - { offsetInCU: 0xB679, offset: 0xB679, size: 0x8, addend: 0x0, symName: __ZNSt6vectorISt5arrayIiLm2EESaIS1_EE11_S_max_sizeERKS2_, symObjAddr: 0x181C, symBinAddr: 0x100002ED0, symSize: 0x54 }
  - { offsetInCU: 0xB6F6, offset: 0xB6F6, size: 0x8, addend: 0x0, symName: __ZNSt15__new_allocatorISt5arrayIiLm2EEE10deallocateEPS1_m, symObjAddr: 0x17C4, symBinAddr: 0x100002E78, symSize: 0x30 }
  - { offsetInCU: 0xB6FE, offset: 0xB6FE, size: 0x8, addend: 0x0, symName: __ZSt8_DestroyIPiEvT_S1_, symObjAddr: 0x17F4, symBinAddr: 0x100002EA8, symSize: 0x28 }
  - { offsetInCU: 0xB87E, offset: 0xB87E, size: 0x8, addend: 0x0, symName: __ZSt10__pop_heapIN9__gnu_cxx17__normal_iteratorIPiSt6vectorIiSaIiEEEENS0_5__ops15_Iter_comp_iterISt7greaterIiEEEEvT_SC_SC_RT0_, symObjAddr: 0x1730, symBinAddr: 0x100002DE4, symSize: 0x94 }
  - { offsetInCU: 0xB886, offset: 0xB886, size: 0x8, addend: 0x0, symName: __ZNSt15__new_allocatorISt5arrayIiLm2EEE10deallocateEPS1_m, symObjAddr: 0x17C4, symBinAddr: 0x100002E78, symSize: 0x30 }
  - { offsetInCU: 0xB843, offset: 0xB843, size: 0x8, addend: 0x0, symName: __ZN9__gnu_cxx17__normal_iteratorIPiSt6vectorIiSaIiEEEmmEv, symObjAddr: 0x1708, symBinAddr: 0x100002DBC, symSize: 0x28 }
  - { offsetInCU: 0xB84B, offset: 0xB84B, size: 0x8, addend: 0x0, symName: __ZSt10__pop_heapIN9__gnu_cxx17__normal_iteratorIPiSt6vectorIiSaIiEEEENS0_5__ops15_Iter_comp_iterISt7greaterIiEEEEvT_SC_SC_RT0_, symObjAddr: 0x1730, symBinAddr: 0x100002DE4, symSize: 0x94 }
  - { offsetInCU: 0xB872, offset: 0xB872, size: 0x8, addend: 0x0, symName: __ZNK9__gnu_cxx17__normal_iteratorIPKiSt6vectorIiSaIiEEEdeEv, symObjAddr: 0x16F0, symBinAddr: 0x100002DA4, symSize: 0x18 }
  - { offsetInCU: 0xB87A, offset: 0xB87A, size: 0x8, addend: 0x0, symName: __ZN9__gnu_cxx17__normal_iteratorIPiSt6vectorIiSaIiEEEmmEv, symObjAddr: 0x1708, symBinAddr: 0x100002DBC, symSize: 0x28 }
  - { offsetInCU: 0xB8A1, offset: 0xB8A1, size: 0x8, addend: 0x0, symName: __ZNKSt6vectorIiSaIiEE5beginEv, symObjAddr: 0x16CC, symBinAddr: 0x100002D80, symSize: 0x24 }
  - { offsetInCU: 0xB8A9, offset: 0xB8A9, size: 0x8, addend: 0x0, symName: __ZNK9__gnu_cxx17__normal_iteratorIPKiSt6vectorIiSaIiEEEdeEv, symObjAddr: 0x16F0, symBinAddr: 0x100002DA4, symSize: 0x18 }
  - { offsetInCU: 0xB9DD, offset: 0xB9DD, size: 0x8, addend: 0x0, symName: __ZSt11__push_heapIN9__gnu_cxx17__normal_iteratorIPiSt6vectorIiSaIiEEEEliNS0_5__ops14_Iter_comp_valISt7greaterIiEEEEvT_T0_SD_T1_RT2_, symObjAddr: 0x15A4, symBinAddr: 0x100002C58, symSize: 0x128 }
  - { offsetInCU: 0xB9E5, offset: 0xB9E5, size: 0x8, addend: 0x0, symName: __ZNKSt6vectorIiSaIiEE5beginEv, symObjAddr: 0x16CC, symBinAddr: 0x100002D80, symSize: 0x24 }
  - { offsetInCU: 0xBA28, offset: 0xBA28, size: 0x8, addend: 0x0, symName: __ZN9__gnu_cxxmiIPiSt6vectorIiSaIiEEEENS_17__normal_iteratorIT_T0_E15difference_typeERKS8_SB_, symObjAddr: 0x1564, symBinAddr: 0x100002C18, symSize: 0x40 }
  - { offsetInCU: 0xBA30, offset: 0xBA30, size: 0x8, addend: 0x0, symName: __ZSt11__push_heapIN9__gnu_cxx17__normal_iteratorIPiSt6vectorIiSaIiEEEEliNS0_5__ops14_Iter_comp_valISt7greaterIiEEEEvT_T0_SD_T1_RT2_, symObjAddr: 0x15A4, symBinAddr: 0x100002C58, symSize: 0x128 }
  - { offsetInCU: 0xBA5B, offset: 0xBA5B, size: 0x8, addend: 0x0, symName: __ZSt4moveIRiEONSt16remove_referenceIT_E4typeEOS2_, symObjAddr: 0x1550, symBinAddr: 0x100002C04, symSize: 0x14 }
  - { offsetInCU: 0xBA63, offset: 0xBA63, size: 0x8, addend: 0x0, symName: __ZN9__gnu_cxxmiIPiSt6vectorIiSaIiEEEENS_17__normal_iteratorIT_T0_E15difference_typeERKS8_SB_, symObjAddr: 0x1564, symBinAddr: 0x100002C18, symSize: 0x40 }
  - { offsetInCU: 0xBA6E, offset: 0xBA6E, size: 0x8, addend: 0x0, symName: __ZNK9__gnu_cxx17__normal_iteratorIPiSt6vectorIiSaIiEEEdeEv, symObjAddr: 0x1538, symBinAddr: 0x100002BEC, symSize: 0x18 }
  - { offsetInCU: 0xBA76, offset: 0xBA76, size: 0x8, addend: 0x0, symName: __ZSt4moveIRiEONSt16remove_referenceIT_E4typeEOS2_, symObjAddr: 0x1550, symBinAddr: 0x100002C04, symSize: 0x14 }
  - { offsetInCU: 0xBA9D, offset: 0xBA9D, size: 0x8, addend: 0x0, symName: __ZNK9__gnu_cxx17__normal_iteratorIPiSt6vectorIiSaIiEEEmiEl, symObjAddr: 0x14F4, symBinAddr: 0x100002BA8, symSize: 0x44 }
  - { offsetInCU: 0xBAA5, offset: 0xBAA5, size: 0x8, addend: 0x0, symName: __ZNK9__gnu_cxx17__normal_iteratorIPiSt6vectorIiSaIiEEEdeEv, symObjAddr: 0x1538, symBinAddr: 0x100002BEC, symSize: 0x18 }
  - { offsetInCU: 0xBB42, offset: 0xBB42, size: 0x8, addend: 0x0, symName: __ZN9__gnu_cxx5__ops14_Iter_comp_valISt7greaterIiEEC1ES3_, symObjAddr: 0x14D0, symBinAddr: 0x100002B84, symSize: 0x24 }
  - { offsetInCU: 0xBB4A, offset: 0xBB4A, size: 0x8, addend: 0x0, symName: __ZNK9__gnu_cxx17__normal_iteratorIPiSt6vectorIiSaIiEEEmiEl, symObjAddr: 0x14F4, symBinAddr: 0x100002BA8, symSize: 0x44 }
  - { offsetInCU: 0xBBAB, offset: 0xBBAB, size: 0x8, addend: 0x0, symName: __ZN9__gnu_cxx17__normal_iteratorIPiSt6vectorIiSaIiEEEC1ERKS1_, symObjAddr: 0x14A8, symBinAddr: 0x100002B5C, symSize: 0x28 }
  - { offsetInCU: 0xBBB3, offset: 0xBBB3, size: 0x8, addend: 0x0, symName: __ZN9__gnu_cxx5__ops14_Iter_comp_valISt7greaterIiEEC1ES3_, symObjAddr: 0x14D0, symBinAddr: 0x100002B84, symSize: 0x24 }
  - { offsetInCU: 0xBBA7, offset: 0xBBA7, size: 0x8, addend: 0x0, symName: __ZNSt6vectorIiSaIiEE17_M_realloc_insertIJRKiEEEvN9__gnu_cxx17__normal_iteratorIPiS1_EEDpOT_, symObjAddr: 0x12E8, symBinAddr: 0x10000299C, symSize: 0x1C0 }
  - { offsetInCU: 0xBBAF, offset: 0xBBAF, size: 0x8, addend: 0x0, symName: __ZN9__gnu_cxx17__normal_iteratorIPiSt6vectorIiSaIiEEEC1ERKS1_, symObjAddr: 0x14A8, symBinAddr: 0x100002B5C, symSize: 0x28 }
  - { offsetInCU: 0xBE79, offset: 0xBE79, size: 0x8, addend: 0x0, symName: __ZSt22__final_insertion_sortIN9__gnu_cxx17__normal_iteratorIPSt5arrayIiLm2EESt6vectorIS3_SaIS3_EEEENS0_5__ops15_Iter_less_iterEEvT_SB_T0_, symObjAddr: 0x124C, symBinAddr: 0x100002900, symSize: 0x9C }
  - { offsetInCU: 0xBE81, offset: 0xBE81, size: 0x8, addend: 0x0, symName: __ZNSt6vectorIiSaIiEE17_M_realloc_insertIJRKiEEEvN9__gnu_cxx17__normal_iteratorIPiS1_EEDpOT_, symObjAddr: 0x12E8, symBinAddr: 0x10000299C, symSize: 0x1C0 }
  - { offsetInCU: 0xBEF4, offset: 0xBEF4, size: 0x8, addend: 0x0, symName: __ZSt16__introsort_loopIN9__gnu_cxx17__normal_iteratorIPSt5arrayIiLm2EESt6vectorIS3_SaIS3_EEEElNS0_5__ops15_Iter_less_iterEEvT_SB_T0_T1_, symObjAddr: 0x1194, symBinAddr: 0x100002848, symSize: 0xB8 }
  - { offsetInCU: 0xBEFC, offset: 0xBEFC, size: 0x8, addend: 0x0, symName: __ZSt22__final_insertion_sortIN9__gnu_cxx17__normal_iteratorIPSt5arrayIiLm2EESt6vectorIS3_SaIS3_EEEENS0_5__ops15_Iter_less_iterEEvT_SB_T0_, symObjAddr: 0x124C, symBinAddr: 0x100002900, symSize: 0x9C }
  - { offsetInCU: 0xBEBD, offset: 0xBEBD, size: 0x8, addend: 0x0, symName: __ZSt4__lgIlET_S0_, symObjAddr: 0x1170, symBinAddr: 0x100002824, symSize: 0x24 }
  - { offsetInCU: 0xBEC5, offset: 0xBEC5, size: 0x8, addend: 0x0, symName: __ZSt16__introsort_loopIN9__gnu_cxx17__normal_iteratorIPSt5arrayIiLm2EESt6vectorIS3_SaIS3_EEEElNS0_5__ops15_Iter_less_iterEEvT_SB_T0_T1_, symObjAddr: 0x1194, symBinAddr: 0x100002848, symSize: 0xB8 }
  - { offsetInCU: 0xBF99, offset: 0xBF99, size: 0x8, addend: 0x0, symName: __ZN9__gnu_cxxmiIPSt5arrayIiLm2EESt6vectorIS2_SaIS2_EEEENS_17__normal_iteratorIT_T0_E15difference_typeERKSA_SD_, symObjAddr: 0x1130, symBinAddr: 0x1000027E4, symSize: 0x40 }
  - { offsetInCU: 0xBFA1, offset: 0xBFA1, size: 0x8, addend: 0x0, symName: __ZSt4__lgIlET_S0_, symObjAddr: 0x1170, symBinAddr: 0x100002824, symSize: 0x24 }
  - { offsetInCU: 0xBFF4, offset: 0xBFF4, size: 0x8, addend: 0x0, symName: __ZN9__gnu_cxxneIPSt5arrayIiLm2EESt6vectorIS2_SaIS2_EEEEbRKNS_17__normal_iteratorIT_T0_EESC_, symObjAddr: 0x10EC, symBinAddr: 0x1000027A0, symSize: 0x44 }
  - { offsetInCU: 0xBFFC, offset: 0xBFFC, size: 0x8, addend: 0x0, symName: __ZN9__gnu_cxxmiIPSt5arrayIiLm2EESt6vectorIS2_SaIS2_EEEENS_17__normal_iteratorIT_T0_E15difference_typeERKSA_SD_, symObjAddr: 0x1130, symBinAddr: 0x1000027E4, symSize: 0x40 }
  - { offsetInCU: 0xC012, offset: 0xC012, size: 0x8, addend: 0x0, symName: __ZNSt6vectorISt5arrayIiLm2EESaIS1_EE11_S_relocateEPS1_S4_S4_RS2_, symObjAddr: 0x10B8, symBinAddr: 0x10000276C, symSize: 0x34 }
  - { offsetInCU: 0xC01A, offset: 0xC01A, size: 0x8, addend: 0x0, symName: __ZN9__gnu_cxxneIPSt5arrayIiLm2EESt6vectorIS2_SaIS2_EEEEbRKNS_17__normal_iteratorIT_T0_EESC_, symObjAddr: 0x10EC, symBinAddr: 0x1000027A0, symSize: 0x44 }
  - { offsetInCU: 0xC080, offset: 0xC080, size: 0x8, addend: 0x0, symName: __ZNSt12_Vector_baseISt5arrayIiLm2EESaIS1_EE11_M_allocateEm, symObjAddr: 0x1068, symBinAddr: 0x10000271C, symSize: 0x50 }
  - { offsetInCU: 0xC088, offset: 0xC088, size: 0x8, addend: 0x0, symName: __ZNSt6vectorISt5arrayIiLm2EESaIS1_EE11_S_relocateEPS1_S4_S4_RS2_, symObjAddr: 0x10B8, symBinAddr: 0x10000276C, symSize: 0x34 }
  - { offsetInCU: 0xC0F5, offset: 0xC0F5, size: 0x8, addend: 0x0, symName: __ZNKSt6vectorISt5arrayIiLm2EESaIS1_EE12_M_check_lenEmPKc, symObjAddr: 0xF98, symBinAddr: 0x10000264C, symSize: 0xD0 }
  - { offsetInCU: 0xC0FD, offset: 0xC0FD, size: 0x8, addend: 0x0, symName: __ZNSt12_Vector_baseISt5arrayIiLm2EESaIS1_EE11_M_allocateEm, symObjAddr: 0x1068, symBinAddr: 0x10000271C, symSize: 0x50 }
  - { offsetInCU: 0xC206, offset: 0xC206, size: 0x8, addend: 0x0, symName: __ZSt27__uninitialized_default_n_aIPSt5arrayIiLm2EEmS1_ET_S3_T0_RSaIT1_E, symObjAddr: 0xF70, symBinAddr: 0x100002624, symSize: 0x28 }
  - { offsetInCU: 0xC20E, offset: 0xC20E, size: 0x8, addend: 0x0, symName: __ZNKSt6vectorISt5arrayIiLm2EESaIS1_EE12_M_check_lenEmPKc, symObjAddr: 0xF98, symBinAddr: 0x10000264C, symSize: 0xD0 }
  - { offsetInCU: 0xC1E6, offset: 0xC1E6, size: 0x8, addend: 0x0, symName: __ZNSt12_Vector_baseISt5arrayIiLm2EESaIS1_EE19_M_get_Tp_allocatorEv, symObjAddr: 0xF5C, symBinAddr: 0x100002610, symSize: 0x14 }
  - { offsetInCU: 0xC1EE, offset: 0xC1EE, size: 0x8, addend: 0x0, symName: __ZSt27__uninitialized_default_n_aIPSt5arrayIiLm2EEmS1_ET_S3_T0_RSaIT1_E, symObjAddr: 0xF70, symBinAddr: 0x100002624, symSize: 0x28 }
  - { offsetInCU: 0xC215, offset: 0xC215, size: 0x8, addend: 0x0, symName: __ZNKSt6vectorISt5arrayIiLm2EESaIS1_EE8max_sizeEv, symObjAddr: 0xF3C, symBinAddr: 0x1000025F0, symSize: 0x20 }
  - { offsetInCU: 0xC21D, offset: 0xC21D, size: 0x8, addend: 0x0, symName: __ZNSt12_Vector_baseISt5arrayIiLm2EESaIS1_EE19_M_get_Tp_allocatorEv, symObjAddr: 0xF5C, symBinAddr: 0x100002610, symSize: 0x14 }
  - { offsetInCU: 0xC299, offset: 0xC299, size: 0x8, addend: 0x0, symName: __ZNSt12_Vector_baseIiSaIiEE19_M_get_Tp_allocatorEv, symObjAddr: 0xF28, symBinAddr: 0x1000025DC, symSize: 0x14 }
  - { offsetInCU: 0xC2A1, offset: 0xC2A1, size: 0x8, addend: 0x0, symName: __ZNKSt6vectorISt5arrayIiLm2EESaIS1_EE8max_sizeEv, symObjAddr: 0xF3C, symBinAddr: 0x1000025F0, symSize: 0x20 }
  - { offsetInCU: 0xC2C8, offset: 0xC2C8, size: 0x8, addend: 0x0, symName: __ZNSt12_Vector_baseIiSaIiEE13_M_deallocateEPim, symObjAddr: 0xED0, symBinAddr: 0x100002584, symSize: 0x58 }
  - { offsetInCU: 0xC2D0, offset: 0xC2D0, size: 0x8, addend: 0x0, symName: __ZNSt12_Vector_baseIiSaIiEE19_M_get_Tp_allocatorEv, symObjAddr: 0xF28, symBinAddr: 0x1000025DC, symSize: 0x14 }
  - { offsetInCU: 0xC3A2, offset: 0xC3A2, size: 0x8, addend: 0x0, symName: __ZNSt15__new_allocatorIiED2Ev, symObjAddr: 0xEBC, symBinAddr: 0x100002570, symSize: 0x14 }
  - { offsetInCU: 0xC3AA, offset: 0xC3AA, size: 0x8, addend: 0x0, symName: __ZNSt12_Vector_baseIiSaIiEE13_M_deallocateEPim, symObjAddr: 0xED0, symBinAddr: 0x100002584, symSize: 0x58 }
  - { offsetInCU: 0xC3FE, offset: 0xC3FE, size: 0x8, addend: 0x0, symName: __ZNSt12_Vector_baseIiSaIiEE17_Vector_impl_dataC2Ev, symObjAddr: 0xE90, symBinAddr: 0x100002544, symSize: 0x2C }
  - { offsetInCU: 0xC406, offset: 0xC406, size: 0x8, addend: 0x0, symName: __ZNSt15__new_allocatorIiED2Ev, symObjAddr: 0xEBC, symBinAddr: 0x100002570, symSize: 0x14 }
  - { offsetInCU: 0xC469, offset: 0xC469, size: 0x8, addend: 0x0, symName: __ZNSt6vectorIiSaIiEE8pop_backEv, symObjAddr: 0xE3C, symBinAddr: 0x1000024F0, symSize: 0x54 }
  - { offsetInCU: 0xC471, offset: 0xC471, size: 0x8, addend: 0x0, symName: __ZNSt12_Vector_baseIiSaIiEE17_Vector_impl_dataC2Ev, symObjAddr: 0xE90, symBinAddr: 0x100002544, symSize: 0x2C }
  - { offsetInCU: 0xC5AB, offset: 0xC5AB, size: 0x8, addend: 0x0, symName: __ZSt8pop_heapIN9__gnu_cxx17__normal_iteratorIPiSt6vectorIiSaIiEEEESt7greaterIiEEvT_S9_T0_, symObjAddr: 0xDD8, symBinAddr: 0x10000248C, symSize: 0x64 }
  - { offsetInCU: 0xC5B3, offset: 0xC5B3, size: 0x8, addend: 0x0, symName: __ZNSt6vectorIiSaIiEE8pop_backEv, symObjAddr: 0xE3C, symBinAddr: 0x1000024F0, symSize: 0x54 }
  - { offsetInCU: 0xC5F6, offset: 0xC5F6, size: 0x8, addend: 0x0, symName: __ZSt4moveIRSt7greaterIiEEONSt16remove_referenceIT_E4typeEOS4_, symObjAddr: 0xDC4, symBinAddr: 0x100002478, symSize: 0x14 }
  - { offsetInCU: 0xC5FE, offset: 0xC5FE, size: 0x8, addend: 0x0, symName: __ZSt8pop_heapIN9__gnu_cxx17__normal_iteratorIPiSt6vectorIiSaIiEEEESt7greaterIiEEvT_S9_T0_, symObjAddr: 0xDD8, symBinAddr: 0x10000248C, symSize: 0x64 }
  - { offsetInCU: 0xC5F9, offset: 0xC5F9, size: 0x8, addend: 0x0, symName: __ZNKSt6vectorIiSaIiEE5frontEv, symObjAddr: 0xD9C, symBinAddr: 0x100002450, symSize: 0x28 }
  - { offsetInCU: 0xC601, offset: 0xC601, size: 0x8, addend: 0x0, symName: __ZSt4moveIRSt7greaterIiEEONSt16remove_referenceIT_E4typeEOS4_, symObjAddr: 0xDC4, symBinAddr: 0x100002478, symSize: 0x14 }
  - { offsetInCU: 0xC6D8, offset: 0xC6D8, size: 0x8, addend: 0x0, symName: __ZSt9push_heapIN9__gnu_cxx17__normal_iteratorIPiSt6vectorIiSaIiEEEESt7greaterIiEEvT_S9_T0_, symObjAddr: 0xD04, symBinAddr: 0x1000023B8, symSize: 0x98 }
  - { offsetInCU: 0xC6E0, offset: 0xC6E0, size: 0x8, addend: 0x0, symName: __ZNKSt6vectorIiSaIiEE5frontEv, symObjAddr: 0xD9C, symBinAddr: 0x100002450, symSize: 0x28 }
  - { offsetInCU: 0xC6E3, offset: 0xC6E3, size: 0x8, addend: 0x0, symName: __ZNSt6vectorIiSaIiEE3endEv, symObjAddr: 0xCDC, symBinAddr: 0x100002390, symSize: 0x28 }
  - { offsetInCU: 0xC6EB, offset: 0xC6EB, size: 0x8, addend: 0x0, symName: __ZSt9push_heapIN9__gnu_cxx17__normal_iteratorIPiSt6vectorIiSaIiEEEESt7greaterIiEEvT_S9_T0_, symObjAddr: 0xD04, symBinAddr: 0x1000023B8, symSize: 0x98 }
  - { offsetInCU: 0xC712, offset: 0xC712, size: 0x8, addend: 0x0, symName: __ZNSt6vectorIiSaIiEE5beginEv, symObjAddr: 0xCB8, symBinAddr: 0x10000236C, symSize: 0x24 }
  - { offsetInCU: 0xC71A, offset: 0xC71A, size: 0x8, addend: 0x0, symName: __ZNSt6vectorIiSaIiEE3endEv, symObjAddr: 0xCDC, symBinAddr: 0x100002390, symSize: 0x28 }
  - { offsetInCU: 0xC741, offset: 0xC741, size: 0x8, addend: 0x0, symName: __ZNSt6vectorIiSaIiEE9push_backERKi, symObjAddr: 0xBE4, symBinAddr: 0x100002298, symSize: 0xD4 }
  - { offsetInCU: 0xC749, offset: 0xC749, size: 0x8, addend: 0x0, symName: __ZNSt6vectorIiSaIiEE5beginEv, symObjAddr: 0xCB8, symBinAddr: 0x10000236C, symSize: 0x24 }
  - { offsetInCU: 0xC800, offset: 0xC800, size: 0x8, addend: 0x0, symName: __ZNKSt6vectorIiSaIiEE4sizeEv, symObjAddr: 0xBBC, symBinAddr: 0x100002270, symSize: 0x28 }
  - { offsetInCU: 0xC808, offset: 0xC808, size: 0x8, addend: 0x0, symName: __ZNSt6vectorIiSaIiEE9push_backERKi, symObjAddr: 0xBE4, symBinAddr: 0x100002298, symSize: 0xD4 }
  - { offsetInCU: 0xC929, offset: 0xC929, size: 0x8, addend: 0x0, symName: __ZSt6__sortIN9__gnu_cxx17__normal_iteratorIPSt5arrayIiLm2EESt6vectorIS3_SaIS3_EEEENS0_5__ops15_Iter_less_iterEEvT_SB_T0_, symObjAddr: 0xB40, symBinAddr: 0x1000021F4, symSize: 0x7C }
  - { offsetInCU: 0xC931, offset: 0xC931, size: 0x8, addend: 0x0, symName: __ZNKSt6vectorIiSaIiEE4sizeEv, symObjAddr: 0xBBC, symBinAddr: 0x100002270, symSize: 0x28 }
  - { offsetInCU: 0xC922, offset: 0xC922, size: 0x8, addend: 0x0, symName: __ZN9__gnu_cxx17__normal_iteratorIPSt5arrayIiLm2EESt6vectorIS2_SaIS2_EEEC1ERKS3_, symObjAddr: 0xB18, symBinAddr: 0x1000021CC, symSize: 0x28 }
  - { offsetInCU: 0xC92A, offset: 0xC92A, size: 0x8, addend: 0x0, symName: __ZSt6__sortIN9__gnu_cxx17__normal_iteratorIPSt5arrayIiLm2EESt6vectorIS3_SaIS3_EEEENS0_5__ops15_Iter_less_iterEEvT_SB_T0_, symObjAddr: 0xB40, symBinAddr: 0x1000021F4, symSize: 0x7C }
  - { offsetInCU: 0xC90C, offset: 0xC90C, size: 0x8, addend: 0x0, symName: __ZNSt6vectorISt5arrayIiLm2EESaIS1_EE15_M_erase_at_endEPS1_, symObjAddr: 0xA90, symBinAddr: 0x100002144, symSize: 0x88 }
  - { offsetInCU: 0xC914, offset: 0xC914, size: 0x8, addend: 0x0, symName: __ZN9__gnu_cxx17__normal_iteratorIPSt5arrayIiLm2EESt6vectorIS2_SaIS2_EEEC1ERKS3_, symObjAddr: 0xB18, symBinAddr: 0x1000021CC, symSize: 0x28 }
  - { offsetInCU: 0xC9B3, offset: 0xC9B3, size: 0x8, addend: 0x0, symName: __ZNSt6vectorISt5arrayIiLm2EESaIS1_EE17_M_default_appendEm, symObjAddr: 0x890, symBinAddr: 0x100001F44, symSize: 0x200 }
  - { offsetInCU: 0xC9BB, offset: 0xC9BB, size: 0x8, addend: 0x0, symName: __ZNSt6vectorISt5arrayIiLm2EESaIS1_EE15_M_erase_at_endEPS1_, symObjAddr: 0xA90, symBinAddr: 0x100002144, symSize: 0x88 }
  - { offsetInCU: 0xCA92, offset: 0xCA92, size: 0x8, addend: 0x0, symName: __ZNKSt6vectorISt5arrayIiLm2EESaIS1_EE4sizeEv, symObjAddr: 0x868, symBinAddr: 0x100001F1C, symSize: 0x28 }
  - { offsetInCU: 0xCA9A, offset: 0xCA9A, size: 0x8, addend: 0x0, symName: __ZNSt6vectorISt5arrayIiLm2EESaIS1_EE17_M_default_appendEm, symObjAddr: 0x890, symBinAddr: 0x100001F44, symSize: 0x200 }
  - { offsetInCU: 0xCB01, offset: 0xCB01, size: 0x8, addend: 0x0, symName: __ZNSt6vectorIiSaIiEED1Ev, symObjAddr: 0x80C, symBinAddr: 0x100001EC0, symSize: 0x5C }
  - { offsetInCU: 0xCB09, offset: 0xCB09, size: 0x8, addend: 0x0, symName: __ZNKSt6vectorISt5arrayIiLm2EESaIS1_EE4sizeEv, symObjAddr: 0x868, symBinAddr: 0x100001F1C, symSize: 0x28 }
  - { offsetInCU: 0xCB9B, offset: 0xCB9B, size: 0x8, addend: 0x0, symName: __ZNSt12_Vector_baseIiSaIiEED2Ev, symObjAddr: 0x7BC, symBinAddr: 0x100001E70, symSize: 0x50 }
  - { offsetInCU: 0xCBA3, offset: 0xCBA3, size: 0x8, addend: 0x0, symName: __ZNSt6vectorIiSaIiEED1Ev, symObjAddr: 0x80C, symBinAddr: 0x100001EC0, symSize: 0x5C }
  - { offsetInCU: 0xCC17, offset: 0xCC17, size: 0x8, addend: 0x0, symName: __ZNSt12_Vector_baseIiSaIiEE12_Vector_implC1Ev, symObjAddr: 0x784, symBinAddr: 0x100001E38, symSize: 0x38 }
  - { offsetInCU: 0xCC1F, offset: 0xCC1F, size: 0x8, addend: 0x0, symName: __ZNSt12_Vector_baseIiSaIiEED2Ev, symObjAddr: 0x7BC, symBinAddr: 0x100001E70, symSize: 0x50 }
  - { offsetInCU: 0xCC63, offset: 0xCC63, size: 0x8, addend: 0x0, symName: __ZNSt12_Vector_baseISt5arrayIiLm2EESaIS1_EE13_M_deallocateEPS1_m, symObjAddr: 0x72C, symBinAddr: 0x100001DE0, symSize: 0x58 }
  - { offsetInCU: 0xCC6B, offset: 0xCC6B, size: 0x8, addend: 0x0, symName: __ZNSt12_Vector_baseIiSaIiEE12_Vector_implC1Ev, symObjAddr: 0x784, symBinAddr: 0x100001E38, symSize: 0x38 }
  - { offsetInCU: 0xCD4B, offset: 0xCD4B, size: 0x8, addend: 0x0, symName: __ZNSt15__new_allocatorISt5arrayIiLm2EEED2Ev, symObjAddr: 0x718, symBinAddr: 0x100001DCC, symSize: 0x14 }
  - { offsetInCU: 0xCD53, offset: 0xCD53, size: 0x8, addend: 0x0, symName: __ZNSt12_Vector_baseISt5arrayIiLm2EESaIS1_EE13_M_deallocateEPS1_m, symObjAddr: 0x72C, symBinAddr: 0x100001DE0, symSize: 0x58 }
  - { offsetInCU: 0xCDA9, offset: 0xCDA9, size: 0x8, addend: 0x0, symName: __ZNSt12_Vector_baseISt5arrayIiLm2EESaIS1_EE17_Vector_impl_dataC2Ev, symObjAddr: 0x6EC, symBinAddr: 0x100001DA0, symSize: 0x2C }
  - { offsetInCU: 0xCDB1, offset: 0xCDB1, size: 0x8, addend: 0x0, symName: __ZNSt15__new_allocatorISt5arrayIiLm2EEED2Ev, symObjAddr: 0x718, symBinAddr: 0x100001DCC, symSize: 0x14 }
  - { offsetInCU: 0xCDAD, offset: 0xCDAD, size: 0x8, addend: 0x0, symName: __ZNSt14priority_queueIiSt6vectorIiSaIiEESt7greaterIiEE3popEv, symObjAddr: 0x6A0, symBinAddr: 0x100001D54, symSize: 0x4C }
  - { offsetInCU: 0xCDB5, offset: 0xCDB5, size: 0x8, addend: 0x0, symName: __ZNSt12_Vector_baseISt5arrayIiLm2EESaIS1_EE17_Vector_impl_dataC2Ev, symObjAddr: 0x6EC, symBinAddr: 0x100001DA0, symSize: 0x2C }
  - { offsetInCU: 0xCDDC, offset: 0xCDDC, size: 0x8, addend: 0x0, symName: __ZNKSt14priority_queueIiSt6vectorIiSaIiEESt7greaterIiEE3topEv, symObjAddr: 0x684, symBinAddr: 0x100001D38, symSize: 0x1C }
  - { offsetInCU: 0xCDE4, offset: 0xCDE4, size: 0x8, addend: 0x0, symName: __ZNSt14priority_queueIiSt6vectorIiSaIiEESt7greaterIiEE3popEv, symObjAddr: 0x6A0, symBinAddr: 0x100001D54, symSize: 0x4C }
  - { offsetInCU: 0xCE0B, offset: 0xCE0B, size: 0x8, addend: 0x0, symName: __ZNSt14priority_queueIiSt6vectorIiSaIiEESt7greaterIiEE4pushERKi, symObjAddr: 0x630, symBinAddr: 0x100001CE4, symSize: 0x54 }
  - { offsetInCU: 0xCE13, offset: 0xCE13, size: 0x8, addend: 0x0, symName: __ZNKSt14priority_queueIiSt6vectorIiSaIiEESt7greaterIiEE3topEv, symObjAddr: 0x684, symBinAddr: 0x100001D38, symSize: 0x1C }
  - { offsetInCU: 0xCE4E, offset: 0xCE4E, size: 0x8, addend: 0x0, symName: __ZNKSt14priority_queueIiSt6vectorIiSaIiEESt7greaterIiEE4sizeEv, symObjAddr: 0x614, symBinAddr: 0x100001CC8, symSize: 0x1C }
  - { offsetInCU: 0xCE56, offset: 0xCE56, size: 0x8, addend: 0x0, symName: __ZNSt14priority_queueIiSt6vectorIiSaIiEESt7greaterIiEE4pushERKi, symObjAddr: 0x630, symBinAddr: 0x100001CE4, symSize: 0x54 }
  - { offsetInCU: 0xCF32, offset: 0xCF32, size: 0x8, addend: 0x0, symName: __ZSt4sortIN9__gnu_cxx17__normal_iteratorIPSt5arrayIiLm2EESt6vectorIS3_SaIS3_EEEEEvT_S9_, symObjAddr: 0x5DC, symBinAddr: 0x100001C90, symSize: 0x38 }
  - { offsetInCU: 0xCF3A, offset: 0xCF3A, size: 0x8, addend: 0x0, symName: __ZNKSt14priority_queueIiSt6vectorIiSaIiEESt7greaterIiEE4sizeEv, symObjAddr: 0x614, symBinAddr: 0x100001CC8, symSize: 0x1C }
  - { offsetInCU: 0xCED5, offset: 0xCED5, size: 0x8, addend: 0x0, symName: __ZNSt6vectorISt5arrayIiLm2EESaIS1_EE3endEv, symObjAddr: 0x5B4, symBinAddr: 0x100001C68, symSize: 0x28 }
  - { offsetInCU: 0xCEDD, offset: 0xCEDD, size: 0x8, addend: 0x0, symName: __ZSt4sortIN9__gnu_cxx17__normal_iteratorIPSt5arrayIiLm2EESt6vectorIS3_SaIS3_EEEEEvT_S9_, symObjAddr: 0x5DC, symBinAddr: 0x100001C90, symSize: 0x38 }
  - { offsetInCU: 0xCF04, offset: 0xCF04, size: 0x8, addend: 0x0, symName: __ZNSt6vectorISt5arrayIiLm2EESaIS1_EE5beginEv, symObjAddr: 0x590, symBinAddr: 0x100001C44, symSize: 0x24 }
  - { offsetInCU: 0xCF0C, offset: 0xCF0C, size: 0x8, addend: 0x0, symName: __ZNSt6vectorISt5arrayIiLm2EESaIS1_EE3endEv, symObjAddr: 0x5B4, symBinAddr: 0x100001C68, symSize: 0x28 }
  - { offsetInCU: 0xCF33, offset: 0xCF33, size: 0x8, addend: 0x0, symName: __ZNSt5arrayIiLm2EEixEm, symObjAddr: 0x56C, symBinAddr: 0x100001C20, symSize: 0x24 }
  - { offsetInCU: 0xCF3B, offset: 0xCF3B, size: 0x8, addend: 0x0, symName: __ZNSt6vectorISt5arrayIiLm2EESaIS1_EE5beginEv, symObjAddr: 0x590, symBinAddr: 0x100001C44, symSize: 0x24 }
  - { offsetInCU: 0xCF75, offset: 0xCF75, size: 0x8, addend: 0x0, symName: __ZNSt6vectorISt5arrayIiLm2EESaIS1_EEixEm, symObjAddr: 0x544, symBinAddr: 0x100001BF8, symSize: 0x28 }
  - { offsetInCU: 0xCF7D, offset: 0xCF7D, size: 0x8, addend: 0x0, symName: __ZNSt5arrayIiLm2EEixEm, symObjAddr: 0x56C, symBinAddr: 0x100001C20, symSize: 0x24 }
  - { offsetInCU: 0xCFB8, offset: 0xCFB8, size: 0x8, addend: 0x0, symName: __ZNSt6vectorISt5arrayIiLm2EESaIS1_EE6resizeEm, symObjAddr: 0x494, symBinAddr: 0x100001B48, symSize: 0xB0 }
  - { offsetInCU: 0xCFC0, offset: 0xCFC0, size: 0x8, addend: 0x0, symName: __ZNSt6vectorISt5arrayIiLm2EESaIS1_EEixEm, symObjAddr: 0x544, symBinAddr: 0x100001BF8, symSize: 0x28 }
  - { offsetInCU: 0xD069, offset: 0xD069, size: 0x8, addend: 0x0, symName: __ZNSt14priority_queueIiSt6vectorIiSaIiEESt7greaterIiEEC1IS2_vEEv, symObjAddr: 0x468, symBinAddr: 0x100001B1C, symSize: 0x2C }
  - { offsetInCU: 0xD071, offset: 0xD071, size: 0x8, addend: 0x0, symName: __ZNSt6vectorISt5arrayIiLm2EESaIS1_EE6resizeEm, symObjAddr: 0x494, symBinAddr: 0x100001B48, symSize: 0xB0 }
  - { offsetInCU: 0xD09C, offset: 0xD09C, size: 0x8, addend: 0x0, symName: __ZNSt6vectorIiSaIiEEC1Ev, symObjAddr: 0x448, symBinAddr: 0x100001AFC, symSize: 0x20 }
  - { offsetInCU: 0xD0A4, offset: 0xD0A4, size: 0x8, addend: 0x0, symName: __ZNSt14priority_queueIiSt6vectorIiSaIiEESt7greaterIiEEC1IS2_vEEv, symObjAddr: 0x468, symBinAddr: 0x100001B1C, symSize: 0x2C }
  - { offsetInCU: 0xD0EA, offset: 0xD0EA, size: 0x8, addend: 0x0, symName: __ZNSt12_Vector_baseIiSaIiEEC2Ev, symObjAddr: 0x428, symBinAddr: 0x100001ADC, symSize: 0x20 }
  - { offsetInCU: 0xD0F2, offset: 0xD0F2, size: 0x8, addend: 0x0, symName: __ZNSt6vectorIiSaIiEEC1Ev, symObjAddr: 0x448, symBinAddr: 0x100001AFC, symSize: 0x20 }
  - { offsetInCU: 0xD150, offset: 0xD150, size: 0x8, addend: 0x0, symName: __ZNSt12_Vector_baseIiSaIiEE12_Vector_implD1Ev, symObjAddr: 0x3FC, symBinAddr: 0x100001AB0, symSize: 0x2C }
  - { offsetInCU: 0xD158, offset: 0xD158, size: 0x8, addend: 0x0, symName: __ZNSt12_Vector_baseIiSaIiEEC2Ev, symObjAddr: 0x428, symBinAddr: 0x100001ADC, symSize: 0x20 }
  - { offsetInCU: 0xD1CD, offset: 0xD1CD, size: 0x8, addend: 0x0, symName: __ZNSt12_Vector_baseISt5arrayIiLm2EESaIS1_EED2Ev, symObjAddr: 0x3AC, symBinAddr: 0x100001A60, symSize: 0x50 }
  - { offsetInCU: 0xD1D5, offset: 0xD1D5, size: 0x8, addend: 0x0, symName: __ZNSt12_Vector_baseIiSaIiEE12_Vector_implD1Ev, symObjAddr: 0x3FC, symBinAddr: 0x100001AB0, symSize: 0x2C }
  - { offsetInCU: 0xD249, offset: 0xD249, size: 0x8, addend: 0x0, symName: __ZNSt12_Vector_baseISt5arrayIiLm2EESaIS1_EE12_Vector_implC1Ev, symObjAddr: 0x374, symBinAddr: 0x100001A28, symSize: 0x38 }
  - { offsetInCU: 0xD251, offset: 0xD251, size: 0x8, addend: 0x0, symName: __ZNSt12_Vector_baseISt5arrayIiLm2EESaIS1_EED2Ev, symObjAddr: 0x3AC, symBinAddr: 0x100001A60, symSize: 0x50 }
  - { offsetInCU: 0xD2B7, offset: 0xD2B7, size: 0x8, addend: 0x0, symName: __ZSt3maxImERKT_S2_S2_, symObjAddr: 0x33C, symBinAddr: 0x1000019F0, symSize: 0x38 }
  - { offsetInCU: 0xD2BF, offset: 0xD2BF, size: 0x8, addend: 0x0, symName: __ZNSt12_Vector_baseISt5arrayIiLm2EESaIS1_EE12_Vector_implC1Ev, symObjAddr: 0x374, symBinAddr: 0x100001A28, symSize: 0x38 }
  - { offsetInCU: 0xD2EF, offset: 0xD2EF, size: 0x8, addend: 0x0, symName: _main, symObjAddr: 0x108, symBinAddr: 0x1000017BC, symSize: 0x234 }
  - { offsetInCU: 0xD2F7, offset: 0xD2F7, size: 0x8, addend: 0x0, symName: __ZSt3maxImERKT_S2_S2_, symObjAddr: 0x33C, symBinAddr: 0x1000019F0, symSize: 0x38 }
  - { offsetInCU: 0xD408, offset: 0xD408, size: 0x8, addend: 0x0, symName: __ZNSt6vectorISt5arrayIiLm2EESaIS1_EEC1Ev, symObjAddr: 0xE8, symBinAddr: 0x10000179C, symSize: 0x20 }
  - { offsetInCU: 0xD410, offset: 0xD410, size: 0x8, addend: 0x0, symName: _main, symObjAddr: 0x108, symBinAddr: 0x1000017BC, symSize: 0x234 }
  - { offsetInCU: 0xD456, offset: 0xD456, size: 0x8, addend: 0x0, symName: __ZNSt12_Vector_baseISt5arrayIiLm2EESaIS1_EEC2Ev, symObjAddr: 0xC8, symBinAddr: 0x10000177C, symSize: 0x20 }
  - { offsetInCU: 0xD45E, offset: 0xD45E, size: 0x8, addend: 0x0, symName: __ZNSt6vectorISt5arrayIiLm2EESaIS1_EEC1Ev, symObjAddr: 0xE8, symBinAddr: 0x10000179C, symSize: 0x20 }
  - { offsetInCU: 0xD4BC, offset: 0xD4BC, size: 0x8, addend: 0x0, symName: __ZNSt12_Vector_baseISt5arrayIiLm2EESaIS1_EE12_Vector_implD1Ev, symObjAddr: 0x9C, symBinAddr: 0x100001750, symSize: 0x2C }
  - { offsetInCU: 0xD4C4, offset: 0xD4C4, size: 0x8, addend: 0x0, symName: __ZNSt12_Vector_baseISt5arrayIiLm2EESaIS1_EEC2Ev, symObjAddr: 0xC8, symBinAddr: 0x10000177C, symSize: 0x20 }
  - { offsetInCU: 0xD503, offset: 0xD503, size: 0x8, addend: 0x0, symName: __ZSt3minImERKT_S2_S2_, symObjAddr: 0x64, symBinAddr: 0x100001718, symSize: 0x38 }
  - { offsetInCU: 0xD50B, offset: 0xD50B, size: 0x8, addend: 0x0, symName: __ZNSt12_Vector_baseISt5arrayIiLm2EESaIS1_EE12_Vector_implD1Ev, symObjAddr: 0x9C, symBinAddr: 0x100001750, symSize: 0x2C }
  - { offsetInCU: 0xD540, offset: 0xD540, size: 0x8, addend: 0x0, symName: __ZnwmPv, symObjAddr: 0x4C, symBinAddr: 0x100001700, symSize: 0x18 }
  - { offsetInCU: 0xD548, offset: 0xD548, size: 0x8, addend: 0x0, symName: __ZSt3minImERKT_S2_S2_, symObjAddr: 0x64, symBinAddr: 0x100001718, symSize: 0x38 }
  - { offsetInCU: 0xD5A8, offset: 0xD5A8, size: 0x8, addend: 0x0, symName: __ZSt17__size_to_integerm, symObjAddr: 0x38, symBinAddr: 0x1000016EC, symSize: 0x14 }
  - { offsetInCU: 0xD5B0, offset: 0xD5B0, size: 0x8, addend: 0x0, symName: __ZnwmPv, symObjAddr: 0x4C, symBinAddr: 0x100001700, symSize: 0x18 }
  - { offsetInCU: 0xD607, offset: 0xD607, size: 0x8, addend: 0x0, symName: __ZN9__gnu_cxx5__ops15__val_comp_iterENS0_15_Iter_less_iterE, symObjAddr: 0x20, symBinAddr: 0x1000016D4, symSize: 0x18 }
  - { offsetInCU: 0xD60F, offset: 0xD60F, size: 0x8, addend: 0x0, symName: __ZSt17__size_to_integerm, symObjAddr: 0x38, symBinAddr: 0x1000016EC, symSize: 0x14 }
  - { offsetInCU: 0xD64C, offset: 0xD64C, size: 0x8, addend: 0x0, symName: __ZN9__gnu_cxx5__ops14_Iter_less_valC1ENS0_15_Iter_less_iterE, symObjAddr: 0x8, symBinAddr: 0x1000016BC, symSize: 0x18 }
  - { offsetInCU: 0xD654, offset: 0xD654, size: 0x8, addend: 0x0, symName: __ZN9__gnu_cxx5__ops15__val_comp_iterENS0_15_Iter_less_iterE, symObjAddr: 0x20, symBinAddr: 0x1000016D4, symSize: 0x18 }
  - { offsetInCU: 0xD687, offset: 0xD687, size: 0x8, addend: 0x0, symName: __ZN9__gnu_cxx5__ops16__iter_less_iterEv, symObjAddr: 0x0, symBinAddr: 0x1000016B4, symSize: 0x8 }
  - { offsetInCU: 0xD68F, offset: 0xD68F, size: 0x8, addend: 0x0, symName: __ZN9__gnu_cxx5__ops14_Iter_less_valC1ENS0_15_Iter_less_iterE, symObjAddr: 0x8, symBinAddr: 0x1000016BC, symSize: 0x18 }
...
