---
triple:          'arm64-apple-darwin'
binary-path:     '/Users/dingkai/Code/IOI2024/CSES/Dynamic Programming/Two Sets IIS3.gout'
relocations:
  - { offsetInCU: 0xCD, offset: 0xCD, size: 0x8, addend: 0x0, symName: __ZnwmPv, symObjAddr: 0x0, symBinAddr: 0x100001D9C, symSize: 0x18 }
  - { offsetInCU: 0xD5, offset: 0xD5, size: 0x8, addend: 0x0, symName: __ZL3MOD, symObjAddr: 0x33E8, symBinAddr: 0x100005A10, symSize: 0x0 }
  - { offsetInCU: 0x343C, offset: 0x343C, size: 0x8, addend: 0x0, symName: __ZStL8__ioinit, symObjAddr: 0x32270, symBinAddr: 0x10000C118, symSize: 0x0 }
  - { offsetInCU: 0x3451, offset: 0x3451, size: 0x8, addend: 0x0, symName: __ZL3MOD, symObjAddr: 0x33E8, symBinAddr: 0x100005A10, symSize: 0x0 }
  - { offsetInCU: 0x346A, offset: 0x346A, size: 0x8, addend: 0x0, symName: _n, symObjAddr: 0x32278, symBinAddr: 0x10000C120, symSize: 0x0 }
  - { offsetInCU: 0x5175, offset: 0x5175, size: 0x8, addend: 0x0, symName: _dp, symObjAddr: 0x32280, symBinAddr: 0x10000C128, symSize: 0x0 }
  - { offsetInCU: 0x8087, offset: 0x8087, size: 0x8, addend: 0x0, symName: __ZNSt8__detail30__integer_to_chars_is_unsignedIjEE, symObjAddr: 0x33EC, symBinAddr: 0x100005A14, symSize: 0x0 }
  - { offsetInCU: 0x80A1, offset: 0x80A1, size: 0x8, addend: 0x0, symName: __ZNSt8__detail30__integer_to_chars_is_unsignedImEE, symObjAddr: 0x33ED, symBinAddr: 0x100005A15, symSize: 0x0 }
  - { offsetInCU: 0x80BB, offset: 0x80BB, size: 0x8, addend: 0x0, symName: __ZNSt8__detail30__integer_to_chars_is_unsignedIyEE, symObjAddr: 0x33EE, symBinAddr: 0x100005A16, symSize: 0x0 }
  - { offsetInCU: 0x80EA, offset: 0x80EA, size: 0x8, addend: 0x0, symName: __GLOBAL__sub_I_Two_Sets_IIS3.cpp, symObjAddr: 0x33D4, symBinAddr: 0x100005170, symSize: 0x14 }
  - { offsetInCU: 0x80F2, offset: 0x80F2, size: 0x8, addend: 0x0, symName: __ZL3MOD, symObjAddr: 0x33E8, symBinAddr: 0x100005A10, symSize: 0x0 }
  - { offsetInCU: 0x813D, offset: 0x813D, size: 0x8, addend: 0x0, symName: __ZNSt6vectorIS_ISt4pairIiiESaIS1_EESaIS3_EED1Ev, symObjAddr: 0x3378, symBinAddr: 0x100005114, symSize: 0x5C }
  - { offsetInCU: 0x8145, offset: 0x8145, size: 0x8, addend: 0x0, symName: __GLOBAL__sub_I_Two_Sets_IIS3.cpp, symObjAddr: 0x33D4, symBinAddr: 0x100005170, symSize: 0x14 }
  - { offsetInCU: 0x81A0, offset: 0x81A0, size: 0x8, addend: 0x0, symName: __Z41__static_initialization_and_destruction_0v, symObjAddr: 0x3314, symBinAddr: 0x1000050B0, symSize: 0x64 }
  - { offsetInCU: 0x81A8, offset: 0x81A8, size: 0x8, addend: 0x0, symName: __ZNSt6vectorIS_ISt4pairIiiESaIS1_EESaIS3_EED1Ev, symObjAddr: 0x3378, symBinAddr: 0x100005114, symSize: 0x5C }
  - { offsetInCU: 0x81F4, offset: 0x81F4, size: 0x8, addend: 0x0, symName: __ZSt7forwardIRSt4pairIiiEEOT_RNSt16remove_referenceIS3_E4typeE, symObjAddr: 0x3300, symBinAddr: 0x10000509C, symSize: 0x14 }
  - { offsetInCU: 0x81FC, offset: 0x81FC, size: 0x8, addend: 0x0, symName: __Z41__static_initialization_and_destruction_0v, symObjAddr: 0x3314, symBinAddr: 0x1000050B0, symSize: 0x64 }
  - { offsetInCU: 0x824B, offset: 0x824B, size: 0x8, addend: 0x0, symName: __ZSt10_ConstructISt4pairIiiEJRS1_EEvPT_DpOT0_, symObjAddr: 0x32B8, symBinAddr: 0x100005054, symSize: 0x48 }
  - { offsetInCU: 0x8253, offset: 0x8253, size: 0x8, addend: 0x0, symName: __ZSt7forwardIRSt4pairIiiEEOT_RNSt16remove_referenceIS3_E4typeE, symObjAddr: 0x3300, symBinAddr: 0x10000509C, symSize: 0x14 }
  - { offsetInCU: 0x8249, offset: 0x8249, size: 0x8, addend: 0x0, symName: __ZNSt11__copy_moveILb0ELb0ESt26random_access_iterator_tagE8__copy_mIPSt4pairIiiES5_EET0_T_S7_S6_, symObjAddr: 0x3244, symBinAddr: 0x100004FE0, symSize: 0x74 }
  - { offsetInCU: 0x8251, offset: 0x8251, size: 0x8, addend: 0x0, symName: __ZSt10_ConstructISt4pairIiiEJRS1_EEvPT_DpOT0_, symObjAddr: 0x32B8, symBinAddr: 0x100005054, symSize: 0x48 }
  - { offsetInCU: 0x82F4, offset: 0x82F4, size: 0x8, addend: 0x0, symName: __ZNSt11__copy_moveILb0ELb0ESt26random_access_iterator_tagE8__copy_mIPKSt4pairIiiEPS4_EET0_T_S9_S8_, symObjAddr: 0x31D0, symBinAddr: 0x100004F6C, symSize: 0x74 }
  - { offsetInCU: 0x82FC, offset: 0x82FC, size: 0x8, addend: 0x0, symName: __ZNSt11__copy_moveILb0ELb0ESt26random_access_iterator_tagE8__copy_mIPSt4pairIiiES5_EET0_T_S7_S6_, symObjAddr: 0x3244, symBinAddr: 0x100004FE0, symSize: 0x74 }
  - { offsetInCU: 0x840F, offset: 0x840F, size: 0x8, addend: 0x0, symName: __ZSt4moveIRSaISt4pairIiiEEEONSt16remove_referenceIT_E4typeEOS5_, symObjAddr: 0x31BC, symBinAddr: 0x100004F58, symSize: 0x14 }
  - { offsetInCU: 0x8417, offset: 0x8417, size: 0x8, addend: 0x0, symName: __ZNSt11__copy_moveILb0ELb0ESt26random_access_iterator_tagE8__copy_mIPKSt4pairIiiEPS4_EET0_T_S9_S8_, symObjAddr: 0x31D0, symBinAddr: 0x100004F6C, symSize: 0x74 }
  - { offsetInCU: 0x83F3, offset: 0x83F3, size: 0x8, addend: 0x0, symName: __ZNSt12_Vector_baseISt4pairIiiESaIS1_EE17_Vector_impl_data12_M_copy_dataERKS4_, symObjAddr: 0x3174, symBinAddr: 0x100004F10, symSize: 0x48 }
  - { offsetInCU: 0x83FB, offset: 0x83FB, size: 0x8, addend: 0x0, symName: __ZSt4moveIRSaISt4pairIiiEEEONSt16remove_referenceIT_E4typeEOS5_, symObjAddr: 0x31BC, symBinAddr: 0x100004F58, symSize: 0x14 }
  - { offsetInCU: 0x848F, offset: 0x848F, size: 0x8, addend: 0x0, symName: __ZNSt12_Vector_baseISt4pairIiiESaIS1_EEC2ERKS2_, symObjAddr: 0x314C, symBinAddr: 0x100004EE8, symSize: 0x28 }
  - { offsetInCU: 0x8497, offset: 0x8497, size: 0x8, addend: 0x0, symName: __ZNSt12_Vector_baseISt4pairIiiESaIS1_EE17_Vector_impl_data12_M_copy_dataERKS4_, symObjAddr: 0x3174, symBinAddr: 0x100004F10, symSize: 0x48 }
  - { offsetInCU: 0x8499, offset: 0x8499, size: 0x8, addend: 0x0, symName: __ZNK9__gnu_cxx17__normal_iteratorIPKSt4pairIiiESt6vectorIS2_SaIS2_EEEdeEv, symObjAddr: 0x3134, symBinAddr: 0x100004ED0, symSize: 0x18 }
  - { offsetInCU: 0x84A1, offset: 0x84A1, size: 0x8, addend: 0x0, symName: __ZNSt12_Vector_baseISt4pairIiiESaIS1_EEC2ERKS2_, symObjAddr: 0x314C, symBinAddr: 0x100004EE8, symSize: 0x28 }
  - { offsetInCU: 0x84C8, offset: 0x84C8, size: 0x8, addend: 0x0, symName: __ZN9__gnu_cxx17__normal_iteratorIPKSt4pairIiiESt6vectorIS2_SaIS2_EEEppEv, symObjAddr: 0x310C, symBinAddr: 0x100004EA8, symSize: 0x28 }
  - { offsetInCU: 0x84D0, offset: 0x84D0, size: 0x8, addend: 0x0, symName: __ZNK9__gnu_cxx17__normal_iteratorIPKSt4pairIiiESt6vectorIS2_SaIS2_EEEdeEv, symObjAddr: 0x3134, symBinAddr: 0x100004ED0, symSize: 0x18 }
  - { offsetInCU: 0x85A0, offset: 0x85A0, size: 0x8, addend: 0x0, symName: __ZN9__gnu_cxxneIPKSt4pairIiiESt6vectorIS2_SaIS2_EEEEbRKNS_17__normal_iteratorIT_T0_EESD_, symObjAddr: 0x30C8, symBinAddr: 0x100004E64, symSize: 0x44 }
  - { offsetInCU: 0x85A8, offset: 0x85A8, size: 0x8, addend: 0x0, symName: __ZN9__gnu_cxx17__normal_iteratorIPKSt4pairIiiESt6vectorIS2_SaIS2_EEEppEv, symObjAddr: 0x310C, symBinAddr: 0x100004EA8, symSize: 0x28 }
  - { offsetInCU: 0x85E2, offset: 0x85E2, size: 0x8, addend: 0x0, symName: __ZSt16__do_uninit_copyIPSt4pairIiiES2_ET0_T_S4_S3_, symObjAddr: 0x3064, symBinAddr: 0x100004E00, symSize: 0x64 }
  - { offsetInCU: 0x85EA, offset: 0x85EA, size: 0x8, addend: 0x0, symName: __ZN9__gnu_cxxneIPKSt4pairIiiESt6vectorIS2_SaIS2_EEEEbRKNS_17__normal_iteratorIT_T0_EESD_, symObjAddr: 0x30C8, symBinAddr: 0x100004E64, symSize: 0x44 }
  - { offsetInCU: 0x867B, offset: 0x867B, size: 0x8, addend: 0x0, symName: __ZSt14__copy_move_a2ILb0EPSt4pairIiiES2_ET1_T0_S4_S3_, symObjAddr: 0x3038, symBinAddr: 0x100004DD4, symSize: 0x2C }
  - { offsetInCU: 0x8683, offset: 0x8683, size: 0x8, addend: 0x0, symName: __ZSt16__do_uninit_copyIPSt4pairIiiES2_ET0_T_S4_S3_, symObjAddr: 0x3064, symBinAddr: 0x100004E00, symSize: 0x64 }
  - { offsetInCU: 0x868D, offset: 0x868D, size: 0x8, addend: 0x0, symName: __ZNK9__gnu_cxx17__normal_iteratorIPSt4pairIiiESt6vectorIS2_SaIS2_EEEplEl, symObjAddr: 0x2FF8, symBinAddr: 0x100004D94, symSize: 0x40 }
  - { offsetInCU: 0x8695, offset: 0x8695, size: 0x8, addend: 0x0, symName: __ZSt14__copy_move_a2ILb0EPSt4pairIiiES2_ET1_T0_S4_S3_, symObjAddr: 0x3038, symBinAddr: 0x100004DD4, symSize: 0x2C }
  - { offsetInCU: 0x8755, offset: 0x8755, size: 0x8, addend: 0x0, symName: __ZSt14__copy_move_a2ILb0EPKSt4pairIiiEPS1_ET1_T0_S6_S5_, symObjAddr: 0x2FCC, symBinAddr: 0x100004D68, symSize: 0x2C }
  - { offsetInCU: 0x875D, offset: 0x875D, size: 0x8, addend: 0x0, symName: __ZNK9__gnu_cxx17__normal_iteratorIPSt4pairIiiESt6vectorIS2_SaIS2_EEEplEl, symObjAddr: 0x2FF8, symBinAddr: 0x100004D94, symSize: 0x40 }
  - { offsetInCU: 0x875F, offset: 0x875F, size: 0x8, addend: 0x0, symName: __ZNK9__gnu_cxx17__normal_iteratorIPSt4pairIiiESt6vectorIS2_SaIS2_EEE4baseEv, symObjAddr: 0x2FB8, symBinAddr: 0x100004D54, symSize: 0x14 }
  - { offsetInCU: 0x8767, offset: 0x8767, size: 0x8, addend: 0x0, symName: __ZSt14__copy_move_a2ILb0EPKSt4pairIiiEPS1_ET1_T0_S6_S5_, symObjAddr: 0x2FCC, symBinAddr: 0x100004D68, symSize: 0x2C }
  - { offsetInCU: 0x878E, offset: 0x878E, size: 0x8, addend: 0x0, symName: __ZNK9__gnu_cxx17__normal_iteratorIPKSt4pairIiiESt6vectorIS2_SaIS2_EEE4baseEv, symObjAddr: 0x2FA4, symBinAddr: 0x100004D40, symSize: 0x14 }
  - { offsetInCU: 0x8796, offset: 0x8796, size: 0x8, addend: 0x0, symName: __ZNK9__gnu_cxx17__normal_iteratorIPSt4pairIiiESt6vectorIS2_SaIS2_EEE4baseEv, symObjAddr: 0x2FB8, symBinAddr: 0x100004D54, symSize: 0x14 }
  - { offsetInCU: 0x87FC, offset: 0x87FC, size: 0x8, addend: 0x0, symName: __ZNSt12_Vector_baseISt4pairIiiESaIS1_EE17_Vector_impl_data12_M_swap_dataERS4_, symObjAddr: 0x2F58, symBinAddr: 0x100004CF4, symSize: 0x4C }
  - { offsetInCU: 0x8804, offset: 0x8804, size: 0x8, addend: 0x0, symName: __ZNK9__gnu_cxx17__normal_iteratorIPKSt4pairIiiESt6vectorIS2_SaIS2_EEE4baseEv, symObjAddr: 0x2FA4, symBinAddr: 0x100004D40, symSize: 0x14 }
  - { offsetInCU: 0x88A4, offset: 0x88A4, size: 0x8, addend: 0x0, symName: __ZNSt6vectorISt4pairIiiESaIS1_EEC1ERKS2_, symObjAddr: 0x2F30, symBinAddr: 0x100004CCC, symSize: 0x28 }
  - { offsetInCU: 0x88AC, offset: 0x88AC, size: 0x8, addend: 0x0, symName: __ZNSt12_Vector_baseISt4pairIiiESaIS1_EE17_Vector_impl_data12_M_swap_dataERS4_, symObjAddr: 0x2F58, symBinAddr: 0x100004CF4, symSize: 0x4C }
  - { offsetInCU: 0x88B5, offset: 0x88B5, size: 0x8, addend: 0x0, symName: __ZNKSt12_Vector_baseISt4pairIiiESaIS1_EE13get_allocatorEv, symObjAddr: 0x2EE0, symBinAddr: 0x100004C7C, symSize: 0x50 }
  - { offsetInCU: 0x88BD, offset: 0x88BD, size: 0x8, addend: 0x0, symName: __ZNSt6vectorISt4pairIiiESaIS1_EEC1ERKS2_, symObjAddr: 0x2F30, symBinAddr: 0x100004CCC, symSize: 0x28 }
  - { offsetInCU: 0x89B3, offset: 0x89B3, size: 0x8, addend: 0x0, symName: __ZNSt12_Vector_baseISt4pairIiiESaIS1_EE17_Vector_impl_dataC2EOS4_, symObjAddr: 0x2E70, symBinAddr: 0x100004C0C, symSize: 0x70 }
  - { offsetInCU: 0x89BB, offset: 0x89BB, size: 0x8, addend: 0x0, symName: __ZNKSt12_Vector_baseISt4pairIiiESaIS1_EE13get_allocatorEv, symObjAddr: 0x2EE0, symBinAddr: 0x100004C7C, symSize: 0x50 }
  - { offsetInCU: 0x8A77, offset: 0x8A77, size: 0x8, addend: 0x0, symName: __ZSt4moveIRNSt12_Vector_baseISt4pairIiiESaIS2_EE12_Vector_implEEONSt16remove_referenceIT_E4typeEOS8_, symObjAddr: 0x2E5C, symBinAddr: 0x100004BF8, symSize: 0x14 }
  - { offsetInCU: 0x8A7F, offset: 0x8A7F, size: 0x8, addend: 0x0, symName: __ZNSt12_Vector_baseISt4pairIiiESaIS1_EE17_Vector_impl_dataC2EOS4_, symObjAddr: 0x2E70, symBinAddr: 0x100004C0C, symSize: 0x70 }
  - { offsetInCU: 0x8A09, offset: 0x8A09, size: 0x8, addend: 0x0, symName: __ZNKSt13move_iteratorIPSt6vectorISt4pairIiiESaIS2_EEE4baseEv, symObjAddr: 0x2E44, symBinAddr: 0x100004BE0, symSize: 0x18 }
  - { offsetInCU: 0x8A11, offset: 0x8A11, size: 0x8, addend: 0x0, symName: __ZSt4moveIRNSt12_Vector_baseISt4pairIiiESaIS2_EE12_Vector_implEEONSt16remove_referenceIT_E4typeEOS8_, symObjAddr: 0x2E5C, symBinAddr: 0x100004BF8, symSize: 0x14 }
  - { offsetInCU: 0x8B2C, offset: 0x8B2C, size: 0x8, addend: 0x0, symName: __ZSt16__do_uninit_copyIN9__gnu_cxx17__normal_iteratorIPKSt4pairIiiESt6vectorIS3_SaIS3_EEEEPS3_ET0_T_SC_SB_, symObjAddr: 0x2DC0, symBinAddr: 0x100004B5C, symSize: 0x84 }
  - { offsetInCU: 0x8B34, offset: 0x8B34, size: 0x8, addend: 0x0, symName: __ZNKSt13move_iteratorIPSt6vectorISt4pairIiiESaIS2_EEE4baseEv, symObjAddr: 0x2E44, symBinAddr: 0x100004BE0, symSize: 0x18 }
  - { offsetInCU: 0x8AC8, offset: 0x8AC8, size: 0x8, addend: 0x0, symName: __ZNSt20__uninitialized_copyILb0EE13__uninit_copyIPSt4pairIiiES4_EET0_T_S6_S5_, symObjAddr: 0x2D94, symBinAddr: 0x100004B30, symSize: 0x2C }
  - { offsetInCU: 0x8AD0, offset: 0x8AD0, size: 0x8, addend: 0x0, symName: __ZSt16__do_uninit_copyIN9__gnu_cxx17__normal_iteratorIPKSt4pairIiiESt6vectorIS3_SaIS3_EEEEPS3_ET0_T_SC_SB_, symObjAddr: 0x2DC0, symBinAddr: 0x100004B5C, symSize: 0x84 }
  - { offsetInCU: 0x8B8C, offset: 0x8B8C, size: 0x8, addend: 0x0, symName: __ZSt12__niter_wrapIPSt4pairIiiEET_RKS3_S3_, symObjAddr: 0x2D7C, symBinAddr: 0x100004B18, symSize: 0x18 }
  - { offsetInCU: 0x8B94, offset: 0x8B94, size: 0x8, addend: 0x0, symName: __ZNSt20__uninitialized_copyILb0EE13__uninit_copyIPSt4pairIiiES4_EET0_T_S6_S5_, symObjAddr: 0x2D94, symBinAddr: 0x100004B30, symSize: 0x2C }
  - { offsetInCU: 0x8C0E, offset: 0x8C0E, size: 0x8, addend: 0x0, symName: __ZSt14__copy_move_a1ILb0EPSt4pairIiiES2_ET1_T0_S4_S3_, symObjAddr: 0x2D50, symBinAddr: 0x100004AEC, symSize: 0x2C }
  - { offsetInCU: 0x8C16, offset: 0x8C16, size: 0x8, addend: 0x0, symName: __ZSt12__niter_wrapIPSt4pairIiiEET_RKS3_S3_, symObjAddr: 0x2D7C, symBinAddr: 0x100004B18, symSize: 0x18 }
  - { offsetInCU: 0x8C6E, offset: 0x8C6E, size: 0x8, addend: 0x0, symName: __ZSt12__niter_baseIPSt4pairIiiEET_S3_, symObjAddr: 0x2D3C, symBinAddr: 0x100004AD8, symSize: 0x14 }
  - { offsetInCU: 0x8C76, offset: 0x8C76, size: 0x8, addend: 0x0, symName: __ZSt14__copy_move_a1ILb0EPSt4pairIiiES2_ET1_T0_S4_S3_, symObjAddr: 0x2D50, symBinAddr: 0x100004AEC, symSize: 0x2C }
  - { offsetInCU: 0x8C6C, offset: 0x8C6C, size: 0x8, addend: 0x0, symName: __ZNSt12_Destroy_auxILb1EE9__destroyIN9__gnu_cxx17__normal_iteratorIPSt4pairIiiESt6vectorIS5_SaIS5_EEEEEEvT_SB_, symObjAddr: 0x2D24, symBinAddr: 0x100004AC0, symSize: 0x18 }
  - { offsetInCU: 0x8C74, offset: 0x8C74, size: 0x8, addend: 0x0, symName: __ZSt12__niter_baseIPSt4pairIiiEET_S3_, symObjAddr: 0x2D3C, symBinAddr: 0x100004AD8, symSize: 0x14 }
  - { offsetInCU: 0x8D91, offset: 0x8D91, size: 0x8, addend: 0x0, symName: __ZSt12__niter_wrapIN9__gnu_cxx17__normal_iteratorIPSt4pairIiiESt6vectorIS3_SaIS3_EEEES4_ET_S9_T0_, symObjAddr: 0x2CE8, symBinAddr: 0x100004A84, symSize: 0x3C }
  - { offsetInCU: 0x8D99, offset: 0x8D99, size: 0x8, addend: 0x0, symName: __ZNSt12_Destroy_auxILb1EE9__destroyIN9__gnu_cxx17__normal_iteratorIPSt4pairIiiESt6vectorIS5_SaIS5_EEEEEEvT_SB_, symObjAddr: 0x2D24, symBinAddr: 0x100004AC0, symSize: 0x18 }
  - { offsetInCU: 0x8DA1, offset: 0x8DA1, size: 0x8, addend: 0x0, symName: __ZSt14__copy_move_a1ILb0EPKSt4pairIiiEPS1_ET1_T0_S6_S5_, symObjAddr: 0x2CBC, symBinAddr: 0x100004A58, symSize: 0x2C }
  - { offsetInCU: 0x8DA9, offset: 0x8DA9, size: 0x8, addend: 0x0, symName: __ZSt12__niter_wrapIN9__gnu_cxx17__normal_iteratorIPSt4pairIiiESt6vectorIS3_SaIS3_EEEES4_ET_S9_T0_, symObjAddr: 0x2CE8, symBinAddr: 0x100004A84, symSize: 0x3C }
  - { offsetInCU: 0x8E56, offset: 0x8E56, size: 0x8, addend: 0x0, symName: __ZSt12__niter_baseIPSt4pairIiiESt6vectorIS1_SaIS1_EEET_N9__gnu_cxx17__normal_iteratorIS6_T0_EE, symObjAddr: 0x2C9C, symBinAddr: 0x100004A38, symSize: 0x20 }
  - { offsetInCU: 0x8E5E, offset: 0x8E5E, size: 0x8, addend: 0x0, symName: __ZSt14__copy_move_a1ILb0EPKSt4pairIiiEPS1_ET1_T0_S6_S5_, symObjAddr: 0x2CBC, symBinAddr: 0x100004A58, symSize: 0x2C }
  - { offsetInCU: 0x8EB6, offset: 0x8EB6, size: 0x8, addend: 0x0, symName: __ZSt12__niter_baseIPKSt4pairIiiESt6vectorIS1_SaIS1_EEET_N9__gnu_cxx17__normal_iteratorIS7_T0_EE, symObjAddr: 0x2C7C, symBinAddr: 0x100004A18, symSize: 0x20 }
  - { offsetInCU: 0x8EBE, offset: 0x8EBE, size: 0x8, addend: 0x0, symName: __ZSt12__niter_baseIPSt4pairIiiESt6vectorIS1_SaIS1_EEET_N9__gnu_cxx17__normal_iteratorIS6_T0_EE, symObjAddr: 0x2C9C, symBinAddr: 0x100004A38, symSize: 0x20 }
  - { offsetInCU: 0x8E5D, offset: 0x8E5D, size: 0x8, addend: 0x0, symName: __ZNSt6vectorISt4pairIiiESaIS1_EE14_M_move_assignEOS3_St17integral_constantIbLb1EE, symObjAddr: 0x2BE8, symBinAddr: 0x100004984, symSize: 0x94 }
  - { offsetInCU: 0x8E65, offset: 0x8E65, size: 0x8, addend: 0x0, symName: __ZSt12__niter_baseIPKSt4pairIiiESt6vectorIS1_SaIS1_EEET_N9__gnu_cxx17__normal_iteratorIS7_T0_EE, symObjAddr: 0x2C7C, symBinAddr: 0x100004A18, symSize: 0x20 }
  - { offsetInCU: 0x8F7C, offset: 0x8F7C, size: 0x8, addend: 0x0, symName: __ZNSt12_Vector_baseISt4pairIiiESaIS1_EE12_Vector_implC1EOS4_, symObjAddr: 0x2B7C, symBinAddr: 0x100004918, symSize: 0x6C }
  - { offsetInCU: 0x8F84, offset: 0x8F84, size: 0x8, addend: 0x0, symName: __ZNSt6vectorISt4pairIiiESaIS1_EE14_M_move_assignEOS3_St17integral_constantIbLb1EE, symObjAddr: 0x2BE8, symBinAddr: 0x100004984, symSize: 0x94 }
  - { offsetInCU: 0x905D, offset: 0x905D, size: 0x8, addend: 0x0, symName: __ZSt7forwardISt6vectorISt4pairIiiESaIS2_EEEOT_RNSt16remove_referenceIS5_E4typeE, symObjAddr: 0x2B68, symBinAddr: 0x100004904, symSize: 0x14 }
  - { offsetInCU: 0x9065, offset: 0x9065, size: 0x8, addend: 0x0, symName: __ZNSt12_Vector_baseISt4pairIiiESaIS1_EE12_Vector_implC1EOS4_, symObjAddr: 0x2B7C, symBinAddr: 0x100004918, symSize: 0x6C }
  - { offsetInCU: 0x90A7, offset: 0x90A7, size: 0x8, addend: 0x0, symName: __ZSteqIPSt6vectorISt4pairIiiESaIS2_EEEbRKSt13move_iteratorIT_ESA_, symObjAddr: 0x2B28, symBinAddr: 0x1000048C4, symSize: 0x40 }
  - { offsetInCU: 0x90AF, offset: 0x90AF, size: 0x8, addend: 0x0, symName: __ZSt7forwardISt6vectorISt4pairIiiESaIS2_EEEOT_RNSt16remove_referenceIS5_E4typeE, symObjAddr: 0x2B68, symBinAddr: 0x100004904, symSize: 0x14 }
  - { offsetInCU: 0x909B, offset: 0x909B, size: 0x8, addend: 0x0, symName: __ZNSt20__uninitialized_copyILb0EE13__uninit_copyIN9__gnu_cxx17__normal_iteratorIPKSt4pairIiiESt6vectorIS5_SaIS5_EEEEPS5_EET0_T_SE_SD_, symObjAddr: 0x2AFC, symBinAddr: 0x100004898, symSize: 0x2C }
  - { offsetInCU: 0x90A3, offset: 0x90A3, size: 0x8, addend: 0x0, symName: __ZSteqIPSt6vectorISt4pairIiiESaIS2_EEEbRKSt13move_iteratorIT_ESA_, symObjAddr: 0x2B28, symBinAddr: 0x1000048C4, symSize: 0x40 }
  - { offsetInCU: 0x9184, offset: 0x9184, size: 0x8, addend: 0x0, symName: __ZSt18uninitialized_copyIPSt4pairIiiES2_ET0_T_S4_S3_, symObjAddr: 0x2AC8, symBinAddr: 0x100004864, symSize: 0x34 }
  - { offsetInCU: 0x918C, offset: 0x918C, size: 0x8, addend: 0x0, symName: __ZNSt20__uninitialized_copyILb0EE13__uninit_copyIN9__gnu_cxx17__normal_iteratorIPKSt4pairIiiESt6vectorIS5_SaIS5_EEEEPS5_EET0_T_SE_SD_, symObjAddr: 0x2AFC, symBinAddr: 0x100004898, symSize: 0x2C }
  - { offsetInCU: 0x922A, offset: 0x922A, size: 0x8, addend: 0x0, symName: __ZSt13__copy_move_aILb0EPSt4pairIiiES2_ET1_T0_S4_S3_, symObjAddr: 0x2A68, symBinAddr: 0x100004804, symSize: 0x60 }
  - { offsetInCU: 0x9232, offset: 0x9232, size: 0x8, addend: 0x0, symName: __ZSt18uninitialized_copyIPSt4pairIiiES2_ET0_T_S4_S3_, symObjAddr: 0x2AC8, symBinAddr: 0x100004864, symSize: 0x34 }
  - { offsetInCU: 0x928C, offset: 0x928C, size: 0x8, addend: 0x0, symName: __ZSt12__miter_baseIPSt4pairIiiEET_S3_, symObjAddr: 0x2A54, symBinAddr: 0x1000047F0, symSize: 0x14 }
  - { offsetInCU: 0x9294, offset: 0x9294, size: 0x8, addend: 0x0, symName: __ZSt13__copy_move_aILb0EPSt4pairIiiES2_ET1_T0_S4_S3_, symObjAddr: 0x2A68, symBinAddr: 0x100004804, symSize: 0x60 }
  - { offsetInCU: 0x9344, offset: 0x9344, size: 0x8, addend: 0x0, symName: __ZSt8_DestroyIN9__gnu_cxx17__normal_iteratorIPSt4pairIiiESt6vectorIS3_SaIS3_EEEEEvT_S9_, symObjAddr: 0x2A2C, symBinAddr: 0x1000047C8, symSize: 0x28 }
  - { offsetInCU: 0x934C, offset: 0x934C, size: 0x8, addend: 0x0, symName: __ZSt12__miter_baseIPSt4pairIiiEET_S3_, symObjAddr: 0x2A54, symBinAddr: 0x1000047F0, symSize: 0x14 }
  - { offsetInCU: 0x9427, offset: 0x9427, size: 0x8, addend: 0x0, symName: __ZSt13__copy_move_aILb0EN9__gnu_cxx17__normal_iteratorIPKSt4pairIiiESt6vectorIS3_SaIS3_EEEENS1_IPS3_S8_EEET1_T0_SD_SC_, symObjAddr: 0x29CC, symBinAddr: 0x100004768, symSize: 0x60 }
  - { offsetInCU: 0x942F, offset: 0x942F, size: 0x8, addend: 0x0, symName: __ZSt8_DestroyIN9__gnu_cxx17__normal_iteratorIPSt4pairIiiESt6vectorIS3_SaIS3_EEEEEvT_S9_, symObjAddr: 0x2A2C, symBinAddr: 0x1000047C8, symSize: 0x28 }
  - { offsetInCU: 0x943C, offset: 0x943C, size: 0x8, addend: 0x0, symName: __ZSt12__miter_baseIN9__gnu_cxx17__normal_iteratorIPKSt4pairIiiESt6vectorIS3_SaIS3_EEEEET_SA_, symObjAddr: 0x29B8, symBinAddr: 0x100004754, symSize: 0x14 }
  - { offsetInCU: 0x9444, offset: 0x9444, size: 0x8, addend: 0x0, symName: __ZSt13__copy_move_aILb0EN9__gnu_cxx17__normal_iteratorIPKSt4pairIiiESt6vectorIS3_SaIS3_EEEENS1_IPS3_S8_EEET1_T0_SD_SC_, symObjAddr: 0x29CC, symBinAddr: 0x100004768, symSize: 0x60 }
  - { offsetInCU: 0x9430, offset: 0x9430, size: 0x8, addend: 0x0, symName: __ZN9__gnu_cxx17__normal_iteratorIPSt4pairIiiESt6vectorIS2_SaIS2_EEEC1ERKS3_, symObjAddr: 0x2990, symBinAddr: 0x10000472C, symSize: 0x28 }
  - { offsetInCU: 0x9438, offset: 0x9438, size: 0x8, addend: 0x0, symName: __ZSt12__miter_baseIN9__gnu_cxx17__normal_iteratorIPKSt4pairIiiESt6vectorIS3_SaIS3_EEEEET_SA_, symObjAddr: 0x29B8, symBinAddr: 0x100004754, symSize: 0x14 }
  - { offsetInCU: 0x941E, offset: 0x941E, size: 0x8, addend: 0x0, symName: __ZNSt6vectorISt4pairIiiESaIS1_EE15_M_erase_at_endEPS1_, symObjAddr: 0x2908, symBinAddr: 0x1000046A4, symSize: 0x88 }
  - { offsetInCU: 0x9426, offset: 0x9426, size: 0x8, addend: 0x0, symName: __ZN9__gnu_cxx17__normal_iteratorIPSt4pairIiiESt6vectorIS2_SaIS2_EEEC1ERKS3_, symObjAddr: 0x2990, symBinAddr: 0x10000472C, symSize: 0x28 }
  - { offsetInCU: 0x94C5, offset: 0x94C5, size: 0x8, addend: 0x0, symName: __ZNSt6vectorISt4pairIiiESaIS1_EEaSEOS3_, symObjAddr: 0x28C4, symBinAddr: 0x100004660, symSize: 0x44 }
  - { offsetInCU: 0x94CD, offset: 0x94CD, size: 0x8, addend: 0x0, symName: __ZNSt6vectorISt4pairIiiESaIS1_EE15_M_erase_at_endEPS1_, symObjAddr: 0x2908, symBinAddr: 0x1000046A4, symSize: 0x88 }
  - { offsetInCU: 0x9597, offset: 0x9597, size: 0x8, addend: 0x0, symName: __ZSt4moveIRSt6vectorISt4pairIiiESaIS2_EEEONSt16remove_referenceIT_E4typeEOS7_, symObjAddr: 0x28B0, symBinAddr: 0x10000464C, symSize: 0x14 }
  - { offsetInCU: 0x959F, offset: 0x959F, size: 0x8, addend: 0x0, symName: __ZNSt6vectorISt4pairIiiESaIS1_EEaSEOS3_, symObjAddr: 0x28C4, symBinAddr: 0x100004660, symSize: 0x44 }
  - { offsetInCU: 0x9627, offset: 0x9627, size: 0x8, addend: 0x0, symName: __ZSt10_ConstructISt6vectorISt4pairIiiESaIS2_EEJS4_EEvPT_DpOT0_, symObjAddr: 0x2864, symBinAddr: 0x100004600, symSize: 0x4C }
  - { offsetInCU: 0x962F, offset: 0x962F, size: 0x8, addend: 0x0, symName: __ZSt4moveIRSt6vectorISt4pairIiiESaIS2_EEEONSt16remove_referenceIT_E4typeEOS7_, symObjAddr: 0x28B0, symBinAddr: 0x10000464C, symSize: 0x14 }
  - { offsetInCU: 0x961C, offset: 0x961C, size: 0x8, addend: 0x0, symName: __ZNSt6vectorISt4pairIiiESaIS1_EEC1EOS3_, symObjAddr: 0x283C, symBinAddr: 0x1000045D8, symSize: 0x28 }
  - { offsetInCU: 0x9624, offset: 0x9624, size: 0x8, addend: 0x0, symName: __ZSt10_ConstructISt6vectorISt4pairIiiESaIS2_EEJS4_EEvPT_DpOT0_, symObjAddr: 0x2864, symBinAddr: 0x100004600, symSize: 0x4C }
  - { offsetInCU: 0x967F, offset: 0x967F, size: 0x8, addend: 0x0, symName: __ZNSt12_Vector_baseISt4pairIiiESaIS1_EEC2EOS3_, symObjAddr: 0x2814, symBinAddr: 0x1000045B0, symSize: 0x28 }
  - { offsetInCU: 0x9687, offset: 0x9687, size: 0x8, addend: 0x0, symName: __ZNSt6vectorISt4pairIiiESaIS1_EEC1EOS3_, symObjAddr: 0x283C, symBinAddr: 0x1000045D8, symSize: 0x28 }
  - { offsetInCU: 0x968A, offset: 0x968A, size: 0x8, addend: 0x0, symName: __ZNKSt13move_iteratorIPSt6vectorISt4pairIiiESaIS2_EEEdeEv, symObjAddr: 0x27FC, symBinAddr: 0x100004598, symSize: 0x18 }
  - { offsetInCU: 0x9692, offset: 0x9692, size: 0x8, addend: 0x0, symName: __ZNSt12_Vector_baseISt4pairIiiESaIS1_EEC2EOS3_, symObjAddr: 0x2814, symBinAddr: 0x1000045B0, symSize: 0x28 }
  - { offsetInCU: 0x96B9, offset: 0x96B9, size: 0x8, addend: 0x0, symName: __ZNSt13move_iteratorIPSt6vectorISt4pairIiiESaIS2_EEEppEv, symObjAddr: 0x27D4, symBinAddr: 0x100004570, symSize: 0x28 }
  - { offsetInCU: 0x96C1, offset: 0x96C1, size: 0x8, addend: 0x0, symName: __ZNKSt13move_iteratorIPSt6vectorISt4pairIiiESaIS2_EEEdeEv, symObjAddr: 0x27FC, symBinAddr: 0x100004598, symSize: 0x18 }
  - { offsetInCU: 0x975E, offset: 0x975E, size: 0x8, addend: 0x0, symName: __ZStneIPSt6vectorISt4pairIiiESaIS2_EEEbRKSt13move_iteratorIT_ESA_, symObjAddr: 0x27A4, symBinAddr: 0x100004540, symSize: 0x30 }
  - { offsetInCU: 0x9766, offset: 0x9766, size: 0x8, addend: 0x0, symName: __ZNSt13move_iteratorIPSt6vectorISt4pairIiiESaIS2_EEEppEv, symObjAddr: 0x27D4, symBinAddr: 0x100004570, symSize: 0x28 }
  - { offsetInCU: 0x9840, offset: 0x9840, size: 0x8, addend: 0x0, symName: __ZSt18uninitialized_copyIN9__gnu_cxx17__normal_iteratorIPKSt4pairIiiESt6vectorIS3_SaIS3_EEEEPS3_ET0_T_SC_SB_, symObjAddr: 0x2770, symBinAddr: 0x10000450C, symSize: 0x34 }
  - { offsetInCU: 0x9848, offset: 0x9848, size: 0x8, addend: 0x0, symName: __ZStneIPSt6vectorISt4pairIiiESaIS2_EEEbRKSt13move_iteratorIT_ESA_, symObjAddr: 0x27A4, symBinAddr: 0x100004540, symSize: 0x30 }
  - { offsetInCU: 0x9862, offset: 0x9862, size: 0x8, addend: 0x0, symName: __ZN9__gnu_cxx17__normal_iteratorIPKSt4pairIiiESt6vectorIS2_SaIS2_EEEC1ERKS4_, symObjAddr: 0x2748, symBinAddr: 0x1000044E4, symSize: 0x28 }
  - { offsetInCU: 0x986A, offset: 0x986A, size: 0x8, addend: 0x0, symName: __ZSt18uninitialized_copyIN9__gnu_cxx17__normal_iteratorIPKSt4pairIiiESt6vectorIS3_SaIS3_EEEEPS3_ET0_T_SC_SB_, symObjAddr: 0x2770, symBinAddr: 0x10000450C, symSize: 0x34 }
  - { offsetInCU: 0x98D3, offset: 0x98D3, size: 0x8, addend: 0x0, symName: __ZSt7forwardIRKSt4pairIiiEEOT_RNSt16remove_referenceIS4_E4typeE, symObjAddr: 0x2734, symBinAddr: 0x1000044D0, symSize: 0x14 }
  - { offsetInCU: 0x98DB, offset: 0x98DB, size: 0x8, addend: 0x0, symName: __ZN9__gnu_cxx17__normal_iteratorIPKSt4pairIiiESt6vectorIS2_SaIS2_EEEC1ERKS4_, symObjAddr: 0x2748, symBinAddr: 0x1000044E4, symSize: 0x28 }
  - { offsetInCU: 0x9997, offset: 0x9997, size: 0x8, addend: 0x0, symName: __ZSt10_ConstructISt6vectorISt4pairIiiESaIS2_EEJRKS4_EEvPT_DpOT0_, symObjAddr: 0x26B8, symBinAddr: 0x100004454, symSize: 0x7C }
  - { offsetInCU: 0x999F, offset: 0x999F, size: 0x8, addend: 0x0, symName: __ZSt7forwardIRKSt4pairIiiEEOT_RNSt16remove_referenceIS4_E4typeE, symObjAddr: 0x2734, symBinAddr: 0x1000044D0, symSize: 0x14 }
  - { offsetInCU: 0x99DC, offset: 0x99DC, size: 0x8, addend: 0x0, symName: __ZSt22__uninitialized_copy_aIPSt4pairIiiES2_S1_ET0_T_S4_S3_RSaIT1_E, symObjAddr: 0x2688, symBinAddr: 0x100004424, symSize: 0x30 }
  - { offsetInCU: 0x99E4, offset: 0x99E4, size: 0x8, addend: 0x0, symName: __ZSt10_ConstructISt6vectorISt4pairIiiESaIS2_EEJRKS4_EEvPT_DpOT0_, symObjAddr: 0x26B8, symBinAddr: 0x100004454, symSize: 0x7C }
  - { offsetInCU: 0x9A30, offset: 0x9A30, size: 0x8, addend: 0x0, symName: __ZSt4copyIPSt4pairIiiES2_ET0_T_S4_S3_, symObjAddr: 0x2640, symBinAddr: 0x1000043DC, symSize: 0x48 }
  - { offsetInCU: 0x9A38, offset: 0x9A38, size: 0x8, addend: 0x0, symName: __ZSt22__uninitialized_copy_aIPSt4pairIiiES2_S1_ET0_T_S4_S3_RSaIT1_E, symObjAddr: 0x2688, symBinAddr: 0x100004424, symSize: 0x30 }
  - { offsetInCU: 0x9AAA, offset: 0x9AAA, size: 0x8, addend: 0x0, symName: __ZNSt6vectorISt4pairIiiESaIS1_EE3endEv, symObjAddr: 0x2618, symBinAddr: 0x1000043B4, symSize: 0x28 }
  - { offsetInCU: 0x9AB2, offset: 0x9AB2, size: 0x8, addend: 0x0, symName: __ZSt4copyIPSt4pairIiiES2_ET0_T_S4_S3_, symObjAddr: 0x2640, symBinAddr: 0x1000043DC, symSize: 0x48 }
  - { offsetInCU: 0x9C02, offset: 0x9C02, size: 0x8, addend: 0x0, symName: __ZSt4copyIN9__gnu_cxx17__normal_iteratorIPKSt4pairIiiESt6vectorIS3_SaIS3_EEEENS1_IPS3_S8_EEET0_T_SD_SC_, symObjAddr: 0x25D0, symBinAddr: 0x10000436C, symSize: 0x48 }
  - { offsetInCU: 0x9C0A, offset: 0x9C0A, size: 0x8, addend: 0x0, symName: __ZNSt6vectorISt4pairIiiESaIS1_EE3endEv, symObjAddr: 0x2618, symBinAddr: 0x1000043B4, symSize: 0x28 }
  - { offsetInCU: 0x9B5A, offset: 0x9B5A, size: 0x8, addend: 0x0, symName: __ZNSt6vectorISt4pairIiiESaIS1_EE5beginEv, symObjAddr: 0x25AC, symBinAddr: 0x100004348, symSize: 0x24 }
  - { offsetInCU: 0x9B62, offset: 0x9B62, size: 0x8, addend: 0x0, symName: __ZSt4copyIN9__gnu_cxx17__normal_iteratorIPKSt4pairIiiESt6vectorIS3_SaIS3_EEEENS1_IPS3_S8_EEET0_T_SD_SC_, symObjAddr: 0x25D0, symBinAddr: 0x10000436C, symSize: 0x48 }
  - { offsetInCU: 0x9B89, offset: 0x9B89, size: 0x8, addend: 0x0, symName: __ZNSt6vectorISt4pairIiiESaIS1_EE20_M_allocate_and_copyIN9__gnu_cxx17__normal_iteratorIPKS1_S3_EEEEPS1_mT_SB_, symObjAddr: 0x2528, symBinAddr: 0x1000042C4, symSize: 0x84 }
  - { offsetInCU: 0x9B91, offset: 0x9B91, size: 0x8, addend: 0x0, symName: __ZNSt6vectorISt4pairIiiESaIS1_EE5beginEv, symObjAddr: 0x25AC, symBinAddr: 0x100004348, symSize: 0x24 }
  - { offsetInCU: 0x9C15, offset: 0x9C15, size: 0x8, addend: 0x0, symName: __ZNKSt6vectorISt4pairIiiESaIS1_EE8capacityEv, symObjAddr: 0x2500, symBinAddr: 0x10000429C, symSize: 0x28 }
  - { offsetInCU: 0x9C1D, offset: 0x9C1D, size: 0x8, addend: 0x0, symName: __ZNSt6vectorISt4pairIiiESaIS1_EE20_M_allocate_and_copyIN9__gnu_cxx17__normal_iteratorIPKS1_S3_EEEEPS1_mT_SB_, symObjAddr: 0x2528, symBinAddr: 0x1000042C4, symSize: 0x84 }
  - { offsetInCU: 0x9C83, offset: 0x9C83, size: 0x8, addend: 0x0, symName: __ZNSt6vectorISt4pairIiiESaIS1_EE5clearEv, symObjAddr: 0x24D4, symBinAddr: 0x100004270, symSize: 0x2C }
  - { offsetInCU: 0x9C8B, offset: 0x9C8B, size: 0x8, addend: 0x0, symName: __ZNKSt6vectorISt4pairIiiESaIS1_EE8capacityEv, symObjAddr: 0x2500, symBinAddr: 0x10000429C, symSize: 0x28 }
  - { offsetInCU: 0x9D4E, offset: 0x9D4E, size: 0x8, addend: 0x0, symName: __ZSt11__addressofIKSt6vectorISt4pairIiiESaIS2_EEEPT_RS6_, symObjAddr: 0x24C0, symBinAddr: 0x10000425C, symSize: 0x14 }
  - { offsetInCU: 0x9D56, offset: 0x9D56, size: 0x8, addend: 0x0, symName: __ZNSt6vectorISt4pairIiiESaIS1_EE5clearEv, symObjAddr: 0x24D4, symBinAddr: 0x100004270, symSize: 0x2C }
  - { offsetInCU: 0x9D25, offset: 0x9D25, size: 0x8, addend: 0x0, symName: __ZNSt20__copy_move_backwardILb1ELb0ESt26random_access_iterator_tagE13__copy_move_bIPSt6vectorISt4pairIiiESaIS5_EES8_EET0_T_SA_S9_, symObjAddr: 0x2438, symBinAddr: 0x1000041D4, symSize: 0x88 }
  - { offsetInCU: 0x9D2D, offset: 0x9D2D, size: 0x8, addend: 0x0, symName: __ZSt11__addressofIKSt6vectorISt4pairIiiESaIS2_EEEPT_RS6_, symObjAddr: 0x24C0, symBinAddr: 0x10000425C, symSize: 0x14 }
  - { offsetInCU: 0x9E76, offset: 0x9E76, size: 0x8, addend: 0x0, symName: __ZSt16__do_uninit_copyISt13move_iteratorIPSt6vectorISt4pairIiiESaIS3_EEES6_ET0_T_S9_S8_, symObjAddr: 0x238C, symBinAddr: 0x100004128, symSize: 0xAC }
  - { offsetInCU: 0x9E7E, offset: 0x9E7E, size: 0x8, addend: 0x0, symName: __ZNSt20__copy_move_backwardILb1ELb0ESt26random_access_iterator_tagE13__copy_move_bIPSt6vectorISt4pairIiiESaIS5_EES8_EET0_T_SA_S9_, symObjAddr: 0x2438, symBinAddr: 0x1000041D4, symSize: 0x88 }
  - { offsetInCU: 0x9F5F, offset: 0x9F5F, size: 0x8, addend: 0x0, symName: __ZSt22__uninitialized_copy_aIN9__gnu_cxx17__normal_iteratorIPKSt4pairIiiESt6vectorIS3_SaIS3_EEEEPS3_S3_ET0_T_SC_SB_RSaIT1_E, symObjAddr: 0x235C, symBinAddr: 0x1000040F8, symSize: 0x30 }
  - { offsetInCU: 0x9F67, offset: 0x9F67, size: 0x8, addend: 0x0, symName: __ZSt16__do_uninit_copyISt13move_iteratorIPSt6vectorISt4pairIiiESaIS3_EEES6_ET0_T_S9_S8_, symObjAddr: 0x238C, symBinAddr: 0x100004128, symSize: 0xAC }
  - { offsetInCU: 0x9ED7, offset: 0x9ED7, size: 0x8, addend: 0x0, symName: __ZNKSt6vectorISt4pairIiiESaIS1_EE3endEv, symObjAddr: 0x2334, symBinAddr: 0x1000040D0, symSize: 0x28 }
  - { offsetInCU: 0x9EDF, offset: 0x9EDF, size: 0x8, addend: 0x0, symName: __ZSt22__uninitialized_copy_aIN9__gnu_cxx17__normal_iteratorIPKSt4pairIiiESt6vectorIS3_SaIS3_EEEEPS3_S3_ET0_T_SC_SB_RSaIT1_E, symObjAddr: 0x235C, symBinAddr: 0x1000040F8, symSize: 0x30 }
  - { offsetInCU: 0x9F06, offset: 0x9F06, size: 0x8, addend: 0x0, symName: __ZNKSt6vectorISt4pairIiiESaIS1_EE5beginEv, symObjAddr: 0x2310, symBinAddr: 0x1000040AC, symSize: 0x24 }
  - { offsetInCU: 0x9F0E, offset: 0x9F0E, size: 0x8, addend: 0x0, symName: __ZNKSt6vectorISt4pairIiiESaIS1_EE3endEv, symObjAddr: 0x2334, symBinAddr: 0x1000040D0, symSize: 0x28 }
  - { offsetInCU: 0x9F50, offset: 0x9F50, size: 0x8, addend: 0x0, symName: __ZNKSt12_Vector_baseISt4pairIiiESaIS1_EE19_M_get_Tp_allocatorEv, symObjAddr: 0x22FC, symBinAddr: 0x100004098, symSize: 0x14 }
  - { offsetInCU: 0x9F58, offset: 0x9F58, size: 0x8, addend: 0x0, symName: __ZNKSt6vectorISt4pairIiiESaIS1_EE5beginEv, symObjAddr: 0x2310, symBinAddr: 0x1000040AC, symSize: 0x24 }
  - { offsetInCU: 0x9F7F, offset: 0x9F7F, size: 0x8, addend: 0x0, symName: __ZNKSt6vectorISt4pairIiiESaIS1_EE4sizeEv, symObjAddr: 0x22D4, symBinAddr: 0x100004070, symSize: 0x28 }
  - { offsetInCU: 0x9F87, offset: 0x9F87, size: 0x8, addend: 0x0, symName: __ZNKSt12_Vector_baseISt4pairIiiESaIS1_EE19_M_get_Tp_allocatorEv, symObjAddr: 0x22FC, symBinAddr: 0x100004098, symSize: 0x14 }
  - { offsetInCU: 0xA019, offset: 0xA019, size: 0x8, addend: 0x0, symName: __ZSt10_ConstructISt4pairIiiEJRKS1_EEvPT_DpOT0_, symObjAddr: 0x228C, symBinAddr: 0x100004028, symSize: 0x48 }
  - { offsetInCU: 0xA021, offset: 0xA021, size: 0x8, addend: 0x0, symName: __ZNKSt6vectorISt4pairIiiESaIS1_EE4sizeEv, symObjAddr: 0x22D4, symBinAddr: 0x100004070, symSize: 0x28 }
  - { offsetInCU: 0xA05C, offset: 0xA05C, size: 0x8, addend: 0x0, symName: __ZSt11__addressofISt4pairIiiEEPT_RS2_, symObjAddr: 0x2278, symBinAddr: 0x100004014, symSize: 0x14 }
  - { offsetInCU: 0xA064, offset: 0xA064, size: 0x8, addend: 0x0, symName: __ZSt10_ConstructISt4pairIiiEJRKS1_EEvPT_DpOT0_, symObjAddr: 0x228C, symBinAddr: 0x100004028, symSize: 0x48 }
  - { offsetInCU: 0xA0B8, offset: 0xA0B8, size: 0x8, addend: 0x0, symName: __ZSt8_DestroyISt6vectorISt4pairIiiESaIS2_EEEvPT_, symObjAddr: 0x2258, symBinAddr: 0x100003FF4, symSize: 0x20 }
  - { offsetInCU: 0xA0C0, offset: 0xA0C0, size: 0x8, addend: 0x0, symName: __ZSt11__addressofISt4pairIiiEEPT_RS2_, symObjAddr: 0x2278, symBinAddr: 0x100004014, symSize: 0x14 }
  - { offsetInCU: 0xA18E, offset: 0xA18E, size: 0x8, addend: 0x0, symName: __ZSt18__do_uninit_fill_nIPSt6vectorISt4pairIiiESaIS2_EEmS4_ET_S6_T0_RKT1_, symObjAddr: 0x21C8, symBinAddr: 0x100003F64, symSize: 0x90 }
  - { offsetInCU: 0xA196, offset: 0xA196, size: 0x8, addend: 0x0, symName: __ZSt8_DestroyISt6vectorISt4pairIiiESaIS2_EEEvPT_, symObjAddr: 0x2258, symBinAddr: 0x100003FF4, symSize: 0x20 }
  - { offsetInCU: 0xA173, offset: 0xA173, size: 0x8, addend: 0x0, symName: __ZNSt6vectorISt4pairIiiESaIS1_EEaSERKS3_, symObjAddr: 0x1E80, symBinAddr: 0x100003C1C, symSize: 0x348 }
  - { offsetInCU: 0xA17B, offset: 0xA17B, size: 0x8, addend: 0x0, symName: __ZSt18__do_uninit_fill_nIPSt6vectorISt4pairIiiESaIS2_EEmS4_ET_S6_T0_RKT1_, symObjAddr: 0x21C8, symBinAddr: 0x100003F64, symSize: 0x90 }
  - { offsetInCU: 0xA3DD, offset: 0xA3DD, size: 0x8, addend: 0x0, symName: __ZSt23__copy_move_backward_a2ILb1EPSt6vectorISt4pairIiiESaIS2_EES5_ET1_T0_S7_S6_, symObjAddr: 0x1E54, symBinAddr: 0x100003BF0, symSize: 0x2C }
  - { offsetInCU: 0xA3E5, offset: 0xA3E5, size: 0x8, addend: 0x0, symName: __ZNSt6vectorISt4pairIiiESaIS1_EEaSERKS3_, symObjAddr: 0x1E80, symBinAddr: 0x100003C1C, symSize: 0x348 }
  - { offsetInCU: 0xA3B0, offset: 0xA3B0, size: 0x8, addend: 0x0, symName: __ZNSt20__uninitialized_copyILb0EE13__uninit_copyISt13move_iteratorIPSt6vectorISt4pairIiiESaIS5_EEES8_EET0_T_SB_SA_, symObjAddr: 0x1E28, symBinAddr: 0x100003BC4, symSize: 0x2C }
  - { offsetInCU: 0xA3B8, offset: 0xA3B8, size: 0x8, addend: 0x0, symName: __ZSt23__copy_move_backward_a2ILb1EPSt6vectorISt4pairIiiESaIS2_EES5_ET1_T0_S7_S6_, symObjAddr: 0x1E54, symBinAddr: 0x100003BF0, symSize: 0x2C }
  - { offsetInCU: 0xA474, offset: 0xA474, size: 0x8, addend: 0x0, symName: __ZNSt6vectorISt4pairIiiESaIS1_EEC1ERKS3_, symObjAddr: 0x1D14, symBinAddr: 0x100003AB0, symSize: 0x114 }
  - { offsetInCU: 0xA47C, offset: 0xA47C, size: 0x8, addend: 0x0, symName: __ZNSt20__uninitialized_copyILb0EE13__uninit_copyISt13move_iteratorIPSt6vectorISt4pairIiiESaIS5_EEES8_EET0_T_SB_SA_, symObjAddr: 0x1E28, symBinAddr: 0x100003BC4, symSize: 0x2C }
  - { offsetInCU: 0xA60C, offset: 0xA60C, size: 0x8, addend: 0x0, symName: __ZSt18__do_uninit_fill_nIPSt4pairIiiEmS1_ET_S3_T0_RKT1_, symObjAddr: 0x1CB4, symBinAddr: 0x100003A50, symSize: 0x60 }
  - { offsetInCU: 0xA614, offset: 0xA614, size: 0x8, addend: 0x0, symName: __ZNSt6vectorISt4pairIiiESaIS1_EEC1ERKS3_, symObjAddr: 0x1D14, symBinAddr: 0x100003AB0, symSize: 0x114 }
  - { offsetInCU: 0xA61F, offset: 0xA61F, size: 0x8, addend: 0x0, symName: __ZNSt15__new_allocatorISt4pairIiiEE8allocateEmPKv, symObjAddr: 0x1C38, symBinAddr: 0x1000039D4, symSize: 0x7C }
  - { offsetInCU: 0xA627, offset: 0xA627, size: 0x8, addend: 0x0, symName: __ZSt18__do_uninit_fill_nIPSt4pairIiiEmS1_ET_S3_T0_RKT1_, symObjAddr: 0x1CB4, symBinAddr: 0x100003A50, symSize: 0x60 }
  - { offsetInCU: 0xA6BE, offset: 0xA6BE, size: 0x8, addend: 0x0, symName: __ZNSt12_Destroy_auxILb0EE9__destroyIPSt6vectorISt4pairIiiESaIS4_EEEEvT_S8_, symObjAddr: 0x1BEC, symBinAddr: 0x100003988, symSize: 0x4C }
  - { offsetInCU: 0xA6C6, offset: 0xA6C6, size: 0x8, addend: 0x0, symName: __ZNSt15__new_allocatorISt4pairIiiEE8allocateEmPKv, symObjAddr: 0x1C38, symBinAddr: 0x1000039D4, symSize: 0x7C }
  - { offsetInCU: 0xA70F, offset: 0xA70F, size: 0x8, addend: 0x0, symName: __ZNSt15__new_allocatorISt6vectorISt4pairIiiESaIS2_EEE8allocateEmPKv, symObjAddr: 0x1B5C, symBinAddr: 0x1000038F8, symSize: 0x90 }
  - { offsetInCU: 0xA717, offset: 0xA717, size: 0x8, addend: 0x0, symName: __ZNSt12_Destroy_auxILb0EE9__destroyIPSt6vectorISt4pairIiiESaIS4_EEEEvT_S8_, symObjAddr: 0x1BEC, symBinAddr: 0x100003988, symSize: 0x4C }
  - { offsetInCU: 0xA795, offset: 0xA795, size: 0x8, addend: 0x0, symName: __ZNKSt12_Vector_baseISt6vectorISt4pairIiiESaIS2_EESaIS4_EE19_M_get_Tp_allocatorEv, symObjAddr: 0x1B48, symBinAddr: 0x1000038E4, symSize: 0x14 }
  - { offsetInCU: 0xA79D, offset: 0xA79D, size: 0x8, addend: 0x0, symName: __ZNSt15__new_allocatorISt6vectorISt4pairIiiESaIS2_EEE8allocateEmPKv, symObjAddr: 0x1B5C, symBinAddr: 0x1000038F8, symSize: 0x90 }
  - { offsetInCU: 0xA7C4, offset: 0xA7C4, size: 0x8, addend: 0x0, symName: __ZNSt6vectorIS_ISt4pairIiiESaIS1_EESaIS3_EE11_S_max_sizeERKS4_, symObjAddr: 0x1AEC, symBinAddr: 0x100003888, symSize: 0x5C }
  - { offsetInCU: 0xA7CC, offset: 0xA7CC, size: 0x8, addend: 0x0, symName: __ZNKSt12_Vector_baseISt6vectorISt4pairIiiESaIS2_EESaIS4_EE19_M_get_Tp_allocatorEv, symObjAddr: 0x1B48, symBinAddr: 0x1000038E4, symSize: 0x14 }
  - { offsetInCU: 0xA890, offset: 0xA890, size: 0x8, addend: 0x0, symName: __ZNSt22__uninitialized_fill_nILb0EE15__uninit_fill_nIPSt6vectorISt4pairIiiESaIS4_EEmS6_EET_S8_T0_RKT1_, symObjAddr: 0x1AC0, symBinAddr: 0x10000385C, symSize: 0x2C }
  - { offsetInCU: 0xA898, offset: 0xA898, size: 0x8, addend: 0x0, symName: __ZNSt6vectorIS_ISt4pairIiiESaIS1_EESaIS3_EE11_S_max_sizeERKS4_, symObjAddr: 0x1AEC, symBinAddr: 0x100003888, symSize: 0x5C }
  - { offsetInCU: 0xA9E5, offset: 0xA9E5, size: 0x8, addend: 0x0, symName: __ZSt9__fill_a1IPSt6vectorISt4pairIiiESaIS2_EES4_EN9__gnu_cxx11__enable_ifIXntsrSt11__is_scalarIT0_E7__valueEvE6__typeET_SD_RKS9_, symObjAddr: 0x1A70, symBinAddr: 0x10000380C, symSize: 0x50 }
  - { offsetInCU: 0xA9ED, offset: 0xA9ED, size: 0x8, addend: 0x0, symName: __ZNSt22__uninitialized_fill_nILb0EE15__uninit_fill_nIPSt6vectorISt4pairIiiESaIS4_EEmS6_EET_S8_T0_RKT1_, symObjAddr: 0x1AC0, symBinAddr: 0x10000385C, symSize: 0x2C }
  - { offsetInCU: 0xA9FD, offset: 0xA9FD, size: 0x8, addend: 0x0, symName: __ZSt12__niter_wrapIPSt6vectorISt4pairIiiESaIS2_EEET_RKS6_S6_, symObjAddr: 0x1A58, symBinAddr: 0x1000037F4, symSize: 0x18 }
  - { offsetInCU: 0xAA05, offset: 0xAA05, size: 0x8, addend: 0x0, symName: __ZSt9__fill_a1IPSt6vectorISt4pairIiiESaIS2_EES4_EN9__gnu_cxx11__enable_ifIXntsrSt11__is_scalarIT0_E7__valueEvE6__typeET_SD_RKS9_, symObjAddr: 0x1A70, symBinAddr: 0x10000380C, symSize: 0x50 }
  - { offsetInCU: 0xAA9E, offset: 0xAA9E, size: 0x8, addend: 0x0, symName: __ZSt23__copy_move_backward_a1ILb1EPSt6vectorISt4pairIiiESaIS2_EES5_ET1_T0_S7_S6_, symObjAddr: 0x1A2C, symBinAddr: 0x1000037C8, symSize: 0x2C }
  - { offsetInCU: 0xAAA6, offset: 0xAAA6, size: 0x8, addend: 0x0, symName: __ZSt12__niter_wrapIPSt6vectorISt4pairIiiESaIS2_EEET_RKS6_S6_, symObjAddr: 0x1A58, symBinAddr: 0x1000037F4, symSize: 0x18 }
  - { offsetInCU: 0xAADF, offset: 0xAADF, size: 0x8, addend: 0x0, symName: __ZSt12__niter_baseIPSt6vectorISt4pairIiiESaIS2_EEET_S6_, symObjAddr: 0x1A18, symBinAddr: 0x1000037B4, symSize: 0x14 }
  - { offsetInCU: 0xAAE7, offset: 0xAAE7, size: 0x8, addend: 0x0, symName: __ZSt23__copy_move_backward_a1ILb1EPSt6vectorISt4pairIiiESaIS2_EES5_ET1_T0_S7_S6_, symObjAddr: 0x1A2C, symBinAddr: 0x1000037C8, symSize: 0x2C }
  - { offsetInCU: 0xAB8A, offset: 0xAB8A, size: 0x8, addend: 0x0, symName: __ZSt18uninitialized_copyISt13move_iteratorIPSt6vectorISt4pairIiiESaIS3_EEES6_ET0_T_S9_S8_, symObjAddr: 0x19E4, symBinAddr: 0x100003780, symSize: 0x34 }
  - { offsetInCU: 0xAB92, offset: 0xAB92, size: 0x8, addend: 0x0, symName: __ZSt12__niter_baseIPSt6vectorISt4pairIiiESaIS2_EEET_S6_, symObjAddr: 0x1A18, symBinAddr: 0x1000037B4, symSize: 0x14 }
  - { offsetInCU: 0xABCF, offset: 0xABCF, size: 0x8, addend: 0x0, symName: __ZNSt13move_iteratorIPSt6vectorISt4pairIiiESaIS2_EEEC1ES5_, symObjAddr: 0x19B4, symBinAddr: 0x100003750, symSize: 0x30 }
  - { offsetInCU: 0xABD7, offset: 0xABD7, size: 0x8, addend: 0x0, symName: __ZSt18uninitialized_copyISt13move_iteratorIPSt6vectorISt4pairIiiESaIS3_EEES6_ET0_T_S9_S8_, symObjAddr: 0x19E4, symBinAddr: 0x100003780, symSize: 0x34 }
  - { offsetInCU: 0xAC4B, offset: 0xAC4B, size: 0x8, addend: 0x0, symName: __ZSt4moveIRPSt6vectorISt4pairIiiESaIS2_EEEONSt16remove_referenceIT_E4typeEOS8_, symObjAddr: 0x19A0, symBinAddr: 0x10000373C, symSize: 0x14 }
  - { offsetInCU: 0xAC53, offset: 0xAC53, size: 0x8, addend: 0x0, symName: __ZNSt13move_iteratorIPSt6vectorISt4pairIiiESaIS2_EEEC1ES5_, symObjAddr: 0x19B4, symBinAddr: 0x100003750, symSize: 0x30 }
  - { offsetInCU: 0xAD21, offset: 0xAD21, size: 0x8, addend: 0x0, symName: __ZSt11__addressofISt6vectorISt4pairIiiESaIS2_EEEPT_RS5_, symObjAddr: 0x198C, symBinAddr: 0x100003728, symSize: 0x14 }
  - { offsetInCU: 0xAD29, offset: 0xAD29, size: 0x8, addend: 0x0, symName: __ZSt4moveIRPSt6vectorISt4pairIiiESaIS2_EEEONSt16remove_referenceIT_E4typeEOS8_, symObjAddr: 0x19A0, symBinAddr: 0x10000373C, symSize: 0x14 }
  - { offsetInCU: 0xACFF, offset: 0xACFF, size: 0x8, addend: 0x0, symName: __ZNSt22__uninitialized_fill_nILb0EE15__uninit_fill_nIPSt4pairIiiEmS3_EET_S5_T0_RKT1_, symObjAddr: 0x1960, symBinAddr: 0x1000036FC, symSize: 0x2C }
  - { offsetInCU: 0xAD07, offset: 0xAD07, size: 0x8, addend: 0x0, symName: __ZSt11__addressofISt6vectorISt4pairIiiESaIS2_EEEPT_RS5_, symObjAddr: 0x198C, symBinAddr: 0x100003728, symSize: 0x14 }
  - { offsetInCU: 0xAD80, offset: 0xAD80, size: 0x8, addend: 0x0, symName: __ZNSt15__new_allocatorISt4pairIiiEE10deallocateEPS1_m, symObjAddr: 0x1930, symBinAddr: 0x1000036CC, symSize: 0x30 }
  - { offsetInCU: 0xAD88, offset: 0xAD88, size: 0x8, addend: 0x0, symName: __ZNSt22__uninitialized_fill_nILb0EE15__uninit_fill_nIPSt4pairIiiEmS3_EET_S5_T0_RKT1_, symObjAddr: 0x1960, symBinAddr: 0x1000036FC, symSize: 0x2C }
  - { offsetInCU: 0xAE7C, offset: 0xAE7C, size: 0x8, addend: 0x0, symName: __ZSt8_DestroyIPSt6vectorISt4pairIiiESaIS2_EEEvT_S6_, symObjAddr: 0x1908, symBinAddr: 0x1000036A4, symSize: 0x28 }
  - { offsetInCU: 0xAE84, offset: 0xAE84, size: 0x8, addend: 0x0, symName: __ZNSt15__new_allocatorISt4pairIiiEE10deallocateEPS1_m, symObjAddr: 0x1930, symBinAddr: 0x1000036CC, symSize: 0x30 }
  - { offsetInCU: 0xAF1D, offset: 0xAF1D, size: 0x8, addend: 0x0, symName: __ZSt32__make_move_if_noexcept_iteratorISt6vectorISt4pairIiiESaIS2_EESt13move_iteratorIPS4_EET0_PT_, symObjAddr: 0x18E4, symBinAddr: 0x100003680, symSize: 0x24 }
  - { offsetInCU: 0xAF25, offset: 0xAF25, size: 0x8, addend: 0x0, symName: __ZSt8_DestroyIPSt6vectorISt4pairIiiESaIS2_EEEvT_S6_, symObjAddr: 0x1908, symBinAddr: 0x1000036A4, symSize: 0x28 }
  - { offsetInCU: 0xAF29, offset: 0xAF29, size: 0x8, addend: 0x0, symName: __ZSt3maxImERKT_S2_S2_, symObjAddr: 0x18AC, symBinAddr: 0x100003648, symSize: 0x38 }
  - { offsetInCU: 0xAF31, offset: 0xAF31, size: 0x8, addend: 0x0, symName: __ZSt32__make_move_if_noexcept_iteratorISt6vectorISt4pairIiiESaIS2_EESt13move_iteratorIPS4_EET0_PT_, symObjAddr: 0x18E4, symBinAddr: 0x100003680, symSize: 0x24 }
  - { offsetInCU: 0xAF61, offset: 0xAF61, size: 0x8, addend: 0x0, symName: __ZNKSt6vectorIS_ISt4pairIiiESaIS1_EESaIS3_EE8max_sizeEv, symObjAddr: 0x188C, symBinAddr: 0x100003628, symSize: 0x20 }
  - { offsetInCU: 0xAF69, offset: 0xAF69, size: 0x8, addend: 0x0, symName: __ZSt3maxImERKT_S2_S2_, symObjAddr: 0x18AC, symBinAddr: 0x100003648, symSize: 0x38 }
  - { offsetInCU: 0xB051, offset: 0xB051, size: 0x8, addend: 0x0, symName: __ZSt20uninitialized_fill_nIPSt6vectorISt4pairIiiESaIS2_EEmS4_ET_S6_T0_RKT1_, symObjAddr: 0x185C, symBinAddr: 0x1000035F8, symSize: 0x30 }
  - { offsetInCU: 0xB059, offset: 0xB059, size: 0x8, addend: 0x0, symName: __ZNKSt6vectorIS_ISt4pairIiiESaIS1_EESaIS3_EE8max_sizeEv, symObjAddr: 0x188C, symBinAddr: 0x100003628, symSize: 0x20 }
  - { offsetInCU: 0xB0C0, offset: 0xB0C0, size: 0x8, addend: 0x0, symName: __ZSt8__fill_aIPSt6vectorISt4pairIiiESaIS2_EES4_EvT_S6_RKT0_, symObjAddr: 0x182C, symBinAddr: 0x1000035C8, symSize: 0x30 }
  - { offsetInCU: 0xB0C8, offset: 0xB0C8, size: 0x8, addend: 0x0, symName: __ZSt20uninitialized_fill_nIPSt6vectorISt4pairIiiESaIS2_EEmS4_ET_S6_T0_RKT1_, symObjAddr: 0x185C, symBinAddr: 0x1000035F8, symSize: 0x30 }
  - { offsetInCU: 0xB165, offset: 0xB165, size: 0x8, addend: 0x0, symName: __ZSt22__copy_move_backward_aILb1EPSt6vectorISt4pairIiiESaIS2_EES5_ET1_T0_S7_S6_, symObjAddr: 0x17CC, symBinAddr: 0x100003568, symSize: 0x60 }
  - { offsetInCU: 0xB16D, offset: 0xB16D, size: 0x8, addend: 0x0, symName: __ZSt8__fill_aIPSt6vectorISt4pairIiiESaIS2_EES4_EvT_S6_RKT0_, symObjAddr: 0x182C, symBinAddr: 0x1000035C8, symSize: 0x30 }
  - { offsetInCU: 0xB1A8, offset: 0xB1A8, size: 0x8, addend: 0x0, symName: __ZSt12__miter_baseIPSt6vectorISt4pairIiiESaIS2_EEET_S6_, symObjAddr: 0x17B8, symBinAddr: 0x100003554, symSize: 0x14 }
  - { offsetInCU: 0xB1B0, offset: 0xB1B0, size: 0x8, addend: 0x0, symName: __ZSt22__copy_move_backward_aILb1EPSt6vectorISt4pairIiiESaIS2_EES5_ET1_T0_S7_S6_, symObjAddr: 0x17CC, symBinAddr: 0x100003568, symSize: 0x60 }
  - { offsetInCU: 0xB28B, offset: 0xB28B, size: 0x8, addend: 0x0, symName: __ZSt22__uninitialized_copy_aISt13move_iteratorIPSt6vectorISt4pairIiiESaIS3_EEES6_S5_ET0_T_S9_S8_RSaIT1_E, symObjAddr: 0x1788, symBinAddr: 0x100003524, symSize: 0x30 }
  - { offsetInCU: 0xB293, offset: 0xB293, size: 0x8, addend: 0x0, symName: __ZSt12__miter_baseIPSt6vectorISt4pairIiiESaIS2_EEET_S6_, symObjAddr: 0x17B8, symBinAddr: 0x100003554, symSize: 0x14 }
  - { offsetInCU: 0xB2AD, offset: 0xB2AD, size: 0x8, addend: 0x0, symName: __ZSt18make_move_iteratorIPSt6vectorISt4pairIiiESaIS2_EEESt13move_iteratorIT_ES7_, symObjAddr: 0x175C, symBinAddr: 0x1000034F8, symSize: 0x2C }
  - { offsetInCU: 0xB2B5, offset: 0xB2B5, size: 0x8, addend: 0x0, symName: __ZSt22__uninitialized_copy_aISt13move_iteratorIPSt6vectorISt4pairIiiESaIS3_EEES6_S5_ET0_T_S9_S8_RSaIT1_E, symObjAddr: 0x1788, symBinAddr: 0x100003524, symSize: 0x30 }
  - { offsetInCU: 0xB386, offset: 0xB386, size: 0x8, addend: 0x0, symName: __ZSt7forwardIRKSt6vectorISt4pairIiiESaIS2_EEEOT_RNSt16remove_referenceIS7_E4typeE, symObjAddr: 0x1748, symBinAddr: 0x1000034E4, symSize: 0x14 }
  - { offsetInCU: 0xB38E, offset: 0xB38E, size: 0x8, addend: 0x0, symName: __ZSt18make_move_iteratorIPSt6vectorISt4pairIiiESaIS2_EEESt13move_iteratorIT_ES7_, symObjAddr: 0x175C, symBinAddr: 0x1000034F8, symSize: 0x2C }
  - { offsetInCU: 0xB352, offset: 0xB352, size: 0x8, addend: 0x0, symName: __ZNSt6vectorIS_ISt4pairIiiESaIS1_EESaIS3_EE16_Temporary_value6_M_ptrEv, symObjAddr: 0x1728, symBinAddr: 0x1000034C4, symSize: 0x20 }
  - { offsetInCU: 0xB35A, offset: 0xB35A, size: 0x8, addend: 0x0, symName: __ZSt7forwardIRKSt6vectorISt4pairIiiESaIS2_EEEOT_RNSt16remove_referenceIS7_E4typeE, symObjAddr: 0x1748, symBinAddr: 0x1000034E4, symSize: 0x14 }
  - { offsetInCU: 0xB3F3, offset: 0xB3F3, size: 0x8, addend: 0x0, symName: __ZNSt6vectorIS_ISt4pairIiiESaIS1_EESaIS3_EE16_Temporary_value8_StorageD1Ev, symObjAddr: 0x1714, symBinAddr: 0x1000034B0, symSize: 0x14 }
  - { offsetInCU: 0xB3FB, offset: 0xB3FB, size: 0x8, addend: 0x0, symName: __ZNSt6vectorIS_ISt4pairIiiESaIS1_EESaIS3_EE16_Temporary_value6_M_ptrEv, symObjAddr: 0x1728, symBinAddr: 0x1000034C4, symSize: 0x20 }
  - { offsetInCU: 0xB43A, offset: 0xB43A, size: 0x8, addend: 0x0, symName: __ZNSt6vectorIS_ISt4pairIiiESaIS1_EESaIS3_EE16_Temporary_value8_StorageC1Ev, symObjAddr: 0x16F8, symBinAddr: 0x100003494, symSize: 0x1C }
  - { offsetInCU: 0xB442, offset: 0xB442, size: 0x8, addend: 0x0, symName: __ZNSt6vectorIS_ISt4pairIiiESaIS1_EESaIS3_EE16_Temporary_value8_StorageD1Ev, symObjAddr: 0x1714, symBinAddr: 0x1000034B0, symSize: 0x14 }
  - { offsetInCU: 0xB41D, offset: 0xB41D, size: 0x8, addend: 0x0, symName: __ZNSt12_Destroy_auxILb1EE9__destroyIPSt4pairIiiEEEvT_S5_, symObjAddr: 0x16E0, symBinAddr: 0x10000347C, symSize: 0x18 }
  - { offsetInCU: 0xB425, offset: 0xB425, size: 0x8, addend: 0x0, symName: __ZNSt6vectorIS_ISt4pairIiiESaIS1_EESaIS3_EE16_Temporary_value8_StorageC1Ev, symObjAddr: 0x16F8, symBinAddr: 0x100003494, symSize: 0x1C }
  - { offsetInCU: 0xB4F3, offset: 0xB4F3, size: 0x8, addend: 0x0, symName: __ZSt20uninitialized_fill_nIPSt4pairIiiEmS1_ET_S3_T0_RKT1_, symObjAddr: 0x16B0, symBinAddr: 0x10000344C, symSize: 0x30 }
  - { offsetInCU: 0xB4FB, offset: 0xB4FB, size: 0x8, addend: 0x0, symName: __ZNSt12_Destroy_auxILb1EE9__destroyIPSt4pairIiiEEEvT_S5_, symObjAddr: 0x16E0, symBinAddr: 0x10000347C, symSize: 0x18 }
  - { offsetInCU: 0xB540, offset: 0xB540, size: 0x8, addend: 0x0, symName: __ZNSt12_Vector_baseISt4pairIiiESaIS1_EE11_M_allocateEm, symObjAddr: 0x1660, symBinAddr: 0x1000033FC, symSize: 0x50 }
  - { offsetInCU: 0xB548, offset: 0xB548, size: 0x8, addend: 0x0, symName: __ZSt20uninitialized_fill_nIPSt4pairIiiEmS1_ET_S3_T0_RKT1_, symObjAddr: 0x16B0, symBinAddr: 0x10000344C, symSize: 0x30 }
  - { offsetInCU: 0xB60D, offset: 0xB60D, size: 0x8, addend: 0x0, symName: __ZNSt12_Vector_baseISt4pairIiiESaIS1_EE17_Vector_impl_dataC1Ev, symObjAddr: 0x1634, symBinAddr: 0x1000033D0, symSize: 0x2C }
  - { offsetInCU: 0xB615, offset: 0xB615, size: 0x8, addend: 0x0, symName: __ZNSt12_Vector_baseISt4pairIiiESaIS1_EE11_M_allocateEm, symObjAddr: 0x1660, symBinAddr: 0x1000033FC, symSize: 0x50 }
  - { offsetInCU: 0xB63B, offset: 0xB63B, size: 0x8, addend: 0x0, symName: __ZNSt12_Vector_baseISt4pairIiiESaIS1_EE17_Vector_impl_dataC2Ev, symObjAddr: 0x1608, symBinAddr: 0x1000033A4, symSize: 0x2C }
  - { offsetInCU: 0xB643, offset: 0xB643, size: 0x8, addend: 0x0, symName: __ZNSt12_Vector_baseISt4pairIiiESaIS1_EE17_Vector_impl_dataC1Ev, symObjAddr: 0x1634, symBinAddr: 0x1000033D0, symSize: 0x2C }
  - { offsetInCU: 0xB67D, offset: 0xB67D, size: 0x8, addend: 0x0, symName: __ZSt3minImERKT_S2_S2_, symObjAddr: 0x15D0, symBinAddr: 0x10000336C, symSize: 0x38 }
  - { offsetInCU: 0xB685, offset: 0xB685, size: 0x8, addend: 0x0, symName: __ZNSt12_Vector_baseISt4pairIiiESaIS1_EE17_Vector_impl_dataC2Ev, symObjAddr: 0x1608, symBinAddr: 0x1000033A4, symSize: 0x2C }
  - { offsetInCU: 0xB6C5, offset: 0xB6C5, size: 0x8, addend: 0x0, symName: __ZNSt15__new_allocatorISt6vectorISt4pairIiiESaIS2_EEE10deallocateEPS4_m, symObjAddr: 0x1594, symBinAddr: 0x100003330, symSize: 0x3C }
  - { offsetInCU: 0xB6CD, offset: 0xB6CD, size: 0x8, addend: 0x0, symName: __ZSt3minImERKT_S2_S2_, symObjAddr: 0x15D0, symBinAddr: 0x10000336C, symSize: 0x38 }
  - { offsetInCU: 0xB79C, offset: 0xB79C, size: 0x8, addend: 0x0, symName: __ZN9__gnu_cxx17__normal_iteratorIPSt6vectorISt4pairIiiESaIS3_EES1_IS5_SaIS5_EEEC1ERKS6_, symObjAddr: 0x156C, symBinAddr: 0x100003308, symSize: 0x28 }
  - { offsetInCU: 0xB7A4, offset: 0xB7A4, size: 0x8, addend: 0x0, symName: __ZNSt15__new_allocatorISt6vectorISt4pairIiiESaIS2_EEE10deallocateEPS4_m, symObjAddr: 0x1594, symBinAddr: 0x100003330, symSize: 0x3C }
  - { offsetInCU: 0xB8DA, offset: 0xB8DA, size: 0x8, addend: 0x0, symName: __ZSt34__uninitialized_move_if_noexcept_aIPSt6vectorISt4pairIiiESaIS2_EES5_SaIS4_EET0_T_S8_S7_RT1_, symObjAddr: 0x151C, symBinAddr: 0x1000032B8, symSize: 0x50 }
  - { offsetInCU: 0xB8E2, offset: 0xB8E2, size: 0x8, addend: 0x0, symName: __ZN9__gnu_cxx17__normal_iteratorIPSt6vectorISt4pairIiiESaIS3_EES1_IS5_SaIS5_EEEC1ERKS6_, symObjAddr: 0x156C, symBinAddr: 0x100003308, symSize: 0x28 }
  - { offsetInCU: 0xB875, offset: 0xB875, size: 0x8, addend: 0x0, symName: __ZNSt12_Vector_baseISt6vectorISt4pairIiiESaIS2_EESaIS4_EE11_M_allocateEm, symObjAddr: 0x14CC, symBinAddr: 0x100003268, symSize: 0x50 }
  - { offsetInCU: 0xB87D, offset: 0xB87D, size: 0x8, addend: 0x0, symName: __ZSt34__uninitialized_move_if_noexcept_aIPSt6vectorISt4pairIiiESaIS2_EES5_SaIS4_EET0_T_S8_S7_RT1_, symObjAddr: 0x151C, symBinAddr: 0x1000032B8, symSize: 0x50 }
  - { offsetInCU: 0xB8EA, offset: 0xB8EA, size: 0x8, addend: 0x0, symName: __ZNKSt6vectorIS_ISt4pairIiiESaIS1_EESaIS3_EE12_M_check_lenEmPKc, symObjAddr: 0x13FC, symBinAddr: 0x100003198, symSize: 0xD0 }
  - { offsetInCU: 0xB8F2, offset: 0xB8F2, size: 0x8, addend: 0x0, symName: __ZNSt12_Vector_baseISt6vectorISt4pairIiiESaIS2_EESaIS4_EE11_M_allocateEm, symObjAddr: 0x14CC, symBinAddr: 0x100003268, symSize: 0x50 }
  - { offsetInCU: 0xBA4C, offset: 0xBA4C, size: 0x8, addend: 0x0, symName: __ZSt24__uninitialized_fill_n_aIPSt6vectorISt4pairIiiESaIS2_EEmS4_S4_ET_S6_T0_RKT1_RSaIT2_E, symObjAddr: 0x13CC, symBinAddr: 0x100003168, symSize: 0x30 }
  - { offsetInCU: 0xBA54, offset: 0xBA54, size: 0x8, addend: 0x0, symName: __ZNKSt6vectorIS_ISt4pairIiiESaIS1_EESaIS3_EE12_M_check_lenEmPKc, symObjAddr: 0x13FC, symBinAddr: 0x100003198, symSize: 0xD0 }
  - { offsetInCU: 0xBA82, offset: 0xBA82, size: 0x8, addend: 0x0, symName: __ZSt4fillIPSt6vectorISt4pairIiiESaIS2_EES4_EvT_S6_RKT0_, symObjAddr: 0x139C, symBinAddr: 0x100003138, symSize: 0x30 }
  - { offsetInCU: 0xBA8A, offset: 0xBA8A, size: 0x8, addend: 0x0, symName: __ZSt24__uninitialized_fill_n_aIPSt6vectorISt4pairIiiESaIS2_EEmS4_S4_ET_S6_T0_RKT1_RSaIT2_E, symObjAddr: 0x13CC, symBinAddr: 0x100003168, symSize: 0x30 }
  - { offsetInCU: 0xBB12, offset: 0xBB12, size: 0x8, addend: 0x0, symName: __ZSt13move_backwardIPSt6vectorISt4pairIiiESaIS2_EES5_ET0_T_S7_S6_, symObjAddr: 0x1354, symBinAddr: 0x1000030F0, symSize: 0x48 }
  - { offsetInCU: 0xBB1A, offset: 0xBB1A, size: 0x8, addend: 0x0, symName: __ZSt4fillIPSt6vectorISt4pairIiiESaIS2_EES4_EvT_S6_RKT0_, symObjAddr: 0x139C, symBinAddr: 0x100003138, symSize: 0x30 }
  - { offsetInCU: 0xBAF6, offset: 0xBAF6, size: 0x8, addend: 0x0, symName: __ZNK9__gnu_cxx17__normal_iteratorIPSt6vectorISt4pairIiiESaIS3_EES1_IS5_SaIS5_EEE4baseEv, symObjAddr: 0x1340, symBinAddr: 0x1000030DC, symSize: 0x14 }
  - { offsetInCU: 0xBAFE, offset: 0xBAFE, size: 0x8, addend: 0x0, symName: __ZSt13move_backwardIPSt6vectorISt4pairIiiESaIS2_EES5_ET0_T_S7_S6_, symObjAddr: 0x1354, symBinAddr: 0x1000030F0, symSize: 0x48 }
  - { offsetInCU: 0xBC14, offset: 0xBC14, size: 0x8, addend: 0x0, symName: __ZSt22__uninitialized_move_aIPSt6vectorISt4pairIiiESaIS2_EES5_SaIS4_EET0_T_S8_S7_RT1_, symObjAddr: 0x12F0, symBinAddr: 0x10000308C, symSize: 0x50 }
  - { offsetInCU: 0xBC1C, offset: 0xBC1C, size: 0x8, addend: 0x0, symName: __ZNK9__gnu_cxx17__normal_iteratorIPSt6vectorISt4pairIiiESaIS3_EES1_IS5_SaIS5_EEE4baseEv, symObjAddr: 0x1340, symBinAddr: 0x1000030DC, symSize: 0x14 }
  - { offsetInCU: 0xBBC7, offset: 0xBBC7, size: 0x8, addend: 0x0, symName: __ZNSt12_Vector_baseISt6vectorISt4pairIiiESaIS2_EESaIS4_EE19_M_get_Tp_allocatorEv, symObjAddr: 0x12DC, symBinAddr: 0x100003078, symSize: 0x14 }
  - { offsetInCU: 0xBBCF, offset: 0xBBCF, size: 0x8, addend: 0x0, symName: __ZSt22__uninitialized_move_aIPSt6vectorISt4pairIiiESaIS2_EES5_SaIS4_EET0_T_S8_S7_RT1_, symObjAddr: 0x12F0, symBinAddr: 0x10000308C, symSize: 0x50 }
  - { offsetInCU: 0xBCD2, offset: 0xBCD2, size: 0x8, addend: 0x0, symName: __ZN9__gnu_cxxmiIPSt6vectorISt4pairIiiESaIS3_EES1_IS5_SaIS5_EEEENS_17__normal_iteratorIT_T0_E15difference_typeERKSC_SF_, symObjAddr: 0x1290, symBinAddr: 0x10000302C, symSize: 0x4C }
  - { offsetInCU: 0xBCDA, offset: 0xBCDA, size: 0x8, addend: 0x0, symName: __ZNSt12_Vector_baseISt6vectorISt4pairIiiESaIS2_EESaIS4_EE19_M_get_Tp_allocatorEv, symObjAddr: 0x12DC, symBinAddr: 0x100003078, symSize: 0x14 }
  - { offsetInCU: 0xBC6D, offset: 0xBC6D, size: 0x8, addend: 0x0, symName: __ZNSt6vectorIS_ISt4pairIiiESaIS1_EESaIS3_EE16_Temporary_value6_M_valEv, symObjAddr: 0x1278, symBinAddr: 0x100003014, symSize: 0x18 }
  - { offsetInCU: 0xBC75, offset: 0xBC75, size: 0x8, addend: 0x0, symName: __ZN9__gnu_cxxmiIPSt6vectorISt4pairIiiESaIS3_EES1_IS5_SaIS5_EEEENS_17__normal_iteratorIT_T0_E15difference_typeERKSC_SF_, symObjAddr: 0x1290, symBinAddr: 0x10000302C, symSize: 0x4C }
  - { offsetInCU: 0xBD05, offset: 0xBD05, size: 0x8, addend: 0x0, symName: __ZNSt6vectorIS_ISt4pairIiiESaIS1_EESaIS3_EE16_Temporary_valueD1Ev, symObjAddr: 0x1210, symBinAddr: 0x100002FAC, symSize: 0x68 }
  - { offsetInCU: 0xBD0D, offset: 0xBD0D, size: 0x8, addend: 0x0, symName: __ZNSt6vectorIS_ISt4pairIiiESaIS1_EESaIS3_EE16_Temporary_value6_M_valEv, symObjAddr: 0x1278, symBinAddr: 0x100003014, symSize: 0x18 }
  - { offsetInCU: 0xBDF0, offset: 0xBDF0, size: 0x8, addend: 0x0, symName: __ZNSt6vectorIS_ISt4pairIiiESaIS1_EESaIS3_EE16_Temporary_valueC1IJRKS3_EEEPS5_DpOT_, symObjAddr: 0x1114, symBinAddr: 0x100002EB0, symSize: 0xFC }
  - { offsetInCU: 0xBDF8, offset: 0xBDF8, size: 0x8, addend: 0x0, symName: __ZNSt6vectorIS_ISt4pairIiiESaIS1_EESaIS3_EE16_Temporary_valueD1Ev, symObjAddr: 0x1210, symBinAddr: 0x100002FAC, symSize: 0x68 }
  - { offsetInCU: 0xBEB6, offset: 0xBEB6, size: 0x8, addend: 0x0, symName: __ZSt8_DestroyIPSt4pairIiiEEvT_S3_, symObjAddr: 0x10EC, symBinAddr: 0x100002E88, symSize: 0x28 }
  - { offsetInCU: 0xBEBE, offset: 0xBEBE, size: 0x8, addend: 0x0, symName: __ZNSt6vectorIS_ISt4pairIiiESaIS1_EESaIS3_EE16_Temporary_valueC1IJRKS3_EEEPS5_DpOT_, symObjAddr: 0x1114, symBinAddr: 0x100002EB0, symSize: 0xFC }
  - { offsetInCU: 0xBF85, offset: 0xBF85, size: 0x8, addend: 0x0, symName: __ZSt24__uninitialized_fill_n_aIPSt4pairIiiEmS1_S1_ET_S3_T0_RKT1_RSaIT2_E, symObjAddr: 0x10BC, symBinAddr: 0x100002E58, symSize: 0x30 }
  - { offsetInCU: 0xBF8D, offset: 0xBF8D, size: 0x8, addend: 0x0, symName: __ZSt8_DestroyIPSt4pairIiiEEvT_S3_, symObjAddr: 0x10EC, symBinAddr: 0x100002E88, symSize: 0x28 }
  - { offsetInCU: 0xBF71, offset: 0xBF71, size: 0x8, addend: 0x0, symName: __ZNSt12_Vector_baseISt4pairIiiESaIS1_EE13_M_deallocateEPS1_m, symObjAddr: 0x1064, symBinAddr: 0x100002E00, symSize: 0x58 }
  - { offsetInCU: 0xBF79, offset: 0xBF79, size: 0x8, addend: 0x0, symName: __ZSt24__uninitialized_fill_n_aIPSt4pairIiiEmS1_S1_ET_S3_T0_RKT1_RSaIT2_E, symObjAddr: 0x10BC, symBinAddr: 0x100002E58, symSize: 0x30 }
  - { offsetInCU: 0xC006, offset: 0xC006, size: 0x8, addend: 0x0, symName: __ZNSt12_Vector_baseISt4pairIiiESaIS1_EE17_M_create_storageEm, symObjAddr: 0x1004, symBinAddr: 0x100002DA0, symSize: 0x60 }
  - { offsetInCU: 0xC00E, offset: 0xC00E, size: 0x8, addend: 0x0, symName: __ZNSt12_Vector_baseISt4pairIiiESaIS1_EE13_M_deallocateEPS1_m, symObjAddr: 0x1064, symBinAddr: 0x100002E00, symSize: 0x58 }
  - { offsetInCU: 0xC0B0, offset: 0xC0B0, size: 0x8, addend: 0x0, symName: __ZNSt12_Vector_baseISt4pairIiiESaIS1_EE12_Vector_implC1ERKS2_, symObjAddr: 0xFB8, symBinAddr: 0x100002D54, symSize: 0x4C }
  - { offsetInCU: 0xC0B8, offset: 0xC0B8, size: 0x8, addend: 0x0, symName: __ZNSt12_Vector_baseISt4pairIiiESaIS1_EE17_M_create_storageEm, symObjAddr: 0x1004, symBinAddr: 0x100002DA0, symSize: 0x60 }
  - { offsetInCU: 0xC139, offset: 0xC139, size: 0x8, addend: 0x0, symName: __ZNSt6vectorISt4pairIiiESaIS1_EE11_S_max_sizeERKS2_, symObjAddr: 0xF64, symBinAddr: 0x100002D00, symSize: 0x54 }
  - { offsetInCU: 0xC141, offset: 0xC141, size: 0x8, addend: 0x0, symName: __ZNSt12_Vector_baseISt4pairIiiESaIS1_EE12_Vector_implC1ERKS2_, symObjAddr: 0xFB8, symBinAddr: 0x100002D54, symSize: 0x4C }
  - { offsetInCU: 0xC25C, offset: 0xC25C, size: 0x8, addend: 0x0, symName: __ZNSt6vectorIS_ISt4pairIiiESaIS1_EESaIS3_EE15_M_erase_at_endEPS3_, symObjAddr: 0xED0, symBinAddr: 0x100002C6C, symSize: 0x94 }
  - { offsetInCU: 0xC264, offset: 0xC264, size: 0x8, addend: 0x0, symName: __ZNSt6vectorISt4pairIiiESaIS1_EE11_S_max_sizeERKS2_, symObjAddr: 0xF64, symBinAddr: 0x100002D00, symSize: 0x54 }
  - { offsetInCU: 0xC303, offset: 0xC303, size: 0x8, addend: 0x0, symName: __ZNSt6vectorIS_ISt4pairIiiESaIS1_EESaIS3_EE3endEv, symObjAddr: 0xEA8, symBinAddr: 0x100002C44, symSize: 0x28 }
  - { offsetInCU: 0xC30B, offset: 0xC30B, size: 0x8, addend: 0x0, symName: __ZNSt6vectorIS_ISt4pairIiiESaIS1_EESaIS3_EE15_M_erase_at_endEPS3_, symObjAddr: 0xED0, symBinAddr: 0x100002C6C, symSize: 0x94 }
  - { offsetInCU: 0xC332, offset: 0xC332, size: 0x8, addend: 0x0, symName: __ZNSt6vectorIS_ISt4pairIiiESaIS1_EESaIS3_EE14_M_fill_insertEN9__gnu_cxx17__normal_iteratorIPS3_S5_EEmRKS3_, symObjAddr: 0x9AC, symBinAddr: 0x100002748, symSize: 0x4FC }
  - { offsetInCU: 0xC33A, offset: 0xC33A, size: 0x8, addend: 0x0, symName: __ZNSt6vectorIS_ISt4pairIiiESaIS1_EESaIS3_EE3endEv, symObjAddr: 0xEA8, symBinAddr: 0x100002C44, symSize: 0x28 }
  - { offsetInCU: 0xC567, offset: 0xC567, size: 0x8, addend: 0x0, symName: __ZNKSt6vectorIS_ISt4pairIiiESaIS1_EESaIS3_EE4sizeEv, symObjAddr: 0x978, symBinAddr: 0x100002714, symSize: 0x34 }
  - { offsetInCU: 0xC56F, offset: 0xC56F, size: 0x8, addend: 0x0, symName: __ZNSt6vectorIS_ISt4pairIiiESaIS1_EESaIS3_EE14_M_fill_insertEN9__gnu_cxx17__normal_iteratorIPS3_S5_EEmRKS3_, symObjAddr: 0x9AC, symBinAddr: 0x100002748, symSize: 0x4FC }
  - { offsetInCU: 0xC5EB, offset: 0xC5EB, size: 0x8, addend: 0x0, symName: __ZNSt12_Vector_baseISt4pairIiiESaIS1_EE19_M_get_Tp_allocatorEv, symObjAddr: 0x964, symBinAddr: 0x100002700, symSize: 0x14 }
  - { offsetInCU: 0xC5F3, offset: 0xC5F3, size: 0x8, addend: 0x0, symName: __ZNKSt6vectorIS_ISt4pairIiiESaIS1_EESaIS3_EE4sizeEv, symObjAddr: 0x978, symBinAddr: 0x100002714, symSize: 0x34 }
  - { offsetInCU: 0xC61A, offset: 0xC61A, size: 0x8, addend: 0x0, symName: __ZNSt6vectorISt4pairIiiESaIS1_EE18_M_fill_initializeEmRKS1_, symObjAddr: 0x90C, symBinAddr: 0x1000026A8, symSize: 0x58 }
  - { offsetInCU: 0xC622, offset: 0xC622, size: 0x8, addend: 0x0, symName: __ZNSt12_Vector_baseISt4pairIiiESaIS1_EE19_M_get_Tp_allocatorEv, symObjAddr: 0x964, symBinAddr: 0x100002700, symSize: 0x14 }
  - { offsetInCU: 0xC6C4, offset: 0xC6C4, size: 0x8, addend: 0x0, symName: __ZNSt12_Vector_baseISt4pairIiiESaIS1_EED2Ev, symObjAddr: 0x8BC, symBinAddr: 0x100002658, symSize: 0x50 }
  - { offsetInCU: 0xC6CC, offset: 0xC6CC, size: 0x8, addend: 0x0, symName: __ZNSt6vectorISt4pairIiiESaIS1_EE18_M_fill_initializeEmRKS1_, symObjAddr: 0x90C, symBinAddr: 0x1000026A8, symSize: 0x58 }
  - { offsetInCU: 0xC732, offset: 0xC732, size: 0x8, addend: 0x0, symName: __ZNSt12_Vector_baseISt4pairIiiESaIS1_EEC2EmRKS2_, symObjAddr: 0x868, symBinAddr: 0x100002604, symSize: 0x54 }
  - { offsetInCU: 0xC73A, offset: 0xC73A, size: 0x8, addend: 0x0, symName: __ZNSt12_Vector_baseISt4pairIiiESaIS1_EED2Ev, symObjAddr: 0x8BC, symBinAddr: 0x100002658, symSize: 0x50 }
  - { offsetInCU: 0xC7AB, offset: 0xC7AB, size: 0x8, addend: 0x0, symName: __ZNSt12_Vector_baseISt4pairIiiESaIS1_EE12_Vector_implD1Ev, symObjAddr: 0x83C, symBinAddr: 0x1000025D8, symSize: 0x2C }
  - { offsetInCU: 0xC7B3, offset: 0xC7B3, size: 0x8, addend: 0x0, symName: __ZNSt12_Vector_baseISt4pairIiiESaIS1_EEC2EmRKS2_, symObjAddr: 0x868, symBinAddr: 0x100002604, symSize: 0x54 }
  - { offsetInCU: 0xC7C5, offset: 0xC7C5, size: 0x8, addend: 0x0, symName: __ZNSt6vectorISt4pairIiiESaIS1_EE17_S_check_init_lenEmRKS2_, symObjAddr: 0x7B8, symBinAddr: 0x100002554, symSize: 0x84 }
  - { offsetInCU: 0xC7CD, offset: 0xC7CD, size: 0x8, addend: 0x0, symName: __ZNSt12_Vector_baseISt4pairIiiESaIS1_EE12_Vector_implD1Ev, symObjAddr: 0x83C, symBinAddr: 0x1000025D8, symSize: 0x2C }
  - { offsetInCU: 0xC8DE, offset: 0xC8DE, size: 0x8, addend: 0x0, symName: __ZNSt15__new_allocatorISt4pairIiiEED2Ev, symObjAddr: 0x7A4, symBinAddr: 0x100002540, symSize: 0x14 }
  - { offsetInCU: 0xC8E6, offset: 0xC8E6, size: 0x8, addend: 0x0, symName: __ZNSt6vectorISt4pairIiiESaIS1_EE17_S_check_init_lenEmRKS2_, symObjAddr: 0x7B8, symBinAddr: 0x100002554, symSize: 0x84 }
  - { offsetInCU: 0xC942, offset: 0xC942, size: 0x8, addend: 0x0, symName: __ZSt7forwardIiEOT_RNSt16remove_referenceIS0_E4typeE, symObjAddr: 0x790, symBinAddr: 0x10000252C, symSize: 0x14 }
  - { offsetInCU: 0xC94A, offset: 0xC94A, size: 0x8, addend: 0x0, symName: __ZNSt15__new_allocatorISt4pairIiiEED2Ev, symObjAddr: 0x7A4, symBinAddr: 0x100002540, symSize: 0x14 }
  - { offsetInCU: 0xC951, offset: 0xC951, size: 0x8, addend: 0x0, symName: __ZNSt12_Vector_baseISt6vectorISt4pairIiiESaIS2_EESaIS4_EE13_M_deallocateEPS4_m, symObjAddr: 0x738, symBinAddr: 0x1000024D4, symSize: 0x58 }
  - { offsetInCU: 0xC959, offset: 0xC959, size: 0x8, addend: 0x0, symName: __ZSt7forwardIiEOT_RNSt16remove_referenceIS0_E4typeE, symObjAddr: 0x790, symBinAddr: 0x10000252C, symSize: 0x14 }
  - { offsetInCU: 0xCA47, offset: 0xCA47, size: 0x8, addend: 0x0, symName: __ZNSt15__new_allocatorISt6vectorISt4pairIiiESaIS2_EEED2Ev, symObjAddr: 0x724, symBinAddr: 0x1000024C0, symSize: 0x14 }
  - { offsetInCU: 0xCA4F, offset: 0xCA4F, size: 0x8, addend: 0x0, symName: __ZNSt12_Vector_baseISt6vectorISt4pairIiiESaIS2_EESaIS4_EE13_M_deallocateEPS4_m, symObjAddr: 0x738, symBinAddr: 0x1000024D4, symSize: 0x58 }
  - { offsetInCU: 0xCAA5, offset: 0xCAA5, size: 0x8, addend: 0x0, symName: __ZNSt12_Vector_baseISt6vectorISt4pairIiiESaIS2_EESaIS4_EE17_Vector_impl_dataC2Ev, symObjAddr: 0x6F8, symBinAddr: 0x100002494, symSize: 0x2C }
  - { offsetInCU: 0xCAAD, offset: 0xCAAD, size: 0x8, addend: 0x0, symName: __ZNSt15__new_allocatorISt6vectorISt4pairIiiESaIS2_EEED2Ev, symObjAddr: 0x724, symBinAddr: 0x1000024C0, symSize: 0x14 }
  - { offsetInCU: 0xCA9B, offset: 0xCA9B, size: 0x8, addend: 0x0, symName: __ZNSt6vectorIS_ISt4pairIiiESaIS1_EESaIS3_EE6resizeEmRKS3_, symObjAddr: 0x61C, symBinAddr: 0x1000023B8, symSize: 0xDC }
  - { offsetInCU: 0xCAA3, offset: 0xCAA3, size: 0x8, addend: 0x0, symName: __ZNSt12_Vector_baseISt6vectorISt4pairIiiESaIS2_EESaIS4_EE17_Vector_impl_dataC2Ev, symObjAddr: 0x6F8, symBinAddr: 0x100002494, symSize: 0x2C }
  - { offsetInCU: 0xCB3E, offset: 0xCB3E, size: 0x8, addend: 0x0, symName: __ZNSt6vectorISt4pairIiiESaIS1_EED1Ev, symObjAddr: 0x5C0, symBinAddr: 0x10000235C, symSize: 0x5C }
  - { offsetInCU: 0xCB46, offset: 0xCB46, size: 0x8, addend: 0x0, symName: __ZNSt6vectorIS_ISt4pairIiiESaIS1_EESaIS3_EE6resizeEmRKS3_, symObjAddr: 0x61C, symBinAddr: 0x1000023B8, symSize: 0xDC }
  - { offsetInCU: 0xCC00, offset: 0xCC00, size: 0x8, addend: 0x0, symName: __ZNSt6vectorISt4pairIiiESaIS1_EEC1EmRKS1_RKS2_, symObjAddr: 0x550, symBinAddr: 0x1000022EC, symSize: 0x70 }
  - { offsetInCU: 0xCC08, offset: 0xCC08, size: 0x8, addend: 0x0, symName: __ZNSt6vectorISt4pairIiiESaIS1_EED1Ev, symObjAddr: 0x5C0, symBinAddr: 0x10000235C, symSize: 0x5C }
  - { offsetInCU: 0xCC63, offset: 0xCC63, size: 0x8, addend: 0x0, symName: __ZNSt4pairIiiEaSERKS0_, symObjAddr: 0x518, symBinAddr: 0x1000022B4, symSize: 0x38 }
  - { offsetInCU: 0xCC6B, offset: 0xCC6B, size: 0x8, addend: 0x0, symName: __ZNSt6vectorISt4pairIiiESaIS1_EEC1EmRKS1_RKS2_, symObjAddr: 0x550, symBinAddr: 0x1000022EC, symSize: 0x70 }
  - { offsetInCU: 0xCCA6, offset: 0xCCA6, size: 0x8, addend: 0x0, symName: __ZNSt6vectorISt4pairIiiESaIS1_EEixEm, symObjAddr: 0x4F0, symBinAddr: 0x10000228C, symSize: 0x28 }
  - { offsetInCU: 0xCCAE, offset: 0xCCAE, size: 0x8, addend: 0x0, symName: __ZNSt4pairIiiEaSERKS0_, symObjAddr: 0x518, symBinAddr: 0x1000022B4, symSize: 0x38 }
  - { offsetInCU: 0xCCE9, offset: 0xCCE9, size: 0x8, addend: 0x0, symName: __ZNSt6vectorIS_ISt4pairIiiESaIS1_EESaIS3_EEixEm, symObjAddr: 0x4BC, symBinAddr: 0x100002258, symSize: 0x34 }
  - { offsetInCU: 0xCCF1, offset: 0xCCF1, size: 0x8, addend: 0x0, symName: __ZNSt6vectorISt4pairIiiESaIS1_EEixEm, symObjAddr: 0x4F0, symBinAddr: 0x10000228C, symSize: 0x28 }
  - { offsetInCU: 0xCDA2, offset: 0xCDA2, size: 0x8, addend: 0x0, symName: __ZNSt4pairIiiEC1IiiLb1EEEOT_OT0_, symObjAddr: 0x474, symBinAddr: 0x100002210, symSize: 0x48 }
  - { offsetInCU: 0xCDAA, offset: 0xCDAA, size: 0x8, addend: 0x0, symName: __ZNSt6vectorIS_ISt4pairIiiESaIS1_EESaIS3_EEixEm, symObjAddr: 0x4BC, symBinAddr: 0x100002258, symSize: 0x34 }
  - { offsetInCU: 0xCE46, offset: 0xCE46, size: 0x8, addend: 0x0, symName: __ZNSt12_Vector_baseISt6vectorISt4pairIiiESaIS2_EESaIS4_EED2Ev, symObjAddr: 0x418, symBinAddr: 0x1000021B4, symSize: 0x5C }
  - { offsetInCU: 0xCE4E, offset: 0xCE4E, size: 0x8, addend: 0x0, symName: __ZNSt4pairIiiEC1IiiLb1EEEOT_OT0_, symObjAddr: 0x474, symBinAddr: 0x100002210, symSize: 0x48 }
  - { offsetInCU: 0xCEC2, offset: 0xCEC2, size: 0x8, addend: 0x0, symName: __ZNSt12_Vector_baseISt6vectorISt4pairIiiESaIS2_EESaIS4_EE12_Vector_implC1Ev, symObjAddr: 0x3E0, symBinAddr: 0x10000217C, symSize: 0x38 }
  - { offsetInCU: 0xCECA, offset: 0xCECA, size: 0x8, addend: 0x0, symName: __ZNSt12_Vector_baseISt6vectorISt4pairIiiESaIS2_EESaIS4_EED2Ev, symObjAddr: 0x418, symBinAddr: 0x1000021B4, symSize: 0x5C }
  - { offsetInCU: 0xCEFA, offset: 0xCEFA, size: 0x8, addend: 0x0, symName: _main, symObjAddr: 0x220, symBinAddr: 0x100001FBC, symSize: 0x1C0 }
  - { offsetInCU: 0xCF02, offset: 0xCF02, size: 0x8, addend: 0x0, symName: __ZNSt12_Vector_baseISt6vectorISt4pairIiiESaIS2_EESaIS4_EE12_Vector_implC1Ev, symObjAddr: 0x3E0, symBinAddr: 0x10000217C, symSize: 0x38 }
  - { offsetInCU: 0xCFDD, offset: 0xCFDD, size: 0x8, addend: 0x0, symName: __Z3dfsii, symObjAddr: 0x9C, symBinAddr: 0x100001E38, symSize: 0x184 }
  - { offsetInCU: 0xCFE5, offset: 0xCFE5, size: 0x8, addend: 0x0, symName: _main, symObjAddr: 0x220, symBinAddr: 0x100001FBC, symSize: 0x1C0 }
  - { offsetInCU: 0xD09D, offset: 0xD09D, size: 0x8, addend: 0x0, symName: __ZNSt6vectorIS_ISt4pairIiiESaIS1_EESaIS3_EEC1Ev, symObjAddr: 0x7C, symBinAddr: 0x100001E18, symSize: 0x20 }
  - { offsetInCU: 0xD0A5, offset: 0xD0A5, size: 0x8, addend: 0x0, symName: __Z3dfsii, symObjAddr: 0x9C, symBinAddr: 0x100001E38, symSize: 0x184 }
  - { offsetInCU: 0xD0F2, offset: 0xD0F2, size: 0x8, addend: 0x0, symName: __ZNSt12_Vector_baseISt6vectorISt4pairIiiESaIS2_EESaIS4_EEC2Ev, symObjAddr: 0x5C, symBinAddr: 0x100001DF8, symSize: 0x20 }
  - { offsetInCU: 0xD0FA, offset: 0xD0FA, size: 0x8, addend: 0x0, symName: __ZNSt6vectorIS_ISt4pairIiiESaIS1_EESaIS3_EEC1Ev, symObjAddr: 0x7C, symBinAddr: 0x100001E18, symSize: 0x20 }
  - { offsetInCU: 0xD158, offset: 0xD158, size: 0x8, addend: 0x0, symName: __ZNSt12_Vector_baseISt6vectorISt4pairIiiESaIS2_EESaIS4_EE12_Vector_implD1Ev, symObjAddr: 0x30, symBinAddr: 0x100001DCC, symSize: 0x2C }
  - { offsetInCU: 0xD160, offset: 0xD160, size: 0x8, addend: 0x0, symName: __ZNSt12_Vector_baseISt6vectorISt4pairIiiESaIS2_EESaIS4_EEC2Ev, symObjAddr: 0x5C, symBinAddr: 0x100001DF8, symSize: 0x20 }
  - { offsetInCU: 0xD16E, offset: 0xD16E, size: 0x8, addend: 0x0, symName: __ZdlPvS_, symObjAddr: 0x18, symBinAddr: 0x100001DB4, symSize: 0x18 }
  - { offsetInCU: 0xD176, offset: 0xD176, size: 0x8, addend: 0x0, symName: __ZNSt12_Vector_baseISt6vectorISt4pairIiiESaIS2_EESaIS4_EE12_Vector_implD1Ev, symObjAddr: 0x30, symBinAddr: 0x100001DCC, symSize: 0x2C }
  - { offsetInCU: 0xD1AB, offset: 0xD1AB, size: 0x8, addend: 0x0, symName: __ZnwmPv, symObjAddr: 0x0, symBinAddr: 0x100001D9C, symSize: 0x18 }
  - { offsetInCU: 0xD1B3, offset: 0xD1B3, size: 0x8, addend: 0x0, symName: __ZdlPvS_, symObjAddr: 0x18, symBinAddr: 0x100001DB4, symSize: 0x18 }
...
