---
triple:          'arm64-apple-darwin'
binary-path:     '/Users/dingkai/Code/IOI2024/NZOI/2022-1-2.gout'
relocations:
  - { offsetInCU: 0xBB, offset: 0xBB, size: 0x8, addend: 0x0, symName: __ZSt23__is_constant_evaluatedv, symObjAddr: 0x0, symBinAddr: 0x100001950, symSize: 0x8 }
  - { offsetInCU: 0xD44D, offset: 0xD44D, size: 0x8, addend: 0x0, symName: __ZStL8__ioinit, symObjAddr: 0x70170, symBinAddr: 0x10001027D, symSize: 0x0 }
  - { offsetInCU: 0xD679, offset: 0xD679, size: 0x8, addend: 0x0, symName: __Z9mpShoeCntB5cxx11, symObjAddr: 0x70178, symBinAddr: 0x100010280, symSize: 0x0 }
  - { offsetInCU: 0xD801, offset: 0xD801, size: 0x8, addend: 0x0, symName: __Z11mpShortLongB5cxx11, symObjAddr: 0x701A8, symBinAddr: 0x1000102B0, symSize: 0x0 }
  - { offsetInCU: 0xD814, offset: 0xD814, size: 0x8, addend: 0x0, symName: __Z8strShoesB5cxx11, symObjAddr: 0x701D8, symBinAddr: 0x1000102E0, symSize: 0x0 }
  - { offsetInCU: 0xDD31, offset: 0xDD31, size: 0x8, addend: 0x0, symName: __GLOBAL__sub_I_2022_1_2.cpp, symObjAddr: 0x5B88, symBinAddr: 0x1000074D8, symSize: 0x14 }
  - { offsetInCU: 0xDD56, offset: 0xDD56, size: 0x8, addend: 0x0, symName: __Z41__static_initialization_and_destruction_0v, symObjAddr: 0x5AD4, symBinAddr: 0x100007424, symSize: 0xB4 }
  - { offsetInCU: 0xDDCE, offset: 0xDDCE, size: 0x8, addend: 0x0, symName: __ZNSt3mapINSt7__cxx1112basic_stringIcSt11char_traitsIcESaIcEEES5_St4lessIS5_ESaISt4pairIKS5_S5_EEED1Ev, symObjAddr: 0x5AB4, symBinAddr: 0x100007404, symSize: 0x20 }
  - { offsetInCU: 0xDE0F, offset: 0xDE0F, size: 0x8, addend: 0x0, symName: __ZNSt3mapINSt7__cxx1112basic_stringIcSt11char_traitsIcESaIcEEExSt4lessIS5_ESaISt4pairIKS5_xEEED1Ev, symObjAddr: 0x5A94, symBinAddr: 0x1000073E4, symSize: 0x20 }
  - { offsetInCU: 0xDDD0, offset: 0xDDD0, size: 0x8, addend: 0x0, symName: __ZNSt10_Head_baseILm0ERKNSt7__cxx1112basic_stringIcSt11char_traitsIcESaIcEEELb0EE7_M_headERS8_, symObjAddr: 0x5A7C, symBinAddr: 0x1000073CC, symSize: 0x18 }
  - { offsetInCU: 0xDDF7, offset: 0xDDF7, size: 0x8, addend: 0x0, symName: __ZNSt10_Head_baseILm0EONSt7__cxx1112basic_stringIcSt11char_traitsIcESaIcEEELb0EE7_M_headERS7_, symObjAddr: 0x5A64, symBinAddr: 0x1000073B4, symSize: 0x18 }
  - { offsetInCU: 0xDE1E, offset: 0xDE1E, size: 0x8, addend: 0x0, symName: __ZNSt11_Tuple_implILm0EJRKNSt7__cxx1112basic_stringIcSt11char_traitsIcESaIcEEEEE7_M_headERS8_, symObjAddr: 0x5A48, symBinAddr: 0x100007398, symSize: 0x1C }
  - { offsetInCU: 0xDE46, offset: 0xDE46, size: 0x8, addend: 0x0, symName: __ZNSt11_Tuple_implILm0EJONSt7__cxx1112basic_stringIcSt11char_traitsIcESaIcEEEEE7_M_headERS7_, symObjAddr: 0x5A2C, symBinAddr: 0x10000737C, symSize: 0x1C }
  - { offsetInCU: 0xDE6E, offset: 0xDE6E, size: 0x8, addend: 0x0, symName: __ZSt12__get_helperILm0ERKNSt7__cxx1112basic_stringIcSt11char_traitsIcESaIcEEEJEERT0_RSt11_Tuple_implIXT_EJS8_DpT1_EE, symObjAddr: 0x5A10, symBinAddr: 0x100007360, symSize: 0x1C }
  - { offsetInCU: 0xDEAE, offset: 0xDEAE, size: 0x8, addend: 0x0, symName: __ZSt12__get_helperILm0EONSt7__cxx1112basic_stringIcSt11char_traitsIcESaIcEEEJEERT0_RSt11_Tuple_implIXT_EJS7_DpT1_EE, symObjAddr: 0x59F4, symBinAddr: 0x100007344, symSize: 0x1C }
  - { offsetInCU: 0xDEF4, offset: 0xDEF4, size: 0x8, addend: 0x0, symName: __ZSt7forwardIRKNSt7__cxx1112basic_stringIcSt11char_traitsIcESaIcEEEEOT_RNSt16remove_referenceIS8_E4typeE, symObjAddr: 0x59E0, symBinAddr: 0x100007330, symSize: 0x14 }
  - { offsetInCU: 0xDF24, offset: 0xDF24, size: 0x8, addend: 0x0, symName: __ZSt3getILm0EJRKNSt7__cxx1112basic_stringIcSt11char_traitsIcESaIcEEEEERNSt13tuple_elementIXT_ESt5tupleIJDpT0_EEE4typeERSC_, symObjAddr: 0x59C4, symBinAddr: 0x100007314, symSize: 0x1C }
  - { offsetInCU: 0xDF67, offset: 0xDF67, size: 0x8, addend: 0x0, symName: __ZSt7forwardIONSt7__cxx1112basic_stringIcSt11char_traitsIcESaIcEEEEOT_RNSt16remove_referenceIS7_E4typeE, symObjAddr: 0x59B0, symBinAddr: 0x100007300, symSize: 0x14 }
  - { offsetInCU: 0xDF97, offset: 0xDF97, size: 0x8, addend: 0x0, symName: __ZSt3getILm0EJONSt7__cxx1112basic_stringIcSt11char_traitsIcESaIcEEEEERNSt13tuple_elementIXT_ESt5tupleIJDpT0_EEE4typeERSB_, symObjAddr: 0x5994, symBinAddr: 0x1000072E4, symSize: 0x1C }
  - { offsetInCU: 0xE0D8, offset: 0xE0D8, size: 0x8, addend: 0x0, symName: __ZNSt4pairIKNSt7__cxx1112basic_stringIcSt11char_traitsIcESaIcEEES5_EC1IJRS6_EJLm0EEJEJEEERSt5tupleIJDpT_EERSA_IJDpT1_EESt12_Index_tupleIJXspT0_EEESJ_IJXspT2_EEE, symObjAddr: 0x593C, symBinAddr: 0x10000728C, symSize: 0x58 }
  - { offsetInCU: 0xE1A4, offset: 0xE1A4, size: 0x8, addend: 0x0, symName: __ZNSt4pairIKNSt7__cxx1112basic_stringIcSt11char_traitsIcESaIcEEExEC1IJRS6_EJLm0EEJEJEEERSt5tupleIJDpT_EERSA_IJDpT1_EESt12_Index_tupleIJXspT0_EEESJ_IJXspT2_EEE, symObjAddr: 0x58E8, symBinAddr: 0x100007238, symSize: 0x54 }
  - { offsetInCU: 0xE272, offset: 0xE272, size: 0x8, addend: 0x0, symName: __ZNSt4pairIKNSt7__cxx1112basic_stringIcSt11char_traitsIcESaIcEEExEC1IJOS5_EJLm0EEJEJEEERSt5tupleIJDpT_EERSA_IJDpT1_EESt12_Index_tupleIJXspT0_EEESJ_IJXspT2_EEE, symObjAddr: 0x5894, symBinAddr: 0x1000071E4, symSize: 0x54 }
  - { offsetInCU: 0xE30C, offset: 0xE30C, size: 0x8, addend: 0x0, symName: __ZNSt4pairIKNSt7__cxx1112basic_stringIcSt11char_traitsIcESaIcEEES5_EC1IJRS6_EJEEESt21piecewise_construct_tSt5tupleIJDpT_EESB_IJDpT0_EE, symObjAddr: 0x5858, symBinAddr: 0x1000071A8, symSize: 0x3C }
  - { offsetInCU: 0xE3B2, offset: 0xE3B2, size: 0x8, addend: 0x0, symName: __ZNSt4pairIKNSt7__cxx1112basic_stringIcSt11char_traitsIcESaIcEEExEC1IJRS6_EJEEESt21piecewise_construct_tSt5tupleIJDpT_EESB_IJDpT0_EE, symObjAddr: 0x581C, symBinAddr: 0x10000716C, symSize: 0x3C }
  - { offsetInCU: 0xE3F7, offset: 0xE3F7, size: 0x8, addend: 0x0, symName: __ZNSt11_Tuple_implILm0EJRKNSt7__cxx1112basic_stringIcSt11char_traitsIcESaIcEEEEEC2EOS8_, symObjAddr: 0x57F4, symBinAddr: 0x100007144, symSize: 0x28 }
  - { offsetInCU: 0xE3D1, offset: 0xE3D1, size: 0x8, addend: 0x0, symName: __ZSt7forwardIRKPKcEOT_RNSt16remove_referenceIS4_E4typeE, symObjAddr: 0x57E0, symBinAddr: 0x100007130, symSize: 0x14 }
  - { offsetInCU: 0xE4CD, offset: 0xE4CD, size: 0x8, addend: 0x0, symName: __ZNSt4pairIKNSt7__cxx1112basic_stringIcSt11char_traitsIcESaIcEEExEC1IJOS5_EJEEESt21piecewise_construct_tSt5tupleIJDpT_EESB_IJDpT0_EE, symObjAddr: 0x57A4, symBinAddr: 0x1000070F4, symSize: 0x3C }
  - { offsetInCU: 0xE511, offset: 0xE511, size: 0x8, addend: 0x0, symName: __ZNSt11_Tuple_implILm0EJONSt7__cxx1112basic_stringIcSt11char_traitsIcESaIcEEEEEC2EOS7_, symObjAddr: 0x577C, symBinAddr: 0x1000070CC, symSize: 0x28 }
  - { offsetInCU: 0xE5A2, offset: 0xE5A2, size: 0x8, addend: 0x0, symName: __ZNSt4pairIKNSt7__cxx1112basic_stringIcSt11char_traitsIcESaIcEEES5_EC1ERKS7_, symObjAddr: 0x571C, symBinAddr: 0x10000706C, symSize: 0x60 }
  - { offsetInCU: 0xE627, offset: 0xE627, size: 0x8, addend: 0x0, symName: __ZNSt4pairIKNSt7__cxx1112basic_stringIcSt11char_traitsIcESaIcEEExEC1ERKS7_, symObjAddr: 0x56E4, symBinAddr: 0x100007034, symSize: 0x38 }
  - { offsetInCU: 0xE611, offset: 0xE611, size: 0x8, addend: 0x0, symName: __ZNK9__gnu_cxx16__aligned_membufISt4pairIKNSt7__cxx1112basic_stringIcSt11char_traitsIcESaIcEEES7_EE7_M_addrEv, symObjAddr: 0x56D0, symBinAddr: 0x100007020, symSize: 0x14 }
  - { offsetInCU: 0xE696, offset: 0xE696, size: 0x8, addend: 0x0, symName: __ZNSt15__new_allocatorISt13_Rb_tree_nodeISt4pairIKNSt7__cxx1112basic_stringIcSt11char_traitsIcESaIcEEES7_EEE8allocateEmPKv, symObjAddr: 0x5640, symBinAddr: 0x100006F90, symSize: 0x90 }
  - { offsetInCU: 0xE7BE, offset: 0xE7BE, size: 0x8, addend: 0x0, symName: __ZNSt5tupleIJRKNSt7__cxx1112basic_stringIcSt11char_traitsIcESaIcEEEEEC1EOS8_, symObjAddr: 0x5618, symBinAddr: 0x100006F68, symSize: 0x28 }
  - { offsetInCU: 0xE79D, offset: 0xE79D, size: 0x8, addend: 0x0, symName: __ZSt10_ConstructINSt7__cxx1112basic_stringIcSt11char_traitsIcESaIcEEEJRKPKcEEvPT_DpOT0_, symObjAddr: 0x556C, symBinAddr: 0x100006EBC, symSize: 0xAC }
  - { offsetInCU: 0xE870, offset: 0xE870, size: 0x8, addend: 0x0, symName: __ZNK9__gnu_cxx16__aligned_membufISt4pairIKNSt7__cxx1112basic_stringIcSt11char_traitsIcESaIcEEExEE7_M_addrEv, symObjAddr: 0x5558, symBinAddr: 0x100006EA8, symSize: 0x14 }
  - { offsetInCU: 0xE94E, offset: 0xE94E, size: 0x8, addend: 0x0, symName: __ZNSt5tupleIJONSt7__cxx1112basic_stringIcSt11char_traitsIcESaIcEEEEEC1EOS7_, symObjAddr: 0x5530, symBinAddr: 0x100006E80, symSize: 0x28 }
  - { offsetInCU: 0xE932, offset: 0xE932, size: 0x8, addend: 0x0, symName: __ZNSt15__new_allocatorISt13_Rb_tree_nodeISt4pairIKNSt7__cxx1112basic_stringIcSt11char_traitsIcESaIcEEExEEE8allocateEmPKv, symObjAddr: 0x5490, symBinAddr: 0x100006DE0, symSize: 0xA0 }
  - { offsetInCU: 0xEA26, offset: 0xEA26, size: 0x8, addend: 0x0, symName: __ZNK9__gnu_cxx16__aligned_membufISt4pairIKNSt7__cxx1112basic_stringIcSt11char_traitsIcESaIcEEES7_EE6_M_ptrEv, symObjAddr: 0x5474, symBinAddr: 0x100006DC4, symSize: 0x1C }
  - { offsetInCU: 0xEA56, offset: 0xEA56, size: 0x8, addend: 0x0, symName: __ZSt7forwardIRPSt13_Rb_tree_nodeISt4pairIKNSt7__cxx1112basic_stringIcSt11char_traitsIcESaIcEEES7_EEEOT_RNSt16remove_referenceISD_E4typeE, symObjAddr: 0x5460, symBinAddr: 0x100006DB0, symSize: 0x14 }
  - { offsetInCU: 0xEB54, offset: 0xEB54, size: 0x8, addend: 0x0, symName: __ZSt16__do_uninit_copyIPKPKcPNSt7__cxx1112basic_stringIcSt11char_traitsIcESaIcEEEET0_T_SC_SB_, symObjAddr: 0x53CC, symBinAddr: 0x100006D1C, symSize: 0x94 }
  - { offsetInCU: 0xEBE7, offset: 0xEBE7, size: 0x8, addend: 0x0, symName: __ZNK9__gnu_cxx16__aligned_membufISt4pairIKNSt7__cxx1112basic_stringIcSt11char_traitsIcESaIcEEExEE6_M_ptrEv, symObjAddr: 0x53B0, symBinAddr: 0x100006D00, symSize: 0x1C }
  - { offsetInCU: 0xEC17, offset: 0xEC17, size: 0x8, addend: 0x0, symName: __ZSt7forwardIRPSt13_Rb_tree_nodeISt4pairIKNSt7__cxx1112basic_stringIcSt11char_traitsIcESaIcEEExEEEOT_RNSt16remove_referenceISD_E4typeE, symObjAddr: 0x539C, symBinAddr: 0x100006CEC, symSize: 0x14 }
  - { offsetInCU: 0xECC3, offset: 0xECC3, size: 0x8, addend: 0x0, symName: __ZNSt8_Rb_treeINSt7__cxx1112basic_stringIcSt11char_traitsIcESaIcEEESt4pairIKS5_S5_ESt10_Select1stIS8_ESt4lessIS5_ESaIS8_EE14_M_create_nodeIJRKS8_EEEPSt13_Rb_tree_nodeIS8_EDpOT_, symObjAddr: 0x535C, symBinAddr: 0x100006CAC, symSize: 0x40 }
  - { offsetInCU: 0xED16, offset: 0xED16, size: 0x8, addend: 0x0, symName: __ZNSt8_Rb_treeINSt7__cxx1112basic_stringIcSt11char_traitsIcESaIcEEESt4pairIKS5_S5_ESt10_Select1stIS8_ESt4lessIS5_ESaIS8_EE17_M_construct_nodeIJRKS8_EEEvPSt13_Rb_tree_nodeIS8_EDpOT_, symObjAddr: 0x5258, symBinAddr: 0x100006BA8, symSize: 0x104 }
  - { offsetInCU: 0xEDC7, offset: 0xEDC7, size: 0x8, addend: 0x0, symName: __ZNSt8_Rb_treeINSt7__cxx1112basic_stringIcSt11char_traitsIcESaIcEEESt4pairIKS5_S5_ESt10_Select1stIS8_ESt4lessIS5_ESaIS8_EE20_Reuse_or_alloc_node10_M_extractEv, symObjAddr: 0x513C, symBinAddr: 0x100006A8C, symSize: 0x11C }
  - { offsetInCU: 0xEE00, offset: 0xEE00, size: 0x8, addend: 0x0, symName: __ZNSt8_Rb_treeINSt7__cxx1112basic_stringIcSt11char_traitsIcESaIcEEESt4pairIKS5_xESt10_Select1stIS8_ESt4lessIS5_ESaIS8_EE14_M_create_nodeIJRKS8_EEEPSt13_Rb_tree_nodeIS8_EDpOT_, symObjAddr: 0x50FC, symBinAddr: 0x100006A4C, symSize: 0x40 }
  - { offsetInCU: 0xEE53, offset: 0xEE53, size: 0x8, addend: 0x0, symName: __ZNSt8_Rb_treeINSt7__cxx1112basic_stringIcSt11char_traitsIcESaIcEEESt4pairIKS5_xESt10_Select1stIS8_ESt4lessIS5_ESaIS8_EE17_M_construct_nodeIJRKS8_EEEvPSt13_Rb_tree_nodeIS8_EDpOT_, symObjAddr: 0x4FF8, symBinAddr: 0x100006948, symSize: 0x104 }
  - { offsetInCU: 0xEF04, offset: 0xEF04, size: 0x8, addend: 0x0, symName: __ZNSt8_Rb_treeINSt7__cxx1112basic_stringIcSt11char_traitsIcESaIcEEESt4pairIKS5_xESt10_Select1stIS8_ESt4lessIS5_ESaIS8_EE20_Reuse_or_alloc_node10_M_extractEv, symObjAddr: 0x4EDC, symBinAddr: 0x10000682C, symSize: 0x11C }
  - { offsetInCU: 0xEF3D, offset: 0xEF3D, size: 0x8, addend: 0x0, symName: __ZNSt15__new_allocatorISt13_Rb_tree_nodeISt4pairIKNSt7__cxx1112basic_stringIcSt11char_traitsIcESaIcEEES7_EEE10deallocateEPSA_m, symObjAddr: 0x4EA0, symBinAddr: 0x1000067F0, symSize: 0x3C }
  - { offsetInCU: 0xEFAC, offset: 0xEFAC, size: 0x8, addend: 0x0, symName: __ZNSt15__new_allocatorISt13_Rb_tree_nodeISt4pairIKNSt7__cxx1112basic_stringIcSt11char_traitsIcESaIcEEExEEE10deallocateEPSA_m, symObjAddr: 0x4E64, symBinAddr: 0x1000067B4, symSize: 0x3C }
  - { offsetInCU: 0xF01B, offset: 0xF01B, size: 0x8, addend: 0x0, symName: __ZNKSt13_Rb_tree_nodeISt4pairIKNSt7__cxx1112basic_stringIcSt11char_traitsIcESaIcEEES6_EE9_M_valptrEv, symObjAddr: 0x4E44, symBinAddr: 0x100006794, symSize: 0x20 }
  - { offsetInCU: 0xF10F, offset: 0xF10F, size: 0x8, addend: 0x0, symName: __ZNSt4pairIPSt18_Rb_tree_node_baseS1_EC1IRPSt13_Rb_tree_nodeIS_IKNSt7__cxx1112basic_stringIcSt11char_traitsIcESaIcEEESA_EERS1_Lb1EEEOT_OT0_, symObjAddr: 0x4DFC, symBinAddr: 0x10000674C, symSize: 0x48 }
  - { offsetInCU: 0xF0CD, offset: 0xF0CD, size: 0x8, addend: 0x0, symName: __ZNSt8_Rb_treeINSt7__cxx1112basic_stringIcSt11char_traitsIcESaIcEEESt4pairIKS5_S5_ESt10_Select1stIS8_ESt4lessIS5_ESaIS8_EE5beginEv, symObjAddr: 0x4DD4, symBinAddr: 0x100006724, symSize: 0x28 }
  - { offsetInCU: 0xF0F5, offset: 0xF0F5, size: 0x8, addend: 0x0, symName: __ZNSt8_Rb_treeINSt7__cxx1112basic_stringIcSt11char_traitsIcESaIcEEESt4pairIKS5_S5_ESt10_Select1stIS8_ESt4lessIS5_ESaIS8_EE17_M_construct_nodeIJRKSt21piecewise_construct_tSt5tupleIJRS7_EESJ_IJEEEEEvPSt13_Rb_tree_nodeIS8_EDpOT_, symObjAddr: 0x4C58, symBinAddr: 0x1000065A8, symSize: 0x17C }
  - { offsetInCU: 0xF1E6, offset: 0xF1E6, size: 0x8, addend: 0x0, symName: __ZNSt8_Rb_treeINSt7__cxx1112basic_stringIcSt11char_traitsIcESaIcEEESt4pairIKS5_S5_ESt10_Select1stIS8_ESt4lessIS5_ESaIS8_EE11_M_get_nodeEv, symObjAddr: 0x4C1C, symBinAddr: 0x10000656C, symSize: 0x3C }
  - { offsetInCU: 0xF23E, offset: 0xF23E, size: 0x8, addend: 0x0, symName: __ZN9__gnu_cxx16__aligned_membufISt4pairIKNSt7__cxx1112basic_stringIcSt11char_traitsIcESaIcEEES7_EE7_M_addrEv, symObjAddr: 0x4C08, symBinAddr: 0x100006558, symSize: 0x14 }
  - { offsetInCU: 0xF265, offset: 0xF265, size: 0x8, addend: 0x0, symName: __ZNSt8_Rb_treeINSt7__cxx1112basic_stringIcSt11char_traitsIcESaIcEEESt4pairIKS5_xESt10_Select1stIS8_ESt4lessIS5_ESaIS8_EE17_M_construct_nodeIJRKSt21piecewise_construct_tSt5tupleIJRS7_EESJ_IJEEEEEvPSt13_Rb_tree_nodeIS8_EDpOT_, symObjAddr: 0x4A8C, symBinAddr: 0x1000063DC, symSize: 0x17C }
  - { offsetInCU: 0xF352, offset: 0xF352, size: 0x8, addend: 0x0, symName: __ZSt8_DestroyINSt7__cxx1112basic_stringIcSt11char_traitsIcESaIcEEEEvPT_, symObjAddr: 0x4A6C, symBinAddr: 0x1000063BC, symSize: 0x20 }
  - { offsetInCU: 0xF382, offset: 0xF382, size: 0x8, addend: 0x0, symName: __ZSt11__addressofINSt7__cxx1112basic_stringIcSt11char_traitsIcESaIcEEEEPT_RS6_, symObjAddr: 0x4A58, symBinAddr: 0x1000063A8, symSize: 0x14 }
  - { offsetInCU: 0xF3B2, offset: 0xF3B2, size: 0x8, addend: 0x0, symName: __ZNSt20__uninitialized_copyILb0EE13__uninit_copyIPKPKcPNSt7__cxx1112basic_stringIcSt11char_traitsIcESaIcEEEEET0_T_SE_SD_, symObjAddr: 0x4A2C, symBinAddr: 0x10000637C, symSize: 0x2C }
  - { offsetInCU: 0xF40D, offset: 0xF40D, size: 0x8, addend: 0x0, symName: __ZNSt15__new_allocatorINSt7__cxx1112basic_stringIcSt11char_traitsIcESaIcEEEE8allocateEmPKv, symObjAddr: 0x49B0, symBinAddr: 0x100006300, symSize: 0x7C }
  - { offsetInCU: 0xF492, offset: 0xF492, size: 0x8, addend: 0x0, symName: __ZNSt15__new_allocatorINSt7__cxx1112basic_stringIcSt11char_traitsIcESaIcEEEE10deallocateEPS5_m, symObjAddr: 0x4980, symBinAddr: 0x1000062D0, symSize: 0x30 }
  - { offsetInCU: 0xF4F1, offset: 0xF4F1, size: 0x8, addend: 0x0, symName: __ZNKSt13_Rb_tree_nodeISt4pairIKNSt7__cxx1112basic_stringIcSt11char_traitsIcESaIcEEExEE9_M_valptrEv, symObjAddr: 0x4960, symBinAddr: 0x1000062B0, symSize: 0x20 }
  - { offsetInCU: 0xF51B, offset: 0xF51B, size: 0x8, addend: 0x0, symName: __ZSt7forwardIRPSt18_Rb_tree_node_baseEOT_RNSt16remove_referenceIS3_E4typeE, symObjAddr: 0x494C, symBinAddr: 0x10000629C, symSize: 0x14 }
  - { offsetInCU: 0xF619, offset: 0xF619, size: 0x8, addend: 0x0, symName: __ZNSt4pairIPSt18_Rb_tree_node_baseS1_EC1IRPSt13_Rb_tree_nodeIS_IKNSt7__cxx1112basic_stringIcSt11char_traitsIcESaIcEEExEERS1_Lb1EEEOT_OT0_, symObjAddr: 0x4904, symBinAddr: 0x100006254, symSize: 0x48 }
  - { offsetInCU: 0xF5D9, offset: 0xF5D9, size: 0x8, addend: 0x0, symName: __ZNSt8_Rb_treeINSt7__cxx1112basic_stringIcSt11char_traitsIcESaIcEEESt4pairIKS5_xESt10_Select1stIS8_ESt4lessIS5_ESaIS8_EE5beginEv, symObjAddr: 0x48DC, symBinAddr: 0x10000622C, symSize: 0x28 }
  - { offsetInCU: 0xF601, offset: 0xF601, size: 0x8, addend: 0x0, symName: __ZNSt8_Rb_treeINSt7__cxx1112basic_stringIcSt11char_traitsIcESaIcEEESt4pairIKS5_xESt10_Select1stIS8_ESt4lessIS5_ESaIS8_EE17_M_construct_nodeIJRKSt21piecewise_construct_tSt5tupleIJOS5_EESJ_IJEEEEEvPSt13_Rb_tree_nodeIS8_EDpOT_, symObjAddr: 0x4760, symBinAddr: 0x1000060B0, symSize: 0x17C }
  - { offsetInCU: 0xF6F2, offset: 0xF6F2, size: 0x8, addend: 0x0, symName: __ZNSt8_Rb_treeINSt7__cxx1112basic_stringIcSt11char_traitsIcESaIcEEESt4pairIKS5_xESt10_Select1stIS8_ESt4lessIS5_ESaIS8_EE11_M_get_nodeEv, symObjAddr: 0x4724, symBinAddr: 0x100006074, symSize: 0x3C }
  - { offsetInCU: 0xF7CA, offset: 0xF7CA, size: 0x8, addend: 0x0, symName: __ZNSt10_Head_baseILm0EONSt7__cxx1112basic_stringIcSt11char_traitsIcESaIcEEELb0EEC2IS5_EEOT_, symObjAddr: 0x46F4, symBinAddr: 0x100006044, symSize: 0x30 }
  - { offsetInCU: 0xF7AC, offset: 0xF7AC, size: 0x8, addend: 0x0, symName: __ZN9__gnu_cxx16__aligned_membufISt4pairIKNSt7__cxx1112basic_stringIcSt11char_traitsIcESaIcEEExEE7_M_addrEv, symObjAddr: 0x46E0, symBinAddr: 0x100006030, symSize: 0x14 }
  - { offsetInCU: 0xF7D3, offset: 0xF7D3, size: 0x8, addend: 0x0, symName: __ZNSt8_Rb_treeINSt7__cxx1112basic_stringIcSt11char_traitsIcESaIcEEESt4pairIKS5_S5_ESt10_Select1stIS8_ESt4lessIS5_ESaIS8_EE20_Reuse_or_alloc_nodeclIRKS8_EEPSt13_Rb_tree_nodeIS8_EOT_, symObjAddr: 0x4650, symBinAddr: 0x100005FA0, symSize: 0x90 }
  - { offsetInCU: 0xF825, offset: 0xF825, size: 0x8, addend: 0x0, symName: __ZNSt8_Rb_treeINSt7__cxx1112basic_stringIcSt11char_traitsIcESaIcEEESt4pairIKS5_xESt10_Select1stIS8_ESt4lessIS5_ESaIS8_EE20_Reuse_or_alloc_nodeclIRKS8_EEPSt13_Rb_tree_nodeIS8_EOT_, symObjAddr: 0x45C0, symBinAddr: 0x100005F10, symSize: 0x90 }
  - { offsetInCU: 0xF8D1, offset: 0xF8D1, size: 0x8, addend: 0x0, symName: __ZNSt8_Rb_treeINSt7__cxx1112basic_stringIcSt11char_traitsIcESaIcEEESt4pairIKS5_S5_ESt10_Select1stIS8_ESt4lessIS5_ESaIS8_EE21_M_get_Node_allocatorEv, symObjAddr: 0x45AC, symBinAddr: 0x100005EFC, symSize: 0x14 }
  - { offsetInCU: 0xF953, offset: 0xF953, size: 0x8, addend: 0x0, symName: __ZNSt8_Rb_treeINSt7__cxx1112basic_stringIcSt11char_traitsIcESaIcEEESt4pairIKS5_xESt10_Select1stIS8_ESt4lessIS5_ESaIS8_EE21_M_get_Node_allocatorEv, symObjAddr: 0x4598, symBinAddr: 0x100005EE8, symSize: 0x14 }
  - { offsetInCU: 0xF97B, offset: 0xF97B, size: 0x8, addend: 0x0, symName: __ZNSt8_Rb_treeINSt7__cxx1112basic_stringIcSt11char_traitsIcESaIcEEESt4pairIKS5_S5_ESt10_Select1stIS8_ESt4lessIS5_ESaIS8_EE14_M_insert_nodeEPSt18_Rb_tree_node_baseSG_PSt13_Rb_tree_nodeIS8_E, symObjAddr: 0x44C4, symBinAddr: 0x100005E14, symSize: 0xD4 }
  - { offsetInCU: 0xF9E0, offset: 0xF9E0, size: 0x8, addend: 0x0, symName: __ZNSt8_Rb_treeINSt7__cxx1112basic_stringIcSt11char_traitsIcESaIcEEESt4pairIKS5_S5_ESt10_Select1stIS8_ESt4lessIS5_ESaIS8_EE6_S_keyEPKSt13_Rb_tree_nodeIS8_E, symObjAddr: 0x449C, symBinAddr: 0x100005DEC, symSize: 0x28 }
  - { offsetInCU: 0xFA0C, offset: 0xFA0C, size: 0x8, addend: 0x0, symName: __ZNSt17_Rb_tree_iteratorISt4pairIKNSt7__cxx1112basic_stringIcSt11char_traitsIcESaIcEEES6_EEppEv, symObjAddr: 0x446C, symBinAddr: 0x100005DBC, symSize: 0x30 }
  - { offsetInCU: 0xFA34, offset: 0xFA34, size: 0x8, addend: 0x0, symName: __ZNSt17_Rb_tree_iteratorISt4pairIKNSt7__cxx1112basic_stringIcSt11char_traitsIcESaIcEEES6_EEmmEv, symObjAddr: 0x443C, symBinAddr: 0x100005D8C, symSize: 0x30 }
  - { offsetInCU: 0xFA5C, offset: 0xFA5C, size: 0x8, addend: 0x0, symName: __ZNSt8_Rb_treeINSt7__cxx1112basic_stringIcSt11char_traitsIcESaIcEEESt4pairIKS5_S5_ESt10_Select1stIS8_ESt4lessIS5_ESaIS8_EE11_M_leftmostEv, symObjAddr: 0x4424, symBinAddr: 0x100005D74, symSize: 0x18 }
  - { offsetInCU: 0xFA84, offset: 0xFA84, size: 0x8, addend: 0x0, symName: __ZNSt8_Rb_treeINSt7__cxx1112basic_stringIcSt11char_traitsIcESaIcEEESt4pairIKS5_S5_ESt10_Select1stIS8_ESt4lessIS5_ESaIS8_EE24_M_get_insert_unique_posERS7_, symObjAddr: 0x42C4, symBinAddr: 0x100005C14, symSize: 0x160 }
  - { offsetInCU: 0xFB01, offset: 0xFB01, size: 0x8, addend: 0x0, symName: __ZNSt8_Rb_treeINSt7__cxx1112basic_stringIcSt11char_traitsIcESaIcEEESt4pairIKS5_S5_ESt10_Select1stIS8_ESt4lessIS5_ESaIS8_EE6_S_keyEPKSt18_Rb_tree_node_base, symObjAddr: 0x42A8, symBinAddr: 0x100005BF8, symSize: 0x1C }
  - { offsetInCU: 0xFB2D, offset: 0xFB2D, size: 0x8, addend: 0x0, symName: __ZNKSt8_Rb_treeINSt7__cxx1112basic_stringIcSt11char_traitsIcESaIcEEESt4pairIKS5_S5_ESt10_Select1stIS8_ESt4lessIS5_ESaIS8_EE4sizeEv, symObjAddr: 0x4290, symBinAddr: 0x100005BE0, symSize: 0x18 }
  - { offsetInCU: 0xFB55, offset: 0xFB55, size: 0x8, addend: 0x0, symName: __ZNKSt23_Rb_tree_const_iteratorISt4pairIKNSt7__cxx1112basic_stringIcSt11char_traitsIcESaIcEEES6_EE13_M_const_castEv, symObjAddr: 0x4268, symBinAddr: 0x100005BB8, symSize: 0x28 }
  - { offsetInCU: 0xFB7D, offset: 0xFB7D, size: 0x8, addend: 0x0, symName: __ZNSt8_Rb_treeINSt7__cxx1112basic_stringIcSt11char_traitsIcESaIcEEESt4pairIKS5_S5_ESt10_Select1stIS8_ESt4lessIS5_ESaIS8_EE14_M_create_nodeIJRKSt21piecewise_construct_tSt5tupleIJRS7_EESJ_IJEEEEEPSt13_Rb_tree_nodeIS8_EDpOT_, symObjAddr: 0x41F8, symBinAddr: 0x100005B48, symSize: 0x70 }
  - { offsetInCU: 0xFBEA, offset: 0xFBEA, size: 0x8, addend: 0x0, symName: __ZN9__gnu_cxx16__aligned_membufISt4pairIKNSt7__cxx1112basic_stringIcSt11char_traitsIcESaIcEEES7_EE6_M_ptrEv, symObjAddr: 0x41DC, symBinAddr: 0x100005B2C, symSize: 0x1C }
  - { offsetInCU: 0xFC12, offset: 0xFC12, size: 0x8, addend: 0x0, symName: __ZNSt8_Rb_treeINSt7__cxx1112basic_stringIcSt11char_traitsIcESaIcEEESt4pairIKS5_S5_ESt10_Select1stIS8_ESt4lessIS5_ESaIS8_EE14_M_lower_boundEPSt13_Rb_tree_nodeIS8_EPSt18_Rb_tree_node_baseRS7_, symObjAddr: 0x413C, symBinAddr: 0x100005A8C, symSize: 0xA0 }
  - { offsetInCU: 0xFC6A, offset: 0xFC6A, size: 0x8, addend: 0x0, symName: __ZNSt8_Rb_treeINSt7__cxx1112basic_stringIcSt11char_traitsIcESaIcEEESt4pairIKS5_S5_ESt10_Select1stIS8_ESt4lessIS5_ESaIS8_EE6_M_endEv, symObjAddr: 0x4124, symBinAddr: 0x100005A74, symSize: 0x18 }
  - { offsetInCU: 0xFC92, offset: 0xFC92, size: 0x8, addend: 0x0, symName: __ZNSt8_Rb_treeINSt7__cxx1112basic_stringIcSt11char_traitsIcESaIcEEESt4pairIKS5_xESt10_Select1stIS8_ESt4lessIS5_ESaIS8_EE14_M_create_nodeIJRKSt21piecewise_construct_tSt5tupleIJRS7_EESJ_IJEEEEEPSt13_Rb_tree_nodeIS8_EDpOT_, symObjAddr: 0x40B4, symBinAddr: 0x100005A04, symSize: 0x70 }
  - { offsetInCU: 0xFD77, offset: 0xFD77, size: 0x8, addend: 0x0, symName: __ZNSt10_Head_baseILm0ERKNSt7__cxx1112basic_stringIcSt11char_traitsIcESaIcEEELb0EEC2ES7_, symObjAddr: 0x4090, symBinAddr: 0x1000059E0, symSize: 0x24 }
  - { offsetInCU: 0xFD4B, offset: 0xFD4B, size: 0x8, addend: 0x0, symName: __ZNSt12_Destroy_auxILb0EE9__destroyIPNSt7__cxx1112basic_stringIcSt11char_traitsIcESaIcEEEEEvT_S9_, symObjAddr: 0x4044, symBinAddr: 0x100005994, symSize: 0x4C }
  - { offsetInCU: 0xFD8A, offset: 0xFD8A, size: 0x8, addend: 0x0, symName: __ZSt18uninitialized_copyIPKPKcPNSt7__cxx1112basic_stringIcSt11char_traitsIcESaIcEEEET0_T_SC_SB_, symObjAddr: 0x400C, symBinAddr: 0x10000595C, symSize: 0x38 }
  - { offsetInCU: 0xFE23, offset: 0xFE23, size: 0x8, addend: 0x0, symName: __ZNSt6vectorINSt7__cxx1112basic_stringIcSt11char_traitsIcESaIcEEESaIS5_EE11_S_max_sizeERKS6_, symObjAddr: 0x3FB8, symBinAddr: 0x100005908, symSize: 0x54 }
  - { offsetInCU: 0xFF84, offset: 0xFF84, size: 0x8, addend: 0x0, symName: __ZNSt12_Vector_baseINSt7__cxx1112basic_stringIcSt11char_traitsIcESaIcEEESaIS5_EE17_Vector_impl_dataC2Ev, symObjAddr: 0x3F8C, symBinAddr: 0x1000058DC, symSize: 0x2C }
  - { offsetInCU: 0xFF60, offset: 0xFF60, size: 0x8, addend: 0x0, symName: __ZNSt8_Rb_treeINSt7__cxx1112basic_stringIcSt11char_traitsIcESaIcEEESt4pairIKS5_xESt10_Select1stIS8_ESt4lessIS5_ESaIS8_EE8_S_rightEPKSt18_Rb_tree_node_base, symObjAddr: 0x3F74, symBinAddr: 0x1000058C4, symSize: 0x18 }
  - { offsetInCU: 0xFF88, offset: 0xFF88, size: 0x8, addend: 0x0, symName: __ZNSt8_Rb_treeINSt7__cxx1112basic_stringIcSt11char_traitsIcESaIcEEESt4pairIKS5_xESt10_Select1stIS8_ESt4lessIS5_ESaIS8_EE7_S_leftEPKSt18_Rb_tree_node_base, symObjAddr: 0x3F5C, symBinAddr: 0x1000058AC, symSize: 0x18 }
  - { offsetInCU: 0xFFB4, offset: 0xFFB4, size: 0x8, addend: 0x0, symName: __ZNSt8_Rb_treeINSt7__cxx1112basic_stringIcSt11char_traitsIcESaIcEEESt4pairIKS5_xESt10_Select1stIS8_ESt4lessIS5_ESaIS8_EE14_M_insert_nodeEPSt18_Rb_tree_node_baseSG_PSt13_Rb_tree_nodeIS8_E, symObjAddr: 0x3E88, symBinAddr: 0x1000057D8, symSize: 0xD4 }
  - { offsetInCU: 0x10019, offset: 0x10019, size: 0x8, addend: 0x0, symName: __ZNSt8_Rb_treeINSt7__cxx1112basic_stringIcSt11char_traitsIcESaIcEEESt4pairIKS5_xESt10_Select1stIS8_ESt4lessIS5_ESaIS8_EE6_S_keyEPKSt13_Rb_tree_nodeIS8_E, symObjAddr: 0x3E60, symBinAddr: 0x1000057B0, symSize: 0x28 }
  - { offsetInCU: 0x10045, offset: 0x10045, size: 0x8, addend: 0x0, symName: __ZNSt17_Rb_tree_iteratorISt4pairIKNSt7__cxx1112basic_stringIcSt11char_traitsIcESaIcEEExEEppEv, symObjAddr: 0x3E30, symBinAddr: 0x100005780, symSize: 0x30 }
  - { offsetInCU: 0x1006D, offset: 0x1006D, size: 0x8, addend: 0x0, symName: __ZNSt17_Rb_tree_iteratorISt4pairIKNSt7__cxx1112basic_stringIcSt11char_traitsIcESaIcEEExEEmmEv, symObjAddr: 0x3E00, symBinAddr: 0x100005750, symSize: 0x30 }
  - { offsetInCU: 0x10113, offset: 0x10113, size: 0x8, addend: 0x0, symName: __ZNSt4pairIPSt18_Rb_tree_node_baseS1_EC1IRS1_S4_Lb1EEEOT_OT0_, symObjAddr: 0x3DB8, symBinAddr: 0x100005708, symSize: 0x48 }
  - { offsetInCU: 0x1011F, offset: 0x1011F, size: 0x8, addend: 0x0, symName: __ZNSt8_Rb_treeINSt7__cxx1112basic_stringIcSt11char_traitsIcESaIcEEESt4pairIKS5_xESt10_Select1stIS8_ESt4lessIS5_ESaIS8_EE11_M_leftmostEv, symObjAddr: 0x3DA0, symBinAddr: 0x1000056F0, symSize: 0x18 }
  - { offsetInCU: 0x10147, offset: 0x10147, size: 0x8, addend: 0x0, symName: __ZNSt8_Rb_treeINSt7__cxx1112basic_stringIcSt11char_traitsIcESaIcEEESt4pairIKS5_xESt10_Select1stIS8_ESt4lessIS5_ESaIS8_EE24_M_get_insert_unique_posERS7_, symObjAddr: 0x3C40, symBinAddr: 0x100005590, symSize: 0x160 }
  - { offsetInCU: 0x10246, offset: 0x10246, size: 0x8, addend: 0x0, symName: __ZNSt4pairIPSt18_Rb_tree_node_baseS1_EC1IS1_S1_Lb1EEERKS1_S5_, symObjAddr: 0x3C04, symBinAddr: 0x100005554, symSize: 0x3C }
  - { offsetInCU: 0x10252, offset: 0x10252, size: 0x8, addend: 0x0, symName: __ZNKSt8_Rb_treeINSt7__cxx1112basic_stringIcSt11char_traitsIcESaIcEEESt4pairIKS5_xESt10_Select1stIS8_ESt4lessIS5_ESaIS8_EE4sizeEv, symObjAddr: 0x3BEC, symBinAddr: 0x10000553C, symSize: 0x18 }
  - { offsetInCU: 0x1027A, offset: 0x1027A, size: 0x8, addend: 0x0, symName: __ZNKSt23_Rb_tree_const_iteratorISt4pairIKNSt7__cxx1112basic_stringIcSt11char_traitsIcESaIcEEExEE13_M_const_castEv, symObjAddr: 0x3BC4, symBinAddr: 0x100005514, symSize: 0x28 }
  - { offsetInCU: 0x102A2, offset: 0x102A2, size: 0x8, addend: 0x0, symName: __ZNSt8_Rb_treeINSt7__cxx1112basic_stringIcSt11char_traitsIcESaIcEEESt4pairIKS5_xESt10_Select1stIS8_ESt4lessIS5_ESaIS8_EE14_M_create_nodeIJRKSt21piecewise_construct_tSt5tupleIJOS5_EESJ_IJEEEEEPSt13_Rb_tree_nodeIS8_EDpOT_, symObjAddr: 0x3B54, symBinAddr: 0x1000054A4, symSize: 0x70 }
  - { offsetInCU: 0x10394, offset: 0x10394, size: 0x8, addend: 0x0, symName: __ZNSt11_Tuple_implILm0EJONSt7__cxx1112basic_stringIcSt11char_traitsIcESaIcEEEEEC2IS5_EEOT_, symObjAddr: 0x3B18, symBinAddr: 0x100005468, symSize: 0x3C }
  - { offsetInCU: 0x10374, offset: 0x10374, size: 0x8, addend: 0x0, symName: __ZSt3minImERKT_S2_S2_, symObjAddr: 0x3AE0, symBinAddr: 0x100005430, symSize: 0x38 }
  - { offsetInCU: 0x103B7, offset: 0x103B7, size: 0x8, addend: 0x0, symName: __ZN9__gnu_cxx16__aligned_membufISt4pairIKNSt7__cxx1112basic_stringIcSt11char_traitsIcESaIcEEExEE6_M_ptrEv, symObjAddr: 0x3AC4, symBinAddr: 0x100005414, symSize: 0x1C }
  - { offsetInCU: 0x103DF, offset: 0x103DF, size: 0x8, addend: 0x0, symName: __ZNSt8_Rb_treeINSt7__cxx1112basic_stringIcSt11char_traitsIcESaIcEEESt4pairIKS5_xESt10_Select1stIS8_ESt4lessIS5_ESaIS8_EE14_M_lower_boundEPSt13_Rb_tree_nodeIS8_EPSt18_Rb_tree_node_baseRS7_, symObjAddr: 0x3A24, symBinAddr: 0x100005374, symSize: 0xA0 }
  - { offsetInCU: 0x10437, offset: 0x10437, size: 0x8, addend: 0x0, symName: __ZNSt8_Rb_treeINSt7__cxx1112basic_stringIcSt11char_traitsIcESaIcEEESt4pairIKS5_xESt10_Select1stIS8_ESt4lessIS5_ESaIS8_EE6_M_endEv, symObjAddr: 0x3A0C, symBinAddr: 0x10000535C, symSize: 0x18 }
  - { offsetInCU: 0x10465, offset: 0x10465, size: 0x8, addend: 0x0, symName: __ZNSt8_Rb_treeINSt7__cxx1112basic_stringIcSt11char_traitsIcESaIcEEESt4pairIKS5_S5_ESt10_Select1stIS8_ESt4lessIS5_ESaIS8_EE10_M_insert_IRKS8_NSE_20_Reuse_or_alloc_nodeEEESt17_Rb_tree_iteratorIS8_EPSt18_Rb_tree_node_baseSM_OT_RT0_, symObjAddr: 0x3918, symBinAddr: 0x100005268, symSize: 0xF4 }
  - { offsetInCU: 0x10504, offset: 0x10504, size: 0x8, addend: 0x0, symName: __ZSt7forwardIRKSt4pairIKNSt7__cxx1112basic_stringIcSt11char_traitsIcESaIcEEES6_EEOT_RNSt16remove_referenceISB_E4typeE, symObjAddr: 0x3904, symBinAddr: 0x100005254, symSize: 0x14 }
  - { offsetInCU: 0x10538, offset: 0x10538, size: 0x8, addend: 0x0, symName: __ZNKSt10_Select1stISt4pairIKNSt7__cxx1112basic_stringIcSt11char_traitsIcESaIcEEES6_EEclERKS8_, symObjAddr: 0x38EC, symBinAddr: 0x10000523C, symSize: 0x18 }
  - { offsetInCU: 0x10570, offset: 0x10570, size: 0x8, addend: 0x0, symName: __ZNSt8_Rb_treeINSt7__cxx1112basic_stringIcSt11char_traitsIcESaIcEEESt4pairIKS5_S5_ESt10_Select1stIS8_ESt4lessIS5_ESaIS8_EE12_M_rightmostEv, symObjAddr: 0x38D4, symBinAddr: 0x100005224, symSize: 0x18 }
  - { offsetInCU: 0x10598, offset: 0x10598, size: 0x8, addend: 0x0, symName: __ZNSt8_Rb_treeINSt7__cxx1112basic_stringIcSt11char_traitsIcESaIcEEESt4pairIKS5_S5_ESt10_Select1stIS8_ESt4lessIS5_ESaIS8_EE7_M_rootEv, symObjAddr: 0x38BC, symBinAddr: 0x10000520C, symSize: 0x18 }
  - { offsetInCU: 0x105C6, offset: 0x105C6, size: 0x8, addend: 0x0, symName: __ZNSt8_Rb_treeINSt7__cxx1112basic_stringIcSt11char_traitsIcESaIcEEESt4pairIKS5_xESt10_Select1stIS8_ESt4lessIS5_ESaIS8_EE10_M_insert_IRKS8_NSE_20_Reuse_or_alloc_nodeEEESt17_Rb_tree_iteratorIS8_EPSt18_Rb_tree_node_baseSM_OT_RT0_, symObjAddr: 0x37C8, symBinAddr: 0x100005118, symSize: 0xF4 }
  - { offsetInCU: 0x10665, offset: 0x10665, size: 0x8, addend: 0x0, symName: __ZSt7forwardIRKSt4pairIKNSt7__cxx1112basic_stringIcSt11char_traitsIcESaIcEEExEEOT_RNSt16remove_referenceISB_E4typeE, symObjAddr: 0x37B4, symBinAddr: 0x100005104, symSize: 0x14 }
  - { offsetInCU: 0x10699, offset: 0x10699, size: 0x8, addend: 0x0, symName: __ZNKSt10_Select1stISt4pairIKNSt7__cxx1112basic_stringIcSt11char_traitsIcESaIcEEExEEclERKS8_, symObjAddr: 0x379C, symBinAddr: 0x1000050EC, symSize: 0x18 }
  - { offsetInCU: 0x106D1, offset: 0x106D1, size: 0x8, addend: 0x0, symName: __ZNSt8_Rb_treeINSt7__cxx1112basic_stringIcSt11char_traitsIcESaIcEEESt4pairIKS5_xESt10_Select1stIS8_ESt4lessIS5_ESaIS8_EE12_M_rightmostEv, symObjAddr: 0x3784, symBinAddr: 0x1000050D4, symSize: 0x18 }
  - { offsetInCU: 0x106F9, offset: 0x106F9, size: 0x8, addend: 0x0, symName: __ZNSt8_Rb_treeINSt7__cxx1112basic_stringIcSt11char_traitsIcESaIcEEESt4pairIKS5_xESt10_Select1stIS8_ESt4lessIS5_ESaIS8_EE7_M_rootEv, symObjAddr: 0x376C, symBinAddr: 0x1000050BC, symSize: 0x18 }
  - { offsetInCU: 0x10721, offset: 0x10721, size: 0x8, addend: 0x0, symName: __ZNSt8_Rb_treeINSt7__cxx1112basic_stringIcSt11char_traitsIcESaIcEEESt4pairIKS5_S5_ESt10_Select1stIS8_ESt4lessIS5_ESaIS8_EE11_M_put_nodeEPSt13_Rb_tree_nodeIS8_E, symObjAddr: 0x3720, symBinAddr: 0x100005070, symSize: 0x4C }
  - { offsetInCU: 0x1078C, offset: 0x1078C, size: 0x8, addend: 0x0, symName: __ZNSt8_Rb_treeINSt7__cxx1112basic_stringIcSt11char_traitsIcESaIcEEESt4pairIKS5_S5_ESt10_Select1stIS8_ESt4lessIS5_ESaIS8_EE15_M_destroy_nodeEPSt13_Rb_tree_nodeIS8_E, symObjAddr: 0x36C0, symBinAddr: 0x100005010, symSize: 0x60 }
  - { offsetInCU: 0x1081A, offset: 0x1081A, size: 0x8, addend: 0x0, symName: __ZNSt8_Rb_treeINSt7__cxx1112basic_stringIcSt11char_traitsIcESaIcEEESt4pairIKS5_xESt10_Select1stIS8_ESt4lessIS5_ESaIS8_EE11_M_put_nodeEPSt13_Rb_tree_nodeIS8_E, symObjAddr: 0x3674, symBinAddr: 0x100004FC4, symSize: 0x4C }
  - { offsetInCU: 0x10885, offset: 0x10885, size: 0x8, addend: 0x0, symName: __ZNSt8_Rb_treeINSt7__cxx1112basic_stringIcSt11char_traitsIcESaIcEEESt4pairIKS5_xESt10_Select1stIS8_ESt4lessIS5_ESaIS8_EE15_M_destroy_nodeEPSt13_Rb_tree_nodeIS8_E, symObjAddr: 0x3614, symBinAddr: 0x100004F64, symSize: 0x60 }
  - { offsetInCU: 0x109EE, offset: 0x109EE, size: 0x8, addend: 0x0, symName: __ZNSt17_Rb_tree_iteratorISt4pairIKNSt7__cxx1112basic_stringIcSt11char_traitsIcESaIcEEES6_EEC1EPSt18_Rb_tree_node_base, symObjAddr: 0x35F0, symBinAddr: 0x100004F40, symSize: 0x24 }
  - { offsetInCU: 0x109A8, offset: 0x109A8, size: 0x8, addend: 0x0, symName: __ZNSt8_Rb_treeINSt7__cxx1112basic_stringIcSt11char_traitsIcESaIcEEESt4pairIKS5_S5_ESt10_Select1stIS8_ESt4lessIS5_ESaIS8_EE10_Auto_node9_M_insertES6_IPSt18_Rb_tree_node_baseSH_E, symObjAddr: 0x35A4, symBinAddr: 0x100004EF4, symSize: 0x4C }
  - { offsetInCU: 0x109F1, offset: 0x109F1, size: 0x8, addend: 0x0, symName: __ZNKSt8_Rb_treeINSt7__cxx1112basic_stringIcSt11char_traitsIcESaIcEEESt4pairIKS5_S5_ESt10_Select1stIS8_ESt4lessIS5_ESaIS8_EE10_Auto_node6_M_keyEv, symObjAddr: 0x3584, symBinAddr: 0x100004ED4, symSize: 0x20 }
  - { offsetInCU: 0x10A19, offset: 0x10A19, size: 0x8, addend: 0x0, symName: __ZNSt8_Rb_treeINSt7__cxx1112basic_stringIcSt11char_traitsIcESaIcEEESt4pairIKS5_S5_ESt10_Select1stIS8_ESt4lessIS5_ESaIS8_EE29_M_get_insert_hint_unique_posESt23_Rb_tree_const_iteratorIS8_ERS7_, symObjAddr: 0x324C, symBinAddr: 0x100004B9C, symSize: 0x338 }
  - { offsetInCU: 0x10B68, offset: 0x10B68, size: 0x8, addend: 0x0, symName: __ZNSt8_Rb_treeINSt7__cxx1112basic_stringIcSt11char_traitsIcESaIcEEESt4pairIKS5_S5_ESt10_Select1stIS8_ESt4lessIS5_ESaIS8_EE10_Auto_nodeD1Ev, symObjAddr: 0x3208, symBinAddr: 0x100004B58, symSize: 0x44 }
  - { offsetInCU: 0x10C1A, offset: 0x10C1A, size: 0x8, addend: 0x0, symName: __ZNSt8_Rb_treeINSt7__cxx1112basic_stringIcSt11char_traitsIcESaIcEEESt4pairIKS5_S5_ESt10_Select1stIS8_ESt4lessIS5_ESaIS8_EE10_Auto_nodeC1IJRKSt21piecewise_construct_tSt5tupleIJRS7_EESK_IJEEEEERSE_DpOT_, symObjAddr: 0x318C, symBinAddr: 0x100004ADC, symSize: 0x7C }
  - { offsetInCU: 0x10BB5, offset: 0x10BB5, size: 0x8, addend: 0x0, symName: __ZNSt13_Rb_tree_nodeISt4pairIKNSt7__cxx1112basic_stringIcSt11char_traitsIcESaIcEEES6_EE9_M_valptrEv, symObjAddr: 0x316C, symBinAddr: 0x100004ABC, symSize: 0x20 }
  - { offsetInCU: 0x10BDD, offset: 0x10BDD, size: 0x8, addend: 0x0, symName: __ZNKSt8_Rb_treeINSt7__cxx1112basic_stringIcSt11char_traitsIcESaIcEEESt4pairIKS5_S5_ESt10_Select1stIS8_ESt4lessIS5_ESaIS8_EE8key_compEv, symObjAddr: 0x3154, symBinAddr: 0x100004AA4, symSize: 0x18 }
  - { offsetInCU: 0x10C05, offset: 0x10C05, size: 0x8, addend: 0x0, symName: __ZNSt8_Rb_treeINSt7__cxx1112basic_stringIcSt11char_traitsIcESaIcEEESt4pairIKS5_S5_ESt10_Select1stIS8_ESt4lessIS5_ESaIS8_EE11lower_boundERS7_, symObjAddr: 0x310C, symBinAddr: 0x100004A5C, symSize: 0x48 }
  - { offsetInCU: 0x10D50, offset: 0x10D50, size: 0x8, addend: 0x0, symName: __ZNSt8_Rb_treeINSt7__cxx1112basic_stringIcSt11char_traitsIcESaIcEEESt4pairIKS5_xESt10_Select1stIS8_ESt4lessIS5_ESaIS8_EE10_Auto_nodeC1IJRKSt21piecewise_construct_tSt5tupleIJRS7_EESK_IJEEEEERSE_DpOT_, symObjAddr: 0x3090, symBinAddr: 0x1000049E0, symSize: 0x7C }
  - { offsetInCU: 0x10CEF, offset: 0x10CEF, size: 0x8, addend: 0x0, symName: __ZSt7forwardISt5tupleIJRKNSt7__cxx1112basic_stringIcSt11char_traitsIcESaIcEEEEEEOT_RNSt16remove_referenceISA_E4typeE, symObjAddr: 0x307C, symBinAddr: 0x1000049CC, symSize: 0x14 }
  - { offsetInCU: 0x10D9B, offset: 0x10D9B, size: 0x8, addend: 0x0, symName: __ZNSt11_Tuple_implILm0EJRKNSt7__cxx1112basic_stringIcSt11char_traitsIcESaIcEEEEEC2ES7_, symObjAddr: 0x3054, symBinAddr: 0x1000049A4, symSize: 0x28 }
  - { offsetInCU: 0x10D70, offset: 0x10D70, size: 0x8, addend: 0x0, symName: __ZSt8_DestroyIPNSt7__cxx1112basic_stringIcSt11char_traitsIcESaIcEEEEvT_S7_, symObjAddr: 0x302C, symBinAddr: 0x10000497C, symSize: 0x28 }
  - { offsetInCU: 0x10DAF, offset: 0x10DAF, size: 0x8, addend: 0x0, symName: __ZSt22__uninitialized_copy_aIPKPKcPNSt7__cxx1112basic_stringIcSt11char_traitsIcESaIcEEES9_ET0_T_SC_SB_RSaIT1_E, symObjAddr: 0x2FFC, symBinAddr: 0x10000494C, symSize: 0x30 }
  - { offsetInCU: 0x10E1E, offset: 0x10E1E, size: 0x8, addend: 0x0, symName: __ZNSt12_Vector_baseINSt7__cxx1112basic_stringIcSt11char_traitsIcESaIcEEESaIS5_EE11_M_allocateEm, symObjAddr: 0x2FAC, symBinAddr: 0x1000048FC, symSize: 0x50 }
  - { offsetInCU: 0x10E7D, offset: 0x10E7D, size: 0x8, addend: 0x0, symName: __ZNSt6vectorINSt7__cxx1112basic_stringIcSt11char_traitsIcESaIcEEESaIS5_EE17_S_check_init_lenEmRKS6_, symObjAddr: 0x2F28, symBinAddr: 0x100004878, symSize: 0x84 }
  - { offsetInCU: 0x10F5B, offset: 0x10F5B, size: 0x8, addend: 0x0, symName: __ZNSt12_Vector_baseINSt7__cxx1112basic_stringIcSt11char_traitsIcESaIcEEESaIS5_EE13_M_deallocateEPS5_m, symObjAddr: 0x2ED0, symBinAddr: 0x100004820, symSize: 0x58 }
  - { offsetInCU: 0x1105D, offset: 0x1105D, size: 0x8, addend: 0x0, symName: __ZNSt12_Vector_baseINSt7__cxx1112basic_stringIcSt11char_traitsIcESaIcEEESaIS5_EE12_Vector_implC1ERKS6_, symObjAddr: 0x2E84, symBinAddr: 0x1000047D4, symSize: 0x4C }
  - { offsetInCU: 0x11116, offset: 0x11116, size: 0x8, addend: 0x0, symName: __ZNSt23_Rb_tree_const_iteratorISt4pairIKNSt7__cxx1112basic_stringIcSt11char_traitsIcESaIcEEExEEC1EPKSt18_Rb_tree_node_base, symObjAddr: 0x2E60, symBinAddr: 0x1000047B0, symSize: 0x24 }
  - { offsetInCU: 0x110C7, offset: 0x110C7, size: 0x8, addend: 0x0, symName: __ZNSt8_Rb_treeINSt7__cxx1112basic_stringIcSt11char_traitsIcESaIcEEESt4pairIKS5_xESt10_Select1stIS8_ESt4lessIS5_ESaIS8_EE6_S_keyEPKSt18_Rb_tree_node_base, symObjAddr: 0x2E44, symBinAddr: 0x100004794, symSize: 0x1C }
  - { offsetInCU: 0x110F3, offset: 0x110F3, size: 0x8, addend: 0x0, symName: __ZNKSt8_Rb_treeINSt7__cxx1112basic_stringIcSt11char_traitsIcESaIcEEESt4pairIKS5_xESt10_Select1stIS8_ESt4lessIS5_ESaIS8_EE14_M_lower_boundEPKSt13_Rb_tree_nodeIS8_EPKSt18_Rb_tree_node_baseRS7_, symObjAddr: 0x2DA4, symBinAddr: 0x1000046F4, symSize: 0xA0 }
  - { offsetInCU: 0x1114B, offset: 0x1114B, size: 0x8, addend: 0x0, symName: __ZNKSt8_Rb_treeINSt7__cxx1112basic_stringIcSt11char_traitsIcESaIcEEESt4pairIKS5_xESt10_Select1stIS8_ESt4lessIS5_ESaIS8_EE6_M_endEv, symObjAddr: 0x2D8C, symBinAddr: 0x1000046DC, symSize: 0x18 }
  - { offsetInCU: 0x11173, offset: 0x11173, size: 0x8, addend: 0x0, symName: __ZNKSt8_Rb_treeINSt7__cxx1112basic_stringIcSt11char_traitsIcESaIcEEESt4pairIKS5_xESt10_Select1stIS8_ESt4lessIS5_ESaIS8_EE8_M_beginEv, symObjAddr: 0x2D74, symBinAddr: 0x1000046C4, symSize: 0x18 }
  - { offsetInCU: 0x11230, offset: 0x11230, size: 0x8, addend: 0x0, symName: __ZNSt17_Rb_tree_iteratorISt4pairIKNSt7__cxx1112basic_stringIcSt11char_traitsIcESaIcEEExEEC1EPSt18_Rb_tree_node_base, symObjAddr: 0x2D50, symBinAddr: 0x1000046A0, symSize: 0x24 }
  - { offsetInCU: 0x111EC, offset: 0x111EC, size: 0x8, addend: 0x0, symName: __ZNSt8_Rb_treeINSt7__cxx1112basic_stringIcSt11char_traitsIcESaIcEEESt4pairIKS5_xESt10_Select1stIS8_ESt4lessIS5_ESaIS8_EE10_Auto_node9_M_insertES6_IPSt18_Rb_tree_node_baseSH_E, symObjAddr: 0x2D04, symBinAddr: 0x100004654, symSize: 0x4C }
  - { offsetInCU: 0x11235, offset: 0x11235, size: 0x8, addend: 0x0, symName: __ZNKSt8_Rb_treeINSt7__cxx1112basic_stringIcSt11char_traitsIcESaIcEEESt4pairIKS5_xESt10_Select1stIS8_ESt4lessIS5_ESaIS8_EE10_Auto_node6_M_keyEv, symObjAddr: 0x2CE4, symBinAddr: 0x100004634, symSize: 0x20 }
  - { offsetInCU: 0x1125D, offset: 0x1125D, size: 0x8, addend: 0x0, symName: __ZNSt8_Rb_treeINSt7__cxx1112basic_stringIcSt11char_traitsIcESaIcEEESt4pairIKS5_xESt10_Select1stIS8_ESt4lessIS5_ESaIS8_EE29_M_get_insert_hint_unique_posESt23_Rb_tree_const_iteratorIS8_ERS7_, symObjAddr: 0x29AC, symBinAddr: 0x1000042FC, symSize: 0x338 }
  - { offsetInCU: 0x113AA, offset: 0x113AA, size: 0x8, addend: 0x0, symName: __ZNSt8_Rb_treeINSt7__cxx1112basic_stringIcSt11char_traitsIcESaIcEEESt4pairIKS5_xESt10_Select1stIS8_ESt4lessIS5_ESaIS8_EE10_Auto_nodeD1Ev, symObjAddr: 0x2968, symBinAddr: 0x1000042B8, symSize: 0x44 }
  - { offsetInCU: 0x1145C, offset: 0x1145C, size: 0x8, addend: 0x0, symName: __ZNSt8_Rb_treeINSt7__cxx1112basic_stringIcSt11char_traitsIcESaIcEEESt4pairIKS5_xESt10_Select1stIS8_ESt4lessIS5_ESaIS8_EE10_Auto_nodeC1IJRKSt21piecewise_construct_tSt5tupleIJOS5_EESK_IJEEEEERSE_DpOT_, symObjAddr: 0x28EC, symBinAddr: 0x10000423C, symSize: 0x7C }
  - { offsetInCU: 0x113FB, offset: 0x113FB, size: 0x8, addend: 0x0, symName: __ZSt7forwardISt5tupleIJEEEOT_RNSt16remove_referenceIS2_E4typeE, symObjAddr: 0x28D8, symBinAddr: 0x100004228, symSize: 0x14 }
  - { offsetInCU: 0x11431, offset: 0x11431, size: 0x8, addend: 0x0, symName: __ZSt7forwardISt5tupleIJONSt7__cxx1112basic_stringIcSt11char_traitsIcESaIcEEEEEEOT_RNSt16remove_referenceIS9_E4typeE, symObjAddr: 0x28C4, symBinAddr: 0x100004214, symSize: 0x14 }
  - { offsetInCU: 0x11467, offset: 0x11467, size: 0x8, addend: 0x0, symName: __ZSt7forwardIRKSt21piecewise_construct_tEOT_RNSt16remove_referenceIS3_E4typeE, symObjAddr: 0x28B0, symBinAddr: 0x100004200, symSize: 0x14 }
  - { offsetInCU: 0x1152C, offset: 0x1152C, size: 0x8, addend: 0x0, symName: __ZNSt5tupleIJONSt7__cxx1112basic_stringIcSt11char_traitsIcESaIcEEEEEC1IJS5_ELb1ELb1EEEDpOT_, symObjAddr: 0x2874, symBinAddr: 0x1000041C4, symSize: 0x3C }
  - { offsetInCU: 0x1151E, offset: 0x1151E, size: 0x8, addend: 0x0, symName: __ZSt7forwardINSt7__cxx1112basic_stringIcSt11char_traitsIcESaIcEEEEOT_RNSt16remove_referenceIS6_E4typeE, symObjAddr: 0x2860, symBinAddr: 0x1000041B0, symSize: 0x14 }
  - { offsetInCU: 0x1154E, offset: 0x1154E, size: 0x8, addend: 0x0, symName: __ZStltIcSt11char_traitsIcESaIcEEbRKNSt7__cxx1112basic_stringIT_T0_T1_EESA_, symObjAddr: 0x2834, symBinAddr: 0x100004184, symSize: 0x2C }
  - { offsetInCU: 0x115A5, offset: 0x115A5, size: 0x8, addend: 0x0, symName: __ZNSt13_Rb_tree_nodeISt4pairIKNSt7__cxx1112basic_stringIcSt11char_traitsIcESaIcEEExEE9_M_valptrEv, symObjAddr: 0x2814, symBinAddr: 0x100004164, symSize: 0x20 }
  - { offsetInCU: 0x115CD, offset: 0x115CD, size: 0x8, addend: 0x0, symName: __ZNKSt8_Rb_treeINSt7__cxx1112basic_stringIcSt11char_traitsIcESaIcEEESt4pairIKS5_xESt10_Select1stIS8_ESt4lessIS5_ESaIS8_EE8key_compEv, symObjAddr: 0x27FC, symBinAddr: 0x10000414C, symSize: 0x18 }
  - { offsetInCU: 0x115F5, offset: 0x115F5, size: 0x8, addend: 0x0, symName: __ZNSt8_Rb_treeINSt7__cxx1112basic_stringIcSt11char_traitsIcESaIcEEESt4pairIKS5_xESt10_Select1stIS8_ESt4lessIS5_ESaIS8_EE11lower_boundERS7_, symObjAddr: 0x27B4, symBinAddr: 0x100004104, symSize: 0x48 }
  - { offsetInCU: 0x1162D, offset: 0x1162D, size: 0x8, addend: 0x0, symName: __ZNSt8_Rb_treeINSt7__cxx1112basic_stringIcSt11char_traitsIcESaIcEEESt4pairIKS5_S5_ESt10_Select1stIS8_ESt4lessIS5_ESaIS8_EE17_M_insert_unique_IRKS8_NSE_20_Reuse_or_alloc_nodeEEESt17_Rb_tree_iteratorIS8_ESt23_Rb_tree_const_iteratorIS8_EOT_RT0_, symObjAddr: 0x2724, symBinAddr: 0x100004074, symSize: 0x90 }
  - { offsetInCU: 0x116A8, offset: 0x116A8, size: 0x8, addend: 0x0, symName: __ZNSt8_Rb_treeINSt7__cxx1112basic_stringIcSt11char_traitsIcESaIcEEESt4pairIKS5_S5_ESt10_Select1stIS8_ESt4lessIS5_ESaIS8_EE3endEv, symObjAddr: 0x26FC, symBinAddr: 0x10000404C, symSize: 0x28 }
  - { offsetInCU: 0x11782, offset: 0x11782, size: 0x8, addend: 0x0, symName: __ZNSt8_Rb_treeINSt7__cxx1112basic_stringIcSt11char_traitsIcESaIcEEESt4pairIKS5_S5_ESt10_Select1stIS8_ESt4lessIS5_ESaIS8_EE20_Reuse_or_alloc_nodeD1Ev, symObjAddr: 0x26C8, symBinAddr: 0x100004018, symSize: 0x34 }
  - { offsetInCU: 0x117CE, offset: 0x117CE, size: 0x8, addend: 0x0, symName: __ZNSt8_Rb_treeINSt7__cxx1112basic_stringIcSt11char_traitsIcESaIcEEESt4pairIKS5_S5_ESt10_Select1stIS8_ESt4lessIS5_ESaIS8_EE20_Reuse_or_alloc_nodeC1ERSE_, symObjAddr: 0x2628, symBinAddr: 0x100003F78, symSize: 0xA0 }
  - { offsetInCU: 0x11766, offset: 0x11766, size: 0x8, addend: 0x0, symName: __ZNKSt16initializer_listISt4pairIKNSt7__cxx1112basic_stringIcSt11char_traitsIcESaIcEEES6_EE4sizeEv, symObjAddr: 0x2610, symBinAddr: 0x100003F60, symSize: 0x18 }
  - { offsetInCU: 0x1178E, offset: 0x1178E, size: 0x8, addend: 0x0, symName: __ZNSt8_Rb_treeINSt7__cxx1112basic_stringIcSt11char_traitsIcESaIcEEESt4pairIKS5_xESt10_Select1stIS8_ESt4lessIS5_ESaIS8_EE17_M_insert_unique_IRKS8_NSE_20_Reuse_or_alloc_nodeEEESt17_Rb_tree_iteratorIS8_ESt23_Rb_tree_const_iteratorIS8_EOT_RT0_, symObjAddr: 0x2580, symBinAddr: 0x100003ED0, symSize: 0x90 }
  - { offsetInCU: 0x11809, offset: 0x11809, size: 0x8, addend: 0x0, symName: __ZNSt8_Rb_treeINSt7__cxx1112basic_stringIcSt11char_traitsIcESaIcEEESt4pairIKS5_xESt10_Select1stIS8_ESt4lessIS5_ESaIS8_EE3endEv, symObjAddr: 0x2558, symBinAddr: 0x100003EA8, symSize: 0x28 }
  - { offsetInCU: 0x118E1, offset: 0x118E1, size: 0x8, addend: 0x0, symName: __ZNSt8_Rb_treeINSt7__cxx1112basic_stringIcSt11char_traitsIcESaIcEEESt4pairIKS5_xESt10_Select1stIS8_ESt4lessIS5_ESaIS8_EE20_Reuse_or_alloc_nodeD1Ev, symObjAddr: 0x2524, symBinAddr: 0x100003E74, symSize: 0x34 }
  - { offsetInCU: 0x1192D, offset: 0x1192D, size: 0x8, addend: 0x0, symName: __ZNSt8_Rb_treeINSt7__cxx1112basic_stringIcSt11char_traitsIcESaIcEEESt4pairIKS5_xESt10_Select1stIS8_ESt4lessIS5_ESaIS8_EE20_Reuse_or_alloc_nodeC1ERSE_, symObjAddr: 0x2484, symBinAddr: 0x100003DD4, symSize: 0xA0 }
  - { offsetInCU: 0x118C7, offset: 0x118C7, size: 0x8, addend: 0x0, symName: __ZNKSt16initializer_listISt4pairIKNSt7__cxx1112basic_stringIcSt11char_traitsIcESaIcEEExEE4sizeEv, symObjAddr: 0x246C, symBinAddr: 0x100003DBC, symSize: 0x18 }
  - { offsetInCU: 0x118EF, offset: 0x118EF, size: 0x8, addend: 0x0, symName: __ZNKSt8_Rb_treeINSt7__cxx1112basic_stringIcSt11char_traitsIcESaIcEEESt4pairIKS5_S5_ESt10_Select1stIS8_ESt4lessIS5_ESaIS8_EE9_M_mbeginEv, symObjAddr: 0x2454, symBinAddr: 0x100003DA4, symSize: 0x18 }
  - { offsetInCU: 0x11917, offset: 0x11917, size: 0x8, addend: 0x0, symName: __ZNSt8_Rb_treeINSt7__cxx1112basic_stringIcSt11char_traitsIcESaIcEEESt4pairIKS5_S5_ESt10_Select1stIS8_ESt4lessIS5_ESaIS8_EE12_M_drop_nodeEPSt13_Rb_tree_nodeIS8_E, symObjAddr: 0x2420, symBinAddr: 0x100003D70, symSize: 0x34 }
  - { offsetInCU: 0x1194B, offset: 0x1194B, size: 0x8, addend: 0x0, symName: __ZNSt8_Rb_treeINSt7__cxx1112basic_stringIcSt11char_traitsIcESaIcEEESt4pairIKS5_S5_ESt10_Select1stIS8_ESt4lessIS5_ESaIS8_EE7_S_leftEPSt18_Rb_tree_node_base, symObjAddr: 0x2408, symBinAddr: 0x100003D58, symSize: 0x18 }
  - { offsetInCU: 0x11973, offset: 0x11973, size: 0x8, addend: 0x0, symName: __ZNSt8_Rb_treeINSt7__cxx1112basic_stringIcSt11char_traitsIcESaIcEEESt4pairIKS5_S5_ESt10_Select1stIS8_ESt4lessIS5_ESaIS8_EE8_S_rightEPSt18_Rb_tree_node_base, symObjAddr: 0x23F0, symBinAddr: 0x100003D40, symSize: 0x18 }
  - { offsetInCU: 0x119B3, offset: 0x119B3, size: 0x8, addend: 0x0, symName: __ZNKSt8_Rb_treeINSt7__cxx1112basic_stringIcSt11char_traitsIcESaIcEEESt4pairIKS5_xESt10_Select1stIS8_ESt4lessIS5_ESaIS8_EE9_M_mbeginEv, symObjAddr: 0x23D8, symBinAddr: 0x100003D28, symSize: 0x18 }
  - { offsetInCU: 0x119DB, offset: 0x119DB, size: 0x8, addend: 0x0, symName: __ZNSt8_Rb_treeINSt7__cxx1112basic_stringIcSt11char_traitsIcESaIcEEESt4pairIKS5_xESt10_Select1stIS8_ESt4lessIS5_ESaIS8_EE12_M_drop_nodeEPSt13_Rb_tree_nodeIS8_E, symObjAddr: 0x23A4, symBinAddr: 0x100003CF4, symSize: 0x34 }
  - { offsetInCU: 0x11A0F, offset: 0x11A0F, size: 0x8, addend: 0x0, symName: __ZNSt8_Rb_treeINSt7__cxx1112basic_stringIcSt11char_traitsIcESaIcEEESt4pairIKS5_xESt10_Select1stIS8_ESt4lessIS5_ESaIS8_EE7_S_leftEPSt18_Rb_tree_node_base, symObjAddr: 0x238C, symBinAddr: 0x100003CDC, symSize: 0x18 }
  - { offsetInCU: 0x11A37, offset: 0x11A37, size: 0x8, addend: 0x0, symName: __ZNSt8_Rb_treeINSt7__cxx1112basic_stringIcSt11char_traitsIcESaIcEEESt4pairIKS5_xESt10_Select1stIS8_ESt4lessIS5_ESaIS8_EE8_S_rightEPSt18_Rb_tree_node_base, symObjAddr: 0x2374, symBinAddr: 0x100003CC4, symSize: 0x18 }
  - { offsetInCU: 0x11AA0, offset: 0x11AA0, size: 0x8, addend: 0x0, symName: __ZNSt8_Rb_treeINSt7__cxx1112basic_stringIcSt11char_traitsIcESaIcEEESt4pairIKS5_S5_ESt10_Select1stIS8_ESt4lessIS5_ESaIS8_EE22_M_emplace_hint_uniqueIJRKSt21piecewise_construct_tSt5tupleIJRS7_EESJ_IJEEEEESt17_Rb_tree_iteratorIS8_ESt23_Rb_tree_const_iteratorIS8_EDpOT_, symObjAddr: 0x229C, symBinAddr: 0x100003BEC, symSize: 0xD8 }
  - { offsetInCU: 0x11BD3, offset: 0x11BD3, size: 0x8, addend: 0x0, symName: __ZNSt23_Rb_tree_const_iteratorISt4pairIKNSt7__cxx1112basic_stringIcSt11char_traitsIcESaIcEEES6_EEC1ERKSt17_Rb_tree_iteratorIS8_E, symObjAddr: 0x2274, symBinAddr: 0x100003BC4, symSize: 0x28 }
  - { offsetInCU: 0x11B82, offset: 0x11B82, size: 0x8, addend: 0x0, symName: __ZNKSt17_Rb_tree_iteratorISt4pairIKNSt7__cxx1112basic_stringIcSt11char_traitsIcESaIcEEES6_EEdeEv, symObjAddr: 0x2254, symBinAddr: 0x100003BA4, symSize: 0x20 }
  - { offsetInCU: 0x11BAA, offset: 0x11BAA, size: 0x8, addend: 0x0, symName: __ZNKSt3mapINSt7__cxx1112basic_stringIcSt11char_traitsIcESaIcEEES5_St4lessIS5_ESaISt4pairIKS5_S5_EEE8key_compEv, symObjAddr: 0x2228, symBinAddr: 0x100003B78, symSize: 0x2C }
  - { offsetInCU: 0x11BD4, offset: 0x11BD4, size: 0x8, addend: 0x0, symName: __ZSteqRKSt17_Rb_tree_iteratorISt4pairIKNSt7__cxx1112basic_stringIcSt11char_traitsIcESaIcEEES6_EESB_, symObjAddr: 0x21F8, symBinAddr: 0x100003B48, symSize: 0x30 }
  - { offsetInCU: 0x11C10, offset: 0x11C10, size: 0x8, addend: 0x0, symName: __ZNSt3mapINSt7__cxx1112basic_stringIcSt11char_traitsIcESaIcEEES5_St4lessIS5_ESaISt4pairIKS5_S5_EEE3endEv, symObjAddr: 0x21DC, symBinAddr: 0x100003B2C, symSize: 0x1C }
  - { offsetInCU: 0x11C38, offset: 0x11C38, size: 0x8, addend: 0x0, symName: __ZNSt3mapINSt7__cxx1112basic_stringIcSt11char_traitsIcESaIcEEES5_St4lessIS5_ESaISt4pairIKS5_S5_EEE11lower_boundERS9_, symObjAddr: 0x21B8, symBinAddr: 0x100003B08, symSize: 0x24 }
  - { offsetInCU: 0x11C70, offset: 0x11C70, size: 0x8, addend: 0x0, symName: __ZNSt8_Rb_treeINSt7__cxx1112basic_stringIcSt11char_traitsIcESaIcEEESt4pairIKS5_xESt10_Select1stIS8_ESt4lessIS5_ESaIS8_EE22_M_emplace_hint_uniqueIJRKSt21piecewise_construct_tSt5tupleIJRS7_EESJ_IJEEEEESt17_Rb_tree_iteratorIS8_ESt23_Rb_tree_const_iteratorIS8_EDpOT_, symObjAddr: 0x20E0, symBinAddr: 0x100003A30, symSize: 0xD8 }
  - { offsetInCU: 0x11D82, offset: 0x11D82, size: 0x8, addend: 0x0, symName: __ZNSt5tupleIJRKNSt7__cxx1112basic_stringIcSt11char_traitsIcESaIcEEEEEC1ILb1ELb1EEES7_, symObjAddr: 0x20B8, symBinAddr: 0x100003A08, symSize: 0x28 }
  - { offsetInCU: 0x11D66, offset: 0x11D66, size: 0x8, addend: 0x0, symName: __ZNK9__gnu_cxx17__normal_iteratorIPNSt7__cxx1112basic_stringIcSt11char_traitsIcESaIcEEESt6vectorIS6_SaIS6_EEE4baseEv, symObjAddr: 0x20A4, symBinAddr: 0x1000039F4, symSize: 0x14 }
  - { offsetInCU: 0x11E24, offset: 0x11E24, size: 0x8, addend: 0x0, symName: __ZN9__gnu_cxx17__normal_iteratorIPNSt7__cxx1112basic_stringIcSt11char_traitsIcESaIcEEESt6vectorIS6_SaIS6_EEEC1ERKS7_, symObjAddr: 0x207C, symBinAddr: 0x1000039CC, symSize: 0x28 }
  - { offsetInCU: 0x11E18, offset: 0x11E18, size: 0x8, addend: 0x0, symName: __ZNSt12_Vector_baseINSt7__cxx1112basic_stringIcSt11char_traitsIcESaIcEEESaIS5_EE19_M_get_Tp_allocatorEv, symObjAddr: 0x2068, symBinAddr: 0x1000039B8, symSize: 0x14 }
  - { offsetInCU: 0x11E40, offset: 0x11E40, size: 0x8, addend: 0x0, symName: __ZNSt6vectorINSt7__cxx1112basic_stringIcSt11char_traitsIcESaIcEEESaIS5_EE19_M_range_initializeIPKPKcEEvT_SD_St20forward_iterator_tag, symObjAddr: 0x1F84, symBinAddr: 0x1000038D4, symSize: 0xE4 }
  - { offsetInCU: 0x11FE0, offset: 0x11FE0, size: 0x8, addend: 0x0, symName: __ZNSt12_Vector_baseINSt7__cxx1112basic_stringIcSt11char_traitsIcESaIcEEESaIS5_EED2Ev, symObjAddr: 0x1F34, symBinAddr: 0x100003884, symSize: 0x50 }
  - { offsetInCU: 0x1202D, offset: 0x1202D, size: 0x8, addend: 0x0, symName: __ZNSt12_Vector_baseINSt7__cxx1112basic_stringIcSt11char_traitsIcESaIcEEESaIS5_EEC2ERKS6_, symObjAddr: 0x1F0C, symBinAddr: 0x10000385C, symSize: 0x28 }
  - { offsetInCU: 0x12088, offset: 0x12088, size: 0x8, addend: 0x0, symName: __ZNSt12_Vector_baseINSt7__cxx1112basic_stringIcSt11char_traitsIcESaIcEEESaIS5_EE12_Vector_implD1Ev, symObjAddr: 0x1EE0, symBinAddr: 0x100003830, symSize: 0x2C }
  - { offsetInCU: 0x120DD, offset: 0x120DD, size: 0x8, addend: 0x0, symName: __ZNSt15__new_allocatorINSt7__cxx1112basic_stringIcSt11char_traitsIcESaIcEEEED2Ev, symObjAddr: 0x1ECC, symBinAddr: 0x10000381C, symSize: 0x14 }
  - { offsetInCU: 0x120CA, offset: 0x120CA, size: 0x8, addend: 0x0, symName: __ZSteqRKSt23_Rb_tree_const_iteratorISt4pairIKNSt7__cxx1112basic_stringIcSt11char_traitsIcESaIcEEExEESB_, symObjAddr: 0x1E9C, symBinAddr: 0x1000037EC, symSize: 0x30 }
  - { offsetInCU: 0x12106, offset: 0x12106, size: 0x8, addend: 0x0, symName: __ZNKSt8_Rb_treeINSt7__cxx1112basic_stringIcSt11char_traitsIcESaIcEEESt4pairIKS5_xESt10_Select1stIS8_ESt4lessIS5_ESaIS8_EE3endEv, symObjAddr: 0x1E74, symBinAddr: 0x1000037C4, symSize: 0x28 }
  - { offsetInCU: 0x1212E, offset: 0x1212E, size: 0x8, addend: 0x0, symName: __ZNKSt8_Rb_treeINSt7__cxx1112basic_stringIcSt11char_traitsIcESaIcEEESt4pairIKS5_xESt10_Select1stIS8_ESt4lessIS5_ESaIS8_EE4findERS7_, symObjAddr: 0x1DC4, symBinAddr: 0x100003714, symSize: 0xB0 }
  - { offsetInCU: 0x12177, offset: 0x12177, size: 0x8, addend: 0x0, symName: __ZNSt8_Rb_treeINSt7__cxx1112basic_stringIcSt11char_traitsIcESaIcEEESt4pairIKS5_xESt10_Select1stIS8_ESt4lessIS5_ESaIS8_EE22_M_emplace_hint_uniqueIJRKSt21piecewise_construct_tSt5tupleIJOS5_EESJ_IJEEEEESt17_Rb_tree_iteratorIS8_ESt23_Rb_tree_const_iteratorIS8_EDpOT_, symObjAddr: 0x1CEC, symBinAddr: 0x10000363C, symSize: 0xD8 }
  - { offsetInCU: 0x122A8, offset: 0x122A8, size: 0x8, addend: 0x0, symName: __ZNSt23_Rb_tree_const_iteratorISt4pairIKNSt7__cxx1112basic_stringIcSt11char_traitsIcESaIcEEExEEC1ERKSt17_Rb_tree_iteratorIS8_E, symObjAddr: 0x1CC4, symBinAddr: 0x100003614, symSize: 0x28 }
  - { offsetInCU: 0x12255, offset: 0x12255, size: 0x8, addend: 0x0, symName: __ZSt16forward_as_tupleIJNSt7__cxx1112basic_stringIcSt11char_traitsIcESaIcEEEEESt5tupleIJDpOT_EES9_, symObjAddr: 0x1C8C, symBinAddr: 0x1000035DC, symSize: 0x38 }
  - { offsetInCU: 0x1228B, offset: 0x1228B, size: 0x8, addend: 0x0, symName: __ZNKSt4lessINSt7__cxx1112basic_stringIcSt11char_traitsIcESaIcEEEEclERKS5_S8_, symObjAddr: 0x1C60, symBinAddr: 0x1000035B0, symSize: 0x2C }
  - { offsetInCU: 0x122D3, offset: 0x122D3, size: 0x8, addend: 0x0, symName: __ZNKSt17_Rb_tree_iteratorISt4pairIKNSt7__cxx1112basic_stringIcSt11char_traitsIcESaIcEEExEEdeEv, symObjAddr: 0x1C40, symBinAddr: 0x100003590, symSize: 0x20 }
  - { offsetInCU: 0x122FB, offset: 0x122FB, size: 0x8, addend: 0x0, symName: __ZNKSt3mapINSt7__cxx1112basic_stringIcSt11char_traitsIcESaIcEEExSt4lessIS5_ESaISt4pairIKS5_xEEE8key_compEv, symObjAddr: 0x1C14, symBinAddr: 0x100003564, symSize: 0x2C }
  - { offsetInCU: 0x12325, offset: 0x12325, size: 0x8, addend: 0x0, symName: __ZSteqRKSt17_Rb_tree_iteratorISt4pairIKNSt7__cxx1112basic_stringIcSt11char_traitsIcESaIcEEExEESB_, symObjAddr: 0x1BE4, symBinAddr: 0x100003534, symSize: 0x30 }
  - { offsetInCU: 0x12361, offset: 0x12361, size: 0x8, addend: 0x0, symName: __ZNSt3mapINSt7__cxx1112basic_stringIcSt11char_traitsIcESaIcEEExSt4lessIS5_ESaISt4pairIKS5_xEEE3endEv, symObjAddr: 0x1BC8, symBinAddr: 0x100003518, symSize: 0x1C }
  - { offsetInCU: 0x12389, offset: 0x12389, size: 0x8, addend: 0x0, symName: __ZNSt3mapINSt7__cxx1112basic_stringIcSt11char_traitsIcESaIcEEExSt4lessIS5_ESaISt4pairIKS5_xEEE11lower_boundERS9_, symObjAddr: 0x1BA4, symBinAddr: 0x1000034F4, symSize: 0x24 }
  - { offsetInCU: 0x123C1, offset: 0x123C1, size: 0x8, addend: 0x0, symName: __ZNSt8_Rb_treeINSt7__cxx1112basic_stringIcSt11char_traitsIcESaIcEEESt4pairIKS5_S5_ESt10_Select1stIS8_ESt4lessIS5_ESaIS8_EE16_M_assign_uniqueIPKS8_EEvT_SI_, symObjAddr: 0x1AF8, symBinAddr: 0x100003448, symSize: 0xAC }
  - { offsetInCU: 0x12424, offset: 0x12424, size: 0x8, addend: 0x0, symName: __ZNKSt16initializer_listISt4pairIKNSt7__cxx1112basic_stringIcSt11char_traitsIcESaIcEEES6_EE3endEv, symObjAddr: 0x1AC0, symBinAddr: 0x100003410, symSize: 0x38 }
  - { offsetInCU: 0x1244C, offset: 0x1244C, size: 0x8, addend: 0x0, symName: __ZNKSt16initializer_listISt4pairIKNSt7__cxx1112basic_stringIcSt11char_traitsIcESaIcEEES6_EE5beginEv, symObjAddr: 0x1AA8, symBinAddr: 0x1000033F8, symSize: 0x18 }
  - { offsetInCU: 0x12474, offset: 0x12474, size: 0x8, addend: 0x0, symName: __ZNSt8_Rb_treeINSt7__cxx1112basic_stringIcSt11char_traitsIcESaIcEEESt4pairIKS5_xESt10_Select1stIS8_ESt4lessIS5_ESaIS8_EE16_M_assign_uniqueIPKS8_EEvT_SI_, symObjAddr: 0x19FC, symBinAddr: 0x10000334C, symSize: 0xAC }
  - { offsetInCU: 0x124D7, offset: 0x124D7, size: 0x8, addend: 0x0, symName: __ZNKSt16initializer_listISt4pairIKNSt7__cxx1112basic_stringIcSt11char_traitsIcESaIcEEExEE3endEv, symObjAddr: 0x19B4, symBinAddr: 0x100003304, symSize: 0x48 }
  - { offsetInCU: 0x124FF, offset: 0x124FF, size: 0x8, addend: 0x0, symName: __ZNKSt16initializer_listISt4pairIKNSt7__cxx1112basic_stringIcSt11char_traitsIcESaIcEEExEE5beginEv, symObjAddr: 0x199C, symBinAddr: 0x1000032EC, symSize: 0x18 }
  - { offsetInCU: 0x1253B, offset: 0x1253B, size: 0x8, addend: 0x0, symName: __ZNSt8_Rb_treeINSt7__cxx1112basic_stringIcSt11char_traitsIcESaIcEEESt4pairIKS5_S5_ESt10_Select1stIS8_ESt4lessIS5_ESaIS8_EE8_M_beginEv, symObjAddr: 0x1980, symBinAddr: 0x1000032D0, symSize: 0x1C }
  - { offsetInCU: 0x12563, offset: 0x12563, size: 0x8, addend: 0x0, symName: __ZNSt8_Rb_treeINSt7__cxx1112basic_stringIcSt11char_traitsIcESaIcEEESt4pairIKS5_S5_ESt10_Select1stIS8_ESt4lessIS5_ESaIS8_EE8_M_eraseEPSt13_Rb_tree_nodeIS8_E, symObjAddr: 0x191C, symBinAddr: 0x10000326C, symSize: 0x64 }
  - { offsetInCU: 0x1264D, offset: 0x1264D, size: 0x8, addend: 0x0, symName: __ZNSt15__new_allocatorISt13_Rb_tree_nodeISt4pairIKNSt7__cxx1112basic_stringIcSt11char_traitsIcESaIcEEES7_EEED2Ev, symObjAddr: 0x1908, symBinAddr: 0x100003258, symSize: 0x14 }
  - { offsetInCU: 0x12618, offset: 0x12618, size: 0x8, addend: 0x0, symName: __ZNSt8_Rb_treeINSt7__cxx1112basic_stringIcSt11char_traitsIcESaIcEEESt4pairIKS5_xESt10_Select1stIS8_ESt4lessIS5_ESaIS8_EE8_M_beginEv, symObjAddr: 0x18EC, symBinAddr: 0x10000323C, symSize: 0x1C }
  - { offsetInCU: 0x12640, offset: 0x12640, size: 0x8, addend: 0x0, symName: __ZNSt8_Rb_treeINSt7__cxx1112basic_stringIcSt11char_traitsIcESaIcEEESt4pairIKS5_xESt10_Select1stIS8_ESt4lessIS5_ESaIS8_EE8_M_eraseEPSt13_Rb_tree_nodeIS8_E, symObjAddr: 0x1888, symBinAddr: 0x1000031D8, symSize: 0x64 }
  - { offsetInCU: 0x12728, offset: 0x12728, size: 0x8, addend: 0x0, symName: __ZNSt15__new_allocatorISt13_Rb_tree_nodeISt4pairIKNSt7__cxx1112basic_stringIcSt11char_traitsIcESaIcEEExEEED2Ev, symObjAddr: 0x1874, symBinAddr: 0x1000031C4, symSize: 0x14 }
  - { offsetInCU: 0x12754, offset: 0x12754, size: 0x8, addend: 0x0, symName: __ZNSt20_Rb_tree_key_compareISt4lessINSt7__cxx1112basic_stringIcSt11char_traitsIcESaIcEEEEEC2Ev, symObjAddr: 0x1860, symBinAddr: 0x1000031B0, symSize: 0x14 }
  - { offsetInCU: 0x12733, offset: 0x12733, size: 0x8, addend: 0x0, symName: __ZSt4moveIRNSt7__cxx1112basic_stringIcSt11char_traitsIcESaIcEEEEONSt16remove_referenceIT_E4typeEOS8_, symObjAddr: 0x184C, symBinAddr: 0x10000319C, symSize: 0x14 }
  - { offsetInCU: 0x12767, offset: 0x12767, size: 0x8, addend: 0x0, symName: __ZNSt7__cxx1112basic_stringIcSt11char_traitsIcESaIcEE12_M_constructIPKcEEvT_S8_St20forward_iterator_tag, symObjAddr: 0x1764, symBinAddr: 0x1000030B4, symSize: 0xE8 }
  - { offsetInCU: 0x128DB, offset: 0x128DB, size: 0x8, addend: 0x0, symName: __ZZNSt7__cxx1112basic_stringIcSt11char_traitsIcESaIcEE12_M_constructIPKcEEvT_S8_St20forward_iterator_tagEN6_GuardC1EPS4_, symObjAddr: 0x170C, symBinAddr: 0x10000305C, symSize: 0x24 }
  - { offsetInCU: 0x12909, offset: 0x12909, size: 0x8, addend: 0x0, symName: __ZZNSt7__cxx1112basic_stringIcSt11char_traitsIcESaIcEE12_M_constructIPKcEEvT_S8_St20forward_iterator_tagEN6_GuardD1Ev, symObjAddr: 0x1730, symBinAddr: 0x100003080, symSize: 0x34 }
  - { offsetInCU: 0x129A5, offset: 0x129A5, size: 0x8, addend: 0x0, symName: __ZNSt15__new_allocatorIcED2Ev, symObjAddr: 0x16F8, symBinAddr: 0x100003048, symSize: 0x14 }
  - { offsetInCU: 0x129BF, offset: 0x129BF, size: 0x8, addend: 0x0, symName: __ZN9__gnu_cxx11char_traitsIcE2eqERKcS3_, symObjAddr: 0x16C8, symBinAddr: 0x100003018, symSize: 0x30 }
  - { offsetInCU: 0x129F9, offset: 0x129F9, size: 0x8, addend: 0x0, symName: __ZNSt3mapINSt7__cxx1112basic_stringIcSt11char_traitsIcESaIcEEES5_St4lessIS5_ESaISt4pairIKS5_S5_EEEixERS9_, symObjAddr: 0x15D4, symBinAddr: 0x100002F24, symSize: 0xF4 }
  - { offsetInCU: 0x12A42, offset: 0x12A42, size: 0x8, addend: 0x0, symName: __ZNSt3mapINSt7__cxx1112basic_stringIcSt11char_traitsIcESaIcEEExSt4lessIS5_ESaISt4pairIKS5_xEEEixERS9_, symObjAddr: 0x14E0, symBinAddr: 0x100002E30, symSize: 0xF4 }
  - { offsetInCU: 0x12A8B, offset: 0x12A8B, size: 0x8, addend: 0x0, symName: __ZNK9__gnu_cxx17__normal_iteratorIPNSt7__cxx1112basic_stringIcSt11char_traitsIcESaIcEEESt6vectorIS6_SaIS6_EEEdeEv, symObjAddr: 0x14C8, symBinAddr: 0x100002E18, symSize: 0x18 }
  - { offsetInCU: 0x12AB3, offset: 0x12AB3, size: 0x8, addend: 0x0, symName: __ZN9__gnu_cxx17__normal_iteratorIPNSt7__cxx1112basic_stringIcSt11char_traitsIcESaIcEEESt6vectorIS6_SaIS6_EEEppEv, symObjAddr: 0x14A0, symBinAddr: 0x100002DF0, symSize: 0x28 }
  - { offsetInCU: 0x12ADD, offset: 0x12ADD, size: 0x8, addend: 0x0, symName: __ZN9__gnu_cxxneIPNSt7__cxx1112basic_stringIcSt11char_traitsIcESaIcEEESt6vectorIS6_SaIS6_EEEEbRKNS_17__normal_iteratorIT_T0_EESG_, symObjAddr: 0x145C, symBinAddr: 0x100002DAC, symSize: 0x44 }
  - { offsetInCU: 0x12B2B, offset: 0x12B2B, size: 0x8, addend: 0x0, symName: __ZNSt6vectorINSt7__cxx1112basic_stringIcSt11char_traitsIcESaIcEEESaIS5_EE3endEv, symObjAddr: 0x1434, symBinAddr: 0x100002D84, symSize: 0x28 }
  - { offsetInCU: 0x12B53, offset: 0x12B53, size: 0x8, addend: 0x0, symName: __ZNSt6vectorINSt7__cxx1112basic_stringIcSt11char_traitsIcESaIcEEESaIS5_EE5beginEv, symObjAddr: 0x1410, symBinAddr: 0x100002D60, symSize: 0x24 }
  - { offsetInCU: 0x12BE6, offset: 0x12BE6, size: 0x8, addend: 0x0, symName: __ZNSt6vectorINSt7__cxx1112basic_stringIcSt11char_traitsIcESaIcEEESaIS5_EED1Ev, symObjAddr: 0x13B4, symBinAddr: 0x100002D04, symSize: 0x5C }
  - { offsetInCU: 0x12C96, offset: 0x12C96, size: 0x8, addend: 0x0, symName: __ZNSt6vectorINSt7__cxx1112basic_stringIcSt11char_traitsIcESaIcEEESaIS5_EEC1IPKPKcvEET_SD_RKS6_, symObjAddr: 0x134C, symBinAddr: 0x100002C9C, symSize: 0x68 }
  - { offsetInCU: 0x12CD2, offset: 0x12CD2, size: 0x8, addend: 0x0, symName: __ZNKSt3mapINSt7__cxx1112basic_stringIcSt11char_traitsIcESaIcEEExSt4lessIS5_ESaISt4pairIKS5_xEEE5countERS9_, symObjAddr: 0x12F0, symBinAddr: 0x100002C40, symSize: 0x5C }
  - { offsetInCU: 0x12D0A, offset: 0x12D0A, size: 0x8, addend: 0x0, symName: __ZNSt3mapINSt7__cxx1112basic_stringIcSt11char_traitsIcESaIcEEExSt4lessIS5_ESaISt4pairIKS5_xEEEixEOS5_, symObjAddr: 0x11EC, symBinAddr: 0x100002B3C, symSize: 0x104 }
  - { offsetInCU: 0x12D53, offset: 0x12D53, size: 0x8, addend: 0x0, symName: __ZNSt3mapINSt7__cxx1112basic_stringIcSt11char_traitsIcESaIcEEES5_St4lessIS5_ESaISt4pairIKS5_S5_EEEaSESt16initializer_listISA_E, symObjAddr: 0x11A0, symBinAddr: 0x100002AF0, symSize: 0x4C }
  - { offsetInCU: 0x12D93, offset: 0x12D93, size: 0x8, addend: 0x0, symName: __ZSt7forwardIRA8_KcEOT_RNSt16remove_referenceIS3_E4typeE, symObjAddr: 0x118C, symBinAddr: 0x100002ADC, symSize: 0x14 }
  - { offsetInCU: 0x12DCF, offset: 0x12DCF, size: 0x8, addend: 0x0, symName: __ZSt7forwardIRA5_KcEOT_RNSt16remove_referenceIS3_E4typeE, symObjAddr: 0x1178, symBinAddr: 0x100002AC8, symSize: 0x14 }
  - { offsetInCU: 0x12E0B, offset: 0x12E0B, size: 0x8, addend: 0x0, symName: __ZSt7forwardIRA4_KcEOT_RNSt16remove_referenceIS3_E4typeE, symObjAddr: 0x1164, symBinAddr: 0x100002AB4, symSize: 0x14 }
  - { offsetInCU: 0x12E47, offset: 0x12E47, size: 0x8, addend: 0x0, symName: __ZSt7forwardIRA6_KcEOT_RNSt16remove_referenceIS3_E4typeE, symObjAddr: 0x1150, symBinAddr: 0x100002AA0, symSize: 0x14 }
  - { offsetInCU: 0x12E7B, offset: 0x12E7B, size: 0x8, addend: 0x0, symName: __ZNSt3mapINSt7__cxx1112basic_stringIcSt11char_traitsIcESaIcEEExSt4lessIS5_ESaISt4pairIKS5_xEEEaSESt16initializer_listISA_E, symObjAddr: 0x1104, symBinAddr: 0x100002A54, symSize: 0x4C }
  - { offsetInCU: 0x12EBB, offset: 0x12EBB, size: 0x8, addend: 0x0, symName: __ZSt7forwardIRA3_KcEOT_RNSt16remove_referenceIS3_E4typeE, symObjAddr: 0x10F0, symBinAddr: 0x100002A40, symSize: 0x14 }
  - { offsetInCU: 0x12F73, offset: 0x12F73, size: 0x8, addend: 0x0, symName: __ZNSt7__cxx1112basic_stringIcSt11char_traitsIcESaIcEEC1IS3_EEPKcRKS3_, symObjAddr: 0x1054, symBinAddr: 0x1000029A4, symSize: 0x9C }
  - { offsetInCU: 0x12F9A, offset: 0x12F9A, size: 0x8, addend: 0x0, symName: __ZSt7forwardIiEOT_RNSt16remove_referenceIS0_E4typeE, symObjAddr: 0x1040, symBinAddr: 0x100002990, symSize: 0x14 }
  - { offsetInCU: 0x12FD6, offset: 0x12FD6, size: 0x8, addend: 0x0, symName: __ZSt7forwardIRA2_KcEOT_RNSt16remove_referenceIS3_E4typeE, symObjAddr: 0x102C, symBinAddr: 0x10000297C, symSize: 0x14 }
  - { offsetInCU: 0x130A6, offset: 0x130A6, size: 0x8, addend: 0x0, symName: __ZNSt8_Rb_treeINSt7__cxx1112basic_stringIcSt11char_traitsIcESaIcEEESt4pairIKS5_S5_ESt10_Select1stIS8_ESt4lessIS5_ESaIS8_EED1Ev, symObjAddr: 0xFF8, symBinAddr: 0x100002948, symSize: 0x34 }
  - { offsetInCU: 0x13117, offset: 0x13117, size: 0x8, addend: 0x0, symName: __ZNSt8_Rb_treeINSt7__cxx1112basic_stringIcSt11char_traitsIcESaIcEEESt4pairIKS5_S5_ESt10_Select1stIS8_ESt4lessIS5_ESaIS8_EE13_Rb_tree_implISC_Lb1EEC1Ev, symObjAddr: 0xFB4, symBinAddr: 0x100002904, symSize: 0x44 }
  - { offsetInCU: 0x13187, offset: 0x13187, size: 0x8, addend: 0x0, symName: __ZNSt8_Rb_treeINSt7__cxx1112basic_stringIcSt11char_traitsIcESaIcEEESt4pairIKS5_xESt10_Select1stIS8_ESt4lessIS5_ESaIS8_EED1Ev, symObjAddr: 0xF80, symBinAddr: 0x1000028D0, symSize: 0x34 }
  - { offsetInCU: 0x131F8, offset: 0x131F8, size: 0x8, addend: 0x0, symName: __ZNSt8_Rb_treeINSt7__cxx1112basic_stringIcSt11char_traitsIcESaIcEEESt4pairIKS5_xESt10_Select1stIS8_ESt4lessIS5_ESaIS8_EE13_Rb_tree_implISC_Lb1EEC1Ev, symObjAddr: 0xF3C, symBinAddr: 0x10000288C, symSize: 0x44 }
  - { offsetInCU: 0x13239, offset: 0x13239, size: 0x8, addend: 0x0, symName: __ZNSt7__cxx1112basic_stringIcSt11char_traitsIcESaIcEE12_Alloc_hiderD1Ev, symObjAddr: 0xF10, symBinAddr: 0x100002860, symSize: 0x2C }
  - { offsetInCU: 0x13268, offset: 0x13268, size: 0x8, addend: 0x0, symName: __ZN9__gnu_cxx11char_traitsIcE6lengthEPKc, symObjAddr: 0xEB4, symBinAddr: 0x100002804, symSize: 0x5C }
  - { offsetInCU: 0x132A8, offset: 0x132A8, size: 0x8, addend: 0x0, symName: _main, symObjAddr: 0x774, symBinAddr: 0x1000020C4, symSize: 0x740 }
  - { offsetInCU: 0x13460, offset: 0x13460, size: 0x8, addend: 0x0, symName: __ZNSt4pairIKNSt7__cxx1112basic_stringIcSt11char_traitsIcESaIcEEES5_EC1IRA2_KcRA8_S9_Lb1EEEOT_OT0_, symObjAddr: 0x698, symBinAddr: 0x100001FE8, symSize: 0xDC }
  - { offsetInCU: 0x135F4, offset: 0x135F4, size: 0x8, addend: 0x0, symName: __ZNSt4pairIKNSt7__cxx1112basic_stringIcSt11char_traitsIcESaIcEEES5_EC1IRA3_KcRA6_S9_Lb1EEEOT_OT0_, symObjAddr: 0x5BC, symBinAddr: 0x100001F0C, symSize: 0xDC }
  - { offsetInCU: 0x13788, offset: 0x13788, size: 0x8, addend: 0x0, symName: __ZNSt4pairIKNSt7__cxx1112basic_stringIcSt11char_traitsIcESaIcEEES5_EC1IRA3_KcRA5_S9_Lb1EEEOT_OT0_, symObjAddr: 0x4E0, symBinAddr: 0x100001E30, symSize: 0xDC }
  - { offsetInCU: 0x1391C, offset: 0x1391C, size: 0x8, addend: 0x0, symName: __ZNSt4pairIKNSt7__cxx1112basic_stringIcSt11char_traitsIcESaIcEEES5_EC1IRA2_KcRA4_S9_Lb1EEEOT_OT0_, symObjAddr: 0x404, symBinAddr: 0x100001D54, symSize: 0xDC }
  - { offsetInCU: 0x13AB0, offset: 0x13AB0, size: 0x8, addend: 0x0, symName: __ZNSt4pairIKNSt7__cxx1112basic_stringIcSt11char_traitsIcESaIcEEES5_EC1IRA2_KcRA6_S9_Lb1EEEOT_OT0_, symObjAddr: 0x328, symBinAddr: 0x100001C78, symSize: 0xDC }
  - { offsetInCU: 0x13C0C, offset: 0x13C0C, size: 0x8, addend: 0x0, symName: __ZNSt4pairIKNSt7__cxx1112basic_stringIcSt11char_traitsIcESaIcEEES5_ED1Ev, symObjAddr: 0x2FC, symBinAddr: 0x100001C4C, symSize: 0x2C }
  - { offsetInCU: 0x13C85, offset: 0x13C85, size: 0x8, addend: 0x0, symName: __ZNSt4pairIKNSt7__cxx1112basic_stringIcSt11char_traitsIcESaIcEEExEC1IRA3_KciLb1EEEOT_OT0_, symObjAddr: 0x268, symBinAddr: 0x100001BB8, symSize: 0x94 }
  - { offsetInCU: 0x13D94, offset: 0x13D94, size: 0x8, addend: 0x0, symName: __ZNSt4pairIKNSt7__cxx1112basic_stringIcSt11char_traitsIcESaIcEEExEC1IRA2_KciLb1EEEOT_OT0_, symObjAddr: 0x1D4, symBinAddr: 0x100001B24, symSize: 0x94 }
  - { offsetInCU: 0x13E71, offset: 0x13E71, size: 0x8, addend: 0x0, symName: __ZNSt4pairIKNSt7__cxx1112basic_stringIcSt11char_traitsIcESaIcEEExED1Ev, symObjAddr: 0x1B4, symBinAddr: 0x100001B04, symSize: 0x20 }
  - { offsetInCU: 0x13ECD, offset: 0x13ECD, size: 0x8, addend: 0x0, symName: __ZNSt3mapINSt7__cxx1112basic_stringIcSt11char_traitsIcESaIcEEES5_St4lessIS5_ESaISt4pairIKS5_S5_EEEC1Ev, symObjAddr: 0x194, symBinAddr: 0x100001AE4, symSize: 0x20 }
  - { offsetInCU: 0x13F21, offset: 0x13F21, size: 0x8, addend: 0x0, symName: __ZNSt8_Rb_treeINSt7__cxx1112basic_stringIcSt11char_traitsIcESaIcEEESt4pairIKS5_S5_ESt10_Select1stIS8_ESt4lessIS5_ESaIS8_EEC1Ev, symObjAddr: 0x174, symBinAddr: 0x100001AC4, symSize: 0x20 }
  - { offsetInCU: 0x13F83, offset: 0x13F83, size: 0x8, addend: 0x0, symName: __ZNSt8_Rb_treeINSt7__cxx1112basic_stringIcSt11char_traitsIcESaIcEEESt4pairIKS5_S5_ESt10_Select1stIS8_ESt4lessIS5_ESaIS8_EE13_Rb_tree_implISC_Lb1EED1Ev, symObjAddr: 0x148, symBinAddr: 0x100001A98, symSize: 0x2C }
  - { offsetInCU: 0x13FAE, offset: 0x13FAE, size: 0x8, addend: 0x0, symName: __ZNSt3mapINSt7__cxx1112basic_stringIcSt11char_traitsIcESaIcEEExSt4lessIS5_ESaISt4pairIKS5_xEEEC1Ev, symObjAddr: 0x128, symBinAddr: 0x100001A78, symSize: 0x20 }
  - { offsetInCU: 0x14004, offset: 0x14004, size: 0x8, addend: 0x0, symName: __ZNSt8_Rb_treeINSt7__cxx1112basic_stringIcSt11char_traitsIcESaIcEEESt4pairIKS5_xESt10_Select1stIS8_ESt4lessIS5_ESaIS8_EEC1Ev, symObjAddr: 0x108, symBinAddr: 0x100001A58, symSize: 0x20 }
  - { offsetInCU: 0x14066, offset: 0x14066, size: 0x8, addend: 0x0, symName: __ZNSt8_Rb_treeINSt7__cxx1112basic_stringIcSt11char_traitsIcESaIcEEESt4pairIKS5_xESt10_Select1stIS8_ESt4lessIS5_ESaIS8_EE13_Rb_tree_implISC_Lb1EED1Ev, symObjAddr: 0xDC, symBinAddr: 0x100001A2C, symSize: 0x2C }
  - { offsetInCU: 0x1401C, offset: 0x1401C, size: 0x8, addend: 0x0, symName: __ZNSt15_Rb_tree_header8_M_resetEv, symObjAddr: 0xA0, symBinAddr: 0x1000019F0, symSize: 0x3C }
  - { offsetInCU: 0x14073, offset: 0x14073, size: 0x8, addend: 0x0, symName: __ZNSt15_Rb_tree_headerC2Ev, symObjAddr: 0x78, symBinAddr: 0x1000019C8, symSize: 0x28 }
  - { offsetInCU: 0x1407C, offset: 0x1407C, size: 0x8, addend: 0x0, symName: __ZNSt11char_traitsIcE6lengthEPKc, symObjAddr: 0x38, symBinAddr: 0x100001988, symSize: 0x40 }
  - { offsetInCU: 0x140B1, offset: 0x140B1, size: 0x8, addend: 0x0, symName: __ZdlPvS_, symObjAddr: 0x20, symBinAddr: 0x100001970, symSize: 0x18 }
  - { offsetInCU: 0x140E4, offset: 0x140E4, size: 0x8, addend: 0x0, symName: __ZnwmPv, symObjAddr: 0x8, symBinAddr: 0x100001958, symSize: 0x18 }
  - { offsetInCU: 0x14110, offset: 0x14110, size: 0x8, addend: 0x0, symName: __ZSt23__is_constant_evaluatedv, symObjAddr: 0x0, symBinAddr: 0x100001950, symSize: 0x8 }
...
