---
triple:          'arm64-apple-darwin'
binary-path:     '/Users/dingkai/Code/IOI2024/luogu2.out'
relocations:
  - { offsetInCU: 0x3F, offset: 0x3F, size: 0x8, addend: 0x0, symName: _players, symObjAddr: 0x42C10, symBinAddr: 0x100010000, symSize: 0x0 }
  - { offsetInCU: 0x703F, offset: 0x703F, size: 0x8, addend: 0x0, symName: __ZNSt3__124__put_character_sequenceB7v160006IcNS_11char_traitsIcEEEERNS_13basic_ostreamIT_T0_EES7_PKS4_m, symObjAddr: 0x7E88, symBinAddr: 0x10000AA98, symSize: 0x1EC }
  - { offsetInCU: 0x88F3, offset: 0x88F3, size: 0x8, addend: 0x0, symName: __ZNSt3__1eqB7v160006IcNS_11char_traitsIcEENS_9allocatorIcEEEEbRKNS_12basic_stringIT_T0_T1_EEPKS6_, symObjAddr: 0x40C, symBinAddr: 0x10000301C, symSize: 0xAC }
  - { offsetInCU: 0x895A, offset: 0x895A, size: 0x8, addend: 0x0, symName: __ZNSt3__14findB7v160006INS_15__list_iteratorIcPvEEcEET_S4_S4_RKT0_, symObjAddr: 0x10A0, symBinAddr: 0x100003CB0, symSize: 0x80 }
  - { offsetInCU: 0x89B4, offset: 0x89B4, size: 0x8, addend: 0x0, symName: __ZNSt3__1neB7v160006ERKNS_15__list_iteratorIcPvEES4_, symObjAddr: 0x1178, symBinAddr: 0x100003D88, symSize: 0x34 }
  - { offsetInCU: 0x89F1, offset: 0x89F1, size: 0x8, addend: 0x0, symName: __ZNSt3__1neB7v160006IcNS_11char_traitsIcEENS_9allocatorIcEEEEbRKNS_12basic_stringIT_T0_T1_EEPKS6_, symObjAddr: 0x1A78, symBinAddr: 0x100004688, symSize: 0x34 }
  - { offsetInCU: 0x8A49, offset: 0x8A49, size: 0x8, addend: 0x0, symName: __ZNSt3__1rsB7v160006IcNS_11char_traitsIcEENS_9allocatorIcEEEERNS_13basic_istreamIT_T0_EES9_RNS_12basic_stringIS6_S7_T1_EE, symObjAddr: 0x25A4, symBinAddr: 0x1000051B4, symSize: 0x31C }
  - { offsetInCU: 0x8B18, offset: 0x8B18, size: 0x8, addend: 0x0, symName: __ZNSt3__1rsB7v160006IcNS_11char_traitsIcEEEERNS_13basic_istreamIT_T0_EES7_RS4_, symObjAddr: 0x28C0, symBinAddr: 0x1000054D0, symSize: 0x18C }
  - { offsetInCU: 0x8B9A, offset: 0x8B9A, size: 0x8, addend: 0x0, symName: __ZNSt3__1lsB7v160006IcNS_11char_traitsIcEENS_9allocatorIcEEEERNS_13basic_ostreamIT_T0_EES9_RKNS_12basic_stringIS6_S7_T1_EE, symObjAddr: 0x2A78, symBinAddr: 0x100005688, symSize: 0x4C }
  - { offsetInCU: 0x8BF2, offset: 0x8BF2, size: 0x8, addend: 0x0, symName: __ZNSt3__14endlB7v160006IcNS_11char_traitsIcEEEERNS_13basic_ostreamIT_T0_EES7_, symObjAddr: 0x2AF0, symBinAddr: 0x100005700, symSize: 0x58 }
  - { offsetInCU: 0x8C32, offset: 0x8C32, size: 0x8, addend: 0x0, symName: __ZNSt3__1lsB7v160006INS_11char_traitsIcEEEERNS_13basic_ostreamIcT_EES6_PKc, symObjAddr: 0x2B48, symBinAddr: 0x100005758, symSize: 0x48 }
  - { offsetInCU: 0x8C78, offset: 0x8C78, size: 0x8, addend: 0x0, symName: __ZNSt3__1lsB7v160006INS_11char_traitsIcEEEERNS_13basic_ostreamIcT_EES6_c, symObjAddr: 0x2B90, symBinAddr: 0x1000057A0, symSize: 0x34 }
  - { offsetInCU: 0x8CBE, offset: 0x8CBE, size: 0x8, addend: 0x0, symName: __ZNSt3__119__debug_db_insert_cB7v160006INS_4listIcNS_9allocatorIcEEEEEEvPT_, symObjAddr: 0x2CE8, symBinAddr: 0x1000058F8, symSize: 0x10 }
  - { offsetInCU: 0x8D22, offset: 0x8D22, size: 0x8, addend: 0x0, symName: __ZNSt3__118__debug_db_erase_cB7v160006INS_10__list_impIcNS_9allocatorIcEEEEEEvPT_, symObjAddr: 0x3090, symBinAddr: 0x100005CA0, symSize: 0x10 }
  - { offsetInCU: 0x8D53, offset: 0x8D53, size: 0x8, addend: 0x0, symName: __ZNSt3__125__debug_db_invalidate_allB7v160006INS_10__list_impIcNS_9allocatorIcEEEEEEvPT_, symObjAddr: 0x31F4, symBinAddr: 0x100005E04, symSize: 0x10 }
  - { offsetInCU: 0x8D84, offset: 0x8D84, size: 0x8, addend: 0x0, symName: __ZNSt3__119__libcpp_deallocateB7v160006EPvmm, symObjAddr: 0x3318, symBinAddr: 0x100005F28, symSize: 0x60 }
  - { offsetInCU: 0x8DE9, offset: 0x8DE9, size: 0x8, addend: 0x0, symName: __ZNSt3__124__is_overaligned_for_newB7v160006Em, symObjAddr: 0x3378, symBinAddr: 0x100005F88, symSize: 0x20 }
  - { offsetInCU: 0x8E17, offset: 0x8E17, size: 0x8, addend: 0x0, symName: __ZNSt3__127__do_deallocate_handle_sizeB7v160006IJSt11align_val_tEEEvPvmDpT_, symObjAddr: 0x3398, symBinAddr: 0x100005FA8, symSize: 0x30 }
  - { offsetInCU: 0x8E6A, offset: 0x8E6A, size: 0x8, addend: 0x0, symName: __ZNSt3__127__do_deallocate_handle_sizeB7v160006IJEEEvPvmDpT_, symObjAddr: 0x33C8, symBinAddr: 0x100005FD8, symSize: 0x28 }
  - { offsetInCU: 0x8EA8, offset: 0x8EA8, size: 0x8, addend: 0x0, symName: __ZNSt3__124__libcpp_operator_deleteB7v160006IJPvSt11align_val_tEEEvDpT_, symObjAddr: 0x33F0, symBinAddr: 0x100006000, symSize: 0x2C }
  - { offsetInCU: 0x8EF1, offset: 0x8EF1, size: 0x8, addend: 0x0, symName: __ZNSt3__124__libcpp_operator_deleteB7v160006IJPvEEEvDpT_, symObjAddr: 0x341C, symBinAddr: 0x10000602C, symSize: 0x24 }
  - { offsetInCU: 0x8F26, offset: 0x8F26, size: 0x8, addend: 0x0, symName: __ZNSt3__1neB7v160006ERKNS_16__deque_iteratorIcPcRcPS1_lLl4096EEES6_, symObjAddr: 0x38E0, symBinAddr: 0x1000064F0, symSize: 0x34 }
  - { offsetInCU: 0x8F63, offset: 0x8F63, size: 0x8, addend: 0x0, symName: __ZNSt3__1eqB7v160006ERKNS_16__deque_iteratorIcPcRcPS1_lLl4096EEES6_, symObjAddr: 0x3B58, symBinAddr: 0x100006768, symSize: 0x30 }
  - { offsetInCU: 0x8FA0, offset: 0x8FA0, size: 0x8, addend: 0x0, symName: __ZNSt3__112__to_addressB7v160006IPcEEPT_S3_, symObjAddr: 0x3EAC, symBinAddr: 0x100006ABC, symSize: 0x14 }
  - { offsetInCU: 0x8FD5, offset: 0x8FD5, size: 0x8, addend: 0x0, symName: __ZNSt3__119__debug_db_insert_cB7v160006INS_12basic_stringIcNS_11char_traitsIcEENS_9allocatorIcEEEEEEvPT_, symObjAddr: 0x403C, symBinAddr: 0x100006C4C, symSize: 0x10 }
  - { offsetInCU: 0x9024, offset: 0x9024, size: 0x8, addend: 0x0, symName: __ZNSt3__117__libcpp_allocateB7v160006Emm, symObjAddr: 0x47B4, symBinAddr: 0x1000073C4, symSize: 0x60 }
  - { offsetInCU: 0x907E, offset: 0x907E, size: 0x8, addend: 0x0, symName: __ZNSt3__121__libcpp_operator_newB7v160006IJmSt11align_val_tEEEPvDpT_, symObjAddr: 0x482C, symBinAddr: 0x10000743C, symSize: 0x2C }
  - { offsetInCU: 0x90CB, offset: 0x90CB, size: 0x8, addend: 0x0, symName: __ZNSt3__121__libcpp_operator_newB7v160006IJmEEEPvDpT_, symObjAddr: 0x4858, symBinAddr: 0x100007468, symSize: 0x24 }
  - { offsetInCU: 0x9104, offset: 0x9104, size: 0x8, addend: 0x0, symName: __ZNSt3__112__to_addressB7v160006IcEEPT_S2_, symObjAddr: 0x4C18, symBinAddr: 0x100007828, symSize: 0x14 }
  - { offsetInCU: 0x9139, offset: 0x9139, size: 0x8, addend: 0x0, symName: __ZNSt3__118__constexpr_strlenB7v160006EPKc, symObjAddr: 0x4DD4, symBinAddr: 0x1000079E4, symSize: 0x24 }
  - { offsetInCU: 0x9165, offset: 0x9165, size: 0x8, addend: 0x0, symName: __ZNSt3__1eqB7v160006ERKNS_15__list_iteratorIcPvEES4_, symObjAddr: 0x4F90, symBinAddr: 0x100007BA0, symSize: 0x30 }
  - { offsetInCU: 0x9921, offset: 0x9921, size: 0x8, addend: 0x0, symName: __ZNSt3__19use_facetB7v160006INS_5ctypeIcEEEERKT_RKNS_6localeE, symObjAddr: 0x5160, symBinAddr: 0x100007D70, symSize: 0x2C }
  - { offsetInCU: 0x9D01, offset: 0x9D01, size: 0x8, addend: 0x0, symName: __ZNSt3__125__debug_db_invalidate_allB7v160006INS_12basic_stringIcNS_11char_traitsIcEENS_9allocatorIcEEEEEEvPT_, symObjAddr: 0x543C, symBinAddr: 0x10000804C, symSize: 0x10 }
  - { offsetInCU: 0x9F51, offset: 0x9F51, size: 0x8, addend: 0x0, symName: __ZNSt3__13maxB7v160006ImEERKT_S3_S3_, symObjAddr: 0x62FC, symBinAddr: 0x100008F0C, symSize: 0x2C }
  - { offsetInCU: 0xA3ED, offset: 0xA3ED, size: 0x8, addend: 0x0, symName: __ZNSt3__14swapB7v160006IPPcEENS_9enable_ifIXaasr21is_move_constructibleIT_EE5valuesr18is_move_assignableIS4_EE5valueEvE4typeERS4_S7_, symObjAddr: 0x690C, symBinAddr: 0x10000951C, symSize: 0x3C }
  - { offsetInCU: 0xA43E, offset: 0xA43E, size: 0x8, addend: 0x0, symName: __ZNSt3__14moveB7v160006IPPcS2_EET0_T_S4_S3_, symObjAddr: 0x69F0, symBinAddr: 0x100009600, symSize: 0x40 }
  - { offsetInCU: 0xA4B4, offset: 0xA4B4, size: 0x8, addend: 0x0, symName: __ZNSt3__16__moveB7v160006INS_17_ClassicAlgPolicyEPPcS3_S3_EENS_4pairIT0_T2_EES5_T1_S6_, symObjAddr: 0x6B94, symBinAddr: 0x1000097A4, symSize: 0x44 }
  - { offsetInCU: 0xA520, offset: 0xA520, size: 0x8, addend: 0x0, symName: __ZNSt3__123__dispatch_copy_or_moveB7v160006INS_17_ClassicAlgPolicyENS_11__move_loopIS1_EENS_14__move_trivialEPPcS6_S6_EENS_4pairIT2_T4_EES8_T3_S9_, symObjAddr: 0x6BD8, symBinAddr: 0x1000097E8, symSize: 0x44 }
  - { offsetInCU: 0xA59E, offset: 0xA59E, size: 0x8, addend: 0x0, symName: __ZNSt3__121__unwrap_and_dispatchB7v160006INS_10__overloadINS_11__move_loopINS_17_ClassicAlgPolicyEEENS_14__move_trivialEEEPPcS8_S8_Li0EEENS_4pairIT0_T2_EESA_T1_SB_, symObjAddr: 0x6C1C, symBinAddr: 0x10000982C, symSize: 0xB4 }
  - { offsetInCU: 0xA62C, offset: 0xA62C, size: 0x8, addend: 0x0, symName: __ZNSt3__114__unwrap_rangeB7v160006IPPcS2_EENS_4pairIT0_S4_EET_S6_, symObjAddr: 0x6CD0, symBinAddr: 0x1000098E0, symSize: 0x60 }
  - { offsetInCU: 0xA7F0, offset: 0xA7F0, size: 0x8, addend: 0x0, symName: __ZNSt3__113__unwrap_iterB7v160006IPPcNS_18__unwrap_iter_implIS2_Lb1EEELi0EEEDTclsrT0_8__unwrapclsr3stdE7declvalIT_EEEES6_, symObjAddr: 0x6D78, symBinAddr: 0x100009988, symSize: 0x24 }
  - { offsetInCU: 0xA834, offset: 0xA834, size: 0x8, addend: 0x0, symName: __ZNSt3__19make_pairB7v160006IPPcS2_EENS_4pairINS_18__unwrap_ref_decayIT_E4typeENS4_IT0_E4typeEEEOS5_OS8_, symObjAddr: 0x6D9C, symBinAddr: 0x1000099AC, symSize: 0x38 }
  - { offsetInCU: 0xA883, offset: 0xA883, size: 0x8, addend: 0x0, symName: __ZNSt3__114__rewrap_rangeB7v160006IPPcS2_EET_S3_T0_, symObjAddr: 0x6DD4, symBinAddr: 0x1000099E4, symSize: 0x2C }
  - { offsetInCU: 0xA8CF, offset: 0xA8CF, size: 0x8, addend: 0x0, symName: __ZNSt3__113__rewrap_iterB7v160006IPPcS2_NS_18__unwrap_iter_implIS2_Lb1EEEEET_S5_T0_, symObjAddr: 0x6E00, symBinAddr: 0x100009A10, symSize: 0x3C }
  - { offsetInCU: 0xA924, offset: 0xA924, size: 0x8, addend: 0x0, symName: __ZNSt3__119__copy_trivial_implB7v160006IPcS1_EENS_4pairIPT_PT0_EES4_S4_S6_, symObjAddr: 0x6E3C, symBinAddr: 0x100009A4C, symSize: 0x84 }
  - { offsetInCU: 0xA98C, offset: 0xA98C, size: 0x8, addend: 0x0, symName: __ZNSt3__19make_pairB7v160006IRPPcS2_EENS_4pairINS_18__unwrap_ref_decayIT_E4typeENS5_IT0_E4typeEEEOS6_OS9_, symObjAddr: 0x6EC0, symBinAddr: 0x100009AD0, symSize: 0x38 }
  - { offsetInCU: 0xAA2E, offset: 0xAA2E, size: 0x8, addend: 0x0, symName: __ZNSt3__18distanceB7v160006INS_13move_iteratorIPPcEEEENS_15iterator_traitsIT_E15difference_typeES6_S6_, symObjAddr: 0x704C, symBinAddr: 0x100009C5C, symSize: 0x3C }
  - { offsetInCU: 0xAA71, offset: 0xAA71, size: 0x8, addend: 0x0, symName: __ZNSt3__110__distanceB7v160006INS_13move_iteratorIPPcEEEENS_15iterator_traitsIT_E15difference_typeES6_S6_NS_26random_access_iterator_tagE, symObjAddr: 0x7184, symBinAddr: 0x100009D94, symSize: 0x30 }
  - { offsetInCU: 0xAABE, offset: 0xAABE, size: 0x8, addend: 0x0, symName: __ZNSt3__1miB7v160006IPPcS2_EEDTmicldtfp_4baseEcldtfp0_4baseEERKNS_13move_iteratorIT_EERKNS4_IT0_EE, symObjAddr: 0x71B4, symBinAddr: 0x100009DC4, symSize: 0x48 }
  - { offsetInCU: 0xAB0D, offset: 0xAB0D, size: 0x8, addend: 0x0, symName: __ZNSt3__113move_backwardB7v160006IPPcS2_EET0_T_S4_S3_, symObjAddr: 0x7380, symBinAddr: 0x100009F90, symSize: 0x40 }
  - { offsetInCU: 0xAB67, offset: 0xAB67, size: 0x8, addend: 0x0, symName: __ZNSt3__115__move_backwardB7v160006INS_17_ClassicAlgPolicyEPPcS3_S3_EENS_4pairIT0_T2_EES5_T1_S6_, symObjAddr: 0x73C0, symBinAddr: 0x100009FD0, symSize: 0x44 }
  - { offsetInCU: 0xABD3, offset: 0xABD3, size: 0x8, addend: 0x0, symName: __ZNSt3__123__dispatch_copy_or_moveB7v160006INS_17_ClassicAlgPolicyENS_20__move_backward_loopIS1_EENS_23__move_backward_trivialEPPcS6_S6_EENS_4pairIT2_T4_EES8_T3_S9_, symObjAddr: 0x7404, symBinAddr: 0x10000A014, symSize: 0x44 }
  - { offsetInCU: 0xAC51, offset: 0xAC51, size: 0x8, addend: 0x0, symName: __ZNSt3__121__unwrap_and_dispatchB7v160006INS_10__overloadINS_20__move_backward_loopINS_17_ClassicAlgPolicyEEENS_23__move_backward_trivialEEEPPcS8_S8_Li0EEENS_4pairIT0_T2_EESA_T1_SB_, symObjAddr: 0x7448, symBinAddr: 0x10000A058, symSize: 0xB4 }
  - { offsetInCU: 0xAD25, offset: 0xAD25, size: 0x8, addend: 0x0, symName: __ZNSt3__128__copy_backward_trivial_implB7v160006IPcS1_EENS_4pairIPT_PT0_EES4_S4_S6_, symObjAddr: 0x7544, symBinAddr: 0x10000A154, symSize: 0x94 }
  - { offsetInCU: 0xAD8D, offset: 0xAD8D, size: 0x8, addend: 0x0, symName: __ZNSt3__19make_pairB7v160006IRPPcS3_EENS_4pairINS_18__unwrap_ref_decayIT_E4typeENS5_IT0_E4typeEEEOS6_OS9_, symObjAddr: 0x75D8, symBinAddr: 0x10000A1E8, symSize: 0x38 }
  - { offsetInCU: 0xADDC, offset: 0xADDC, size: 0x8, addend: 0x0, symName: __ZNSt3__13maxB7v160006ImNS_6__lessImmEEEERKT_S5_S5_T0_, symObjAddr: 0x7680, symBinAddr: 0x10000A290, symSize: 0x54 }
  - { offsetInCU: 0xAE71, offset: 0xAE71, size: 0x8, addend: 0x0, symName: __ZNSt3__119__allocate_at_leastB7v160006INS_9allocatorIPcEEEENS_19__allocation_resultINS_16allocator_traitsIT_E7pointerEEERS6_m, symObjAddr: 0x7818, symBinAddr: 0x10000A428, symSize: 0x40 }
  - { offsetInCU: 0xAEB4, offset: 0xAEB4, size: 0x8, addend: 0x0, symName: __ZNSt3__116__pad_and_outputB7v160006IcNS_11char_traitsIcEEEENS_19ostreambuf_iteratorIT_T0_EES6_PKS4_S8_S8_RNS_8ios_baseES4_, symObjAddr: 0x80B8, symBinAddr: 0x10000ACC8, symSize: 0x240 }
  - { offsetInCU: 0xAF83, offset: 0xAF83, size: 0x8, addend: 0x0, symName: __ZNSt3__112__to_addressB7v160006IKcEEPT_S3_, symObjAddr: 0x8624, symBinAddr: 0x10000B234, symSize: 0x14 }
  - { offsetInCU: 0xB19E, offset: 0xB19E, size: 0x8, addend: 0x0, symName: __ZSt28__throw_bad_array_new_lengthB7v160006v, symObjAddr: 0x4780, symBinAddr: 0x100007390, symSize: 0x34 }
  - { offsetInCU: 0xB588, offset: 0xB588, size: 0x8, addend: 0x0, symName: _cardQue, symObjAddr: 0x42FD0, symBinAddr: 0x1000103C0, symSize: 0x0 }
  - { offsetInCU: 0xB753, offset: 0xB753, size: 0x8, addend: 0x0, symName: _recognizedRoles, symObjAddr: 0x43000, symBinAddr: 0x1000103F0, symSize: 0x0 }
  - { offsetInCU: 0xB774, offset: 0xB774, size: 0x8, addend: 0x0, symName: _winner, symObjAddr: 0x43168, symBinAddr: 0x100010558, symSize: 0x0 }
  - { offsetInCU: 0xDC4F, offset: 0xDC4F, size: 0x8, addend: 0x0, symName: __ZN10CardPlayerC1Ev, symObjAddr: 0x0, symBinAddr: 0x100002C10, symSize: 0x2C }
  - { offsetInCU: 0xDC7B, offset: 0xDC7B, size: 0x8, addend: 0x0, symName: __ZN10CardPlayerD1Ev, symObjAddr: 0x2C, symBinAddr: 0x100002C3C, symSize: 0x2C }
  - { offsetInCU: 0xDCA7, offset: 0xDCA7, size: 0x8, addend: 0x0, symName: __ZNSt3__15queueIcNS_5dequeIcNS_9allocatorIcEEEEEC1B7v160006Ev, symObjAddr: 0x58, symBinAddr: 0x100002C68, symSize: 0x2C }
  - { offsetInCU: 0xDCD1, offset: 0xDCD1, size: 0x8, addend: 0x0, symName: __ZNSt3__15queueIcNS_5dequeIcNS_9allocatorIcEEEEED1Ev, symObjAddr: 0x84, symBinAddr: 0x100002C94, symSize: 0x2C }
  - { offsetInCU: 0xDCFE, offset: 0xDCFE, size: 0x8, addend: 0x0, symName: __ZNSt3__112basic_stringIcNS_11char_traitsIcEENS_9allocatorIcEEEC1B7v160006Ev, symObjAddr: 0xB0, symBinAddr: 0x100002CC0, symSize: 0x2C }
  - { offsetInCU: 0xDD28, offset: 0xDD28, size: 0x8, addend: 0x0, symName: __Z8getCardsii, symObjAddr: 0xDC, symBinAddr: 0x100002CEC, symSize: 0xA0 }
  - { offsetInCU: 0xDD5F, offset: 0xDD5F, size: 0x8, addend: 0x0, symName: __ZNSt3__14listIcNS_9allocatorIcEEE9push_backERKc, symObjAddr: 0x17C, symBinAddr: 0x100002D8C, symSize: 0xF4 }
  - { offsetInCU: 0xDDB4, offset: 0xDDB4, size: 0x8, addend: 0x0, symName: __ZNSt3__15queueIcNS_5dequeIcNS_9allocatorIcEEEEE5frontB7v160006Ev, symObjAddr: 0x270, symBinAddr: 0x100002E80, symSize: 0x24 }
  - { offsetInCU: 0xDDDA, offset: 0xDDDA, size: 0x8, addend: 0x0, symName: __ZNKSt3__15queueIcNS_5dequeIcNS_9allocatorIcEEEEE4sizeB7v160006Ev, symObjAddr: 0x294, symBinAddr: 0x100002EA4, symSize: 0x24 }
  - { offsetInCU: 0xDE00, offset: 0xDE00, size: 0x8, addend: 0x0, symName: __ZNSt3__15queueIcNS_5dequeIcNS_9allocatorIcEEEEE3popB7v160006Ev, symObjAddr: 0x2B8, symBinAddr: 0x100002EC8, symSize: 0x24 }
  - { offsetInCU: 0xDE25, offset: 0xDE25, size: 0x8, addend: 0x0, symName: __Z8gameOverv, symObjAddr: 0x2DC, symBinAddr: 0x100002EEC, symSize: 0x104 }
  - { offsetInCU: 0xDE6E, offset: 0xDE6E, size: 0x8, addend: 0x0, symName: __ZNSt3__112basic_stringIcNS_11char_traitsIcEENS_9allocatorIcEEEaSB7v160006EPKc, symObjAddr: 0x3E0, symBinAddr: 0x100002FF0, symSize: 0x2C }
  - { offsetInCU: 0xDEA2, offset: 0xDEA2, size: 0x8, addend: 0x0, symName: __Z4deadii, symObjAddr: 0x4B8, symBinAddr: 0x1000030C8, symSize: 0x15C }
  - { offsetInCU: 0xDEDD, offset: 0xDEDD, size: 0x8, addend: 0x0, symName: __ZNSt3__14listIcNS_9allocatorIcEEE5clearB7v160006Ev, symObjAddr: 0x614, symBinAddr: 0x100003224, symSize: 0x24 }
  - { offsetInCU: 0xDF02, offset: 0xDF02, size: 0x8, addend: 0x0, symName: __Z23expressHostilityForKOrFii, symObjAddr: 0x638, symBinAddr: 0x100003248, symSize: 0x3C4 }
  - { offsetInCU: 0xDF4A, offset: 0xDF4A, size: 0x8, addend: 0x0, symName: __Z11expressGoodii, symObjAddr: 0x9FC, symBinAddr: 0x10000360C, symSize: 0x214 }
  - { offsetInCU: 0xDF84, offset: 0xDF84, size: 0x8, addend: 0x0, symName: __Z16expressHostilityii, symObjAddr: 0xC10, symBinAddr: 0x100003820, symSize: 0x2F8 }
  - { offsetInCU: 0xDFBE, offset: 0xDFBE, size: 0x8, addend: 0x0, symName: __Z21expressHostilityRoundi, symObjAddr: 0xF08, symBinAddr: 0x100003B18, symSize: 0x198 }
  - { offsetInCU: 0xE015, offset: 0xE015, size: 0x8, addend: 0x0, symName: __ZNSt3__14listIcNS_9allocatorIcEEE5beginB7v160006Ev, symObjAddr: 0x1120, symBinAddr: 0x100003D30, symSize: 0x2C }
  - { offsetInCU: 0xE03B, offset: 0xE03B, size: 0x8, addend: 0x0, symName: __ZNSt3__14listIcNS_9allocatorIcEEE3endB7v160006Ev, symObjAddr: 0x114C, symBinAddr: 0x100003D5C, symSize: 0x2C }
  - { offsetInCU: 0xE061, offset: 0xE061, size: 0x8, addend: 0x0, symName: __ZNSt3__14listIcNS_9allocatorIcEEE5eraseENS_21__list_const_iteratorIcPvEE, symObjAddr: 0x11AC, symBinAddr: 0x100003DBC, symSize: 0xA4 }
  - { offsetInCU: 0xE0D4, offset: 0xE0D4, size: 0x8, addend: 0x0, symName: __ZNSt3__121__list_const_iteratorIcPvEC1B7v160006ERKNS_15__list_iteratorIcS1_EE, symObjAddr: 0x1250, symBinAddr: 0x100003E60, symSize: 0x34 }
  - { offsetInCU: 0xE10C, offset: 0xE10C, size: 0x8, addend: 0x0, symName: __Z16expressGoodRoundii, symObjAddr: 0x1284, symBinAddr: 0x100003E94, symSize: 0x1B0 }
  - { offsetInCU: 0xE171, offset: 0xE171, size: 0x8, addend: 0x0, symName: __Z1PiRNSt3__115__list_iteratorIcPvEE, symObjAddr: 0x1434, symBinAddr: 0x100004044, symSize: 0xB4 }
  - { offsetInCU: 0xE1A8, offset: 0xE1A8, size: 0x8, addend: 0x0, symName: __ZNSt3__115__list_iteratorIcPvEppB7v160006Ei, symObjAddr: 0x14E8, symBinAddr: 0x1000040F8, symSize: 0x34 }
  - { offsetInCU: 0xE1E8, offset: 0xE1E8, size: 0x8, addend: 0x0, symName: __Z7minusHPii, symObjAddr: 0x151C, symBinAddr: 0x10000412C, symSize: 0x188 }
  - { offsetInCU: 0xE23E, offset: 0xE23E, size: 0x8, addend: 0x0, symName: __Z13forcedKillOrDiic, symObjAddr: 0x16A4, symBinAddr: 0x1000042B4, symSize: 0x108 }
  - { offsetInCU: 0xE294, offset: 0xE294, size: 0x8, addend: 0x0, symName: __Z1Fi, symObjAddr: 0x17AC, symBinAddr: 0x1000043BC, symSize: 0x2CC }
  - { offsetInCU: 0xE2F8, offset: 0xE2F8, size: 0x8, addend: 0x0, symName: __Z10activeKilli, symObjAddr: 0x1AAC, symBinAddr: 0x1000046BC, symSize: 0xD4 }
  - { offsetInCU: 0xE343, offset: 0xE343, size: 0x8, addend: 0x0, symName: __Z4NorWiRNSt3__115__list_iteratorIcPvEEc, symObjAddr: 0x1B80, symBinAddr: 0x100004790, symSize: 0x11C }
  - { offsetInCU: 0xE3BB, offset: 0xE3BB, size: 0x8, addend: 0x0, symName: __Z9gameRoundi, symObjAddr: 0x1C9C, symBinAddr: 0x1000048AC, symSize: 0x4C4 }
  - { offsetInCU: 0xE408, offset: 0xE408, size: 0x8, addend: 0x0, symName: __ZNKSt3__14listIcNS_9allocatorIcEEE5emptyB7v160006Ev, symObjAddr: 0x21BC, symBinAddr: 0x100004DCC, symSize: 0x28 }
  - { offsetInCU: 0xE42E, offset: 0xE42E, size: 0x8, addend: 0x0, symName: __ZNKSt3__115__list_iteratorIcPvEdeB7v160006Ev, symObjAddr: 0x21E4, symBinAddr: 0x100004DF4, symSize: 0x2C }
  - { offsetInCU: 0xE454, offset: 0xE454, size: 0x8, addend: 0x0, symName: _main, symObjAddr: 0x2210, symBinAddr: 0x100004E20, symSize: 0x394 }
  - { offsetInCU: 0xE59D, offset: 0xE59D, size: 0x8, addend: 0x0, symName: __ZNSt3__15queueIcNS_5dequeIcNS_9allocatorIcEEEEE4pushB7v160006ERKc, symObjAddr: 0x2A4C, symBinAddr: 0x10000565C, symSize: 0x2C }
  - { offsetInCU: 0xE5D2, offset: 0xE5D2, size: 0x8, addend: 0x0, symName: __ZNSt3__113basic_ostreamIcNS_11char_traitsIcEEElsB7v160006EPFRS3_S4_E, symObjAddr: 0x2AC4, symBinAddr: 0x1000056D4, symSize: 0x2C }
  - { offsetInCU: 0xE606, offset: 0xE606, size: 0x8, addend: 0x0, symName: __ZNSt3__115__list_iteratorIcPvEppB7v160006Ev, symObjAddr: 0x2BC4, symBinAddr: 0x1000057D4, symSize: 0x20 }
  - { offsetInCU: 0xE62C, offset: 0xE62C, size: 0x8, addend: 0x0, symName: __ZN10CardPlayerC2Ev, symObjAddr: 0x2BE4, symBinAddr: 0x1000057F4, symSize: 0x4C }
  - { offsetInCU: 0xE658, offset: 0xE658, size: 0x8, addend: 0x0, symName: __ZNSt3__14listIcNS_9allocatorIcEEEC1B7v160006Ev, symObjAddr: 0x2C30, symBinAddr: 0x100005840, symSize: 0x2C }
  - { offsetInCU: 0xE682, offset: 0xE682, size: 0x8, addend: 0x0, symName: __ZNSt3__14listIcNS_9allocatorIcEEEC2B7v160006Ev, symObjAddr: 0x2C5C, symBinAddr: 0x10000586C, symSize: 0x3C }
  - { offsetInCU: 0xE6AC, offset: 0xE6AC, size: 0x8, addend: 0x0, symName: __ZNSt3__110__list_impIcNS_9allocatorIcEEEC2Ev, symObjAddr: 0x2C98, symBinAddr: 0x1000058A8, symSize: 0x50 }
  - { offsetInCU: 0xE6D8, offset: 0xE6D8, size: 0x8, addend: 0x0, symName: __ZNSt3__116__list_node_baseIcPvEC1B7v160006Ev, symObjAddr: 0x2D04, symBinAddr: 0x100005914, symSize: 0x2C }
  - { offsetInCU: 0xE70C, offset: 0xE70C, size: 0x8, addend: 0x0, symName: __ZNSt3__117__compressed_pairImNS_9allocatorINS_11__list_nodeIcPvEEEEEC1B7v160006IiNS_18__default_init_tagEEEOT_OT0_, symObjAddr: 0x2D30, symBinAddr: 0x100005940, symSize: 0x3C }
  - { offsetInCU: 0xE764, offset: 0xE764, size: 0x8, addend: 0x0, symName: __ZNSt3__116__list_node_baseIcPvEC2B7v160006Ev, symObjAddr: 0x2D6C, symBinAddr: 0x10000597C, symSize: 0x4C }
  - { offsetInCU: 0xE78E, offset: 0xE78E, size: 0x8, addend: 0x0, symName: __ZNSt3__126__list_node_pointer_traitsIcPvE26__unsafe_link_pointer_castB7v160006EPNS_16__list_node_baseIcS1_EE, symObjAddr: 0x2DB8, symBinAddr: 0x1000059C8, symSize: 0x14 }
  - { offsetInCU: 0xE7B2, offset: 0xE7B2, size: 0x8, addend: 0x0, symName: __ZNSt3__116__list_node_baseIcPvE6__selfB7v160006Ev, symObjAddr: 0x2DCC, symBinAddr: 0x1000059DC, symSize: 0x24 }
  - { offsetInCU: 0xE7DD, offset: 0xE7DD, size: 0x8, addend: 0x0, symName: __ZNSt3__114pointer_traitsIPNS_16__list_node_baseIcPvEEE10pointer_toB7v160006ERS3_, symObjAddr: 0x2DF0, symBinAddr: 0x100005A00, symSize: 0x14 }
  - { offsetInCU: 0xE800, offset: 0xE800, size: 0x8, addend: 0x0, symName: __ZNSt3__117__compressed_pairImNS_9allocatorINS_11__list_nodeIcPvEEEEEC2B7v160006IiNS_18__default_init_tagEEEOT_OT0_, symObjAddr: 0x2E04, symBinAddr: 0x100005A14, symSize: 0x40 }
  - { offsetInCU: 0xE858, offset: 0xE858, size: 0x8, addend: 0x0, symName: __ZNSt3__122__compressed_pair_elemImLi0ELb0EEC2B7v160006IivEEOT_, symObjAddr: 0x2E44, symBinAddr: 0x100005A54, symSize: 0x24 }
  - { offsetInCU: 0xE89A, offset: 0xE89A, size: 0x8, addend: 0x0, symName: __ZNSt3__122__compressed_pair_elemINS_9allocatorINS_11__list_nodeIcPvEEEELi1ELb1EEC2B7v160006ENS_18__default_init_tagE, symObjAddr: 0x2E68, symBinAddr: 0x100005A78, symSize: 0x2C }
  - { offsetInCU: 0xE8CE, offset: 0xE8CE, size: 0x8, addend: 0x0, symName: __ZNSt3__19allocatorINS_11__list_nodeIcPvEEEC2B7v160006Ev, symObjAddr: 0x2E94, symBinAddr: 0x100005AA4, symSize: 0x2C }
  - { offsetInCU: 0xE8F8, offset: 0xE8F8, size: 0x8, addend: 0x0, symName: __ZNSt3__116__non_trivial_ifILb1ENS_9allocatorINS_11__list_nodeIcPvEEEEEC2B7v160006Ev, symObjAddr: 0x2EC0, symBinAddr: 0x100005AD0, symSize: 0x14 }
  - { offsetInCU: 0xE922, offset: 0xE922, size: 0x8, addend: 0x0, symName: __ZN10CardPlayerD2Ev, symObjAddr: 0x2ED4, symBinAddr: 0x100005AE4, symSize: 0x3C }
  - { offsetInCU: 0xE94E, offset: 0xE94E, size: 0x8, addend: 0x0, symName: __ZNSt3__14listIcNS_9allocatorIcEEED1Ev, symObjAddr: 0x2F10, symBinAddr: 0x100005B20, symSize: 0x2C }
  - { offsetInCU: 0xE97B, offset: 0xE97B, size: 0x8, addend: 0x0, symName: __ZNSt3__14listIcNS_9allocatorIcEEED2Ev, symObjAddr: 0x2F3C, symBinAddr: 0x100005B4C, symSize: 0x2C }
  - { offsetInCU: 0xE9A8, offset: 0xE9A8, size: 0x8, addend: 0x0, symName: __ZNSt3__110__list_impIcNS_9allocatorIcEEED2Ev, symObjAddr: 0x2F68, symBinAddr: 0x100005B78, symSize: 0x3C }
  - { offsetInCU: 0xE9D4, offset: 0xE9D4, size: 0x8, addend: 0x0, symName: __ZNSt3__110__list_impIcNS_9allocatorIcEEE5clearEv, symObjAddr: 0x2FA4, symBinAddr: 0x100005BB4, symSize: 0xEC }
  - { offsetInCU: 0xEA44, offset: 0xEA44, size: 0x8, addend: 0x0, symName: __ZNKSt3__110__list_impIcNS_9allocatorIcEEE5emptyB7v160006Ev, symObjAddr: 0x30A0, symBinAddr: 0x100005CB0, symSize: 0x34 }
  - { offsetInCU: 0xEA6A, offset: 0xEA6A, size: 0x8, addend: 0x0, symName: __ZNSt3__110__list_impIcNS_9allocatorIcEEE12__node_allocB7v160006Ev, symObjAddr: 0x30D4, symBinAddr: 0x100005CE4, symSize: 0x28 }
  - { offsetInCU: 0xEA90, offset: 0xEA90, size: 0x8, addend: 0x0, symName: __ZNKSt3__110__list_impIcNS_9allocatorIcEEE13__end_as_linkB7v160006Ev, symObjAddr: 0x30FC, symBinAddr: 0x100005D0C, symSize: 0x28 }
  - { offsetInCU: 0xEAB6, offset: 0xEAB6, size: 0x8, addend: 0x0, symName: __ZNSt3__110__list_impIcNS_9allocatorIcEEE14__unlink_nodesEPNS_16__list_node_baseIcPvEES7_, symObjAddr: 0x3124, symBinAddr: 0x100005D34, symSize: 0x3C }
  - { offsetInCU: 0xEAEB, offset: 0xEAEB, size: 0x8, addend: 0x0, symName: __ZNSt3__110__list_impIcNS_9allocatorIcEEE4__szB7v160006Ev, symObjAddr: 0x3160, symBinAddr: 0x100005D70, symSize: 0x28 }
  - { offsetInCU: 0xEB11, offset: 0xEB11, size: 0x8, addend: 0x0, symName: __ZNSt3__116__list_node_baseIcPvE9__as_nodeB7v160006Ev, symObjAddr: 0x3188, symBinAddr: 0x100005D98, symSize: 0x24 }
  - { offsetInCU: 0xEB37, offset: 0xEB37, size: 0x8, addend: 0x0, symName: __ZNSt3__116allocator_traitsINS_9allocatorINS_11__list_nodeIcPvEEEEE7destroyB7v160006IcvvEEvRS5_PT_, symObjAddr: 0x31AC, symBinAddr: 0x100005DBC, symSize: 0x14 }
  - { offsetInCU: 0xEB72, offset: 0xEB72, size: 0x8, addend: 0x0, symName: __ZNSt3__116allocator_traitsINS_9allocatorINS_11__list_nodeIcPvEEEEE10deallocateB7v160006ERS5_PS4_m, symObjAddr: 0x31C0, symBinAddr: 0x100005DD0, symSize: 0x34 }
  - { offsetInCU: 0xEBB4, offset: 0xEBB4, size: 0x8, addend: 0x0, symName: __ZNKSt3__110__list_impIcNS_9allocatorIcEEE4__szB7v160006Ev, symObjAddr: 0x3204, symBinAddr: 0x100005E14, symSize: 0x28 }
  - { offsetInCU: 0xEBDA, offset: 0xEBDA, size: 0x8, addend: 0x0, symName: __ZNKSt3__117__compressed_pairImNS_9allocatorINS_11__list_nodeIcPvEEEEE5firstB7v160006Ev, symObjAddr: 0x322C, symBinAddr: 0x100005E3C, symSize: 0x24 }
  - { offsetInCU: 0xEC00, offset: 0xEC00, size: 0x8, addend: 0x0, symName: __ZNKSt3__122__compressed_pair_elemImLi0ELb0EE5__getB7v160006Ev, symObjAddr: 0x3250, symBinAddr: 0x100005E60, symSize: 0x14 }
  - { offsetInCU: 0xEC26, offset: 0xEC26, size: 0x8, addend: 0x0, symName: __ZNSt3__117__compressed_pairImNS_9allocatorINS_11__list_nodeIcPvEEEEE6secondB7v160006Ev, symObjAddr: 0x3264, symBinAddr: 0x100005E74, symSize: 0x24 }
  - { offsetInCU: 0xEC4C, offset: 0xEC4C, size: 0x8, addend: 0x0, symName: __ZNSt3__122__compressed_pair_elemINS_9allocatorINS_11__list_nodeIcPvEEEELi1ELb1EE5__getB7v160006Ev, symObjAddr: 0x3288, symBinAddr: 0x100005E98, symSize: 0x14 }
  - { offsetInCU: 0xEC72, offset: 0xEC72, size: 0x8, addend: 0x0, symName: __ZNSt3__117__compressed_pairImNS_9allocatorINS_11__list_nodeIcPvEEEEE5firstB7v160006Ev, symObjAddr: 0x329C, symBinAddr: 0x100005EAC, symSize: 0x24 }
  - { offsetInCU: 0xEC98, offset: 0xEC98, size: 0x8, addend: 0x0, symName: __ZNSt3__122__compressed_pair_elemImLi0ELb0EE5__getB7v160006Ev, symObjAddr: 0x32C0, symBinAddr: 0x100005ED0, symSize: 0x14 }
  - { offsetInCU: 0xECBE, offset: 0xECBE, size: 0x8, addend: 0x0, symName: __ZNSt3__19allocatorINS_11__list_nodeIcPvEEE10deallocateB7v160006EPS3_m, symObjAddr: 0x32D4, symBinAddr: 0x100005EE4, symSize: 0x44 }
  - { offsetInCU: 0xED00, offset: 0xED00, size: 0x8, addend: 0x0, symName: __ZNSt3__15queueIcNS_5dequeIcNS_9allocatorIcEEEEED2Ev, symObjAddr: 0x3440, symBinAddr: 0x100006050, symSize: 0x2C }
  - { offsetInCU: 0xED2D, offset: 0xED2D, size: 0x8, addend: 0x0, symName: __ZNSt3__15dequeIcNS_9allocatorIcEEED1B7v160006Ev, symObjAddr: 0x346C, symBinAddr: 0x10000607C, symSize: 0x2C }
  - { offsetInCU: 0xED57, offset: 0xED57, size: 0x8, addend: 0x0, symName: __ZNSt3__15dequeIcNS_9allocatorIcEEED2B7v160006Ev, symObjAddr: 0x3498, symBinAddr: 0x1000060A8, symSize: 0x9C }
  - { offsetInCU: 0xEDAD, offset: 0xEDAD, size: 0x8, addend: 0x0, symName: __ZNSt3__15dequeIcNS_9allocatorIcEEE5clearEv, symObjAddr: 0x3534, symBinAddr: 0x100006144, symSize: 0x180 }
  - { offsetInCU: 0xEE08, offset: 0xEE08, size: 0x8, addend: 0x0, symName: __ZNSt3__114__split_bufferIPcNS_9allocatorIS1_EEE5beginB7v160006Ev, symObjAddr: 0x36B4, symBinAddr: 0x1000062C4, symSize: 0x18 }
  - { offsetInCU: 0xEE2E, offset: 0xEE2E, size: 0x8, addend: 0x0, symName: __ZNSt3__114__split_bufferIPcNS_9allocatorIS1_EEE3endB7v160006Ev, symObjAddr: 0x36CC, symBinAddr: 0x1000062DC, symSize: 0x18 }
  - { offsetInCU: 0xEE54, offset: 0xEE54, size: 0x8, addend: 0x0, symName: __ZNSt3__116allocator_traitsINS_9allocatorIcEEE10deallocateB7v160006ERS2_Pcm, symObjAddr: 0x36E4, symBinAddr: 0x1000062F4, symSize: 0x34 }
  - { offsetInCU: 0xEE96, offset: 0xEE96, size: 0x8, addend: 0x0, symName: __ZNSt3__15dequeIcNS_9allocatorIcEEE7__allocB7v160006Ev, symObjAddr: 0x3718, symBinAddr: 0x100006328, symSize: 0x28 }
  - { offsetInCU: 0xEEBC, offset: 0xEEBC, size: 0x8, addend: 0x0, symName: __ZNSt3__114__split_bufferIPcNS_9allocatorIS1_EEED1Ev, symObjAddr: 0x3740, symBinAddr: 0x100006350, symSize: 0x2C }
  - { offsetInCU: 0xEEE8, offset: 0xEEE8, size: 0x8, addend: 0x0, symName: __ZNSt3__15dequeIcNS_9allocatorIcEEE5beginB7v160006Ev, symObjAddr: 0x376C, symBinAddr: 0x10000637C, symSize: 0xB8 }
  - { offsetInCU: 0xEF1D, offset: 0xEF1D, size: 0x8, addend: 0x0, symName: __ZNSt3__15dequeIcNS_9allocatorIcEEE3endB7v160006Ev, symObjAddr: 0x3824, symBinAddr: 0x100006434, symSize: 0xBC }
  - { offsetInCU: 0xEF61, offset: 0xEF61, size: 0x8, addend: 0x0, symName: __ZNSt3__116allocator_traitsINS_9allocatorIcEEE7destroyB7v160006IcvEEvRS2_PT_, symObjAddr: 0x3914, symBinAddr: 0x100006524, symSize: 0x2C }
  - { offsetInCU: 0xEF9E, offset: 0xEF9E, size: 0x8, addend: 0x0, symName: __ZNKSt3__116__deque_iteratorIcPcRcPS1_lLl4096EEdeB7v160006Ev, symObjAddr: 0x3940, symBinAddr: 0x100006550, symSize: 0x18 }
  - { offsetInCU: 0xEFC4, offset: 0xEFC4, size: 0x8, addend: 0x0, symName: __ZNSt3__116__deque_iteratorIcPcRcPS1_lLl4096EEppB7v160006Ev, symObjAddr: 0x3958, symBinAddr: 0x100006568, symSize: 0x68 }
  - { offsetInCU: 0xEFEA, offset: 0xEFEA, size: 0x8, addend: 0x0, symName: __ZNSt3__15dequeIcNS_9allocatorIcEEE6__sizeB7v160006Ev, symObjAddr: 0x39C0, symBinAddr: 0x1000065D0, symSize: 0x28 }
  - { offsetInCU: 0xF010, offset: 0xF010, size: 0x8, addend: 0x0, symName: __ZNKSt3__114__split_bufferIPcNS_9allocatorIS1_EEE4sizeB7v160006Ev, symObjAddr: 0x39E8, symBinAddr: 0x1000065F8, symSize: 0x28 }
  - { offsetInCU: 0xF036, offset: 0xF036, size: 0x8, addend: 0x0, symName: __ZNSt3__114__split_bufferIPcNS_9allocatorIS1_EEE5frontB7v160006Ev, symObjAddr: 0x3A10, symBinAddr: 0x100006620, symSize: 0x18 }
  - { offsetInCU: 0xF05C, offset: 0xF05C, size: 0x8, addend: 0x0, symName: __ZNSt3__114__split_bufferIPcNS_9allocatorIS1_EEE9pop_frontB7v160006Ev, symObjAddr: 0x3A28, symBinAddr: 0x100006638, symSize: 0x2C }
  - { offsetInCU: 0xF082, offset: 0xF082, size: 0x8, addend: 0x0, symName: __ZNKSt3__114__split_bufferIPcNS_9allocatorIS1_EEE5emptyB7v160006Ev, symObjAddr: 0x3A54, symBinAddr: 0x100006664, symSize: 0x28 }
  - { offsetInCU: 0xF0A8, offset: 0xF0A8, size: 0x8, addend: 0x0, symName: __ZNSt3__116__deque_iteratorIcPcRcPS1_lLl4096EEC1B7v160006ES3_S1_, symObjAddr: 0x3A7C, symBinAddr: 0x10000668C, symSize: 0x3C }
  - { offsetInCU: 0xF0F0, offset: 0xF0F0, size: 0x8, addend: 0x0, symName: __ZNSt3__116__deque_iteratorIcPcRcPS1_lLl4096EEC2B7v160006ES3_S1_, symObjAddr: 0x3AB8, symBinAddr: 0x1000066C8, symSize: 0x2C }
  - { offsetInCU: 0xF138, offset: 0xF138, size: 0x8, addend: 0x0, symName: __ZNKSt3__15dequeIcNS_9allocatorIcEEE4sizeB7v160006Ev, symObjAddr: 0x3AE4, symBinAddr: 0x1000066F4, symSize: 0x28 }
  - { offsetInCU: 0xF15E, offset: 0xF15E, size: 0x8, addend: 0x0, symName: __ZNKSt3__15dequeIcNS_9allocatorIcEEE6__sizeB7v160006Ev, symObjAddr: 0x3B0C, symBinAddr: 0x10000671C, symSize: 0x28 }
  - { offsetInCU: 0xF184, offset: 0xF184, size: 0x8, addend: 0x0, symName: __ZNKSt3__117__compressed_pairImNS_9allocatorIcEEE5firstB7v160006Ev, symObjAddr: 0x3B34, symBinAddr: 0x100006744, symSize: 0x24 }
  - { offsetInCU: 0xF1AA, offset: 0xF1AA, size: 0x8, addend: 0x0, symName: __ZNSt3__19allocatorIcE7destroyB7v160006EPc, symObjAddr: 0x3B88, symBinAddr: 0x100006798, symSize: 0x14 }
  - { offsetInCU: 0xF1DE, offset: 0xF1DE, size: 0x8, addend: 0x0, symName: __ZNSt3__117__compressed_pairImNS_9allocatorIcEEE5firstB7v160006Ev, symObjAddr: 0x3B9C, symBinAddr: 0x1000067AC, symSize: 0x24 }
  - { offsetInCU: 0xF204, offset: 0xF204, size: 0x8, addend: 0x0, symName: __ZNSt3__114__split_bufferIPcNS_9allocatorIS1_EEE19__destruct_at_beginB7v160006EPS1_, symObjAddr: 0x3BC0, symBinAddr: 0x1000067D0, symSize: 0x2C }
  - { offsetInCU: 0xF238, offset: 0xF238, size: 0x8, addend: 0x0, symName: __ZNSt3__114__split_bufferIPcNS_9allocatorIS1_EEE19__destruct_at_beginEPS1_NS_17integral_constantIbLb1EEE, symObjAddr: 0x3BEC, symBinAddr: 0x1000067FC, symSize: 0x20 }
  - { offsetInCU: 0xF278, offset: 0xF278, size: 0x8, addend: 0x0, symName: __ZNSt3__19allocatorIcE10deallocateB7v160006EPcm, symObjAddr: 0x3C0C, symBinAddr: 0x10000681C, symSize: 0x40 }
  - { offsetInCU: 0xF2BA, offset: 0xF2BA, size: 0x8, addend: 0x0, symName: __ZNSt3__117__compressed_pairImNS_9allocatorIcEEE6secondB7v160006Ev, symObjAddr: 0x3C4C, symBinAddr: 0x10000685C, symSize: 0x24 }
  - { offsetInCU: 0xF2E0, offset: 0xF2E0, size: 0x8, addend: 0x0, symName: __ZNSt3__122__compressed_pair_elemINS_9allocatorIcEELi1ELb1EE5__getB7v160006Ev, symObjAddr: 0x3C70, symBinAddr: 0x100006880, symSize: 0x14 }
  - { offsetInCU: 0xF306, offset: 0xF306, size: 0x8, addend: 0x0, symName: __ZNSt3__114__split_bufferIPcNS_9allocatorIS1_EEED2Ev, symObjAddr: 0x3C84, symBinAddr: 0x100006894, symSize: 0x8C }
  - { offsetInCU: 0xF332, offset: 0xF332, size: 0x8, addend: 0x0, symName: __ZNSt3__114__split_bufferIPcNS_9allocatorIS1_EEE5clearB7v160006Ev, symObjAddr: 0x3D10, symBinAddr: 0x100006920, symSize: 0x28 }
  - { offsetInCU: 0xF358, offset: 0xF358, size: 0x8, addend: 0x0, symName: __ZNSt3__116allocator_traitsINS_9allocatorIPcEEE10deallocateB7v160006ERS3_PS2_m, symObjAddr: 0x3D38, symBinAddr: 0x100006948, symSize: 0x34 }
  - { offsetInCU: 0xF39A, offset: 0xF39A, size: 0x8, addend: 0x0, symName: __ZNSt3__114__split_bufferIPcNS_9allocatorIS1_EEE7__allocB7v160006Ev, symObjAddr: 0x3D6C, symBinAddr: 0x10000697C, symSize: 0x28 }
  - { offsetInCU: 0xF3C0, offset: 0xF3C0, size: 0x8, addend: 0x0, symName: __ZNKSt3__114__split_bufferIPcNS_9allocatorIS1_EEE8capacityB7v160006Ev, symObjAddr: 0x3D94, symBinAddr: 0x1000069A4, symSize: 0x40 }
  - { offsetInCU: 0xF3E6, offset: 0xF3E6, size: 0x8, addend: 0x0, symName: __ZNSt3__114__split_bufferIPcNS_9allocatorIS1_EEE17__destruct_at_endB7v160006EPS1_, symObjAddr: 0x3DD4, symBinAddr: 0x1000069E4, symSize: 0x2C }
  - { offsetInCU: 0xF41A, offset: 0xF41A, size: 0x8, addend: 0x0, symName: __ZNSt3__114__split_bufferIPcNS_9allocatorIS1_EEE17__destruct_at_endB7v160006EPS1_NS_17integral_constantIbLb0EEE, symObjAddr: 0x3E00, symBinAddr: 0x100006A10, symSize: 0x80 }
  - { offsetInCU: 0xF45A, offset: 0xF45A, size: 0x8, addend: 0x0, symName: __ZNSt3__116allocator_traitsINS_9allocatorIPcEEE7destroyB7v160006IS2_vEEvRS3_PT_, symObjAddr: 0x3E80, symBinAddr: 0x100006A90, symSize: 0x2C }
  - { offsetInCU: 0xF497, offset: 0xF497, size: 0x8, addend: 0x0, symName: __ZNSt3__19allocatorIPcE7destroyB7v160006EPS1_, symObjAddr: 0x3EC0, symBinAddr: 0x100006AD0, symSize: 0x14 }
  - { offsetInCU: 0xF4CB, offset: 0xF4CB, size: 0x8, addend: 0x0, symName: __ZNSt3__19allocatorIPcE10deallocateB7v160006EPS1_m, symObjAddr: 0x3ED4, symBinAddr: 0x100006AE4, symSize: 0x40 }
  - { offsetInCU: 0xF50D, offset: 0xF50D, size: 0x8, addend: 0x0, symName: __ZNSt3__117__compressed_pairIPPcNS_9allocatorIS1_EEE6secondB7v160006Ev, symObjAddr: 0x3F14, symBinAddr: 0x100006B24, symSize: 0x24 }
  - { offsetInCU: 0xF533, offset: 0xF533, size: 0x8, addend: 0x0, symName: __ZNSt3__122__compressed_pair_elemINS_9allocatorIPcEELi1ELb1EE5__getB7v160006Ev, symObjAddr: 0x3F38, symBinAddr: 0x100006B48, symSize: 0x14 }
  - { offsetInCU: 0xF559, offset: 0xF559, size: 0x8, addend: 0x0, symName: __ZNKSt3__114__split_bufferIPcNS_9allocatorIS1_EEE9__end_capB7v160006Ev, symObjAddr: 0x3F4C, symBinAddr: 0x100006B5C, symSize: 0x28 }
  - { offsetInCU: 0xF57F, offset: 0xF57F, size: 0x8, addend: 0x0, symName: __ZNKSt3__117__compressed_pairIPPcNS_9allocatorIS1_EEE5firstB7v160006Ev, symObjAddr: 0x3F74, symBinAddr: 0x100006B84, symSize: 0x24 }
  - { offsetInCU: 0xF5A5, offset: 0xF5A5, size: 0x8, addend: 0x0, symName: __ZNKSt3__122__compressed_pair_elemIPPcLi0ELb0EE5__getB7v160006Ev, symObjAddr: 0x3F98, symBinAddr: 0x100006BA8, symSize: 0x14 }
  - { offsetInCU: 0xF5CB, offset: 0xF5CB, size: 0x8, addend: 0x0, symName: __ZNSt3__112basic_stringIcNS_11char_traitsIcEENS_9allocatorIcEEEC2B7v160006Ev, symObjAddr: 0x3FAC, symBinAddr: 0x100006BBC, symSize: 0x54 }
  - { offsetInCU: 0xF5F5, offset: 0xF5F5, size: 0x8, addend: 0x0, symName: __ZNSt3__117__compressed_pairINS_12basic_stringIcNS_11char_traitsIcEENS_9allocatorIcEEE5__repES5_EC1B7v160006INS_18__default_init_tagESA_EEOT_OT0_, symObjAddr: 0x4000, symBinAddr: 0x100006C10, symSize: 0x3C }
  - { offsetInCU: 0xF64D, offset: 0xF64D, size: 0x8, addend: 0x0, symName: __ZNSt3__112basic_stringIcNS_11char_traitsIcEENS_9allocatorIcEEE14__default_initB7v160006Ev, symObjAddr: 0x404C, symBinAddr: 0x100006C5C, symSize: 0x40 }
  - { offsetInCU: 0xF673, offset: 0xF673, size: 0x8, addend: 0x0, symName: __ZNSt3__117__compressed_pairINS_12basic_stringIcNS_11char_traitsIcEENS_9allocatorIcEEE5__repES5_EC2B7v160006INS_18__default_init_tagESA_EEOT_OT0_, symObjAddr: 0x408C, symBinAddr: 0x100006C9C, symSize: 0x3C }
  - { offsetInCU: 0xF6CB, offset: 0xF6CB, size: 0x8, addend: 0x0, symName: __ZNSt3__122__compressed_pair_elemINS_12basic_stringIcNS_11char_traitsIcEENS_9allocatorIcEEE5__repELi0ELb0EEC2B7v160006ENS_18__default_init_tagE, symObjAddr: 0x40C8, symBinAddr: 0x100006CD8, symSize: 0x14 }
  - { offsetInCU: 0xF6FF, offset: 0xF6FF, size: 0x8, addend: 0x0, symName: __ZNSt3__122__compressed_pair_elemINS_9allocatorIcEELi1ELb1EEC2B7v160006ENS_18__default_init_tagE, symObjAddr: 0x40DC, symBinAddr: 0x100006CEC, symSize: 0x2C }
  - { offsetInCU: 0xF733, offset: 0xF733, size: 0x8, addend: 0x0, symName: __ZNSt3__19allocatorIcEC2B7v160006Ev, symObjAddr: 0x4108, symBinAddr: 0x100006D18, symSize: 0x2C }
  - { offsetInCU: 0xF75D, offset: 0xF75D, size: 0x8, addend: 0x0, symName: __ZNSt3__116__non_trivial_ifILb1ENS_9allocatorIcEEEC2B7v160006Ev, symObjAddr: 0x4134, symBinAddr: 0x100006D44, symSize: 0x14 }
  - { offsetInCU: 0xF787, offset: 0xF787, size: 0x8, addend: 0x0, symName: __ZNSt3__117__compressed_pairINS_12basic_stringIcNS_11char_traitsIcEENS_9allocatorIcEEE5__repES5_E5firstB7v160006Ev, symObjAddr: 0x4148, symBinAddr: 0x100006D58, symSize: 0x24 }
  - { offsetInCU: 0xF7AD, offset: 0xF7AD, size: 0x8, addend: 0x0, symName: __ZNSt3__122__compressed_pair_elemINS_12basic_stringIcNS_11char_traitsIcEENS_9allocatorIcEEE5__repELi0ELb0EE5__getB7v160006Ev, symObjAddr: 0x416C, symBinAddr: 0x100006D7C, symSize: 0x14 }
  - { offsetInCU: 0xF7D3, offset: 0xF7D3, size: 0x8, addend: 0x0, symName: __ZNSt3__15queueIcNS_5dequeIcNS_9allocatorIcEEEEEC2B7v160006Ev, symObjAddr: 0x4180, symBinAddr: 0x100006D90, symSize: 0x2C }
  - { offsetInCU: 0xF7FD, offset: 0xF7FD, size: 0x8, addend: 0x0, symName: __ZNSt3__15dequeIcNS_9allocatorIcEEEC1B7v160006Ev, symObjAddr: 0x41AC, symBinAddr: 0x100006DBC, symSize: 0x2C }
  - { offsetInCU: 0xF827, offset: 0xF827, size: 0x8, addend: 0x0, symName: __ZNSt3__15dequeIcNS_9allocatorIcEEEC2B7v160006Ev, symObjAddr: 0x41D8, symBinAddr: 0x100006DE8, symSize: 0x50 }
  - { offsetInCU: 0xF851, offset: 0xF851, size: 0x8, addend: 0x0, symName: __ZNSt3__114__split_bufferIPcNS_9allocatorIS1_EEEC1Ev, symObjAddr: 0x4228, symBinAddr: 0x100006E38, symSize: 0x2C }
  - { offsetInCU: 0xF87D, offset: 0xF87D, size: 0x8, addend: 0x0, symName: __ZNSt3__117__compressed_pairImNS_9allocatorIcEEEC1B7v160006IiNS_18__default_init_tagEEEOT_OT0_, symObjAddr: 0x4254, symBinAddr: 0x100006E64, symSize: 0x3C }
  - { offsetInCU: 0xF8D5, offset: 0xF8D5, size: 0x8, addend: 0x0, symName: __ZNSt3__114__split_bufferIPcNS_9allocatorIS1_EEEC2Ev, symObjAddr: 0x4290, symBinAddr: 0x100006EA0, symSize: 0x50 }
  - { offsetInCU: 0xF906, offset: 0xF906, size: 0x8, addend: 0x0, symName: __ZNSt3__117__compressed_pairIPPcNS_9allocatorIS1_EEEC1B7v160006IDnNS_18__default_init_tagEEEOT_OT0_, symObjAddr: 0x42E0, symBinAddr: 0x100006EF0, symSize: 0x3C }
  - { offsetInCU: 0xF95E, offset: 0xF95E, size: 0x8, addend: 0x0, symName: __ZNSt3__117__compressed_pairIPPcNS_9allocatorIS1_EEEC2B7v160006IDnNS_18__default_init_tagEEEOT_OT0_, symObjAddr: 0x431C, symBinAddr: 0x100006F2C, symSize: 0x40 }
  - { offsetInCU: 0xF9B6, offset: 0xF9B6, size: 0x8, addend: 0x0, symName: __ZNSt3__122__compressed_pair_elemIPPcLi0ELb0EEC2B7v160006IDnvEEOT_, symObjAddr: 0x435C, symBinAddr: 0x100006F6C, symSize: 0x1C }
  - { offsetInCU: 0xF9F8, offset: 0xF9F8, size: 0x8, addend: 0x0, symName: __ZNSt3__122__compressed_pair_elemINS_9allocatorIPcEELi1ELb1EEC2B7v160006ENS_18__default_init_tagE, symObjAddr: 0x4378, symBinAddr: 0x100006F88, symSize: 0x2C }
  - { offsetInCU: 0xFA2C, offset: 0xFA2C, size: 0x8, addend: 0x0, symName: __ZNSt3__19allocatorIPcEC2B7v160006Ev, symObjAddr: 0x43A4, symBinAddr: 0x100006FB4, symSize: 0x2C }
  - { offsetInCU: 0xFA56, offset: 0xFA56, size: 0x8, addend: 0x0, symName: __ZNSt3__116__non_trivial_ifILb1ENS_9allocatorIPcEEEC2B7v160006Ev, symObjAddr: 0x43D0, symBinAddr: 0x100006FE0, symSize: 0x14 }
  - { offsetInCU: 0xFA80, offset: 0xFA80, size: 0x8, addend: 0x0, symName: __ZNSt3__117__compressed_pairImNS_9allocatorIcEEEC2B7v160006IiNS_18__default_init_tagEEEOT_OT0_, symObjAddr: 0x43E4, symBinAddr: 0x100006FF4, symSize: 0x40 }
  - { offsetInCU: 0xFAD8, offset: 0xFAD8, size: 0x8, addend: 0x0, symName: __ZNSt3__15dequeIcNS_9allocatorIcEEE5frontEv, symObjAddr: 0x4424, symBinAddr: 0x100007034, symSize: 0x50 }
  - { offsetInCU: 0xFB00, offset: 0xFB00, size: 0x8, addend: 0x0, symName: __ZNSt3__14listIcNS_9allocatorIcEEE15__allocate_nodeB7v160006ERNS1_INS_11__list_nodeIcPvEEEE, symObjAddr: 0x4474, symBinAddr: 0x100007084, symSize: 0x70 }
  - { offsetInCU: 0xFB44, offset: 0xFB44, size: 0x8, addend: 0x0, symName: __ZNSt3__116allocator_traitsINS_9allocatorINS_11__list_nodeIcPvEEEEE9constructB7v160006IcJRKcEvEEvRS5_PT_DpOT0_, symObjAddr: 0x44E4, symBinAddr: 0x1000070F4, symSize: 0x34 }
  - { offsetInCU: 0xFB9B, offset: 0xFB9B, size: 0x8, addend: 0x0, symName: __ZNKSt3__110unique_ptrINS_11__list_nodeIcPvEENS_22__allocator_destructorINS_9allocatorIS3_EEEEEptB7v160006Ev, symObjAddr: 0x4518, symBinAddr: 0x100007128, symSize: 0x28 }
  - { offsetInCU: 0xFBC1, offset: 0xFBC1, size: 0x8, addend: 0x0, symName: __ZNSt3__14listIcNS_9allocatorIcEEE20__link_nodes_at_backEPNS_16__list_node_baseIcPvEES7_, symObjAddr: 0x4540, symBinAddr: 0x100007150, symSize: 0x60 }
  - { offsetInCU: 0xFC07, offset: 0xFC07, size: 0x8, addend: 0x0, symName: __ZNKSt3__110unique_ptrINS_11__list_nodeIcPvEENS_22__allocator_destructorINS_9allocatorIS3_EEEEE3getB7v160006Ev, symObjAddr: 0x45A0, symBinAddr: 0x1000071B0, symSize: 0x28 }
  - { offsetInCU: 0xFC2D, offset: 0xFC2D, size: 0x8, addend: 0x0, symName: __ZNSt3__111__list_nodeIcPvE9__as_linkB7v160006Ev, symObjAddr: 0x45C8, symBinAddr: 0x1000071D8, symSize: 0x24 }
  - { offsetInCU: 0xFC53, offset: 0xFC53, size: 0x8, addend: 0x0, symName: __ZNSt3__110unique_ptrINS_11__list_nodeIcPvEENS_22__allocator_destructorINS_9allocatorIS3_EEEEE7releaseB7v160006Ev, symObjAddr: 0x45EC, symBinAddr: 0x1000071FC, symSize: 0x44 }
  - { offsetInCU: 0xFC88, offset: 0xFC88, size: 0x8, addend: 0x0, symName: __ZNSt3__110unique_ptrINS_11__list_nodeIcPvEENS_22__allocator_destructorINS_9allocatorIS3_EEEEED1B7v160006Ev, symObjAddr: 0x4630, symBinAddr: 0x100007240, symSize: 0x2C }
  - { offsetInCU: 0xFCB2, offset: 0xFCB2, size: 0x8, addend: 0x0, symName: __ZNSt3__116allocator_traitsINS_9allocatorINS_11__list_nodeIcPvEEEEE8allocateB7v160006ERS5_m, symObjAddr: 0x465C, symBinAddr: 0x10000726C, symSize: 0x2C }
  - { offsetInCU: 0xFCE5, offset: 0xFCE5, size: 0x8, addend: 0x0, symName: __ZNSt3__122__allocator_destructorINS_9allocatorINS_11__list_nodeIcPvEEEEEC1B7v160006ERS5_m, symObjAddr: 0x4688, symBinAddr: 0x100007298, symSize: 0x3C }
  - { offsetInCU: 0xFD30, offset: 0xFD30, size: 0x8, addend: 0x0, symName: __ZNSt3__110unique_ptrINS_11__list_nodeIcPvEENS_22__allocator_destructorINS_9allocatorIS3_EEEEEC1B7v160006ILb1EvEEPS3_NS_16__dependent_typeINS_27__unique_ptr_deleter_sfinaeIS7_EEXT_EE20__good_rval_ref_typeE, symObjAddr: 0x46C4, symBinAddr: 0x1000072D4, symSize: 0x3C }
  - { offsetInCU: 0xFD81, offset: 0xFD81, size: 0x8, addend: 0x0, symName: __ZNSt3__19allocatorINS_11__list_nodeIcPvEEE8allocateB7v160006Em, symObjAddr: 0x4700, symBinAddr: 0x100007310, symSize: 0x5C }
  - { offsetInCU: 0xFDBF, offset: 0xFDBF, size: 0x8, addend: 0x0, symName: __ZNSt3__116allocator_traitsINS_9allocatorINS_11__list_nodeIcPvEEEEE8max_sizeB7v160006IS5_vEEmRKS5_, symObjAddr: 0x475C, symBinAddr: 0x10000736C, symSize: 0x24 }
  - { offsetInCU: 0xFDED, offset: 0xFDED, size: 0x8, addend: 0x0, symName: __ZNKSt3__19allocatorINS_11__list_nodeIcPvEEE8max_sizeB7v160006Ev, symObjAddr: 0x4814, symBinAddr: 0x100007424, symSize: 0x18 }
  - { offsetInCU: 0xFE13, offset: 0xFE13, size: 0x8, addend: 0x0, symName: __ZNSt3__122__allocator_destructorINS_9allocatorINS_11__list_nodeIcPvEEEEEC2B7v160006ERS5_m, symObjAddr: 0x487C, symBinAddr: 0x10000748C, symSize: 0x2C }
  - { offsetInCU: 0xFE59, offset: 0xFE59, size: 0x8, addend: 0x0, symName: __ZNSt3__110unique_ptrINS_11__list_nodeIcPvEENS_22__allocator_destructorINS_9allocatorIS3_EEEEEC2B7v160006ILb1EvEEPS3_NS_16__dependent_typeINS_27__unique_ptr_deleter_sfinaeIS7_EEXT_EE20__good_rval_ref_typeE, symObjAddr: 0x48A8, symBinAddr: 0x1000074B8, symSize: 0x48 }
  - { offsetInCU: 0xFEAA, offset: 0xFEAA, size: 0x8, addend: 0x0, symName: __ZNSt3__117__compressed_pairIPNS_11__list_nodeIcPvEENS_22__allocator_destructorINS_9allocatorIS3_EEEEEC1B7v160006IRS4_S8_EEOT_OT0_, symObjAddr: 0x48F0, symBinAddr: 0x100007500, symSize: 0x3C }
  - { offsetInCU: 0xFF02, offset: 0xFF02, size: 0x8, addend: 0x0, symName: __ZNSt3__117__compressed_pairIPNS_11__list_nodeIcPvEENS_22__allocator_destructorINS_9allocatorIS3_EEEEEC2B7v160006IRS4_S8_EEOT_OT0_, symObjAddr: 0x492C, symBinAddr: 0x10000753C, symSize: 0x48 }
  - { offsetInCU: 0xFF5A, offset: 0xFF5A, size: 0x8, addend: 0x0, symName: __ZNSt3__122__compressed_pair_elemIPNS_11__list_nodeIcPvEELi0ELb0EEC2B7v160006IRS4_vEEOT_, symObjAddr: 0x4974, symBinAddr: 0x100007584, symSize: 0x24 }
  - { offsetInCU: 0xFF9C, offset: 0xFF9C, size: 0x8, addend: 0x0, symName: __ZNSt3__122__compressed_pair_elemINS_22__allocator_destructorINS_9allocatorINS_11__list_nodeIcPvEEEEEELi1ELb0EEC2B7v160006IS7_vEEOT_, symObjAddr: 0x4998, symBinAddr: 0x1000075A8, symSize: 0x24 }
  - { offsetInCU: 0xFFDE, offset: 0xFFDE, size: 0x8, addend: 0x0, symName: __ZNSt3__19allocatorINS_11__list_nodeIcPvEEE9constructB7v160006IcJRKcEEEvPT_DpOT0_, symObjAddr: 0x49BC, symBinAddr: 0x1000075CC, symSize: 0x28 }
  - { offsetInCU: 0x10034, offset: 0x10034, size: 0x8, addend: 0x0, symName: __ZNKSt3__117__compressed_pairIPNS_11__list_nodeIcPvEENS_22__allocator_destructorINS_9allocatorIS3_EEEEE5firstB7v160006Ev, symObjAddr: 0x49E4, symBinAddr: 0x1000075F4, symSize: 0x24 }
  - { offsetInCU: 0x1005A, offset: 0x1005A, size: 0x8, addend: 0x0, symName: __ZNKSt3__122__compressed_pair_elemIPNS_11__list_nodeIcPvEELi0ELb0EE5__getB7v160006Ev, symObjAddr: 0x4A08, symBinAddr: 0x100007618, symSize: 0x14 }
  - { offsetInCU: 0x10080, offset: 0x10080, size: 0x8, addend: 0x0, symName: __ZNSt3__117__compressed_pairIPNS_11__list_nodeIcPvEENS_22__allocator_destructorINS_9allocatorIS3_EEEEE5firstB7v160006Ev, symObjAddr: 0x4A1C, symBinAddr: 0x10000762C, symSize: 0x24 }
  - { offsetInCU: 0x100A6, offset: 0x100A6, size: 0x8, addend: 0x0, symName: __ZNSt3__122__compressed_pair_elemIPNS_11__list_nodeIcPvEELi0ELb0EE5__getB7v160006Ev, symObjAddr: 0x4A40, symBinAddr: 0x100007650, symSize: 0x14 }
  - { offsetInCU: 0x100CC, offset: 0x100CC, size: 0x8, addend: 0x0, symName: __ZNSt3__110unique_ptrINS_11__list_nodeIcPvEENS_22__allocator_destructorINS_9allocatorIS3_EEEEED2B7v160006Ev, symObjAddr: 0x4A54, symBinAddr: 0x100007664, symSize: 0x30 }
  - { offsetInCU: 0x100F6, offset: 0x100F6, size: 0x8, addend: 0x0, symName: __ZNSt3__110unique_ptrINS_11__list_nodeIcPvEENS_22__allocator_destructorINS_9allocatorIS3_EEEEE5resetB7v160006EPS3_, symObjAddr: 0x4A84, symBinAddr: 0x100007694, symSize: 0x78 }
  - { offsetInCU: 0x1013A, offset: 0x1013A, size: 0x8, addend: 0x0, symName: __ZNSt3__117__compressed_pairIPNS_11__list_nodeIcPvEENS_22__allocator_destructorINS_9allocatorIS3_EEEEE6secondB7v160006Ev, symObjAddr: 0x4AFC, symBinAddr: 0x10000770C, symSize: 0x28 }
  - { offsetInCU: 0x10160, offset: 0x10160, size: 0x8, addend: 0x0, symName: __ZNSt3__122__allocator_destructorINS_9allocatorINS_11__list_nodeIcPvEEEEEclB7v160006EPS4_, symObjAddr: 0x4B24, symBinAddr: 0x100007734, symSize: 0x34 }
  - { offsetInCU: 0x10194, offset: 0x10194, size: 0x8, addend: 0x0, symName: __ZNSt3__122__compressed_pair_elemINS_22__allocator_destructorINS_9allocatorINS_11__list_nodeIcPvEEEEEELi1ELb0EE5__getB7v160006Ev, symObjAddr: 0x4B58, symBinAddr: 0x100007768, symSize: 0x14 }
  - { offsetInCU: 0x101BA, offset: 0x101BA, size: 0x8, addend: 0x0, symName: __ZNSt3__15dequeIcNS_9allocatorIcEEE9pop_frontEv, symObjAddr: 0x4B6C, symBinAddr: 0x10000777C, symSize: 0xAC }
  - { offsetInCU: 0x101F1, offset: 0x101F1, size: 0x8, addend: 0x0, symName: __ZNSt3__15dequeIcNS_9allocatorIcEEE26__maybe_remove_front_spareB7v160006Eb, symObjAddr: 0x4C2C, symBinAddr: 0x10000783C, symSize: 0xDC }
  - { offsetInCU: 0x10226, offset: 0x10226, size: 0x8, addend: 0x0, symName: __ZNKSt3__15dequeIcNS_9allocatorIcEEE20__front_spare_blocksB7v160006Ev, symObjAddr: 0x4D08, symBinAddr: 0x100007918, symSize: 0x2C }
  - { offsetInCU: 0x1024C, offset: 0x1024C, size: 0x8, addend: 0x0, symName: __ZNKSt3__15dequeIcNS_9allocatorIcEEE13__front_spareB7v160006Ev, symObjAddr: 0x4D34, symBinAddr: 0x100007944, symSize: 0x18 }
  - { offsetInCU: 0x10272, offset: 0x10272, size: 0x8, addend: 0x0, symName: __ZNSt3__111char_traitsIcE6lengthEPKc, symObjAddr: 0x4D4C, symBinAddr: 0x10000795C, symSize: 0x34 }
  - { offsetInCU: 0x10295, offset: 0x10295, size: 0x8, addend: 0x0, symName: __ZNKSt3__112basic_stringIcNS_11char_traitsIcEENS_9allocatorIcEEE4sizeB7v160006Ev, symObjAddr: 0x4D80, symBinAddr: 0x100007990, symSize: 0x54 }
  - { offsetInCU: 0x102BB, offset: 0x102BB, size: 0x8, addend: 0x0, symName: __ZNKSt3__112basic_stringIcNS_11char_traitsIcEENS_9allocatorIcEEE9__is_longB7v160006Ev, symObjAddr: 0x4DF8, symBinAddr: 0x100007A08, symSize: 0x38 }
  - { offsetInCU: 0x102E1, offset: 0x102E1, size: 0x8, addend: 0x0, symName: __ZNKSt3__112basic_stringIcNS_11char_traitsIcEENS_9allocatorIcEEE15__get_long_sizeB7v160006Ev, symObjAddr: 0x4E30, symBinAddr: 0x100007A40, symSize: 0x28 }
  - { offsetInCU: 0x10307, offset: 0x10307, size: 0x8, addend: 0x0, symName: __ZNKSt3__112basic_stringIcNS_11char_traitsIcEENS_9allocatorIcEEE16__get_short_sizeB7v160006Ev, symObjAddr: 0x4E58, symBinAddr: 0x100007A68, symSize: 0x34 }
  - { offsetInCU: 0x1032D, offset: 0x1032D, size: 0x8, addend: 0x0, symName: __ZNKSt3__117__compressed_pairINS_12basic_stringIcNS_11char_traitsIcEENS_9allocatorIcEEE5__repES5_E5firstB7v160006Ev, symObjAddr: 0x4E8C, symBinAddr: 0x100007A9C, symSize: 0x24 }
  - { offsetInCU: 0x10353, offset: 0x10353, size: 0x8, addend: 0x0, symName: __ZNKSt3__122__compressed_pair_elemINS_12basic_stringIcNS_11char_traitsIcEENS_9allocatorIcEEE5__repELi0ELb0EE5__getB7v160006Ev, symObjAddr: 0x4EB0, symBinAddr: 0x100007AC0, symSize: 0x14 }
  - { offsetInCU: 0x10379, offset: 0x10379, size: 0x8, addend: 0x0, symName: __ZNSt3__110__list_impIcNS_9allocatorIcEEE5beginB7v160006Ev, symObjAddr: 0x4EC4, symBinAddr: 0x100007AD4, symSize: 0x30 }
  - { offsetInCU: 0x1039F, offset: 0x1039F, size: 0x8, addend: 0x0, symName: __ZNSt3__115__list_iteratorIcPvEC1B7v160006EPNS_16__list_node_baseIcS1_EEPKv, symObjAddr: 0x4EF4, symBinAddr: 0x100007B04, symSize: 0x3C }
  - { offsetInCU: 0x103E7, offset: 0x103E7, size: 0x8, addend: 0x0, symName: __ZNSt3__115__list_iteratorIcPvEC2B7v160006EPNS_16__list_node_baseIcS1_EEPKv, symObjAddr: 0x4F30, symBinAddr: 0x100007B40, symSize: 0x24 }
  - { offsetInCU: 0x1042F, offset: 0x1042F, size: 0x8, addend: 0x0, symName: __ZNSt3__110__list_impIcNS_9allocatorIcEEE3endB7v160006Ev, symObjAddr: 0x4F54, symBinAddr: 0x100007B64, symSize: 0x3C }
  - { offsetInCU: 0x10455, offset: 0x10455, size: 0x8, addend: 0x0, symName: __ZNSt3__121__list_const_iteratorIcPvEC2B7v160006ERKNS_15__list_iteratorIcS1_EE, symObjAddr: 0x4FC0, symBinAddr: 0x100007BD0, symSize: 0x24 }
  - { offsetInCU: 0x10532, offset: 0x10532, size: 0x8, addend: 0x0, symName: __ZNKSt3__113basic_istreamIcNS_11char_traitsIcEEE6sentrycvbB7v160006Ev, symObjAddr: 0x4FE4, symBinAddr: 0x100007BF4, symSize: 0x1C }
  - { offsetInCU: 0x10558, offset: 0x10558, size: 0x8, addend: 0x0, symName: __ZNSt3__112basic_stringIcNS_11char_traitsIcEENS_9allocatorIcEEE5clearB7v160006Ev, symObjAddr: 0x5000, symBinAddr: 0x100007C10, symSize: 0x88 }
  - { offsetInCU: 0x10580, offset: 0x10580, size: 0x8, addend: 0x0, symName: __ZNKSt3__18ios_base5widthB7v160006Ev, symObjAddr: 0x5088, symBinAddr: 0x100007C98, symSize: 0x18 }
  - { offsetInCU: 0x105A8, offset: 0x105A8, size: 0x8, addend: 0x0, symName: __ZNKSt3__112basic_stringIcNS_11char_traitsIcEENS_9allocatorIcEEE8max_sizeB7v160006Ev, symObjAddr: 0x50A0, symBinAddr: 0x100007CB0, symSize: 0xAC }
  - { offsetInCU: 0x105FA, offset: 0x105FA, size: 0x8, addend: 0x0, symName: __ZNSt3__114numeric_limitsIlE3maxB7v160006Ev, symObjAddr: 0x514C, symBinAddr: 0x100007D5C, symSize: 0x14 }
  - { offsetInCU: 0x1060E, offset: 0x1060E, size: 0x8, addend: 0x0, symName: __ZNKSt3__19basic_iosIcNS_11char_traitsIcEEE5rdbufB7v160006Ev, symObjAddr: 0x518C, symBinAddr: 0x100007D9C, symSize: 0x24 }
  - { offsetInCU: 0x10636, offset: 0x10636, size: 0x8, addend: 0x0, symName: __ZNSt3__115basic_streambufIcNS_11char_traitsIcEEE5sgetcB7v160006Ev, symObjAddr: 0x51B0, symBinAddr: 0x100007DC0, symSize: 0x70 }
  - { offsetInCU: 0x1065C, offset: 0x1065C, size: 0x8, addend: 0x0, symName: __ZNSt3__111char_traitsIcE11eq_int_typeEii, symObjAddr: 0x5220, symBinAddr: 0x100007E30, symSize: 0x28 }
  - { offsetInCU: 0x1068D, offset: 0x1068D, size: 0x8, addend: 0x0, symName: __ZNSt3__111char_traitsIcE3eofEv, symObjAddr: 0x5248, symBinAddr: 0x100007E58, symSize: 0x8 }
  - { offsetInCU: 0x106A1, offset: 0x106A1, size: 0x8, addend: 0x0, symName: __ZNSt3__111char_traitsIcE12to_char_typeEi, symObjAddr: 0x5250, symBinAddr: 0x100007E60, symSize: 0x18 }
  - { offsetInCU: 0x106F1, offset: 0x106F1, size: 0x8, addend: 0x0, symName: __ZNKSt3__15ctypeIcE2isB7v160006Ejc, symObjAddr: 0x5268, symBinAddr: 0x100007E78, symSize: 0x7C }
  - { offsetInCU: 0x10735, offset: 0x10735, size: 0x8, addend: 0x0, symName: __ZNSt3__115basic_streambufIcNS_11char_traitsIcEEE6sbumpcB7v160006Ev, symObjAddr: 0x52E4, symBinAddr: 0x100007EF4, symSize: 0x78 }
  - { offsetInCU: 0x1075B, offset: 0x1075B, size: 0x8, addend: 0x0, symName: __ZNSt3__18ios_base5widthB7v160006El, symObjAddr: 0x535C, symBinAddr: 0x100007F6C, symSize: 0x2C }
  - { offsetInCU: 0x107A1, offset: 0x107A1, size: 0x8, addend: 0x0, symName: __ZNSt3__18ios_base18__setstate_nothrowB7v160006Ej, symObjAddr: 0x5388, symBinAddr: 0x100007F98, symSize: 0x64 }
  - { offsetInCU: 0x107D6, offset: 0x107D6, size: 0x8, addend: 0x0, symName: __ZNKSt3__19basic_iosIcNS_11char_traitsIcEEE10exceptionsB7v160006Ev, symObjAddr: 0x53EC, symBinAddr: 0x100007FFC, symSize: 0x24 }
  - { offsetInCU: 0x107FC, offset: 0x107FC, size: 0x8, addend: 0x0, symName: __ZNSt3__19basic_iosIcNS_11char_traitsIcEEE8setstateB7v160006Ej, symObjAddr: 0x5410, symBinAddr: 0x100008020, symSize: 0x2C }
  - { offsetInCU: 0x10831, offset: 0x10831, size: 0x8, addend: 0x0, symName: __ZNSt3__111char_traitsIcE6assignERcRKc, symObjAddr: 0x544C, symBinAddr: 0x10000805C, symSize: 0x24 }
  - { offsetInCU: 0x10862, offset: 0x10862, size: 0x8, addend: 0x0, symName: __ZNSt3__112basic_stringIcNS_11char_traitsIcEENS_9allocatorIcEEE18__get_long_pointerB7v160006Ev, symObjAddr: 0x5470, symBinAddr: 0x100008080, symSize: 0x28 }
  - { offsetInCU: 0x10888, offset: 0x10888, size: 0x8, addend: 0x0, symName: __ZNSt3__112basic_stringIcNS_11char_traitsIcEENS_9allocatorIcEEE15__set_long_sizeB7v160006Em, symObjAddr: 0x5498, symBinAddr: 0x1000080A8, symSize: 0x38 }
  - { offsetInCU: 0x108BD, offset: 0x108BD, size: 0x8, addend: 0x0, symName: __ZNSt3__112basic_stringIcNS_11char_traitsIcEENS_9allocatorIcEEE19__get_short_pointerB7v160006Ev, symObjAddr: 0x54D0, symBinAddr: 0x1000080E0, symSize: 0x28 }
  - { offsetInCU: 0x108E3, offset: 0x108E3, size: 0x8, addend: 0x0, symName: __ZNSt3__112basic_stringIcNS_11char_traitsIcEENS_9allocatorIcEEE16__set_short_sizeB7v160006Em, symObjAddr: 0x54F8, symBinAddr: 0x100008108, symSize: 0x78 }
  - { offsetInCU: 0x10918, offset: 0x10918, size: 0x8, addend: 0x0, symName: __ZNSt3__114pointer_traitsIPcE10pointer_toB7v160006ERc, symObjAddr: 0x5570, symBinAddr: 0x100008180, symSize: 0x14 }
  - { offsetInCU: 0x10945, offset: 0x10945, size: 0x8, addend: 0x0, symName: __ZNSt3__116allocator_traitsINS_9allocatorIcEEE8max_sizeB7v160006IS2_vEEmRKS2_, symObjAddr: 0x5584, symBinAddr: 0x100008194, symSize: 0x24 }
  - { offsetInCU: 0x10973, offset: 0x10973, size: 0x8, addend: 0x0, symName: __ZNKSt3__112basic_stringIcNS_11char_traitsIcEENS_9allocatorIcEEE7__allocB7v160006Ev, symObjAddr: 0x55A8, symBinAddr: 0x1000081B8, symSize: 0x24 }
  - { offsetInCU: 0x10999, offset: 0x10999, size: 0x8, addend: 0x0, symName: __ZNSt3__114numeric_limitsImE3maxB7v160006Ev, symObjAddr: 0x55CC, symBinAddr: 0x1000081DC, symSize: 0x14 }
  - { offsetInCU: 0x109AD, offset: 0x109AD, size: 0x8, addend: 0x0, symName: __ZNKSt3__19allocatorIcE8max_sizeB7v160006Ev, symObjAddr: 0x55E0, symBinAddr: 0x1000081F0, symSize: 0x14 }
  - { offsetInCU: 0x109D3, offset: 0x109D3, size: 0x8, addend: 0x0, symName: __ZNKSt3__117__compressed_pairINS_12basic_stringIcNS_11char_traitsIcEENS_9allocatorIcEEE5__repES5_E6secondB7v160006Ev, symObjAddr: 0x55F4, symBinAddr: 0x100008204, symSize: 0x24 }
  - { offsetInCU: 0x109F9, offset: 0x109F9, size: 0x8, addend: 0x0, symName: __ZNKSt3__122__compressed_pair_elemINS_9allocatorIcEELi1ELb1EE5__getB7v160006Ev, symObjAddr: 0x5618, symBinAddr: 0x100008228, symSize: 0x14 }
  - { offsetInCU: 0x10A1F, offset: 0x10A1F, size: 0x8, addend: 0x0, symName: __ZNSt3__123__libcpp_numeric_limitsImLb1EE3maxB7v160006Ev, symObjAddr: 0x562C, symBinAddr: 0x10000823C, symSize: 0x8 }
  - { offsetInCU: 0x10A33, offset: 0x10A33, size: 0x8, addend: 0x0, symName: __ZNSt3__123__libcpp_numeric_limitsIlLb1EE3maxB7v160006Ev, symObjAddr: 0x5634, symBinAddr: 0x100008244, symSize: 0x8 }
  - { offsetInCU: 0x10A47, offset: 0x10A47, size: 0x8, addend: 0x0, symName: __ZNKSt3__18ios_base5rdbufB7v160006Ev, symObjAddr: 0x563C, symBinAddr: 0x10000824C, symSize: 0x18 }
  - { offsetInCU: 0x10A6D, offset: 0x10A6D, size: 0x8, addend: 0x0, symName: __ZNSt3__111char_traitsIcE11to_int_typeEc, symObjAddr: 0x5654, symBinAddr: 0x100008264, symSize: 0x14 }
  - { offsetInCU: 0x10A8F, offset: 0x10A8F, size: 0x8, addend: 0x0, symName: __Z7isasciii, symObjAddr: 0x5668, symBinAddr: 0x100008278, symSize: 0x24 }
  - { offsetInCU: 0x10ABC, offset: 0x10ABC, size: 0x8, addend: 0x0, symName: __ZNKSt3__18ios_base10exceptionsB7v160006Ev, symObjAddr: 0x568C, symBinAddr: 0x10000829C, symSize: 0x18 }
  - { offsetInCU: 0x10AE4, offset: 0x10AE4, size: 0x8, addend: 0x0, symName: __ZNSt3__18ios_base8setstateB7v160006Ej, symObjAddr: 0x56A4, symBinAddr: 0x1000082B4, symSize: 0x34 }
  - { offsetInCU: 0x10B1B, offset: 0x10B1B, size: 0x8, addend: 0x0, symName: __ZNSt3__15dequeIcNS_9allocatorIcEEE9push_backERKc, symObjAddr: 0x56D8, symBinAddr: 0x1000082E8, symSize: 0xA0 }
  - { offsetInCU: 0x10B61, offset: 0x10B61, size: 0x8, addend: 0x0, symName: __ZNKSt3__15dequeIcNS_9allocatorIcEEE12__back_spareB7v160006Ev, symObjAddr: 0x5778, symBinAddr: 0x100008388, symSize: 0x54 }
  - { offsetInCU: 0x10B87, offset: 0x10B87, size: 0x8, addend: 0x0, symName: __ZNSt3__15dequeIcNS_9allocatorIcEEE19__add_back_capacityEv, symObjAddr: 0x57CC, symBinAddr: 0x1000083DC, symSize: 0x314 }
  - { offsetInCU: 0x10C3C, offset: 0x10C3C, size: 0x8, addend: 0x0, symName: __ZNSt3__116allocator_traitsINS_9allocatorIcEEE9constructB7v160006IcJRKcEvEEvRS2_PT_DpOT0_, symObjAddr: 0x5AE0, symBinAddr: 0x1000086F0, symSize: 0x34 }
  - { offsetInCU: 0x10C93, offset: 0x10C93, size: 0x8, addend: 0x0, symName: __ZNKSt3__15dequeIcNS_9allocatorIcEEE10__capacityB7v160006Ev, symObjAddr: 0x5B14, symBinAddr: 0x100008724, symSize: 0x60 }
  - { offsetInCU: 0x10CB9, offset: 0x10CB9, size: 0x8, addend: 0x0, symName: __ZNSt3__114__split_bufferIPcNS_9allocatorIS1_EEE9push_backB7v160006ERKS1_, symObjAddr: 0x5B74, symBinAddr: 0x100008784, symSize: 0x260 }
  - { offsetInCU: 0x10D31, offset: 0x10D31, size: 0x8, addend: 0x0, symName: __ZNKSt3__114__split_bufferIPcNS_9allocatorIS1_EEE12__back_spareB7v160006Ev, symObjAddr: 0x5DD4, symBinAddr: 0x1000089E4, symSize: 0x40 }
  - { offsetInCU: 0x10D57, offset: 0x10D57, size: 0x8, addend: 0x0, symName: __ZNSt3__114__split_bufferIPcNS_9allocatorIS1_EEE9push_backEOS1_, symObjAddr: 0x5E14, symBinAddr: 0x100008A24, symSize: 0x260 }
  - { offsetInCU: 0x10DCF, offset: 0x10DCF, size: 0x8, addend: 0x0, symName: __ZNSt3__116allocator_traitsINS_9allocatorIcEEE8allocateB7v160006ERS2_m, symObjAddr: 0x6074, symBinAddr: 0x100008C84, symSize: 0x2C }
  - { offsetInCU: 0x10E02, offset: 0x10E02, size: 0x8, addend: 0x0, symName: __ZNSt3__114__split_bufferIPcNS_9allocatorIS1_EEE10push_frontEOS1_, symObjAddr: 0x60A0, symBinAddr: 0x100008CB0, symSize: 0x25C }
  - { offsetInCU: 0x10E7A, offset: 0x10E7A, size: 0x8, addend: 0x0, symName: __ZNSt3__114__split_bufferIPcRNS_9allocatorIS1_EEEC1EmmS4_, symObjAddr: 0x6328, symBinAddr: 0x100008F38, symSize: 0x44 }
  - { offsetInCU: 0x10ED5, offset: 0x10ED5, size: 0x8, addend: 0x0, symName: __ZNSt3__122__allocator_destructorINS_9allocatorIcEEEC1B7v160006ERS2_m, symObjAddr: 0x636C, symBinAddr: 0x100008F7C, symSize: 0x3C }
  - { offsetInCU: 0x10F98, offset: 0x10F98, size: 0x8, addend: 0x0, symName: __ZNSt3__110unique_ptrIPcNS_22__allocator_destructorINS_9allocatorIcEEEEEC1B7v160006ILb1EvEES1_NS_16__dependent_typeINS_27__unique_ptr_deleter_sfinaeIS5_EEXT_EE20__good_rval_ref_typeE, symObjAddr: 0x63A8, symBinAddr: 0x100008FB8, symSize: 0x3C }
  - { offsetInCU: 0x10FE9, offset: 0x10FE9, size: 0x8, addend: 0x0, symName: __ZNSt3__114__split_bufferIPcRNS_9allocatorIS1_EEE9push_backEOS1_, symObjAddr: 0x63E4, symBinAddr: 0x100008FF4, symSize: 0x260 }
  - { offsetInCU: 0x11061, offset: 0x11061, size: 0x8, addend: 0x0, symName: __ZNKSt3__110unique_ptrIPcNS_22__allocator_destructorINS_9allocatorIcEEEEE3getB7v160006Ev, symObjAddr: 0x6644, symBinAddr: 0x100009254, symSize: 0x28 }
  - { offsetInCU: 0x11087, offset: 0x11087, size: 0x8, addend: 0x0, symName: __ZNSt3__110unique_ptrIPcNS_22__allocator_destructorINS_9allocatorIcEEEEE7releaseB7v160006Ev, symObjAddr: 0x666C, symBinAddr: 0x10000927C, symSize: 0x44 }
  - { offsetInCU: 0x110BC, offset: 0x110BC, size: 0x8, addend: 0x0, symName: __ZNSt3__114__split_bufferIPcRNS_9allocatorIS1_EEE10push_frontERKS1_, symObjAddr: 0x66B0, symBinAddr: 0x1000092C0, symSize: 0x25C }
  - { offsetInCU: 0x11134, offset: 0x11134, size: 0x8, addend: 0x0, symName: __ZNSt3__114__split_bufferIPcNS_9allocatorIS1_EEE9__end_capB7v160006Ev, symObjAddr: 0x6948, symBinAddr: 0x100009558, symSize: 0x28 }
  - { offsetInCU: 0x1115A, offset: 0x1115A, size: 0x8, addend: 0x0, symName: __ZNSt3__114__split_bufferIPcRNS_9allocatorIS1_EEE9__end_capB7v160006Ev, symObjAddr: 0x6970, symBinAddr: 0x100009580, symSize: 0x28 }
  - { offsetInCU: 0x11180, offset: 0x11180, size: 0x8, addend: 0x0, symName: __ZNSt3__110unique_ptrIPcNS_22__allocator_destructorINS_9allocatorIcEEEEED1B7v160006Ev, symObjAddr: 0x6998, symBinAddr: 0x1000095A8, symSize: 0x2C }
  - { offsetInCU: 0x111AA, offset: 0x111AA, size: 0x8, addend: 0x0, symName: __ZNSt3__114__split_bufferIPcRNS_9allocatorIS1_EEED1Ev, symObjAddr: 0x69C4, symBinAddr: 0x1000095D4, symSize: 0x2C }
  - { offsetInCU: 0x111D6, offset: 0x111D6, size: 0x8, addend: 0x0, symName: __ZNSt3__114__split_bufferIPcRNS_9allocatorIS1_EEE18__construct_at_endINS_13move_iteratorIPS1_EEEENS_9enable_ifIXsr27__is_cpp17_forward_iteratorIT_EE5valueEvE4typeESB_SB_, symObjAddr: 0x6A30, symBinAddr: 0x100009640, symSize: 0xFC }
  - { offsetInCU: 0x11232, offset: 0x11232, size: 0x8, addend: 0x0, symName: __ZNSt3__113move_iteratorIPPcEC1B7v160006ES2_, symObjAddr: 0x6B2C, symBinAddr: 0x10000973C, symSize: 0x34 }
  - { offsetInCU: 0x1126A, offset: 0x1126A, size: 0x8, addend: 0x0, symName: __ZNSt3__116allocator_traitsINS_9allocatorIPcEEE9constructB7v160006IS2_JRKS2_EvEEvRS3_PT_DpOT0_, symObjAddr: 0x6B60, symBinAddr: 0x100009770, symSize: 0x34 }
  - { offsetInCU: 0x112E4, offset: 0x112E4, size: 0x8, addend: 0x0, symName: __ZNKSt3__114__move_trivialclB7v160006IPcS2_Li0EEENS_4pairIPT_PT0_EES5_S5_S7_, symObjAddr: 0x6D30, symBinAddr: 0x100009940, symSize: 0x48 }
  - { offsetInCU: 0x11351, offset: 0x11351, size: 0x8, addend: 0x0, symName: __ZNSt3__14pairIPPcS2_EC1B7v160006IRS2_S2_LPv0EEEOT_OT0_, symObjAddr: 0x6EF8, symBinAddr: 0x100009B08, symSize: 0x3C }
  - { offsetInCU: 0x113AF, offset: 0x113AF, size: 0x8, addend: 0x0, symName: __ZNSt3__14pairIPPcS2_EC2B7v160006IRS2_S2_LPv0EEEOT_OT0_, symObjAddr: 0x6F34, symBinAddr: 0x100009B44, symSize: 0x34 }
  - { offsetInCU: 0x1140D, offset: 0x1140D, size: 0x8, addend: 0x0, symName: __ZNSt3__118__unwrap_iter_implIPPcLb1EE8__unwrapB7v160006ES2_, symObjAddr: 0x6F68, symBinAddr: 0x100009B78, symSize: 0x24 }
  - { offsetInCU: 0x11430, offset: 0x11430, size: 0x8, addend: 0x0, symName: __ZNSt3__14pairIPPcS2_EC1B7v160006IS2_S2_LPv0EEEOT_OT0_, symObjAddr: 0x6F8C, symBinAddr: 0x100009B9C, symSize: 0x3C }
  - { offsetInCU: 0x1148E, offset: 0x1148E, size: 0x8, addend: 0x0, symName: __ZNSt3__14pairIPPcS2_EC2B7v160006IS2_S2_LPv0EEEOT_OT0_, symObjAddr: 0x6FC8, symBinAddr: 0x100009BD8, symSize: 0x34 }
  - { offsetInCU: 0x114EC, offset: 0x114EC, size: 0x8, addend: 0x0, symName: __ZNSt3__118__unwrap_iter_implIPPcLb1EE8__rewrapB7v160006ES2_S2_, symObjAddr: 0x6FFC, symBinAddr: 0x100009C0C, symSize: 0x50 }
  - { offsetInCU: 0x11527, offset: 0x11527, size: 0x8, addend: 0x0, symName: __ZNSt3__114__split_bufferIPcRNS_9allocatorIS1_EEE21_ConstructTransactionC1B7v160006EPPS1_m, symObjAddr: 0x7088, symBinAddr: 0x100009C98, symSize: 0x3C }
  - { offsetInCU: 0x1156D, offset: 0x1156D, size: 0x8, addend: 0x0, symName: __ZNSt3__116allocator_traitsINS_9allocatorIPcEEE9constructB7v160006IS2_JS2_EvEEvRS3_PT_DpOT0_, symObjAddr: 0x70C4, symBinAddr: 0x100009CD4, symSize: 0x34 }
  - { offsetInCU: 0x115C4, offset: 0x115C4, size: 0x8, addend: 0x0, symName: __ZNSt3__114__split_bufferIPcRNS_9allocatorIS1_EEE7__allocB7v160006Ev, symObjAddr: 0x70F8, symBinAddr: 0x100009D08, symSize: 0x28 }
  - { offsetInCU: 0x115EA, offset: 0x115EA, size: 0x8, addend: 0x0, symName: __ZNKSt3__113move_iteratorIPPcEdeB7v160006Ev, symObjAddr: 0x7120, symBinAddr: 0x100009D30, symSize: 0x18 }
  - { offsetInCU: 0x11610, offset: 0x11610, size: 0x8, addend: 0x0, symName: __ZNSt3__113move_iteratorIPPcEppB7v160006Ev, symObjAddr: 0x7138, symBinAddr: 0x100009D48, symSize: 0x20 }
  - { offsetInCU: 0x11636, offset: 0x11636, size: 0x8, addend: 0x0, symName: __ZNSt3__114__split_bufferIPcRNS_9allocatorIS1_EEE21_ConstructTransactionD1B7v160006Ev, symObjAddr: 0x7158, symBinAddr: 0x100009D68, symSize: 0x2C }
  - { offsetInCU: 0x11660, offset: 0x11660, size: 0x8, addend: 0x0, symName: __ZNKSt3__113move_iteratorIPPcE4baseB7v160006Ev, symObjAddr: 0x71FC, symBinAddr: 0x100009E0C, symSize: 0x18 }
  - { offsetInCU: 0x11686, offset: 0x11686, size: 0x8, addend: 0x0, symName: __ZNSt3__114__split_bufferIPcRNS_9allocatorIS1_EEE21_ConstructTransactionC2B7v160006EPPS1_m, symObjAddr: 0x7214, symBinAddr: 0x100009E24, symSize: 0x44 }
  - { offsetInCU: 0x116CC, offset: 0x116CC, size: 0x8, addend: 0x0, symName: __ZNSt3__19allocatorIPcE9constructB7v160006IS1_JS1_EEEvPT_DpOT0_, symObjAddr: 0x7258, symBinAddr: 0x100009E68, symSize: 0x28 }
  - { offsetInCU: 0x11722, offset: 0x11722, size: 0x8, addend: 0x0, symName: __ZNSt3__117__compressed_pairIPPcRNS_9allocatorIS1_EEE6secondB7v160006Ev, symObjAddr: 0x7280, symBinAddr: 0x100009E90, symSize: 0x28 }
  - { offsetInCU: 0x11748, offset: 0x11748, size: 0x8, addend: 0x0, symName: __ZNSt3__122__compressed_pair_elemIRNS_9allocatorIPcEELi1ELb0EE5__getB7v160006Ev, symObjAddr: 0x72A8, symBinAddr: 0x100009EB8, symSize: 0x18 }
  - { offsetInCU: 0x1176E, offset: 0x1176E, size: 0x8, addend: 0x0, symName: __ZNSt3__114__split_bufferIPcRNS_9allocatorIS1_EEE21_ConstructTransactionD2B7v160006Ev, symObjAddr: 0x72C0, symBinAddr: 0x100009ED0, symSize: 0x20 }
  - { offsetInCU: 0x11798, offset: 0x11798, size: 0x8, addend: 0x0, symName: __ZNSt3__113move_iteratorIPPcEC2B7v160006ES2_, symObjAddr: 0x72E0, symBinAddr: 0x100009EF0, symSize: 0x20 }
  - { offsetInCU: 0x117D0, offset: 0x117D0, size: 0x8, addend: 0x0, symName: __ZNSt3__19allocatorIPcE9constructB7v160006IS1_JRKS1_EEEvPT_DpOT0_, symObjAddr: 0x7300, symBinAddr: 0x100009F10, symSize: 0x28 }
  - { offsetInCU: 0x11826, offset: 0x11826, size: 0x8, addend: 0x0, symName: __ZNSt3__19allocatorIcE8allocateB7v160006Em, symObjAddr: 0x7328, symBinAddr: 0x100009F38, symSize: 0x58 }
  - { offsetInCU: 0x11864, offset: 0x11864, size: 0x8, addend: 0x0, symName: __ZNKSt3__123__move_backward_trivialclB7v160006IPcS2_Li0EEENS_4pairIPT_PT0_EES5_S5_S7_, symObjAddr: 0x74FC, symBinAddr: 0x10000A10C, symSize: 0x48 }
  - { offsetInCU: 0x118CC, offset: 0x118CC, size: 0x8, addend: 0x0, symName: __ZNSt3__14pairIPPcS2_EC1B7v160006IRS2_S5_LPv0EEEOT_OT0_, symObjAddr: 0x7610, symBinAddr: 0x10000A220, symSize: 0x3C }
  - { offsetInCU: 0x1192A, offset: 0x1192A, size: 0x8, addend: 0x0, symName: __ZNSt3__14pairIPPcS2_EC2B7v160006IRS2_S5_LPv0EEEOT_OT0_, symObjAddr: 0x764C, symBinAddr: 0x10000A25C, symSize: 0x34 }
  - { offsetInCU: 0x11992, offset: 0x11992, size: 0x8, addend: 0x0, symName: __ZNKSt3__16__lessImmEclB7v160006ERKmS3_, symObjAddr: 0x76D4, symBinAddr: 0x10000A2E4, symSize: 0x34 }
  - { offsetInCU: 0x119D4, offset: 0x119D4, size: 0x8, addend: 0x0, symName: __ZNSt3__114__split_bufferIPcRNS_9allocatorIS1_EEEC2EmmS4_, symObjAddr: 0x7708, symBinAddr: 0x10000A318, symSize: 0xD4 }
  - { offsetInCU: 0x11A47, offset: 0x11A47, size: 0x8, addend: 0x0, symName: __ZNSt3__117__compressed_pairIPPcRNS_9allocatorIS1_EEEC1B7v160006IDnS5_EEOT_OT0_, symObjAddr: 0x77DC, symBinAddr: 0x10000A3EC, symSize: 0x3C }
  - { offsetInCU: 0x11A9F, offset: 0x11A9F, size: 0x8, addend: 0x0, symName: __ZNSt3__117__compressed_pairIPPcRNS_9allocatorIS1_EEEC2B7v160006IDnS5_EEOT_OT0_, symObjAddr: 0x7858, symBinAddr: 0x10000A468, symSize: 0x48 }
  - { offsetInCU: 0x11AF7, offset: 0x11AF7, size: 0x8, addend: 0x0, symName: __ZNSt3__122__compressed_pair_elemIRNS_9allocatorIPcEELi1ELb0EEC2B7v160006IS4_vEEOT_, symObjAddr: 0x78A0, symBinAddr: 0x10000A4B0, symSize: 0x20 }
  - { offsetInCU: 0x11B39, offset: 0x11B39, size: 0x8, addend: 0x0, symName: __ZNSt3__19allocatorIPcE8allocateB7v160006Em, symObjAddr: 0x78C0, symBinAddr: 0x10000A4D0, symSize: 0x58 }
  - { offsetInCU: 0x11B77, offset: 0x11B77, size: 0x8, addend: 0x0, symName: __ZNSt3__116allocator_traitsINS_9allocatorIPcEEE8max_sizeB7v160006IS3_vEEmRKS3_, symObjAddr: 0x7918, symBinAddr: 0x10000A528, symSize: 0x24 }
  - { offsetInCU: 0x11BA5, offset: 0x11BA5, size: 0x8, addend: 0x0, symName: __ZNKSt3__19allocatorIPcE8max_sizeB7v160006Ev, symObjAddr: 0x793C, symBinAddr: 0x10000A54C, symSize: 0x14 }
  - { offsetInCU: 0x11BCB, offset: 0x11BCB, size: 0x8, addend: 0x0, symName: __ZNSt3__122__allocator_destructorINS_9allocatorIcEEEC2B7v160006ERS2_m, symObjAddr: 0x7950, symBinAddr: 0x10000A560, symSize: 0x2C }
  - { offsetInCU: 0x11C11, offset: 0x11C11, size: 0x8, addend: 0x0, symName: __ZNSt3__110unique_ptrIPcNS_22__allocator_destructorINS_9allocatorIcEEEEEC2B7v160006ILb1EvEES1_NS_16__dependent_typeINS_27__unique_ptr_deleter_sfinaeIS5_EEXT_EE20__good_rval_ref_typeE, symObjAddr: 0x797C, symBinAddr: 0x10000A58C, symSize: 0x48 }
  - { offsetInCU: 0x11C62, offset: 0x11C62, size: 0x8, addend: 0x0, symName: __ZNSt3__117__compressed_pairIPcNS_22__allocator_destructorINS_9allocatorIcEEEEEC1B7v160006IRS1_S5_EEOT_OT0_, symObjAddr: 0x79C4, symBinAddr: 0x10000A5D4, symSize: 0x3C }
  - { offsetInCU: 0x11CBA, offset: 0x11CBA, size: 0x8, addend: 0x0, symName: __ZNSt3__117__compressed_pairIPcNS_22__allocator_destructorINS_9allocatorIcEEEEEC2B7v160006IRS1_S5_EEOT_OT0_, symObjAddr: 0x7A00, symBinAddr: 0x10000A610, symSize: 0x48 }
  - { offsetInCU: 0x11D12, offset: 0x11D12, size: 0x8, addend: 0x0, symName: __ZNSt3__122__compressed_pair_elemIPcLi0ELb0EEC2B7v160006IRS1_vEEOT_, symObjAddr: 0x7A48, symBinAddr: 0x10000A658, symSize: 0x24 }
  - { offsetInCU: 0x11D54, offset: 0x11D54, size: 0x8, addend: 0x0, symName: __ZNSt3__122__compressed_pair_elemINS_22__allocator_destructorINS_9allocatorIcEEEELi1ELb0EEC2B7v160006IS4_vEEOT_, symObjAddr: 0x7A6C, symBinAddr: 0x10000A67C, symSize: 0x24 }
  - { offsetInCU: 0x11D96, offset: 0x11D96, size: 0x8, addend: 0x0, symName: __ZNKSt3__117__compressed_pairIPcNS_22__allocator_destructorINS_9allocatorIcEEEEE5firstB7v160006Ev, symObjAddr: 0x7A90, symBinAddr: 0x10000A6A0, symSize: 0x24 }
  - { offsetInCU: 0x11DBC, offset: 0x11DBC, size: 0x8, addend: 0x0, symName: __ZNKSt3__122__compressed_pair_elemIPcLi0ELb0EE5__getB7v160006Ev, symObjAddr: 0x7AB4, symBinAddr: 0x10000A6C4, symSize: 0x14 }
  - { offsetInCU: 0x11DE2, offset: 0x11DE2, size: 0x8, addend: 0x0, symName: __ZNSt3__117__compressed_pairIPcNS_22__allocator_destructorINS_9allocatorIcEEEEE5firstB7v160006Ev, symObjAddr: 0x7AC8, symBinAddr: 0x10000A6D8, symSize: 0x24 }
  - { offsetInCU: 0x11E08, offset: 0x11E08, size: 0x8, addend: 0x0, symName: __ZNSt3__122__compressed_pair_elemIPcLi0ELb0EE5__getB7v160006Ev, symObjAddr: 0x7AEC, symBinAddr: 0x10000A6FC, symSize: 0x14 }
  - { offsetInCU: 0x11E2E, offset: 0x11E2E, size: 0x8, addend: 0x0, symName: __ZNSt3__117__compressed_pairIPPcNS_9allocatorIS1_EEE5firstB7v160006Ev, symObjAddr: 0x7B00, symBinAddr: 0x10000A710, symSize: 0x24 }
  - { offsetInCU: 0x11E54, offset: 0x11E54, size: 0x8, addend: 0x0, symName: __ZNSt3__122__compressed_pair_elemIPPcLi0ELb0EE5__getB7v160006Ev, symObjAddr: 0x7B24, symBinAddr: 0x10000A734, symSize: 0x14 }
  - { offsetInCU: 0x11E7A, offset: 0x11E7A, size: 0x8, addend: 0x0, symName: __ZNSt3__117__compressed_pairIPPcRNS_9allocatorIS1_EEE5firstB7v160006Ev, symObjAddr: 0x7B38, symBinAddr: 0x10000A748, symSize: 0x24 }
  - { offsetInCU: 0x11EA0, offset: 0x11EA0, size: 0x8, addend: 0x0, symName: __ZNSt3__110unique_ptrIPcNS_22__allocator_destructorINS_9allocatorIcEEEEED2B7v160006Ev, symObjAddr: 0x7B5C, symBinAddr: 0x10000A76C, symSize: 0x30 }
  - { offsetInCU: 0x11ECA, offset: 0x11ECA, size: 0x8, addend: 0x0, symName: __ZNSt3__110unique_ptrIPcNS_22__allocator_destructorINS_9allocatorIcEEEEE5resetB7v160006ES1_, symObjAddr: 0x7B8C, symBinAddr: 0x10000A79C, symSize: 0x78 }
  - { offsetInCU: 0x11F0E, offset: 0x11F0E, size: 0x8, addend: 0x0, symName: __ZNSt3__117__compressed_pairIPcNS_22__allocator_destructorINS_9allocatorIcEEEEE6secondB7v160006Ev, symObjAddr: 0x7C04, symBinAddr: 0x10000A814, symSize: 0x28 }
  - { offsetInCU: 0x11F34, offset: 0x11F34, size: 0x8, addend: 0x0, symName: __ZNSt3__122__allocator_destructorINS_9allocatorIcEEEclB7v160006EPc, symObjAddr: 0x7C2C, symBinAddr: 0x10000A83C, symSize: 0x34 }
  - { offsetInCU: 0x11F68, offset: 0x11F68, size: 0x8, addend: 0x0, symName: __ZNSt3__122__compressed_pair_elemINS_22__allocator_destructorINS_9allocatorIcEEEELi1ELb0EE5__getB7v160006Ev, symObjAddr: 0x7C60, symBinAddr: 0x10000A870, symSize: 0x14 }
  - { offsetInCU: 0x11F8E, offset: 0x11F8E, size: 0x8, addend: 0x0, symName: __ZNSt3__114__split_bufferIPcRNS_9allocatorIS1_EEED2Ev, symObjAddr: 0x7C74, symBinAddr: 0x10000A884, symSize: 0x8C }
  - { offsetInCU: 0x11FBA, offset: 0x11FBA, size: 0x8, addend: 0x0, symName: __ZNSt3__114__split_bufferIPcRNS_9allocatorIS1_EEE5clearB7v160006Ev, symObjAddr: 0x7D00, symBinAddr: 0x10000A910, symSize: 0x28 }
  - { offsetInCU: 0x11FE0, offset: 0x11FE0, size: 0x8, addend: 0x0, symName: __ZNKSt3__114__split_bufferIPcRNS_9allocatorIS1_EEE8capacityB7v160006Ev, symObjAddr: 0x7D28, symBinAddr: 0x10000A938, symSize: 0x40 }
  - { offsetInCU: 0x12006, offset: 0x12006, size: 0x8, addend: 0x0, symName: __ZNSt3__114__split_bufferIPcRNS_9allocatorIS1_EEE17__destruct_at_endB7v160006EPS1_, symObjAddr: 0x7D68, symBinAddr: 0x10000A978, symSize: 0x2C }
  - { offsetInCU: 0x1203A, offset: 0x1203A, size: 0x8, addend: 0x0, symName: __ZNSt3__114__split_bufferIPcRNS_9allocatorIS1_EEE17__destruct_at_endB7v160006EPS1_NS_17integral_constantIbLb0EEE, symObjAddr: 0x7D94, symBinAddr: 0x10000A9A4, symSize: 0x80 }
  - { offsetInCU: 0x1207A, offset: 0x1207A, size: 0x8, addend: 0x0, symName: __ZNKSt3__114__split_bufferIPcRNS_9allocatorIS1_EEE9__end_capB7v160006Ev, symObjAddr: 0x7E14, symBinAddr: 0x10000AA24, symSize: 0x28 }
  - { offsetInCU: 0x120A0, offset: 0x120A0, size: 0x8, addend: 0x0, symName: __ZNKSt3__117__compressed_pairIPPcRNS_9allocatorIS1_EEE5firstB7v160006Ev, symObjAddr: 0x7E3C, symBinAddr: 0x10000AA4C, symSize: 0x24 }
  - { offsetInCU: 0x120C6, offset: 0x120C6, size: 0x8, addend: 0x0, symName: __ZNSt3__19allocatorIcE9constructB7v160006IcJRKcEEEvPT_DpOT0_, symObjAddr: 0x7E60, symBinAddr: 0x10000AA70, symSize: 0x28 }
  - { offsetInCU: 0x1211C, offset: 0x1211C, size: 0x8, addend: 0x0, symName: __ZNKSt3__112basic_stringIcNS_11char_traitsIcEENS_9allocatorIcEEE4dataB7v160006Ev, symObjAddr: 0x8074, symBinAddr: 0x10000AC84, symSize: 0x28 }
  - { offsetInCU: 0x12160, offset: 0x12160, size: 0x8, addend: 0x0, symName: __ZNKSt3__113basic_ostreamIcNS_11char_traitsIcEEE6sentrycvbB7v160006Ev, symObjAddr: 0x809C, symBinAddr: 0x10000ACAC, symSize: 0x1C }
  - { offsetInCU: 0x12186, offset: 0x12186, size: 0x8, addend: 0x0, symName: __ZNSt3__119ostreambuf_iteratorIcNS_11char_traitsIcEEEC1B7v160006ERNS_13basic_ostreamIcS2_EE, symObjAddr: 0x82F8, symBinAddr: 0x10000AF08, symSize: 0x34 }
  - { offsetInCU: 0x121BE, offset: 0x121BE, size: 0x8, addend: 0x0, symName: __ZNKSt3__18ios_base5flagsB7v160006Ev, symObjAddr: 0x832C, symBinAddr: 0x10000AF3C, symSize: 0x18 }
  - { offsetInCU: 0x121E6, offset: 0x121E6, size: 0x8, addend: 0x0, symName: __ZNKSt3__19basic_iosIcNS_11char_traitsIcEEE4fillB7v160006Ev, symObjAddr: 0x8344, symBinAddr: 0x10000AF54, symSize: 0x64 }
  - { offsetInCU: 0x1220E, offset: 0x1220E, size: 0x8, addend: 0x0, symName: __ZNKSt3__119ostreambuf_iteratorIcNS_11char_traitsIcEEE6failedB7v160006Ev, symObjAddr: 0x83A8, symBinAddr: 0x10000AFB8, symSize: 0x24 }
  - { offsetInCU: 0x12234, offset: 0x12234, size: 0x8, addend: 0x0, symName: __ZNSt3__115basic_streambufIcNS_11char_traitsIcEEE5sputnB7v160006EPKcl, symObjAddr: 0x83CC, symBinAddr: 0x10000AFDC, symSize: 0x3C }
  - { offsetInCU: 0x12276, offset: 0x12276, size: 0x8, addend: 0x0, symName: __ZNSt3__112basic_stringIcNS_11char_traitsIcEENS_9allocatorIcEEEC1B7v160006Emc, symObjAddr: 0x8408, symBinAddr: 0x10000B018, symSize: 0x3C }
  - { offsetInCU: 0x122BE, offset: 0x122BE, size: 0x8, addend: 0x0, symName: __ZNSt3__112basic_stringIcNS_11char_traitsIcEENS_9allocatorIcEEE4dataB7v160006Ev, symObjAddr: 0x8444, symBinAddr: 0x10000B054, symSize: 0x28 }
  - { offsetInCU: 0x122E4, offset: 0x122E4, size: 0x8, addend: 0x0, symName: __ZNSt3__112basic_stringIcNS_11char_traitsIcEENS_9allocatorIcEEEC2B7v160006Emc, symObjAddr: 0x846C, symBinAddr: 0x10000B07C, symSize: 0x54 }
  - { offsetInCU: 0x1232C, offset: 0x1232C, size: 0x8, addend: 0x0, symName: __ZNSt3__112basic_stringIcNS_11char_traitsIcEENS_9allocatorIcEEE13__get_pointerB7v160006Ev, symObjAddr: 0x84C0, symBinAddr: 0x10000B0D0, symSize: 0x54 }
  - { offsetInCU: 0x12352, offset: 0x12352, size: 0x8, addend: 0x0, symName: __ZNSt3__119ostreambuf_iteratorIcNS_11char_traitsIcEEEC2B7v160006ERNS_13basic_ostreamIcS2_EE, symObjAddr: 0x8514, symBinAddr: 0x10000B124, symSize: 0x54 }
  - { offsetInCU: 0x1238A, offset: 0x1238A, size: 0x8, addend: 0x0, symName: __ZNKSt3__19basic_iosIcNS_11char_traitsIcEEE5widenB7v160006Ec, symObjAddr: 0x8568, symBinAddr: 0x10000B178, symSize: 0x84 }
  - { offsetInCU: 0x123C1, offset: 0x123C1, size: 0x8, addend: 0x0, symName: __ZNKSt3__15ctypeIcE5widenB7v160006Ec, symObjAddr: 0x85EC, symBinAddr: 0x10000B1FC, symSize: 0x38 }
  - { offsetInCU: 0x123F6, offset: 0x123F6, size: 0x8, addend: 0x0, symName: __ZNKSt3__112basic_stringIcNS_11char_traitsIcEENS_9allocatorIcEEE13__get_pointerB7v160006Ev, symObjAddr: 0x8638, symBinAddr: 0x10000B248, symSize: 0x54 }
  - { offsetInCU: 0x1241C, offset: 0x1241C, size: 0x8, addend: 0x0, symName: __ZNKSt3__112basic_stringIcNS_11char_traitsIcEENS_9allocatorIcEEE18__get_long_pointerB7v160006Ev, symObjAddr: 0x868C, symBinAddr: 0x10000B29C, symSize: 0x28 }
  - { offsetInCU: 0x12442, offset: 0x12442, size: 0x8, addend: 0x0, symName: __ZNKSt3__112basic_stringIcNS_11char_traitsIcEENS_9allocatorIcEEE19__get_short_pointerB7v160006Ev, symObjAddr: 0x86B4, symBinAddr: 0x10000B2C4, symSize: 0x28 }
  - { offsetInCU: 0x12468, offset: 0x12468, size: 0x8, addend: 0x0, symName: __ZNSt3__114pointer_traitsIPKcE10pointer_toB7v160006ERS1_, symObjAddr: 0x86DC, symBinAddr: 0x10000B2EC, symSize: 0x14 }
...
