---
triple:          'arm64-apple-darwin'
binary-path:     '/Users/dingkai/Code/IOI2024/NZOI/2019-1-3.gout'
relocations:
  - { offsetInCU: 0xBB, offset: 0xBB, size: 0x8, addend: 0x0, symName: __ZSt17__size_to_integerm, symObjAddr: 0x0, symBinAddr: 0x100000FBC, symSize: 0x14 }
  - { offsetInCU: 0xECD7, offset: 0xECD7, size: 0x8, addend: 0x0, symName: __ZStL8__ioinit, symObjAddr: 0x67520, symBinAddr: 0x100010197, symSize: 0x0 }
  - { offsetInCU: 0xEEEF, offset: 0xEEEF, size: 0x8, addend: 0x0, symName: _mpTeaToId, symObjAddr: 0x67528, symBinAddr: 0x100010198, symSize: 0x0 }
  - { offsetInCU: 0xF0B5, offset: 0xF0B5, size: 0x8, addend: 0x0, symName: __Z14mpNameToPantryB5cxx11, symObjAddr: 0x67558, symBinAddr: 0x1000101C8, symSize: 0x0 }
  - { offsetInCU: 0xF1B5, offset: 0xF1B5, size: 0x8, addend: 0x0, symName: __Z5namesB5cxx11, symObjAddr: 0x67588, symBinAddr: 0x1000101F8, symSize: 0x0 }
  - { offsetInCU: 0xF2E2, offset: 0xF2E2, size: 0x8, addend: 0x0, symName: _teaDemandCnt, symObjAddr: 0x675A0, symBinAddr: 0x100010210, symSize: 0x0 }
  - { offsetInCU: 0xF724, offset: 0xF724, size: 0x8, addend: 0x0, symName: __GLOBAL__sub_I_2019_1_3.cpp, symObjAddr: 0x5C9C, symBinAddr: 0x100006C58, symSize: 0x14 }
  - { offsetInCU: 0xF791, offset: 0xF791, size: 0x8, addend: 0x0, symName: __ZNSt6vectorINSt7__cxx1112basic_stringIcSt11char_traitsIcESaIcEEESaIS5_EED1Ev, symObjAddr: 0x5C40, symBinAddr: 0x100006BFC, symSize: 0x5C }
  - { offsetInCU: 0xF7C0, offset: 0xF7C0, size: 0x8, addend: 0x0, symName: __Z41__static_initialization_and_destruction_0v, symObjAddr: 0x5B10, symBinAddr: 0x100006ACC, symSize: 0x130 }
  - { offsetInCU: 0xF8C2, offset: 0xF8C2, size: 0x8, addend: 0x0, symName: __ZNSt3mapINSt7__cxx1112basic_stringIcSt11char_traitsIcESaIcEEESt6vectorIiSaIiEESt4lessIS5_ESaISt4pairIKS5_S8_EEED1Ev, symObjAddr: 0x5AF0, symBinAddr: 0x100006AAC, symSize: 0x20 }
  - { offsetInCU: 0xF8BE, offset: 0xF8BE, size: 0x8, addend: 0x0, symName: __ZNSt3mapIciSt4lessIcESaISt4pairIKciEEED1Ev, symObjAddr: 0x5AD0, symBinAddr: 0x100006A8C, symSize: 0x20 }
  - { offsetInCU: 0xF8B6, offset: 0xF8B6, size: 0x8, addend: 0x0, symName: __ZNSt10_Head_baseILm0ERKNSt7__cxx1112basic_stringIcSt11char_traitsIcESaIcEEELb0EE7_M_headERS8_, symObjAddr: 0x5AB8, symBinAddr: 0x100006A74, symSize: 0x18 }
  - { offsetInCU: 0xF8DD, offset: 0xF8DD, size: 0x8, addend: 0x0, symName: __ZNSt10_Head_baseILm0ERKcLb0EE7_M_headERS2_, symObjAddr: 0x5AA0, symBinAddr: 0x100006A5C, symSize: 0x18 }
  - { offsetInCU: 0xF904, offset: 0xF904, size: 0x8, addend: 0x0, symName: __ZNSt10_Head_baseILm0EOcLb0EE7_M_headERS1_, symObjAddr: 0x5A88, symBinAddr: 0x100006A44, symSize: 0x18 }
  - { offsetInCU: 0xF92B, offset: 0xF92B, size: 0x8, addend: 0x0, symName: __ZNSt11_Tuple_implILm0EJRKNSt7__cxx1112basic_stringIcSt11char_traitsIcESaIcEEEEE7_M_headERS8_, symObjAddr: 0x5A6C, symBinAddr: 0x100006A28, symSize: 0x1C }
  - { offsetInCU: 0xF953, offset: 0xF953, size: 0x8, addend: 0x0, symName: __ZNSt11_Tuple_implILm0EJRKcEE7_M_headERS2_, symObjAddr: 0x5A50, symBinAddr: 0x100006A0C, symSize: 0x1C }
  - { offsetInCU: 0xF97B, offset: 0xF97B, size: 0x8, addend: 0x0, symName: __ZNSt11_Tuple_implILm0EJOcEE7_M_headERS1_, symObjAddr: 0x5A34, symBinAddr: 0x1000069F0, symSize: 0x1C }
  - { offsetInCU: 0xF9A3, offset: 0xF9A3, size: 0x8, addend: 0x0, symName: __ZSt12__get_helperILm0ERKNSt7__cxx1112basic_stringIcSt11char_traitsIcESaIcEEEJEERT0_RSt11_Tuple_implIXT_EJS8_DpT1_EE, symObjAddr: 0x5A18, symBinAddr: 0x1000069D4, symSize: 0x1C }
  - { offsetInCU: 0xF9E3, offset: 0xF9E3, size: 0x8, addend: 0x0, symName: __ZSt12__get_helperILm0ERKcJEERT0_RSt11_Tuple_implIXT_EJS2_DpT1_EE, symObjAddr: 0x59FC, symBinAddr: 0x1000069B8, symSize: 0x1C }
  - { offsetInCU: 0xFA23, offset: 0xFA23, size: 0x8, addend: 0x0, symName: __ZSt12__get_helperILm0EOcJEERT0_RSt11_Tuple_implIXT_EJS1_DpT1_EE, symObjAddr: 0x59E0, symBinAddr: 0x10000699C, symSize: 0x1C }
  - { offsetInCU: 0xFAA9, offset: 0xFAA9, size: 0x8, addend: 0x0, symName: __ZNSt12_Vector_baseIiSaIiEE12_Vector_implC1Ev, symObjAddr: 0x59A8, symBinAddr: 0x100006964, symSize: 0x38 }
  - { offsetInCU: 0xFAE7, offset: 0xFAE7, size: 0x8, addend: 0x0, symName: __ZSt7forwardIRKNSt7__cxx1112basic_stringIcSt11char_traitsIcESaIcEEEEOT_RNSt16remove_referenceIS8_E4typeE, symObjAddr: 0x5994, symBinAddr: 0x100006950, symSize: 0x14 }
  - { offsetInCU: 0xFB17, offset: 0xFB17, size: 0x8, addend: 0x0, symName: __ZSt3getILm0EJRKNSt7__cxx1112basic_stringIcSt11char_traitsIcESaIcEEEEERNSt13tuple_elementIXT_ESt5tupleIJDpT0_EEE4typeERSC_, symObjAddr: 0x5978, symBinAddr: 0x100006934, symSize: 0x1C }
  - { offsetInCU: 0xFB5A, offset: 0xFB5A, size: 0x8, addend: 0x0, symName: __ZSt7forwardIRKcEOT_RNSt16remove_referenceIS2_E4typeE, symObjAddr: 0x5964, symBinAddr: 0x100006920, symSize: 0x14 }
  - { offsetInCU: 0xFB8A, offset: 0xFB8A, size: 0x8, addend: 0x0, symName: __ZSt3getILm0EJRKcEERNSt13tuple_elementIXT_ESt5tupleIJDpT0_EEE4typeERS6_, symObjAddr: 0x5948, symBinAddr: 0x100006904, symSize: 0x1C }
  - { offsetInCU: 0xFBCD, offset: 0xFBCD, size: 0x8, addend: 0x0, symName: __ZSt7forwardIOcEOT_RNSt16remove_referenceIS1_E4typeE, symObjAddr: 0x5934, symBinAddr: 0x1000068F0, symSize: 0x14 }
  - { offsetInCU: 0xFBFD, offset: 0xFBFD, size: 0x8, addend: 0x0, symName: __ZSt3getILm0EJOcEERNSt13tuple_elementIXT_ESt5tupleIJDpT0_EEE4typeERS5_, symObjAddr: 0x5918, symBinAddr: 0x1000068D4, symSize: 0x1C }
  - { offsetInCU: 0xFD4C, offset: 0xFD4C, size: 0x8, addend: 0x0, symName: __ZNSt4pairIKNSt7__cxx1112basic_stringIcSt11char_traitsIcESaIcEEESt6vectorIiSaIiEEEC1IJRS6_EJLm0EEJEJEEERSt5tupleIJDpT_EERSD_IJDpT1_EESt12_Index_tupleIJXspT0_EEESM_IJXspT2_EEE, symObjAddr: 0x58B0, symBinAddr: 0x10000686C, symSize: 0x68 }
  - { offsetInCU: 0xFD39, offset: 0xFD39, size: 0x8, addend: 0x0, symName: __ZNSt6vectorIiSaIiEEC1Ev, symObjAddr: 0x5890, symBinAddr: 0x10000684C, symSize: 0x20 }
  - { offsetInCU: 0xFD7C, offset: 0xFD7C, size: 0x8, addend: 0x0, symName: __ZNSt12_Vector_baseIiSaIiEEC2Ev, symObjAddr: 0x5870, symBinAddr: 0x10000682C, symSize: 0x20 }
  - { offsetInCU: 0xFE4F, offset: 0xFE4F, size: 0x8, addend: 0x0, symName: __ZNSt4pairIKciEC1IJRS0_EJLm0EEJEJEEERSt5tupleIJDpT_EERS4_IJDpT1_EESt12_Index_tupleIJXspT0_EEESD_IJXspT2_EEE, symObjAddr: 0x5828, symBinAddr: 0x1000067E4, symSize: 0x48 }
  - { offsetInCU: 0xFF1B, offset: 0xFF1B, size: 0x8, addend: 0x0, symName: __ZNSt4pairIKciEC1IJOcEJLm0EEJEJEEERSt5tupleIJDpT_EERS4_IJDpT1_EESt12_Index_tupleIJXspT0_EEESD_IJXspT2_EEE, symObjAddr: 0x57E0, symBinAddr: 0x10000679C, symSize: 0x48 }
  - { offsetInCU: 0xFF1C, offset: 0xFF1C, size: 0x8, addend: 0x0, symName: __ZSt9__fill_a1IPiiEN9__gnu_cxx11__enable_ifIXsrSt11__is_scalarIT0_E7__valueEvE6__typeET_S8_RKS4_, symObjAddr: 0x5788, symBinAddr: 0x100006744, symSize: 0x58 }
  - { offsetInCU: 0xFFF3, offset: 0xFFF3, size: 0x8, addend: 0x0, symName: __ZSt7forwardINSt7__cxx1112basic_stringIcSt11char_traitsIcESaIcEEEEOT_RNSt16remove_referenceIS6_E4typeE, symObjAddr: 0x5774, symBinAddr: 0x100006730, symSize: 0x14 }
  - { offsetInCU: 0x100FF, offset: 0x100FF, size: 0x8, addend: 0x0, symName: __ZNSt4pairIKNSt7__cxx1112basic_stringIcSt11char_traitsIcESaIcEEESt6vectorIiSaIiEEEC1IJRS6_EJEEESt21piecewise_construct_tSt5tupleIJDpT_EESE_IJDpT0_EE, symObjAddr: 0x5738, symBinAddr: 0x1000066F4, symSize: 0x3C }
  - { offsetInCU: 0x10134, offset: 0x10134, size: 0x8, addend: 0x0, symName: __ZNSt11_Tuple_implILm0EJRKNSt7__cxx1112basic_stringIcSt11char_traitsIcESaIcEEEEEC2EOS8_, symObjAddr: 0x5710, symBinAddr: 0x1000066CC, symSize: 0x28 }
  - { offsetInCU: 0x101B5, offset: 0x101B5, size: 0x8, addend: 0x0, symName: __ZNSt4pairIKciEC1IJRS0_EJEEESt21piecewise_construct_tSt5tupleIJDpT_EES5_IJDpT0_EE, symObjAddr: 0x56D4, symBinAddr: 0x100006690, symSize: 0x3C }
  - { offsetInCU: 0x101FA, offset: 0x101FA, size: 0x8, addend: 0x0, symName: __ZNSt11_Tuple_implILm0EJRKcEEC2EOS2_, symObjAddr: 0x56AC, symBinAddr: 0x100006668, symSize: 0x28 }
  - { offsetInCU: 0x10298, offset: 0x10298, size: 0x8, addend: 0x0, symName: __ZNSt4pairIKciEC1IJOcEJEEESt21piecewise_construct_tSt5tupleIJDpT_EES5_IJDpT0_EE, symObjAddr: 0x5670, symBinAddr: 0x10000662C, symSize: 0x3C }
  - { offsetInCU: 0x102DE, offset: 0x102DE, size: 0x8, addend: 0x0, symName: __ZNSt11_Tuple_implILm0EJOcEEC2EOS1_, symObjAddr: 0x5648, symBinAddr: 0x100006604, symSize: 0x28 }
  - { offsetInCU: 0x102FA, offset: 0x102FA, size: 0x8, addend: 0x0, symName: __ZSt8__fill_aIPiiEvT_S1_RKT0_, symObjAddr: 0x5618, symBinAddr: 0x1000065D4, symSize: 0x30 }
  - { offsetInCU: 0x103C1, offset: 0x103C1, size: 0x8, addend: 0x0, symName: __ZNSt11__copy_moveILb0ELb0ESt26random_access_iterator_tagE12__assign_oneIiiEEvPT_PT0_, symObjAddr: 0x55F0, symBinAddr: 0x1000065AC, symSize: 0x28 }
  - { offsetInCU: 0x1040B, offset: 0x1040B, size: 0x8, addend: 0x0, symName: __ZNSt11__copy_moveILb0ELb0ESt26random_access_iterator_tagE12__assign_oneIiKiEEvPT_PT0_, symObjAddr: 0x55C8, symBinAddr: 0x100006584, symSize: 0x28 }
  - { offsetInCU: 0x1045E, offset: 0x1045E, size: 0x8, addend: 0x0, symName: __ZNK9__gnu_cxx16__aligned_membufISt4pairIKNSt7__cxx1112basic_stringIcSt11char_traitsIcESaIcEEESt6vectorIiSaIiEEEE7_M_addrEv, symObjAddr: 0x55B4, symBinAddr: 0x100006570, symSize: 0x14 }
  - { offsetInCU: 0x1054B, offset: 0x1054B, size: 0x8, addend: 0x0, symName: __ZNSt5tupleIJRKNSt7__cxx1112basic_stringIcSt11char_traitsIcESaIcEEEEEC1EOS8_, symObjAddr: 0x558C, symBinAddr: 0x100006548, symSize: 0x28 }
  - { offsetInCU: 0x1052E, offset: 0x1052E, size: 0x8, addend: 0x0, symName: __ZNSt15__new_allocatorISt13_Rb_tree_nodeISt4pairIKNSt7__cxx1112basic_stringIcSt11char_traitsIcESaIcEEESt6vectorIiSaIiEEEEE8allocateEmPKv, symObjAddr: 0x54E4, symBinAddr: 0x1000064A0, symSize: 0xA8 }
  - { offsetInCU: 0x10626, offset: 0x10626, size: 0x8, addend: 0x0, symName: __ZNSt5tupleIJRKcEEC1EOS2_, symObjAddr: 0x54BC, symBinAddr: 0x100006478, symSize: 0x28 }
  - { offsetInCU: 0x10641, offset: 0x10641, size: 0x8, addend: 0x0, symName: __ZNK9__gnu_cxx16__aligned_membufISt4pairIKciEE7_M_addrEv, symObjAddr: 0x54A8, symBinAddr: 0x100006464, symSize: 0x14 }
  - { offsetInCU: 0x106EE, offset: 0x106EE, size: 0x8, addend: 0x0, symName: __ZNSt5tupleIJOcEEC1EOS1_, symObjAddr: 0x5480, symBinAddr: 0x10000643C, symSize: 0x28 }
  - { offsetInCU: 0x10705, offset: 0x10705, size: 0x8, addend: 0x0, symName: __ZNSt15__new_allocatorISt13_Rb_tree_nodeISt4pairIKciEEE8allocateEmPKv, symObjAddr: 0x53F0, symBinAddr: 0x1000063AC, symSize: 0x90 }
  - { offsetInCU: 0x10774, offset: 0x10774, size: 0x8, addend: 0x0, symName: __ZSt10__fill_n_aIPimiET_S1_T0_RKT1_St26random_access_iterator_tag, symObjAddr: 0x538C, symBinAddr: 0x100006348, symSize: 0x64 }
  - { offsetInCU: 0x107F6, offset: 0x107F6, size: 0x8, addend: 0x0, symName: __ZSt13__copy_move_aILb0EN9__gnu_cxx17__normal_iteratorIPKiSt6vectorIiSaIiEEEEPiET1_T0_SA_S9_, symObjAddr: 0x532C, symBinAddr: 0x1000062E8, symSize: 0x60 }
  - { offsetInCU: 0x1085A, offset: 0x1085A, size: 0x8, addend: 0x0, symName: __ZSt8_DestroyINSt7__cxx1112basic_stringIcSt11char_traitsIcESaIcEEEEvPT_, symObjAddr: 0x530C, symBinAddr: 0x1000062C8, symSize: 0x20 }
  - { offsetInCU: 0x1088A, offset: 0x1088A, size: 0x8, addend: 0x0, symName: __ZSt19__relocate_object_aINSt7__cxx1112basic_stringIcSt11char_traitsIcESaIcEEES5_SaIS5_EEvPT_PT0_RT1_, symObjAddr: 0x523C, symBinAddr: 0x1000061F8, symSize: 0xD0 }
  - { offsetInCU: 0x109BE, offset: 0x109BE, size: 0x8, addend: 0x0, symName: __ZSt10_ConstructINSt7__cxx1112basic_stringIcSt11char_traitsIcESaIcEEEJEEvPT_DpOT0_, symObjAddr: 0x5210, symBinAddr: 0x1000061CC, symSize: 0x2C }
  - { offsetInCU: 0x109F8, offset: 0x109F8, size: 0x8, addend: 0x0, symName: __ZSt11__addressofINSt7__cxx1112basic_stringIcSt11char_traitsIcESaIcEEEEPT_RS6_, symObjAddr: 0x51FC, symBinAddr: 0x1000061B8, symSize: 0x14 }
  - { offsetInCU: 0x10A3C, offset: 0x10A3C, size: 0x8, addend: 0x0, symName: __ZNSt11__copy_moveILb0ELb1ESt26random_access_iterator_tagE8__copy_mIiiEEPT0_PT_S6_S4_, symObjAddr: 0x516C, symBinAddr: 0x100006128, symSize: 0x90 }
  - { offsetInCU: 0x10AA6, offset: 0x10AA6, size: 0x8, addend: 0x0, symName: __ZNSt11__copy_moveILb0ELb1ESt26random_access_iterator_tagE8__copy_mIKiiEEPT0_PT_S7_S5_, symObjAddr: 0x50DC, symBinAddr: 0x100006098, symSize: 0x90 }
  - { offsetInCU: 0x10B14, offset: 0x10B14, size: 0x8, addend: 0x0, symName: __ZNK9__gnu_cxx16__aligned_membufISt4pairIKNSt7__cxx1112basic_stringIcSt11char_traitsIcESaIcEEESt6vectorIiSaIiEEEE6_M_ptrEv, symObjAddr: 0x50C0, symBinAddr: 0x10000607C, symSize: 0x1C }
  - { offsetInCU: 0x10B46, offset: 0x10B46, size: 0x8, addend: 0x0, symName: __ZSt7forwardIRPSt13_Rb_tree_nodeISt4pairIKNSt7__cxx1112basic_stringIcSt11char_traitsIcESaIcEEESt6vectorIiSaIiEEEEEOT_RNSt16remove_referenceISG_E4typeE, symObjAddr: 0x50AC, symBinAddr: 0x100006068, symSize: 0x14 }
  - { offsetInCU: 0x10C48, offset: 0x10C48, size: 0x8, addend: 0x0, symName: __ZNK9__gnu_cxx16__aligned_membufISt4pairIKciEE6_M_ptrEv, symObjAddr: 0x5090, symBinAddr: 0x10000604C, symSize: 0x1C }
  - { offsetInCU: 0x10C7A, offset: 0x10C7A, size: 0x8, addend: 0x0, symName: __ZSt7forwardIRPSt13_Rb_tree_nodeISt4pairIKciEEEOT_RNSt16remove_referenceIS7_E4typeE, symObjAddr: 0x507C, symBinAddr: 0x100006038, symSize: 0x14 }
  - { offsetInCU: 0x10D22, offset: 0x10D22, size: 0x8, addend: 0x0, symName: __ZSt6fill_nIPimiET_S1_T0_RKT1_, symObjAddr: 0x5034, symBinAddr: 0x100005FF0, symSize: 0x48 }
  - { offsetInCU: 0x10DBC, offset: 0x10DBC, size: 0x8, addend: 0x0, symName: __ZNSt15__new_allocatorISt13_Rb_tree_nodeISt4pairIKNSt7__cxx1112basic_stringIcSt11char_traitsIcESaIcEEESt6vectorIiSaIiEEEEE10deallocateEPSD_m, symObjAddr: 0x4FF0, symBinAddr: 0x100005FAC, symSize: 0x44 }
  - { offsetInCU: 0x10EA5, offset: 0x10EA5, size: 0x8, addend: 0x0, symName: __ZNSt4pairIKNSt7__cxx1112basic_stringIcSt11char_traitsIcESaIcEEESt6vectorIiSaIiEEED1Ev, symObjAddr: 0x4FC4, symBinAddr: 0x100005F80, symSize: 0x2C }
  - { offsetInCU: 0x10E76, offset: 0x10E76, size: 0x8, addend: 0x0, symName: __ZNSt15__new_allocatorISt13_Rb_tree_nodeISt4pairIKciEEE10deallocateEPS4_m, symObjAddr: 0x4F88, symBinAddr: 0x100005F44, symSize: 0x3C }
  - { offsetInCU: 0x10EE3, offset: 0x10EE3, size: 0x8, addend: 0x0, symName: __ZSt4copyIN9__gnu_cxx17__normal_iteratorIPKiSt6vectorIiSaIiEEEEPiET0_T_SA_S9_, symObjAddr: 0x4F40, symBinAddr: 0x100005EFC, symSize: 0x48 }
  - { offsetInCU: 0x10F3D, offset: 0x10F3D, size: 0x8, addend: 0x0, symName: __ZNSt12_Destroy_auxILb0EE9__destroyIPNSt7__cxx1112basic_stringIcSt11char_traitsIcESaIcEEEEEvT_S9_, symObjAddr: 0x4EF4, symBinAddr: 0x100005EB0, symSize: 0x4C }
  - { offsetInCU: 0x10F7C, offset: 0x10F7C, size: 0x8, addend: 0x0, symName: __ZSt14__relocate_a_1IPNSt7__cxx1112basic_stringIcSt11char_traitsIcESaIcEEES6_SaIS5_EET0_T_S9_S8_RT1_, symObjAddr: 0x4E70, symBinAddr: 0x100005E2C, symSize: 0x84 }
  - { offsetInCU: 0x10FFF, offset: 0x10FFF, size: 0x8, addend: 0x0, symName: __ZSt12__niter_baseIPNSt7__cxx1112basic_stringIcSt11char_traitsIcESaIcEEEET_S7_, symObjAddr: 0x4E5C, symBinAddr: 0x100005E18, symSize: 0x14 }
  - { offsetInCU: 0x11034, offset: 0x11034, size: 0x8, addend: 0x0, symName: __ZNSt15__new_allocatorINSt7__cxx1112basic_stringIcSt11char_traitsIcESaIcEEEE8allocateEmPKv, symObjAddr: 0x4DE0, symBinAddr: 0x100005D9C, symSize: 0x7C }
  - { offsetInCU: 0x110A3, offset: 0x110A3, size: 0x8, addend: 0x0, symName: __ZNSt27__uninitialized_default_n_1ILb0EE18__uninit_default_nIPNSt7__cxx1112basic_stringIcSt11char_traitsIcESaIcEEEmEET_S9_T0_, symObjAddr: 0x4D88, symBinAddr: 0x100005D44, symSize: 0x58 }
  - { offsetInCU: 0x11112, offset: 0x11112, size: 0x8, addend: 0x0, symName: __ZSt14__copy_move_a2ILb0EPiS0_ET1_T0_S2_S1_, symObjAddr: 0x4D5C, symBinAddr: 0x100005D18, symSize: 0x2C }
  - { offsetInCU: 0x1117A, offset: 0x1117A, size: 0x8, addend: 0x0, symName: __ZNK9__gnu_cxx17__normal_iteratorIPiSt6vectorIiSaIiEEEplEl, symObjAddr: 0x4D1C, symBinAddr: 0x100005CD8, symSize: 0x40 }
  - { offsetInCU: 0x111B0, offset: 0x111B0, size: 0x8, addend: 0x0, symName: __ZSt14__copy_move_a2ILb0EPKiPiET1_T0_S4_S3_, symObjAddr: 0x4CF0, symBinAddr: 0x100005CAC, symSize: 0x2C }
  - { offsetInCU: 0x11218, offset: 0x11218, size: 0x8, addend: 0x0, symName: __ZNK9__gnu_cxx17__normal_iteratorIPKiSt6vectorIiSaIiEEE4baseEv, symObjAddr: 0x4CDC, symBinAddr: 0x100005C98, symSize: 0x14 }
  - { offsetInCU: 0x11242, offset: 0x11242, size: 0x8, addend: 0x0, symName: __ZNSt15__new_allocatorIiE8allocateEmPKv, symObjAddr: 0x4C60, symBinAddr: 0x100005C1C, symSize: 0x7C }
  - { offsetInCU: 0x112B5, offset: 0x112B5, size: 0x8, addend: 0x0, symName: __ZNKSt10_Select1stISt4pairIKNSt7__cxx1112basic_stringIcSt11char_traitsIcESaIcEEESt6vectorIiSaIiEEEEclERKSB_, symObjAddr: 0x4C48, symBinAddr: 0x100005C04, symSize: 0x18 }
  - { offsetInCU: 0x112EF, offset: 0x112EF, size: 0x8, addend: 0x0, symName: __ZNKSt13_Rb_tree_nodeISt4pairIKNSt7__cxx1112basic_stringIcSt11char_traitsIcESaIcEEESt6vectorIiSaIiEEEE9_M_valptrEv, symObjAddr: 0x4C28, symBinAddr: 0x100005BE4, symSize: 0x20 }
  - { offsetInCU: 0x113F3, offset: 0x113F3, size: 0x8, addend: 0x0, symName: __ZNSt4pairIPSt18_Rb_tree_node_baseS1_EC1IRPSt13_Rb_tree_nodeIS_IKNSt7__cxx1112basic_stringIcSt11char_traitsIcESaIcEEESt6vectorIiSaIiEEEERS1_Lb1EEEOT_OT0_, symObjAddr: 0x4BE0, symBinAddr: 0x100005B9C, symSize: 0x48 }
  - { offsetInCU: 0x113A3, offset: 0x113A3, size: 0x8, addend: 0x0, symName: __ZNSt8_Rb_treeINSt7__cxx1112basic_stringIcSt11char_traitsIcESaIcEEESt4pairIKS5_St6vectorIiSaIiEEESt10_Select1stISB_ESt4lessIS5_ESaISB_EE5beginEv, symObjAddr: 0x4BB8, symBinAddr: 0x100005B74, symSize: 0x28 }
  - { offsetInCU: 0x113CD, offset: 0x113CD, size: 0x8, addend: 0x0, symName: __ZNSt8_Rb_treeINSt7__cxx1112basic_stringIcSt11char_traitsIcESaIcEEESt4pairIKS5_St6vectorIiSaIiEEESt10_Select1stISB_ESt4lessIS5_ESaISB_EE17_M_construct_nodeIJRKSt21piecewise_construct_tSt5tupleIJRS7_EESM_IJEEEEEvPSt13_Rb_tree_nodeISB_EDpOT_, symObjAddr: 0x4A3C, symBinAddr: 0x1000059F8, symSize: 0x17C }
  - { offsetInCU: 0x114C3, offset: 0x114C3, size: 0x8, addend: 0x0, symName: __ZNSt8_Rb_treeINSt7__cxx1112basic_stringIcSt11char_traitsIcESaIcEEESt4pairIKS5_St6vectorIiSaIiEEESt10_Select1stISB_ESt4lessIS5_ESaISB_EE11_M_get_nodeEv, symObjAddr: 0x4A00, symBinAddr: 0x1000059BC, symSize: 0x3C }
  - { offsetInCU: 0x1151C, offset: 0x1151C, size: 0x8, addend: 0x0, symName: __ZN9__gnu_cxx16__aligned_membufISt4pairIKNSt7__cxx1112basic_stringIcSt11char_traitsIcESaIcEEESt6vectorIiSaIiEEEE7_M_addrEv, symObjAddr: 0x49EC, symBinAddr: 0x1000059A8, symSize: 0x14 }
  - { offsetInCU: 0x11545, offset: 0x11545, size: 0x8, addend: 0x0, symName: __ZNSt8_Rb_treeIcSt4pairIKciESt10_Select1stIS2_ESt4lessIcESaIS2_EE17_M_construct_nodeIJRKSt21piecewise_construct_tSt5tupleIJRS1_EESD_IJEEEEEvPSt13_Rb_tree_nodeIS2_EDpOT_, symObjAddr: 0x4870, symBinAddr: 0x10000582C, symSize: 0x17C }
  - { offsetInCU: 0x1163B, offset: 0x1163B, size: 0x8, addend: 0x0, symName: __ZNKSt10_Select1stISt4pairIKciEEclERKS2_, symObjAddr: 0x4858, symBinAddr: 0x100005814, symSize: 0x18 }
  - { offsetInCU: 0x11675, offset: 0x11675, size: 0x8, addend: 0x0, symName: __ZNKSt13_Rb_tree_nodeISt4pairIKciEE9_M_valptrEv, symObjAddr: 0x4838, symBinAddr: 0x1000057F4, symSize: 0x20 }
  - { offsetInCU: 0x116A1, offset: 0x116A1, size: 0x8, addend: 0x0, symName: __ZSt7forwardIRPSt18_Rb_tree_node_baseEOT_RNSt16remove_referenceIS3_E4typeE, symObjAddr: 0x4824, symBinAddr: 0x1000057E0, symSize: 0x14 }
  - { offsetInCU: 0x1176C, offset: 0x1176C, size: 0x8, addend: 0x0, symName: __ZNSt4pairIPSt18_Rb_tree_node_baseS1_EC1IRPSt13_Rb_tree_nodeIS_IKciEERS1_Lb1EEEOT_OT0_, symObjAddr: 0x47DC, symBinAddr: 0x100005798, symSize: 0x48 }
  - { offsetInCU: 0x1175F, offset: 0x1175F, size: 0x8, addend: 0x0, symName: __ZNSt8_Rb_treeIcSt4pairIKciESt10_Select1stIS2_ESt4lessIcESaIS2_EE5beginEv, symObjAddr: 0x47B4, symBinAddr: 0x100005770, symSize: 0x28 }
  - { offsetInCU: 0x11789, offset: 0x11789, size: 0x8, addend: 0x0, symName: __ZNSt8_Rb_treeIcSt4pairIKciESt10_Select1stIS2_ESt4lessIcESaIS2_EE17_M_construct_nodeIJRKSt21piecewise_construct_tSt5tupleIJOcEESD_IJEEEEEvPSt13_Rb_tree_nodeIS2_EDpOT_, symObjAddr: 0x4638, symBinAddr: 0x1000055F4, symSize: 0x17C }
  - { offsetInCU: 0x1187F, offset: 0x1187F, size: 0x8, addend: 0x0, symName: __ZNSt8_Rb_treeIcSt4pairIKciESt10_Select1stIS2_ESt4lessIcESaIS2_EE11_M_get_nodeEv, symObjAddr: 0x45FC, symBinAddr: 0x1000055B8, symSize: 0x3C }
  - { offsetInCU: 0x11923, offset: 0x11923, size: 0x8, addend: 0x0, symName: __ZNSt10_Head_baseILm0EOcLb0EEC2IcEEOT_, symObjAddr: 0x45CC, symBinAddr: 0x100005588, symSize: 0x30 }
  - { offsetInCU: 0x1193A, offset: 0x1193A, size: 0x8, addend: 0x0, symName: __ZN9__gnu_cxx16__aligned_membufISt4pairIKciEE7_M_addrEv, symObjAddr: 0x45B8, symBinAddr: 0x100005574, symSize: 0x14 }
  - { offsetInCU: 0x1195F, offset: 0x1195F, size: 0x8, addend: 0x0, symName: __ZNSt22__uninitialized_fill_nILb1EE15__uninit_fill_nIPimiEET_S3_T0_RKT1_, symObjAddr: 0x458C, symBinAddr: 0x100005548, symSize: 0x2C }
  - { offsetInCU: 0x11A34, offset: 0x11A34, size: 0x8, addend: 0x0, symName: __ZNSt8_Rb_treeINSt7__cxx1112basic_stringIcSt11char_traitsIcESaIcEEESt4pairIKS5_St6vectorIiSaIiEEESt10_Select1stISB_ESt4lessIS5_ESaISB_EE21_M_get_Node_allocatorEv, symObjAddr: 0x4578, symBinAddr: 0x100005534, symSize: 0x14 }
  - { offsetInCU: 0x11AB8, offset: 0x11AB8, size: 0x8, addend: 0x0, symName: __ZNSt8_Rb_treeIcSt4pairIKciESt10_Select1stIS2_ESt4lessIcESaIS2_EE21_M_get_Node_allocatorEv, symObjAddr: 0x4564, symBinAddr: 0x100005520, symSize: 0x14 }
  - { offsetInCU: 0x11ADE, offset: 0x11ADE, size: 0x8, addend: 0x0, symName: __ZNSt20__uninitialized_copyILb1EE13__uninit_copyIN9__gnu_cxx17__normal_iteratorIPKiSt6vectorIiSaIiEEEEPiEET0_T_SC_SB_, symObjAddr: 0x4538, symBinAddr: 0x1000054F4, symSize: 0x2C }
  - { offsetInCU: 0x11B35, offset: 0x11B35, size: 0x8, addend: 0x0, symName: __ZSt8_DestroyIPNSt7__cxx1112basic_stringIcSt11char_traitsIcESaIcEEEEvT_S7_, symObjAddr: 0x4510, symBinAddr: 0x1000054CC, symSize: 0x28 }
  - { offsetInCU: 0x11B74, offset: 0x11B74, size: 0x8, addend: 0x0, symName: __ZSt12__relocate_aIPNSt7__cxx1112basic_stringIcSt11char_traitsIcESaIcEEES6_SaIS5_EET0_T_S9_S8_RT1_, symObjAddr: 0x44B4, symBinAddr: 0x100005470, symSize: 0x5C }
  - { offsetInCU: 0x11C0F, offset: 0x11C0F, size: 0x8, addend: 0x0, symName: __ZSt3maxImERKT_S2_S2_, symObjAddr: 0x447C, symBinAddr: 0x100005438, symSize: 0x38 }
  - { offsetInCU: 0x11C50, offset: 0x11C50, size: 0x8, addend: 0x0, symName: __ZSt25__uninitialized_default_nIPNSt7__cxx1112basic_stringIcSt11char_traitsIcESaIcEEEmET_S7_T0_, symObjAddr: 0x4450, symBinAddr: 0x10000540C, symSize: 0x2C }
  - { offsetInCU: 0x11CAF, offset: 0x11CAF, size: 0x8, addend: 0x0, symName: __ZNKSt12_Vector_baseINSt7__cxx1112basic_stringIcSt11char_traitsIcESaIcEEESaIS5_EE19_M_get_Tp_allocatorEv, symObjAddr: 0x443C, symBinAddr: 0x1000053F8, symSize: 0x14 }
  - { offsetInCU: 0x11CD5, offset: 0x11CD5, size: 0x8, addend: 0x0, symName: __ZNSt6vectorINSt7__cxx1112basic_stringIcSt11char_traitsIcESaIcEEESaIS5_EE11_S_max_sizeERKS6_, symObjAddr: 0x43E8, symBinAddr: 0x1000053A4, symSize: 0x54 }
  - { offsetInCU: 0x11D82, offset: 0x11D82, size: 0x8, addend: 0x0, symName: __ZNSt20__uninitialized_copyILb1EE13__uninit_copyIPiS2_EET0_T_S4_S3_, symObjAddr: 0x43BC, symBinAddr: 0x100005378, symSize: 0x2C }
  - { offsetInCU: 0x11DD9, offset: 0x11DD9, size: 0x8, addend: 0x0, symName: __ZSt12__niter_wrapIPiET_RKS1_S1_, symObjAddr: 0x43A4, symBinAddr: 0x100005360, symSize: 0x18 }
  - { offsetInCU: 0x11E13, offset: 0x11E13, size: 0x8, addend: 0x0, symName: __ZSt14__copy_move_a1ILb0EPiS0_ET1_T0_S2_S1_, symObjAddr: 0x4378, symBinAddr: 0x100005334, symSize: 0x2C }
  - { offsetInCU: 0x11E77, offset: 0x11E77, size: 0x8, addend: 0x0, symName: __ZSt12__niter_baseIPiET_S1_, symObjAddr: 0x4364, symBinAddr: 0x100005320, symSize: 0x14 }
  - { offsetInCU: 0x11EA8, offset: 0x11EA8, size: 0x8, addend: 0x0, symName: __ZNSt12_Destroy_auxILb1EE9__destroyIN9__gnu_cxx17__normal_iteratorIPiSt6vectorIiSaIiEEEEEEvT_S9_, symObjAddr: 0x434C, symBinAddr: 0x100005308, symSize: 0x18 }
  - { offsetInCU: 0x11EDB, offset: 0x11EDB, size: 0x8, addend: 0x0, symName: __ZSt12__niter_wrapIN9__gnu_cxx17__normal_iteratorIPiSt6vectorIiSaIiEEEES2_ET_S7_T0_, symObjAddr: 0x4310, symBinAddr: 0x1000052CC, symSize: 0x3C }
  - { offsetInCU: 0x11F25, offset: 0x11F25, size: 0x8, addend: 0x0, symName: __ZSt14__copy_move_a1ILb0EPKiPiET1_T0_S4_S3_, symObjAddr: 0x42E4, symBinAddr: 0x1000052A0, symSize: 0x2C }
  - { offsetInCU: 0x11F89, offset: 0x11F89, size: 0x8, addend: 0x0, symName: __ZSt12__niter_baseIPiSt6vectorIiSaIiEEET_N9__gnu_cxx17__normal_iteratorIS4_T0_EE, symObjAddr: 0x42C4, symBinAddr: 0x100005280, symSize: 0x20 }
  - { offsetInCU: 0x11FC3, offset: 0x11FC3, size: 0x8, addend: 0x0, symName: __ZSt12__niter_baseIPKiSt6vectorIiSaIiEEET_N9__gnu_cxx17__normal_iteratorIS5_T0_EE, symObjAddr: 0x42A4, symBinAddr: 0x100005260, symSize: 0x20 }
  - { offsetInCU: 0x12023, offset: 0x12023, size: 0x8, addend: 0x0, symName: __ZNSt15__new_allocatorIiE10deallocateEPim, symObjAddr: 0x4274, symBinAddr: 0x100005230, symSize: 0x30 }
  - { offsetInCU: 0x1206B, offset: 0x1206B, size: 0x8, addend: 0x0, symName: __ZNSt8_Rb_treeINSt7__cxx1112basic_stringIcSt11char_traitsIcESaIcEEESt4pairIKS5_St6vectorIiSaIiEEESt10_Select1stISB_ESt4lessIS5_ESaISB_EE14_M_insert_nodeEPSt18_Rb_tree_node_baseSJ_PSt13_Rb_tree_nodeISB_E, symObjAddr: 0x41A0, symBinAddr: 0x10000515C, symSize: 0xD4 }
  - { offsetInCU: 0x120D1, offset: 0x120D1, size: 0x8, addend: 0x0, symName: __ZNSt8_Rb_treeINSt7__cxx1112basic_stringIcSt11char_traitsIcESaIcEEESt4pairIKS5_St6vectorIiSaIiEEESt10_Select1stISB_ESt4lessIS5_ESaISB_EE6_S_keyEPKSt13_Rb_tree_nodeISB_E, symObjAddr: 0x4178, symBinAddr: 0x100005134, symSize: 0x28 }
  - { offsetInCU: 0x120FD, offset: 0x120FD, size: 0x8, addend: 0x0, symName: __ZNSt17_Rb_tree_iteratorISt4pairIKNSt7__cxx1112basic_stringIcSt11char_traitsIcESaIcEEESt6vectorIiSaIiEEEEppEv, symObjAddr: 0x4148, symBinAddr: 0x100005104, symSize: 0x30 }
  - { offsetInCU: 0x12127, offset: 0x12127, size: 0x8, addend: 0x0, symName: __ZNSt17_Rb_tree_iteratorISt4pairIKNSt7__cxx1112basic_stringIcSt11char_traitsIcESaIcEEESt6vectorIiSaIiEEEEmmEv, symObjAddr: 0x4118, symBinAddr: 0x1000050D4, symSize: 0x30 }
  - { offsetInCU: 0x12151, offset: 0x12151, size: 0x8, addend: 0x0, symName: __ZNSt8_Rb_treeINSt7__cxx1112basic_stringIcSt11char_traitsIcESaIcEEESt4pairIKS5_St6vectorIiSaIiEEESt10_Select1stISB_ESt4lessIS5_ESaISB_EE11_M_leftmostEv, symObjAddr: 0x4100, symBinAddr: 0x1000050BC, symSize: 0x18 }
  - { offsetInCU: 0x1217B, offset: 0x1217B, size: 0x8, addend: 0x0, symName: __ZNSt8_Rb_treeINSt7__cxx1112basic_stringIcSt11char_traitsIcESaIcEEESt4pairIKS5_St6vectorIiSaIiEEESt10_Select1stISB_ESt4lessIS5_ESaISB_EE24_M_get_insert_unique_posERS7_, symObjAddr: 0x3FA0, symBinAddr: 0x100004F5C, symSize: 0x160 }
  - { offsetInCU: 0x121F6, offset: 0x121F6, size: 0x8, addend: 0x0, symName: __ZNSt8_Rb_treeINSt7__cxx1112basic_stringIcSt11char_traitsIcESaIcEEESt4pairIKS5_St6vectorIiSaIiEEESt10_Select1stISB_ESt4lessIS5_ESaISB_EE6_S_keyEPKSt18_Rb_tree_node_base, symObjAddr: 0x3F84, symBinAddr: 0x100004F40, symSize: 0x1C }
  - { offsetInCU: 0x12222, offset: 0x12222, size: 0x8, addend: 0x0, symName: __ZNSt8_Rb_treeINSt7__cxx1112basic_stringIcSt11char_traitsIcESaIcEEESt4pairIKS5_St6vectorIiSaIiEEESt10_Select1stISB_ESt4lessIS5_ESaISB_EE12_M_rightmostEv, symObjAddr: 0x3F6C, symBinAddr: 0x100004F28, symSize: 0x18 }
  - { offsetInCU: 0x1224C, offset: 0x1224C, size: 0x8, addend: 0x0, symName: __ZNKSt8_Rb_treeINSt7__cxx1112basic_stringIcSt11char_traitsIcESaIcEEESt4pairIKS5_St6vectorIiSaIiEEESt10_Select1stISB_ESt4lessIS5_ESaISB_EE4sizeEv, symObjAddr: 0x3F54, symBinAddr: 0x100004F10, symSize: 0x18 }
  - { offsetInCU: 0x12276, offset: 0x12276, size: 0x8, addend: 0x0, symName: __ZNKSt23_Rb_tree_const_iteratorISt4pairIKNSt7__cxx1112basic_stringIcSt11char_traitsIcESaIcEEESt6vectorIiSaIiEEEE13_M_const_castEv, symObjAddr: 0x3F2C, symBinAddr: 0x100004EE8, symSize: 0x28 }
  - { offsetInCU: 0x122A0, offset: 0x122A0, size: 0x8, addend: 0x0, symName: __ZNSt8_Rb_treeINSt7__cxx1112basic_stringIcSt11char_traitsIcESaIcEEESt4pairIKS5_St6vectorIiSaIiEEESt10_Select1stISB_ESt4lessIS5_ESaISB_EE14_M_create_nodeIJRKSt21piecewise_construct_tSt5tupleIJRS7_EESM_IJEEEEEPSt13_Rb_tree_nodeISB_EDpOT_, symObjAddr: 0x3EBC, symBinAddr: 0x100004E78, symSize: 0x70 }
  - { offsetInCU: 0x12389, offset: 0x12389, size: 0x8, addend: 0x0, symName: __ZNSt10_Head_baseILm0ERKNSt7__cxx1112basic_stringIcSt11char_traitsIcESaIcEEELb0EEC2ES7_, symObjAddr: 0x3E98, symBinAddr: 0x100004E54, symSize: 0x24 }
  - { offsetInCU: 0x12361, offset: 0x12361, size: 0x8, addend: 0x0, symName: __ZN9__gnu_cxx16__aligned_membufISt4pairIKNSt7__cxx1112basic_stringIcSt11char_traitsIcESaIcEEESt6vectorIiSaIiEEEE6_M_ptrEv, symObjAddr: 0x3E7C, symBinAddr: 0x100004E38, symSize: 0x1C }
  - { offsetInCU: 0x1238B, offset: 0x1238B, size: 0x8, addend: 0x0, symName: __ZNSt8_Rb_treeINSt7__cxx1112basic_stringIcSt11char_traitsIcESaIcEEESt4pairIKS5_St6vectorIiSaIiEEESt10_Select1stISB_ESt4lessIS5_ESaISB_EE14_M_lower_boundEPSt13_Rb_tree_nodeISB_EPSt18_Rb_tree_node_baseRS7_, symObjAddr: 0x3DDC, symBinAddr: 0x100004D98, symSize: 0xA0 }
  - { offsetInCU: 0x123E5, offset: 0x123E5, size: 0x8, addend: 0x0, symName: __ZNSt8_Rb_treeINSt7__cxx1112basic_stringIcSt11char_traitsIcESaIcEEESt4pairIKS5_St6vectorIiSaIiEEESt10_Select1stISB_ESt4lessIS5_ESaISB_EE6_M_endEv, symObjAddr: 0x3DC4, symBinAddr: 0x100004D80, symSize: 0x18 }
  - { offsetInCU: 0x1240B, offset: 0x1240B, size: 0x8, addend: 0x0, symName: __ZNSt12_Destroy_auxILb1EE9__destroyIPiEEvT_S3_, symObjAddr: 0x3DAC, symBinAddr: 0x100004D68, symSize: 0x18 }
  - { offsetInCU: 0x12442, offset: 0x12442, size: 0x8, addend: 0x0, symName: __ZNSt8_Rb_treeIcSt4pairIKciESt10_Select1stIS2_ESt4lessIcESaIS2_EE14_M_create_nodeIJRKSt21piecewise_construct_tSt5tupleIJRS1_EESD_IJEEEEEPSt13_Rb_tree_nodeIS2_EDpOT_, symObjAddr: 0x3D3C, symBinAddr: 0x100004CF8, symSize: 0x70 }
  - { offsetInCU: 0x124F8, offset: 0x124F8, size: 0x8, addend: 0x0, symName: __ZNSt10_Head_baseILm0ERKcLb0EEC2ES1_, symObjAddr: 0x3D18, symBinAddr: 0x100004CD4, symSize: 0x24 }
  - { offsetInCU: 0x12503, offset: 0x12503, size: 0x8, addend: 0x0, symName: __ZNSt8_Rb_treeIcSt4pairIKciESt10_Select1stIS2_ESt4lessIcESaIS2_EE14_M_insert_nodeEPSt18_Rb_tree_node_baseSA_PSt13_Rb_tree_nodeIS2_E, symObjAddr: 0x3C44, symBinAddr: 0x100004C00, symSize: 0xD4 }
  - { offsetInCU: 0x12569, offset: 0x12569, size: 0x8, addend: 0x0, symName: __ZNSt8_Rb_treeIcSt4pairIKciESt10_Select1stIS2_ESt4lessIcESaIS2_EE6_S_keyEPKSt13_Rb_tree_nodeIS2_E, symObjAddr: 0x3C1C, symBinAddr: 0x100004BD8, symSize: 0x28 }
  - { offsetInCU: 0x12595, offset: 0x12595, size: 0x8, addend: 0x0, symName: __ZNSt17_Rb_tree_iteratorISt4pairIKciEEppEv, symObjAddr: 0x3BEC, symBinAddr: 0x100004BA8, symSize: 0x30 }
  - { offsetInCU: 0x125BF, offset: 0x125BF, size: 0x8, addend: 0x0, symName: __ZNSt17_Rb_tree_iteratorISt4pairIKciEEmmEv, symObjAddr: 0x3BBC, symBinAddr: 0x100004B78, symSize: 0x30 }
  - { offsetInCU: 0x12667, offset: 0x12667, size: 0x8, addend: 0x0, symName: __ZNSt4pairIPSt18_Rb_tree_node_baseS1_EC1IRS1_S4_Lb1EEEOT_OT0_, symObjAddr: 0x3B74, symBinAddr: 0x100004B30, symSize: 0x48 }
  - { offsetInCU: 0x12673, offset: 0x12673, size: 0x8, addend: 0x0, symName: __ZNSt8_Rb_treeIcSt4pairIKciESt10_Select1stIS2_ESt4lessIcESaIS2_EE11_M_leftmostEv, symObjAddr: 0x3B5C, symBinAddr: 0x100004B18, symSize: 0x18 }
  - { offsetInCU: 0x1269D, offset: 0x1269D, size: 0x8, addend: 0x0, symName: __ZNSt8_Rb_treeIcSt4pairIKciESt10_Select1stIS2_ESt4lessIcESaIS2_EE24_M_get_insert_unique_posERS1_, symObjAddr: 0x39FC, symBinAddr: 0x1000049B8, symSize: 0x160 }
  - { offsetInCU: 0x1279A, offset: 0x1279A, size: 0x8, addend: 0x0, symName: __ZNSt4pairIPSt18_Rb_tree_node_baseS1_EC1IS1_S1_Lb1EEERKS1_S5_, symObjAddr: 0x39C0, symBinAddr: 0x10000497C, symSize: 0x3C }
  - { offsetInCU: 0x127A2, offset: 0x127A2, size: 0x8, addend: 0x0, symName: __ZNSt8_Rb_treeIcSt4pairIKciESt10_Select1stIS2_ESt4lessIcESaIS2_EE6_S_keyEPKSt18_Rb_tree_node_base, symObjAddr: 0x39A4, symBinAddr: 0x100004960, symSize: 0x1C }
  - { offsetInCU: 0x127CE, offset: 0x127CE, size: 0x8, addend: 0x0, symName: __ZNSt8_Rb_treeIcSt4pairIKciESt10_Select1stIS2_ESt4lessIcESaIS2_EE12_M_rightmostEv, symObjAddr: 0x398C, symBinAddr: 0x100004948, symSize: 0x18 }
  - { offsetInCU: 0x127F8, offset: 0x127F8, size: 0x8, addend: 0x0, symName: __ZNKSt8_Rb_treeIcSt4pairIKciESt10_Select1stIS2_ESt4lessIcESaIS2_EE4sizeEv, symObjAddr: 0x3974, symBinAddr: 0x100004930, symSize: 0x18 }
  - { offsetInCU: 0x12822, offset: 0x12822, size: 0x8, addend: 0x0, symName: __ZNKSt23_Rb_tree_const_iteratorISt4pairIKciEE13_M_const_castEv, symObjAddr: 0x394C, symBinAddr: 0x100004908, symSize: 0x28 }
  - { offsetInCU: 0x1284C, offset: 0x1284C, size: 0x8, addend: 0x0, symName: __ZNSt8_Rb_treeIcSt4pairIKciESt10_Select1stIS2_ESt4lessIcESaIS2_EE14_M_create_nodeIJRKSt21piecewise_construct_tSt5tupleIJOcEESD_IJEEEEEPSt13_Rb_tree_nodeIS2_EDpOT_, symObjAddr: 0x38DC, symBinAddr: 0x100004898, symSize: 0x70 }
  - { offsetInCU: 0x1290D, offset: 0x1290D, size: 0x8, addend: 0x0, symName: __ZNSt11_Tuple_implILm0EJOcEEC2IcEEOT_, symObjAddr: 0x38A0, symBinAddr: 0x10000485C, symSize: 0x3C }
  - { offsetInCU: 0x12920, offset: 0x12920, size: 0x8, addend: 0x0, symName: __ZN9__gnu_cxx16__aligned_membufISt4pairIKciEE6_M_ptrEv, symObjAddr: 0x3884, symBinAddr: 0x100004840, symSize: 0x1C }
  - { offsetInCU: 0x1294A, offset: 0x1294A, size: 0x8, addend: 0x0, symName: __ZNSt8_Rb_treeIcSt4pairIKciESt10_Select1stIS2_ESt4lessIcESaIS2_EE14_M_lower_boundEPSt13_Rb_tree_nodeIS2_EPSt18_Rb_tree_node_baseRS1_, symObjAddr: 0x37E4, symBinAddr: 0x1000047A0, symSize: 0xA0 }
  - { offsetInCU: 0x129A4, offset: 0x129A4, size: 0x8, addend: 0x0, symName: __ZNSt8_Rb_treeIcSt4pairIKciESt10_Select1stIS2_ESt4lessIcESaIS2_EE6_M_endEv, symObjAddr: 0x37CC, symBinAddr: 0x100004788, symSize: 0x18 }
  - { offsetInCU: 0x129CA, offset: 0x129CA, size: 0x8, addend: 0x0, symName: __ZSt20uninitialized_fill_nIPimiET_S1_T0_RKT1_, symObjAddr: 0x3798, symBinAddr: 0x100004754, symSize: 0x34 }
  - { offsetInCU: 0x12A88, offset: 0x12A88, size: 0x8, addend: 0x0, symName: __ZNSt12_Vector_baseIiSaIiEE17_Vector_impl_dataC2Ev, symObjAddr: 0x376C, symBinAddr: 0x100004728, symSize: 0x2C }
  - { offsetInCU: 0x12A92, offset: 0x12A92, size: 0x8, addend: 0x0, symName: __ZSt3minImERKT_S2_S2_, symObjAddr: 0x3734, symBinAddr: 0x1000046F0, symSize: 0x38 }
  - { offsetInCU: 0x12AEA, offset: 0x12AEA, size: 0x8, addend: 0x0, symName: __ZNSt15__new_allocatorINSt7__cxx1112basic_stringIcSt11char_traitsIcESaIcEEEE10deallocateEPS5_m, symObjAddr: 0x3704, symBinAddr: 0x1000046C0, symSize: 0x30 }
  - { offsetInCU: 0x12B32, offset: 0x12B32, size: 0x8, addend: 0x0, symName: __ZNSt8_Rb_treeINSt7__cxx1112basic_stringIcSt11char_traitsIcESaIcEEESt4pairIKS5_St6vectorIiSaIiEEESt10_Select1stISB_ESt4lessIS5_ESaISB_EE11_M_put_nodeEPSt13_Rb_tree_nodeISB_E, symObjAddr: 0x36B8, symBinAddr: 0x100004674, symSize: 0x4C }
  - { offsetInCU: 0x12B9E, offset: 0x12B9E, size: 0x8, addend: 0x0, symName: __ZNSt8_Rb_treeINSt7__cxx1112basic_stringIcSt11char_traitsIcESaIcEEESt4pairIKS5_St6vectorIiSaIiEEESt10_Select1stISB_ESt4lessIS5_ESaISB_EE15_M_destroy_nodeEPSt13_Rb_tree_nodeISB_E, symObjAddr: 0x3658, symBinAddr: 0x100004614, symSize: 0x60 }
  - { offsetInCU: 0x12C2C, offset: 0x12C2C, size: 0x8, addend: 0x0, symName: __ZNSt8_Rb_treeIcSt4pairIKciESt10_Select1stIS2_ESt4lessIcESaIS2_EE11_M_put_nodeEPSt13_Rb_tree_nodeIS2_E, symObjAddr: 0x360C, symBinAddr: 0x1000045C8, symSize: 0x4C }
  - { offsetInCU: 0x12C98, offset: 0x12C98, size: 0x8, addend: 0x0, symName: __ZNSt8_Rb_treeIcSt4pairIKciESt10_Select1stIS2_ESt4lessIcESaIS2_EE15_M_destroy_nodeEPSt13_Rb_tree_nodeIS2_E, symObjAddr: 0x35B4, symBinAddr: 0x100004570, symSize: 0x58 }
  - { offsetInCU: 0x12D22, offset: 0x12D22, size: 0x8, addend: 0x0, symName: __ZSt18uninitialized_copyIN9__gnu_cxx17__normal_iteratorIPKiSt6vectorIiSaIiEEEEPiET0_T_SA_S9_, symObjAddr: 0x3578, symBinAddr: 0x100004534, symSize: 0x3C }
  - { offsetInCU: 0x12DE7, offset: 0x12DE7, size: 0x8, addend: 0x0, symName: __ZNSt6vectorINSt7__cxx1112basic_stringIcSt11char_traitsIcESaIcEEESaIS5_EE11_S_relocateEPS5_S8_S8_RS6_, symObjAddr: 0x3544, symBinAddr: 0x100004500, symSize: 0x34 }
  - { offsetInCU: 0x12E43, offset: 0x12E43, size: 0x8, addend: 0x0, symName: __ZNSt12_Vector_baseINSt7__cxx1112basic_stringIcSt11char_traitsIcESaIcEEESaIS5_EE11_M_allocateEm, symObjAddr: 0x34F4, symBinAddr: 0x1000044B0, symSize: 0x50 }
  - { offsetInCU: 0x12EA7, offset: 0x12EA7, size: 0x8, addend: 0x0, symName: __ZNKSt6vectorINSt7__cxx1112basic_stringIcSt11char_traitsIcESaIcEEESaIS5_EE12_M_check_lenEmPKc, symObjAddr: 0x3424, symBinAddr: 0x1000043E0, symSize: 0xD0 }
  - { offsetInCU: 0x12EFD, offset: 0x12EFD, size: 0x8, addend: 0x0, symName: __ZSt27__uninitialized_default_n_aIPNSt7__cxx1112basic_stringIcSt11char_traitsIcESaIcEEEmS5_ET_S7_T0_RSaIT1_E, symObjAddr: 0x33FC, symBinAddr: 0x1000043B8, symSize: 0x28 }
  - { offsetInCU: 0x12F5D, offset: 0x12F5D, size: 0x8, addend: 0x0, symName: __ZNSt12_Vector_baseINSt7__cxx1112basic_stringIcSt11char_traitsIcESaIcEEESaIS5_EE19_M_get_Tp_allocatorEv, symObjAddr: 0x33E8, symBinAddr: 0x1000043A4, symSize: 0x14 }
  - { offsetInCU: 0x12F87, offset: 0x12F87, size: 0x8, addend: 0x0, symName: __ZNKSt6vectorINSt7__cxx1112basic_stringIcSt11char_traitsIcESaIcEEESaIS5_EE8max_sizeEv, symObjAddr: 0x33C8, symBinAddr: 0x100004384, symSize: 0x20 }
  - { offsetInCU: 0x12FAD, offset: 0x12FAD, size: 0x8, addend: 0x0, symName: __ZSt18uninitialized_copyIPiS0_ET0_T_S2_S1_, symObjAddr: 0x338C, symBinAddr: 0x100004348, symSize: 0x3C }
  - { offsetInCU: 0x13024, offset: 0x13024, size: 0x8, addend: 0x0, symName: __ZSt13__copy_move_aILb0EPiS0_ET1_T0_S2_S1_, symObjAddr: 0x332C, symBinAddr: 0x1000042E8, symSize: 0x60 }
  - { offsetInCU: 0x13088, offset: 0x13088, size: 0x8, addend: 0x0, symName: __ZSt12__miter_baseIPiET_S1_, symObjAddr: 0x3318, symBinAddr: 0x1000042D4, symSize: 0x14 }
  - { offsetInCU: 0x130B9, offset: 0x130B9, size: 0x8, addend: 0x0, symName: __ZSt8_DestroyIN9__gnu_cxx17__normal_iteratorIPiSt6vectorIiSaIiEEEEEvT_S7_, symObjAddr: 0x32F0, symBinAddr: 0x1000042AC, symSize: 0x28 }
  - { offsetInCU: 0x130F8, offset: 0x130F8, size: 0x8, addend: 0x0, symName: __ZSt13__copy_move_aILb0EN9__gnu_cxx17__normal_iteratorIPKiSt6vectorIiSaIiEEEENS1_IPiS6_EEET1_T0_SB_SA_, symObjAddr: 0x3290, symBinAddr: 0x10000424C, symSize: 0x60 }
  - { offsetInCU: 0x1315C, offset: 0x1315C, size: 0x8, addend: 0x0, symName: __ZSt12__miter_baseIN9__gnu_cxx17__normal_iteratorIPKiSt6vectorIiSaIiEEEEET_S8_, symObjAddr: 0x327C, symBinAddr: 0x100004238, symSize: 0x14 }
  - { offsetInCU: 0x13191, offset: 0x13191, size: 0x8, addend: 0x0, symName: __ZNSt12_Vector_baseIiSaIiEE11_M_allocateEm, symObjAddr: 0x322C, symBinAddr: 0x1000041E8, symSize: 0x50 }
  - { offsetInCU: 0x13255, offset: 0x13255, size: 0x8, addend: 0x0, symName: __ZN9__gnu_cxx17__normal_iteratorIPKiSt6vectorIiSaIiEEEC1ERKS2_, symObjAddr: 0x3204, symBinAddr: 0x1000041C0, symSize: 0x28 }
  - { offsetInCU: 0x13275, offset: 0x13275, size: 0x8, addend: 0x0, symName: __ZNSt6vectorIiSaIiEE15_M_erase_at_endEPi, symObjAddr: 0x317C, symBinAddr: 0x100004138, symSize: 0x88 }
  - { offsetInCU: 0x133A9, offset: 0x133A9, size: 0x8, addend: 0x0, symName: __ZNSt17_Rb_tree_iteratorISt4pairIKNSt7__cxx1112basic_stringIcSt11char_traitsIcESaIcEEESt6vectorIiSaIiEEEEC1EPSt18_Rb_tree_node_base, symObjAddr: 0x3158, symBinAddr: 0x100004114, symSize: 0x24 }
  - { offsetInCU: 0x13355, offset: 0x13355, size: 0x8, addend: 0x0, symName: __ZNSt8_Rb_treeINSt7__cxx1112basic_stringIcSt11char_traitsIcESaIcEEESt4pairIKS5_St6vectorIiSaIiEEESt10_Select1stISB_ESt4lessIS5_ESaISB_EE10_Auto_node9_M_insertES6_IPSt18_Rb_tree_node_baseSK_E, symObjAddr: 0x310C, symBinAddr: 0x1000040C8, symSize: 0x4C }
  - { offsetInCU: 0x1339F, offset: 0x1339F, size: 0x8, addend: 0x0, symName: __ZNKSt8_Rb_treeINSt7__cxx1112basic_stringIcSt11char_traitsIcESaIcEEESt4pairIKS5_St6vectorIiSaIiEEESt10_Select1stISB_ESt4lessIS5_ESaISB_EE10_Auto_node6_M_keyEv, symObjAddr: 0x30EC, symBinAddr: 0x1000040A8, symSize: 0x20 }
  - { offsetInCU: 0x133C9, offset: 0x133C9, size: 0x8, addend: 0x0, symName: __ZNSt8_Rb_treeINSt7__cxx1112basic_stringIcSt11char_traitsIcESaIcEEESt4pairIKS5_St6vectorIiSaIiEEESt10_Select1stISB_ESt4lessIS5_ESaISB_EE29_M_get_insert_hint_unique_posESt23_Rb_tree_const_iteratorISB_ERS7_, symObjAddr: 0x2DB4, symBinAddr: 0x100003D70, symSize: 0x338 }
  - { offsetInCU: 0x13525, offset: 0x13525, size: 0x8, addend: 0x0, symName: __ZNSt8_Rb_treeINSt7__cxx1112basic_stringIcSt11char_traitsIcESaIcEEESt4pairIKS5_St6vectorIiSaIiEEESt10_Select1stISB_ESt4lessIS5_ESaISB_EE10_Auto_nodeD1Ev, symObjAddr: 0x2D70, symBinAddr: 0x100003D2C, symSize: 0x44 }
  - { offsetInCU: 0x135D7, offset: 0x135D7, size: 0x8, addend: 0x0, symName: __ZNSt8_Rb_treeINSt7__cxx1112basic_stringIcSt11char_traitsIcESaIcEEESt4pairIKS5_St6vectorIiSaIiEEESt10_Select1stISB_ESt4lessIS5_ESaISB_EE10_Auto_nodeC1IJRKSt21piecewise_construct_tSt5tupleIJRS7_EESN_IJEEEEERSH_DpOT_, symObjAddr: 0x2CF4, symBinAddr: 0x100003CB0, symSize: 0x7C }
  - { offsetInCU: 0x13566, offset: 0x13566, size: 0x8, addend: 0x0, symName: __ZSt7forwardISt5tupleIJRKNSt7__cxx1112basic_stringIcSt11char_traitsIcESaIcEEEEEEOT_RNSt16remove_referenceISA_E4typeE, symObjAddr: 0x2CE0, symBinAddr: 0x100003C9C, symSize: 0x14 }
  - { offsetInCU: 0x13612, offset: 0x13612, size: 0x8, addend: 0x0, symName: __ZNSt11_Tuple_implILm0EJRKNSt7__cxx1112basic_stringIcSt11char_traitsIcESaIcEEEEEC2ES7_, symObjAddr: 0x2CB8, symBinAddr: 0x100003C74, symSize: 0x28 }
  - { offsetInCU: 0x135E7, offset: 0x135E7, size: 0x8, addend: 0x0, symName: __ZStltIcSt11char_traitsIcESaIcEEbRKNSt7__cxx1112basic_stringIT_T0_T1_EESA_, symObjAddr: 0x2C8C, symBinAddr: 0x100003C48, symSize: 0x2C }
  - { offsetInCU: 0x1363E, offset: 0x1363E, size: 0x8, addend: 0x0, symName: __ZNSt13_Rb_tree_nodeISt4pairIKNSt7__cxx1112basic_stringIcSt11char_traitsIcESaIcEEESt6vectorIiSaIiEEEE9_M_valptrEv, symObjAddr: 0x2C6C, symBinAddr: 0x100003C28, symSize: 0x20 }
  - { offsetInCU: 0x13668, offset: 0x13668, size: 0x8, addend: 0x0, symName: __ZNKSt8_Rb_treeINSt7__cxx1112basic_stringIcSt11char_traitsIcESaIcEEESt4pairIKS5_St6vectorIiSaIiEEESt10_Select1stISB_ESt4lessIS5_ESaISB_EE8key_compEv, symObjAddr: 0x2C54, symBinAddr: 0x100003C10, symSize: 0x18 }
  - { offsetInCU: 0x13692, offset: 0x13692, size: 0x8, addend: 0x0, symName: __ZNSt8_Rb_treeINSt7__cxx1112basic_stringIcSt11char_traitsIcESaIcEEESt4pairIKS5_St6vectorIiSaIiEEESt10_Select1stISB_ESt4lessIS5_ESaISB_EE3endEv, symObjAddr: 0x2C2C, symBinAddr: 0x100003BE8, symSize: 0x28 }
  - { offsetInCU: 0x136BC, offset: 0x136BC, size: 0x8, addend: 0x0, symName: __ZNSt8_Rb_treeINSt7__cxx1112basic_stringIcSt11char_traitsIcESaIcEEESt4pairIKS5_St6vectorIiSaIiEEESt10_Select1stISB_ESt4lessIS5_ESaISB_EE11lower_boundERS7_, symObjAddr: 0x2BE4, symBinAddr: 0x100003BA0, symSize: 0x48 }
  - { offsetInCU: 0x136F2, offset: 0x136F2, size: 0x8, addend: 0x0, symName: __ZSt8_DestroyIPiEvT_S1_, symObjAddr: 0x2BBC, symBinAddr: 0x100003B78, symSize: 0x28 }
  - { offsetInCU: 0x13811, offset: 0x13811, size: 0x8, addend: 0x0, symName: __ZNSt8_Rb_treeIcSt4pairIKciESt10_Select1stIS2_ESt4lessIcESaIS2_EE10_Auto_nodeC1IJRKSt21piecewise_construct_tSt5tupleIJRS1_EESE_IJEEEEERS8_DpOT_, symObjAddr: 0x2B40, symBinAddr: 0x100003AFC, symSize: 0x7C }
  - { offsetInCU: 0x137E7, offset: 0x137E7, size: 0x8, addend: 0x0, symName: __ZSt7forwardISt5tupleIJRKcEEEOT_RNSt16remove_referenceIS4_E4typeE, symObjAddr: 0x2B2C, symBinAddr: 0x100003AE8, symSize: 0x14 }
  - { offsetInCU: 0x13860, offset: 0x13860, size: 0x8, addend: 0x0, symName: __ZNSt11_Tuple_implILm0EJRKcEEC2ES1_, symObjAddr: 0x2B04, symBinAddr: 0x100003AC0, symSize: 0x28 }
  - { offsetInCU: 0x138CE, offset: 0x138CE, size: 0x8, addend: 0x0, symName: __ZNSt17_Rb_tree_iteratorISt4pairIKciEEC1EPSt18_Rb_tree_node_base, symObjAddr: 0x2AE0, symBinAddr: 0x100003A9C, symSize: 0x24 }
  - { offsetInCU: 0x138BD, offset: 0x138BD, size: 0x8, addend: 0x0, symName: __ZNSt8_Rb_treeIcSt4pairIKciESt10_Select1stIS2_ESt4lessIcESaIS2_EE10_Auto_node9_M_insertES0_IPSt18_Rb_tree_node_baseSB_E, symObjAddr: 0x2A94, symBinAddr: 0x100003A50, symSize: 0x4C }
  - { offsetInCU: 0x13907, offset: 0x13907, size: 0x8, addend: 0x0, symName: __ZNKSt8_Rb_treeIcSt4pairIKciESt10_Select1stIS2_ESt4lessIcESaIS2_EE10_Auto_node6_M_keyEv, symObjAddr: 0x2A74, symBinAddr: 0x100003A30, symSize: 0x20 }
  - { offsetInCU: 0x13931, offset: 0x13931, size: 0x8, addend: 0x0, symName: __ZNSt8_Rb_treeIcSt4pairIKciESt10_Select1stIS2_ESt4lessIcESaIS2_EE29_M_get_insert_hint_unique_posESt23_Rb_tree_const_iteratorIS2_ERS1_, symObjAddr: 0x273C, symBinAddr: 0x1000036F8, symSize: 0x338 }
  - { offsetInCU: 0x13A46, offset: 0x13A46, size: 0x8, addend: 0x0, symName: __ZNSt8_Rb_treeIcSt4pairIKciESt10_Select1stIS2_ESt4lessIcESaIS2_EE10_Auto_nodeD1Ev, symObjAddr: 0x26F8, symBinAddr: 0x1000036B4, symSize: 0x44 }
  - { offsetInCU: 0x13AF6, offset: 0x13AF6, size: 0x8, addend: 0x0, symName: __ZNSt8_Rb_treeIcSt4pairIKciESt10_Select1stIS2_ESt4lessIcESaIS2_EE10_Auto_nodeC1IJRKSt21piecewise_construct_tSt5tupleIJOcEESE_IJEEEEERS8_DpOT_, symObjAddr: 0x267C, symBinAddr: 0x100003638, symSize: 0x7C }
  - { offsetInCU: 0x13ACE, offset: 0x13ACE, size: 0x8, addend: 0x0, symName: __ZSt7forwardISt5tupleIJEEEOT_RNSt16remove_referenceIS2_E4typeE, symObjAddr: 0x2668, symBinAddr: 0x100003624, symSize: 0x14 }
  - { offsetInCU: 0x13B04, offset: 0x13B04, size: 0x8, addend: 0x0, symName: __ZSt7forwardISt5tupleIJOcEEEOT_RNSt16remove_referenceIS3_E4typeE, symObjAddr: 0x2654, symBinAddr: 0x100003610, symSize: 0x14 }
  - { offsetInCU: 0x13B3A, offset: 0x13B3A, size: 0x8, addend: 0x0, symName: __ZSt7forwardIRKSt21piecewise_construct_tEOT_RNSt16remove_referenceIS3_E4typeE, symObjAddr: 0x2640, symBinAddr: 0x1000035FC, symSize: 0x14 }
  - { offsetInCU: 0x13BCA, offset: 0x13BCA, size: 0x8, addend: 0x0, symName: __ZNSt5tupleIJOcEEC1IJcELb1ELb1EEEDpOT_, symObjAddr: 0x2604, symBinAddr: 0x1000035C0, symSize: 0x3C }
  - { offsetInCU: 0x13BF1, offset: 0x13BF1, size: 0x8, addend: 0x0, symName: __ZSt7forwardIcEOT_RNSt16remove_referenceIS0_E4typeE, symObjAddr: 0x25F0, symBinAddr: 0x1000035AC, symSize: 0x14 }
  - { offsetInCU: 0x13C25, offset: 0x13C25, size: 0x8, addend: 0x0, symName: __ZNSt13_Rb_tree_nodeISt4pairIKciEE9_M_valptrEv, symObjAddr: 0x25D0, symBinAddr: 0x10000358C, symSize: 0x20 }
  - { offsetInCU: 0x13C4F, offset: 0x13C4F, size: 0x8, addend: 0x0, symName: __ZNKSt8_Rb_treeIcSt4pairIKciESt10_Select1stIS2_ESt4lessIcESaIS2_EE8key_compEv, symObjAddr: 0x25B8, symBinAddr: 0x100003574, symSize: 0x18 }
  - { offsetInCU: 0x13C79, offset: 0x13C79, size: 0x8, addend: 0x0, symName: __ZNSt8_Rb_treeIcSt4pairIKciESt10_Select1stIS2_ESt4lessIcESaIS2_EE3endEv, symObjAddr: 0x2590, symBinAddr: 0x10000354C, symSize: 0x28 }
  - { offsetInCU: 0x13CA3, offset: 0x13CA3, size: 0x8, addend: 0x0, symName: __ZNSt8_Rb_treeIcSt4pairIKciESt10_Select1stIS2_ESt4lessIcESaIS2_EE11lower_boundERS1_, symObjAddr: 0x2548, symBinAddr: 0x100003504, symSize: 0x48 }
  - { offsetInCU: 0x13CD9, offset: 0x13CD9, size: 0x8, addend: 0x0, symName: __ZSt24__uninitialized_fill_n_aIPimiiET_S1_T0_RKT1_RSaIT2_E, symObjAddr: 0x2518, symBinAddr: 0x1000034D4, symSize: 0x30 }
  - { offsetInCU: 0x13D52, offset: 0x13D52, size: 0x8, addend: 0x0, symName: __ZNSt12_Vector_baseIiSaIiEE17_M_create_storageEm, symObjAddr: 0x24B8, symBinAddr: 0x100003474, symSize: 0x60 }
  - { offsetInCU: 0x13DDE, offset: 0x13DDE, size: 0x8, addend: 0x0, symName: __ZNSt12_Vector_baseIiSaIiEE12_Vector_implC1ERKS0_, symObjAddr: 0x246C, symBinAddr: 0x100003428, symSize: 0x4C }
  - { offsetInCU: 0x13E4A, offset: 0x13E4A, size: 0x8, addend: 0x0, symName: __ZNSt6vectorIiSaIiEE11_S_max_sizeERKS0_, symObjAddr: 0x2418, symBinAddr: 0x1000033D4, symSize: 0x54 }
  - { offsetInCU: 0x13F3E, offset: 0x13F3E, size: 0x8, addend: 0x0, symName: __ZNKSt8_Rb_treeINSt7__cxx1112basic_stringIcSt11char_traitsIcESaIcEEESt4pairIKS5_St6vectorIiSaIiEEESt10_Select1stISB_ESt4lessIS5_ESaISB_EE9_M_mbeginEv, symObjAddr: 0x2400, symBinAddr: 0x1000033BC, symSize: 0x18 }
  - { offsetInCU: 0x13F68, offset: 0x13F68, size: 0x8, addend: 0x0, symName: __ZNSt8_Rb_treeINSt7__cxx1112basic_stringIcSt11char_traitsIcESaIcEEESt4pairIKS5_St6vectorIiSaIiEEESt10_Select1stISB_ESt4lessIS5_ESaISB_EE12_M_drop_nodeEPSt13_Rb_tree_nodeISB_E, symObjAddr: 0x23CC, symBinAddr: 0x100003388, symSize: 0x34 }
  - { offsetInCU: 0x13F9E, offset: 0x13F9E, size: 0x8, addend: 0x0, symName: __ZNSt8_Rb_treeINSt7__cxx1112basic_stringIcSt11char_traitsIcESaIcEEESt4pairIKS5_St6vectorIiSaIiEEESt10_Select1stISB_ESt4lessIS5_ESaISB_EE7_S_leftEPSt18_Rb_tree_node_base, symObjAddr: 0x23B4, symBinAddr: 0x100003370, symSize: 0x18 }
  - { offsetInCU: 0x13FC6, offset: 0x13FC6, size: 0x8, addend: 0x0, symName: __ZNSt8_Rb_treeINSt7__cxx1112basic_stringIcSt11char_traitsIcESaIcEEESt4pairIKS5_St6vectorIiSaIiEEESt10_Select1stISB_ESt4lessIS5_ESaISB_EE8_S_rightEPSt18_Rb_tree_node_base, symObjAddr: 0x239C, symBinAddr: 0x100003358, symSize: 0x18 }
  - { offsetInCU: 0x14006, offset: 0x14006, size: 0x8, addend: 0x0, symName: __ZNKSt8_Rb_treeIcSt4pairIKciESt10_Select1stIS2_ESt4lessIcESaIS2_EE9_M_mbeginEv, symObjAddr: 0x2384, symBinAddr: 0x100003340, symSize: 0x18 }
  - { offsetInCU: 0x14030, offset: 0x14030, size: 0x8, addend: 0x0, symName: __ZNSt8_Rb_treeIcSt4pairIKciESt10_Select1stIS2_ESt4lessIcESaIS2_EE12_M_drop_nodeEPSt13_Rb_tree_nodeIS2_E, symObjAddr: 0x2350, symBinAddr: 0x10000330C, symSize: 0x34 }
  - { offsetInCU: 0x14066, offset: 0x14066, size: 0x8, addend: 0x0, symName: __ZNSt8_Rb_treeIcSt4pairIKciESt10_Select1stIS2_ESt4lessIcESaIS2_EE7_S_leftEPSt18_Rb_tree_node_base, symObjAddr: 0x2338, symBinAddr: 0x1000032F4, symSize: 0x18 }
  - { offsetInCU: 0x1408E, offset: 0x1408E, size: 0x8, addend: 0x0, symName: __ZNSt8_Rb_treeIcSt4pairIKciESt10_Select1stIS2_ESt4lessIcESaIS2_EE8_S_rightEPSt18_Rb_tree_node_base, symObjAddr: 0x2320, symBinAddr: 0x1000032DC, symSize: 0x18 }
  - { offsetInCU: 0x140CA, offset: 0x140CA, size: 0x8, addend: 0x0, symName: __ZSt22__uninitialized_copy_aIN9__gnu_cxx17__normal_iteratorIPKiSt6vectorIiSaIiEEEEPiiET0_T_SA_S9_RSaIT1_E, symObjAddr: 0x22F0, symBinAddr: 0x1000032AC, symSize: 0x30 }
  - { offsetInCU: 0x1414E, offset: 0x1414E, size: 0x8, addend: 0x0, symName: __ZNK9__gnu_cxx17__normal_iteratorIPNSt7__cxx1112basic_stringIcSt11char_traitsIcESaIcEEESt6vectorIS6_SaIS6_EEE4baseEv, symObjAddr: 0x22DC, symBinAddr: 0x100003298, symSize: 0x14 }
  - { offsetInCU: 0x1420E, offset: 0x1420E, size: 0x8, addend: 0x0, symName: __ZN9__gnu_cxx17__normal_iteratorIPNSt7__cxx1112basic_stringIcSt11char_traitsIcESaIcEEESt6vectorIS6_SaIS6_EEEC1ERKS7_, symObjAddr: 0x22B4, symBinAddr: 0x100003270, symSize: 0x28 }
  - { offsetInCU: 0x141C9, offset: 0x141C9, size: 0x8, addend: 0x0, symName: __ZNSt6vectorINSt7__cxx1112basic_stringIcSt11char_traitsIcESaIcEEESaIS5_EE15_M_erase_at_endEPS5_, symObjAddr: 0x222C, symBinAddr: 0x1000031E8, symSize: 0x88 }
  - { offsetInCU: 0x14258, offset: 0x14258, size: 0x8, addend: 0x0, symName: __ZNSt6vectorINSt7__cxx1112basic_stringIcSt11char_traitsIcESaIcEEESaIS5_EE17_M_default_appendEm, symObjAddr: 0x202C, symBinAddr: 0x100002FE8, symSize: 0x200 }
  - { offsetInCU: 0x14300, offset: 0x14300, size: 0x8, addend: 0x0, symName: __ZNKSt6vectorINSt7__cxx1112basic_stringIcSt11char_traitsIcESaIcEEESaIS5_EE4sizeEv, symObjAddr: 0x2004, symBinAddr: 0x100002FC0, symSize: 0x28 }
  - { offsetInCU: 0x14326, offset: 0x14326, size: 0x8, addend: 0x0, symName: __ZSt22__uninitialized_copy_aIPiS0_iET0_T_S2_S1_RSaIT1_E, symObjAddr: 0x1FD4, symBinAddr: 0x100002F90, symSize: 0x30 }
  - { offsetInCU: 0x14392, offset: 0x14392, size: 0x8, addend: 0x0, symName: __ZSt4copyIPiS0_ET0_T_S2_S1_, symObjAddr: 0x1F8C, symBinAddr: 0x100002F48, symSize: 0x48 }
  - { offsetInCU: 0x14425, offset: 0x14425, size: 0x8, addend: 0x0, symName: __ZSt4copyIN9__gnu_cxx17__normal_iteratorIPKiSt6vectorIiSaIiEEEENS1_IPiS6_EEET0_T_SB_SA_, symObjAddr: 0x1F44, symBinAddr: 0x100002F00, symSize: 0x48 }
  - { offsetInCU: 0x14483, offset: 0x14483, size: 0x8, addend: 0x0, symName: __ZNSt6vectorIiSaIiEE20_M_allocate_and_copyIN9__gnu_cxx17__normal_iteratorIPKiS1_EEEEPimT_S9_, symObjAddr: 0x1EC0, symBinAddr: 0x100002E7C, symSize: 0x84 }
  - { offsetInCU: 0x144F6, offset: 0x144F6, size: 0x8, addend: 0x0, symName: __ZNKSt6vectorIiSaIiEE3endEv, symObjAddr: 0x1E98, symBinAddr: 0x100002E54, symSize: 0x28 }
  - { offsetInCU: 0x14520, offset: 0x14520, size: 0x8, addend: 0x0, symName: __ZNKSt6vectorIiSaIiEE5beginEv, symObjAddr: 0x1E74, symBinAddr: 0x100002E30, symSize: 0x24 }
  - { offsetInCU: 0x1454A, offset: 0x1454A, size: 0x8, addend: 0x0, symName: __ZNKSt6vectorIiSaIiEE8capacityEv, symObjAddr: 0x1E4C, symBinAddr: 0x100002E08, symSize: 0x28 }
  - { offsetInCU: 0x14574, offset: 0x14574, size: 0x8, addend: 0x0, symName: __ZNKSt6vectorIiSaIiEE4sizeEv, symObjAddr: 0x1E24, symBinAddr: 0x100002DE0, symSize: 0x28 }
  - { offsetInCU: 0x145C9, offset: 0x145C9, size: 0x8, addend: 0x0, symName: __ZNSt12_Vector_baseIiSaIiEE13_M_deallocateEPim, symObjAddr: 0x1DCC, symBinAddr: 0x100002D88, symSize: 0x58 }
  - { offsetInCU: 0x14645, offset: 0x14645, size: 0x8, addend: 0x0, symName: __ZNSt6vectorIiSaIiEE5clearEv, symObjAddr: 0x1DA0, symBinAddr: 0x100002D5C, symSize: 0x2C }
  - { offsetInCU: 0x14681, offset: 0x14681, size: 0x8, addend: 0x0, symName: __ZNKSt12_Vector_baseIiSaIiEE19_M_get_Tp_allocatorEv, symObjAddr: 0x1D8C, symBinAddr: 0x100002D48, symSize: 0x14 }
  - { offsetInCU: 0x146A7, offset: 0x146A7, size: 0x8, addend: 0x0, symName: __ZSt11__addressofIKSt6vectorIiSaIiEEEPT_RS4_, symObjAddr: 0x1D78, symBinAddr: 0x100002D34, symSize: 0x14 }
  - { offsetInCU: 0x146DB, offset: 0x146DB, size: 0x8, addend: 0x0, symName: __ZNSt8_Rb_treeINSt7__cxx1112basic_stringIcSt11char_traitsIcESaIcEEESt4pairIKS5_St6vectorIiSaIiEEESt10_Select1stISB_ESt4lessIS5_ESaISB_EE22_M_emplace_hint_uniqueIJRKSt21piecewise_construct_tSt5tupleIJRS7_EESM_IJEEEEESt17_Rb_tree_iteratorISB_ESt23_Rb_tree_const_iteratorISB_EDpOT_, symObjAddr: 0x1CA0, symBinAddr: 0x100002C5C, symSize: 0xD8 }
  - { offsetInCU: 0x1481F, offset: 0x1481F, size: 0x8, addend: 0x0, symName: __ZNSt23_Rb_tree_const_iteratorISt4pairIKNSt7__cxx1112basic_stringIcSt11char_traitsIcESaIcEEESt6vectorIiSaIiEEEEC1ERKSt17_Rb_tree_iteratorISB_E, symObjAddr: 0x1C78, symBinAddr: 0x100002C34, symSize: 0x28 }
  - { offsetInCU: 0x14841, offset: 0x14841, size: 0x8, addend: 0x0, symName: __ZNSt5tupleIJRKNSt7__cxx1112basic_stringIcSt11char_traitsIcESaIcEEEEEC1ILb1ELb1EEES7_, symObjAddr: 0x1C50, symBinAddr: 0x100002C0C, symSize: 0x28 }
  - { offsetInCU: 0x14825, offset: 0x14825, size: 0x8, addend: 0x0, symName: __ZNKSt4lessINSt7__cxx1112basic_stringIcSt11char_traitsIcESaIcEEEEclERKS5_S8_, symObjAddr: 0x1C24, symBinAddr: 0x100002BE0, symSize: 0x2C }
  - { offsetInCU: 0x1486F, offset: 0x1486F, size: 0x8, addend: 0x0, symName: __ZNKSt17_Rb_tree_iteratorISt4pairIKNSt7__cxx1112basic_stringIcSt11char_traitsIcESaIcEEESt6vectorIiSaIiEEEEdeEv, symObjAddr: 0x1C04, symBinAddr: 0x100002BC0, symSize: 0x20 }
  - { offsetInCU: 0x14899, offset: 0x14899, size: 0x8, addend: 0x0, symName: __ZNKSt3mapINSt7__cxx1112basic_stringIcSt11char_traitsIcESaIcEEESt6vectorIiSaIiEESt4lessIS5_ESaISt4pairIKS5_S8_EEE8key_compEv, symObjAddr: 0x1BD8, symBinAddr: 0x100002B94, symSize: 0x2C }
  - { offsetInCU: 0x148C5, offset: 0x148C5, size: 0x8, addend: 0x0, symName: __ZSteqRKSt17_Rb_tree_iteratorISt4pairIKNSt7__cxx1112basic_stringIcSt11char_traitsIcESaIcEEESt6vectorIiSaIiEEEESE_, symObjAddr: 0x1BA8, symBinAddr: 0x100002B64, symSize: 0x30 }
  - { offsetInCU: 0x14901, offset: 0x14901, size: 0x8, addend: 0x0, symName: __ZNSt3mapINSt7__cxx1112basic_stringIcSt11char_traitsIcESaIcEEESt6vectorIiSaIiEESt4lessIS5_ESaISt4pairIKS5_S8_EEE3endEv, symObjAddr: 0x1B8C, symBinAddr: 0x100002B48, symSize: 0x1C }
  - { offsetInCU: 0x1492B, offset: 0x1492B, size: 0x8, addend: 0x0, symName: __ZNSt3mapINSt7__cxx1112basic_stringIcSt11char_traitsIcESaIcEEESt6vectorIiSaIiEESt4lessIS5_ESaISt4pairIKS5_S8_EEE11lower_boundERSC_, symObjAddr: 0x1B68, symBinAddr: 0x100002B24, symSize: 0x24 }
  - { offsetInCU: 0x14965, offset: 0x14965, size: 0x8, addend: 0x0, symName: __ZNK9__gnu_cxx17__normal_iteratorIPiSt6vectorIiSaIiEEE4baseEv, symObjAddr: 0x1B54, symBinAddr: 0x100002B10, symSize: 0x14 }
  - { offsetInCU: 0x149EE, offset: 0x149EE, size: 0x8, addend: 0x0, symName: __ZN9__gnu_cxx17__normal_iteratorIPiSt6vectorIiSaIiEEEC1ERKS1_, symObjAddr: 0x1B2C, symBinAddr: 0x100002AE8, symSize: 0x28 }
  - { offsetInCU: 0x14A19, offset: 0x14A19, size: 0x8, addend: 0x0, symName: __ZNSt12_Vector_baseIiSaIiEE19_M_get_Tp_allocatorEv, symObjAddr: 0x1B18, symBinAddr: 0x100002AD4, symSize: 0x14 }
  - { offsetInCU: 0x14A43, offset: 0x14A43, size: 0x8, addend: 0x0, symName: __ZNSt8_Rb_treeIcSt4pairIKciESt10_Select1stIS2_ESt4lessIcESaIS2_EE22_M_emplace_hint_uniqueIJRKSt21piecewise_construct_tSt5tupleIJRS1_EESD_IJEEEEESt17_Rb_tree_iteratorIS2_ESt23_Rb_tree_const_iteratorIS2_EDpOT_, symObjAddr: 0x1A40, symBinAddr: 0x1000029FC, symSize: 0xD8 }
  - { offsetInCU: 0x14B25, offset: 0x14B25, size: 0x8, addend: 0x0, symName: __ZNSt5tupleIJRKcEEC1ILb1ELb1EEES1_, symObjAddr: 0x1A18, symBinAddr: 0x1000029D4, symSize: 0x28 }
  - { offsetInCU: 0x14B3C, offset: 0x14B3C, size: 0x8, addend: 0x0, symName: __ZNSt8_Rb_treeIcSt4pairIKciESt10_Select1stIS2_ESt4lessIcESaIS2_EE22_M_emplace_hint_uniqueIJRKSt21piecewise_construct_tSt5tupleIJOcEESD_IJEEEEESt17_Rb_tree_iteratorIS2_ESt23_Rb_tree_const_iteratorIS2_EDpOT_, symObjAddr: 0x1940, symBinAddr: 0x1000028FC, symSize: 0xD8 }
  - { offsetInCU: 0x14C3D, offset: 0x14C3D, size: 0x8, addend: 0x0, symName: __ZNSt23_Rb_tree_const_iteratorISt4pairIKciEEC1ERKSt17_Rb_tree_iteratorIS2_E, symObjAddr: 0x1918, symBinAddr: 0x1000028D4, symSize: 0x28 }
  - { offsetInCU: 0x14C1D, offset: 0x14C1D, size: 0x8, addend: 0x0, symName: __ZSt16forward_as_tupleIJcEESt5tupleIJDpOT_EES3_, symObjAddr: 0x18E0, symBinAddr: 0x10000289C, symSize: 0x38 }
  - { offsetInCU: 0x14C56, offset: 0x14C56, size: 0x8, addend: 0x0, symName: __ZSt4moveIRcEONSt16remove_referenceIT_E4typeEOS2_, symObjAddr: 0x18CC, symBinAddr: 0x100002888, symSize: 0x14 }
  - { offsetInCU: 0x14C8A, offset: 0x14C8A, size: 0x8, addend: 0x0, symName: __ZNKSt4lessIcEclERKcS2_, symObjAddr: 0x1898, symBinAddr: 0x100002854, symSize: 0x34 }
  - { offsetInCU: 0x14CD4, offset: 0x14CD4, size: 0x8, addend: 0x0, symName: __ZNKSt17_Rb_tree_iteratorISt4pairIKciEEdeEv, symObjAddr: 0x1878, symBinAddr: 0x100002834, symSize: 0x20 }
  - { offsetInCU: 0x14CFE, offset: 0x14CFE, size: 0x8, addend: 0x0, symName: __ZNKSt3mapIciSt4lessIcESaISt4pairIKciEEE8key_compEv, symObjAddr: 0x184C, symBinAddr: 0x100002808, symSize: 0x2C }
  - { offsetInCU: 0x14D2A, offset: 0x14D2A, size: 0x8, addend: 0x0, symName: __ZSteqRKSt17_Rb_tree_iteratorISt4pairIKciEES5_, symObjAddr: 0x181C, symBinAddr: 0x1000027D8, symSize: 0x30 }
  - { offsetInCU: 0x14D66, offset: 0x14D66, size: 0x8, addend: 0x0, symName: __ZNSt3mapIciSt4lessIcESaISt4pairIKciEEE3endEv, symObjAddr: 0x1800, symBinAddr: 0x1000027BC, symSize: 0x1C }
  - { offsetInCU: 0x14D90, offset: 0x14D90, size: 0x8, addend: 0x0, symName: __ZNSt3mapIciSt4lessIcESaISt4pairIKciEEE11lower_boundERS3_, symObjAddr: 0x17DC, symBinAddr: 0x100002798, symSize: 0x24 }
  - { offsetInCU: 0x14DCA, offset: 0x14DCA, size: 0x8, addend: 0x0, symName: __ZNSt6vectorIiSaIiEE18_M_fill_initializeEmRKi, symObjAddr: 0x1784, symBinAddr: 0x100002740, symSize: 0x58 }
  - { offsetInCU: 0x14E51, offset: 0x14E51, size: 0x8, addend: 0x0, symName: __ZNSt12_Vector_baseIiSaIiEED2Ev, symObjAddr: 0x1734, symBinAddr: 0x1000026F0, symSize: 0x50 }
  - { offsetInCU: 0x14EAC, offset: 0x14EAC, size: 0x8, addend: 0x0, symName: __ZNSt12_Vector_baseIiSaIiEEC2EmRKS0_, symObjAddr: 0x16E0, symBinAddr: 0x10000269C, symSize: 0x54 }
  - { offsetInCU: 0x14F0E, offset: 0x14F0E, size: 0x8, addend: 0x0, symName: __ZNSt12_Vector_baseIiSaIiEE12_Vector_implD1Ev, symObjAddr: 0x16B4, symBinAddr: 0x100002670, symSize: 0x2C }
  - { offsetInCU: 0x14F25, offset: 0x14F25, size: 0x8, addend: 0x0, symName: __ZNSt6vectorIiSaIiEE17_S_check_init_lenEmRKS0_, symObjAddr: 0x1630, symBinAddr: 0x1000025EC, symSize: 0x84 }
  - { offsetInCU: 0x1500B, offset: 0x1500B, size: 0x8, addend: 0x0, symName: __ZNSt15__new_allocatorIiED2Ev, symObjAddr: 0x161C, symBinAddr: 0x1000025D8, symSize: 0x14 }
  - { offsetInCU: 0x15029, offset: 0x15029, size: 0x8, addend: 0x0, symName: __ZNSt12_Vector_baseINSt7__cxx1112basic_stringIcSt11char_traitsIcESaIcEEESaIS5_EE13_M_deallocateEPS5_m, symObjAddr: 0x15C4, symBinAddr: 0x100002580, symSize: 0x58 }
  - { offsetInCU: 0x15113, offset: 0x15113, size: 0x8, addend: 0x0, symName: __ZNSt15__new_allocatorINSt7__cxx1112basic_stringIcSt11char_traitsIcESaIcEEEED2Ev, symObjAddr: 0x15B0, symBinAddr: 0x10000256C, symSize: 0x14 }
  - { offsetInCU: 0x15166, offset: 0x15166, size: 0x8, addend: 0x0, symName: __ZNSt12_Vector_baseINSt7__cxx1112basic_stringIcSt11char_traitsIcESaIcEEESaIS5_EE17_Vector_impl_dataC2Ev, symObjAddr: 0x1584, symBinAddr: 0x100002540, symSize: 0x2C }
  - { offsetInCU: 0x1513A, offset: 0x1513A, size: 0x8, addend: 0x0, symName: __ZNSt8_Rb_treeINSt7__cxx1112basic_stringIcSt11char_traitsIcESaIcEEESt4pairIKS5_St6vectorIiSaIiEEESt10_Select1stISB_ESt4lessIS5_ESaISB_EE8_M_beginEv, symObjAddr: 0x1568, symBinAddr: 0x100002524, symSize: 0x1C }
  - { offsetInCU: 0x15164, offset: 0x15164, size: 0x8, addend: 0x0, symName: __ZNSt8_Rb_treeINSt7__cxx1112basic_stringIcSt11char_traitsIcESaIcEEESt4pairIKS5_St6vectorIiSaIiEEESt10_Select1stISB_ESt4lessIS5_ESaISB_EE8_M_eraseEPSt13_Rb_tree_nodeISB_E, symObjAddr: 0x1504, symBinAddr: 0x1000024C0, symSize: 0x64 }
  - { offsetInCU: 0x1525D, offset: 0x1525D, size: 0x8, addend: 0x0, symName: __ZNSt15__new_allocatorISt13_Rb_tree_nodeISt4pairIKNSt7__cxx1112basic_stringIcSt11char_traitsIcESaIcEEESt6vectorIiSaIiEEEEED2Ev, symObjAddr: 0x14F0, symBinAddr: 0x1000024AC, symSize: 0x14 }
  - { offsetInCU: 0x15279, offset: 0x15279, size: 0x8, addend: 0x0, symName: __ZNSt20_Rb_tree_key_compareISt4lessINSt7__cxx1112basic_stringIcSt11char_traitsIcESaIcEEEEEC2Ev, symObjAddr: 0x14DC, symBinAddr: 0x100002498, symSize: 0x14 }
  - { offsetInCU: 0x15256, offset: 0x15256, size: 0x8, addend: 0x0, symName: __ZNSt8_Rb_treeIcSt4pairIKciESt10_Select1stIS2_ESt4lessIcESaIS2_EE8_M_beginEv, symObjAddr: 0x14C0, symBinAddr: 0x10000247C, symSize: 0x1C }
  - { offsetInCU: 0x15280, offset: 0x15280, size: 0x8, addend: 0x0, symName: __ZNSt8_Rb_treeIcSt4pairIKciESt10_Select1stIS2_ESt4lessIcESaIS2_EE8_M_eraseEPSt13_Rb_tree_nodeIS2_E, symObjAddr: 0x145C, symBinAddr: 0x100002418, symSize: 0x64 }
  - { offsetInCU: 0x15336, offset: 0x15336, size: 0x8, addend: 0x0, symName: __ZNSt15__new_allocatorISt13_Rb_tree_nodeISt4pairIKciEEED2Ev, symObjAddr: 0x1448, symBinAddr: 0x100002404, symSize: 0x14 }
  - { offsetInCU: 0x15362, offset: 0x15362, size: 0x8, addend: 0x0, symName: __ZNSt20_Rb_tree_key_compareISt4lessIcEEC2Ev, symObjAddr: 0x1434, symBinAddr: 0x1000023F0, symSize: 0x14 }
  - { offsetInCU: 0x15374, offset: 0x15374, size: 0x8, addend: 0x0, symName: __ZSt4moveIRNSt7__cxx1112basic_stringIcSt11char_traitsIcESaIcEEEEONSt16remove_referenceIT_E4typeEOS8_, symObjAddr: 0x1420, symBinAddr: 0x1000023DC, symSize: 0x14 }
  - { offsetInCU: 0x153E6, offset: 0x153E6, size: 0x8, addend: 0x0, symName: __ZNSt6vectorIiSaIiEEC1ERKS1_, symObjAddr: 0x130C, symBinAddr: 0x1000022C8, symSize: 0x114 }
  - { offsetInCU: 0x154CF, offset: 0x154CF, size: 0x8, addend: 0x0, symName: __ZNK9__gnu_cxx17__normal_iteratorIPNSt7__cxx1112basic_stringIcSt11char_traitsIcESaIcEEESt6vectorIS6_SaIS6_EEEdeEv, symObjAddr: 0x12F4, symBinAddr: 0x1000022B0, symSize: 0x18 }
  - { offsetInCU: 0x154F9, offset: 0x154F9, size: 0x8, addend: 0x0, symName: __ZN9__gnu_cxx17__normal_iteratorIPNSt7__cxx1112basic_stringIcSt11char_traitsIcESaIcEEESt6vectorIS6_SaIS6_EEEppEv, symObjAddr: 0x12CC, symBinAddr: 0x100002288, symSize: 0x28 }
  - { offsetInCU: 0x15525, offset: 0x15525, size: 0x8, addend: 0x0, symName: __ZN9__gnu_cxxneIPNSt7__cxx1112basic_stringIcSt11char_traitsIcESaIcEEESt6vectorIS6_SaIS6_EEEEbRKNS_17__normal_iteratorIT_T0_EESG_, symObjAddr: 0x1288, symBinAddr: 0x100002244, symSize: 0x44 }
  - { offsetInCU: 0x15573, offset: 0x15573, size: 0x8, addend: 0x0, symName: __ZNSt6vectorINSt7__cxx1112basic_stringIcSt11char_traitsIcESaIcEEESaIS5_EE3endEv, symObjAddr: 0x1260, symBinAddr: 0x10000221C, symSize: 0x28 }
  - { offsetInCU: 0x1559D, offset: 0x1559D, size: 0x8, addend: 0x0, symName: __ZNSt6vectorINSt7__cxx1112basic_stringIcSt11char_traitsIcESaIcEEESaIS5_EE5beginEv, symObjAddr: 0x123C, symBinAddr: 0x1000021F8, symSize: 0x24 }
  - { offsetInCU: 0x155C7, offset: 0x155C7, size: 0x8, addend: 0x0, symName: __ZNSt6vectorINSt7__cxx1112basic_stringIcSt11char_traitsIcESaIcEEESaIS5_EE6resizeEm, symObjAddr: 0x118C, symBinAddr: 0x100002148, symSize: 0xB0 }
  - { offsetInCU: 0x15601, offset: 0x15601, size: 0x8, addend: 0x0, symName: __ZNSt6vectorIiSaIiEEaSERKS1_, symObjAddr: 0xE44, symBinAddr: 0x100001E00, symSize: 0x348 }
  - { offsetInCU: 0x1577A, offset: 0x1577A, size: 0x8, addend: 0x0, symName: __ZNSt3mapINSt7__cxx1112basic_stringIcSt11char_traitsIcESaIcEEESt6vectorIiSaIiEESt4lessIS5_ESaISt4pairIKS5_S8_EEEixERSC_, symObjAddr: 0xD50, symBinAddr: 0x100001D0C, symSize: 0xF4 }
  - { offsetInCU: 0x157C4, offset: 0x157C4, size: 0x8, addend: 0x0, symName: __ZNK9__gnu_cxx17__normal_iteratorIPiSt6vectorIiSaIiEEEdeEv, symObjAddr: 0xD38, symBinAddr: 0x100001CF4, symSize: 0x18 }
  - { offsetInCU: 0x157EE, offset: 0x157EE, size: 0x8, addend: 0x0, symName: __ZN9__gnu_cxx17__normal_iteratorIPiSt6vectorIiSaIiEEEppEv, symObjAddr: 0xD10, symBinAddr: 0x100001CCC, symSize: 0x28 }
  - { offsetInCU: 0x1581A, offset: 0x1581A, size: 0x8, addend: 0x0, symName: __ZN9__gnu_cxxneIPiSt6vectorIiSaIiEEEEbRKNS_17__normal_iteratorIT_T0_EESA_, symObjAddr: 0xCCC, symBinAddr: 0x100001C88, symSize: 0x44 }
  - { offsetInCU: 0x15868, offset: 0x15868, size: 0x8, addend: 0x0, symName: __ZNSt6vectorIiSaIiEE3endEv, symObjAddr: 0xCA4, symBinAddr: 0x100001C60, symSize: 0x28 }
  - { offsetInCU: 0x15892, offset: 0x15892, size: 0x8, addend: 0x0, symName: __ZNSt6vectorIiSaIiEE5beginEv, symObjAddr: 0xC80, symBinAddr: 0x100001C3C, symSize: 0x24 }
  - { offsetInCU: 0x158F2, offset: 0x158F2, size: 0x8, addend: 0x0, symName: __ZNSt6vectorIiSaIiEED1Ev, symObjAddr: 0xC24, symBinAddr: 0x100001BE0, symSize: 0x5C }
  - { offsetInCU: 0x15933, offset: 0x15933, size: 0x8, addend: 0x0, symName: __ZNSt6vectorIiSaIiEEixEm, symObjAddr: 0xBFC, symBinAddr: 0x100001BB8, symSize: 0x28 }
  - { offsetInCU: 0x1596D, offset: 0x1596D, size: 0x8, addend: 0x0, symName: __ZNSt3mapIciSt4lessIcESaISt4pairIKciEEEixERS3_, symObjAddr: 0xB08, symBinAddr: 0x100001AC4, symSize: 0xF4 }
  - { offsetInCU: 0x159B7, offset: 0x159B7, size: 0x8, addend: 0x0, symName: __ZNSt3mapIciSt4lessIcESaISt4pairIKciEEEixEOc, symObjAddr: 0xA04, symBinAddr: 0x1000019C0, symSize: 0x104 }
  - { offsetInCU: 0x15A5D, offset: 0x15A5D, size: 0x8, addend: 0x0, symName: __ZNSt6vectorIiSaIiEEC1EmRKiRKS0_, symObjAddr: 0x994, symBinAddr: 0x100001950, symSize: 0x70 }
  - { offsetInCU: 0x15B1F, offset: 0x15B1F, size: 0x8, addend: 0x0, symName: __ZNSt12_Vector_baseINSt7__cxx1112basic_stringIcSt11char_traitsIcESaIcEEESaIS5_EED2Ev, symObjAddr: 0x944, symBinAddr: 0x100001900, symSize: 0x50 }
  - { offsetInCU: 0x15B86, offset: 0x15B86, size: 0x8, addend: 0x0, symName: __ZNSt12_Vector_baseINSt7__cxx1112basic_stringIcSt11char_traitsIcESaIcEEESaIS5_EE12_Vector_implC1Ev, symObjAddr: 0x90C, symBinAddr: 0x1000018C8, symSize: 0x38 }
  - { offsetInCU: 0x15C37, offset: 0x15C37, size: 0x8, addend: 0x0, symName: __ZNSt8_Rb_treeINSt7__cxx1112basic_stringIcSt11char_traitsIcESaIcEEESt4pairIKS5_St6vectorIiSaIiEEESt10_Select1stISB_ESt4lessIS5_ESaISB_EED1Ev, symObjAddr: 0x8D8, symBinAddr: 0x100001894, symSize: 0x34 }
  - { offsetInCU: 0x15CA8, offset: 0x15CA8, size: 0x8, addend: 0x0, symName: __ZNSt8_Rb_treeINSt7__cxx1112basic_stringIcSt11char_traitsIcESaIcEEESt4pairIKS5_St6vectorIiSaIiEEESt10_Select1stISB_ESt4lessIS5_ESaISB_EE13_Rb_tree_implISF_Lb1EEC1Ev, symObjAddr: 0x894, symBinAddr: 0x100001850, symSize: 0x44 }
  - { offsetInCU: 0x15CD1, offset: 0x15CD1, size: 0x8, addend: 0x0, symName: __ZNSt8_Rb_treeIcSt4pairIKciESt10_Select1stIS2_ESt4lessIcESaIS2_EED1Ev, symObjAddr: 0x860, symBinAddr: 0x10000181C, symSize: 0x34 }
  - { offsetInCU: 0x15D42, offset: 0x15D42, size: 0x8, addend: 0x0, symName: __ZNSt8_Rb_treeIcSt4pairIKciESt10_Select1stIS2_ESt4lessIcESaIS2_EE13_Rb_tree_implIS6_Lb1EEC1Ev, symObjAddr: 0x81C, symBinAddr: 0x1000017D8, symSize: 0x44 }
  - { offsetInCU: 0x15D54, offset: 0x15D54, size: 0x8, addend: 0x0, symName: _main, symObjAddr: 0x1EC, symBinAddr: 0x1000011A8, symSize: 0x630 }
  - { offsetInCU: 0x16060, offset: 0x16060, size: 0x8, addend: 0x0, symName: __ZNSt6vectorINSt7__cxx1112basic_stringIcSt11char_traitsIcESaIcEEESaIS5_EEC1Ev, symObjAddr: 0x1CC, symBinAddr: 0x100001188, symSize: 0x20 }
  - { offsetInCU: 0x160A3, offset: 0x160A3, size: 0x8, addend: 0x0, symName: __ZNSt12_Vector_baseINSt7__cxx1112basic_stringIcSt11char_traitsIcESaIcEEESaIS5_EEC2Ev, symObjAddr: 0x1AC, symBinAddr: 0x100001168, symSize: 0x20 }
  - { offsetInCU: 0x160FA, offset: 0x160FA, size: 0x8, addend: 0x0, symName: __ZNSt12_Vector_baseINSt7__cxx1112basic_stringIcSt11char_traitsIcESaIcEEESaIS5_EE12_Vector_implD1Ev, symObjAddr: 0x180, symBinAddr: 0x10000113C, symSize: 0x2C }
  - { offsetInCU: 0x16169, offset: 0x16169, size: 0x8, addend: 0x0, symName: __ZNSt3mapINSt7__cxx1112basic_stringIcSt11char_traitsIcESaIcEEESt6vectorIiSaIiEESt4lessIS5_ESaISt4pairIKS5_S8_EEEC1Ev, symObjAddr: 0x160, symBinAddr: 0x10000111C, symSize: 0x20 }
  - { offsetInCU: 0x161BD, offset: 0x161BD, size: 0x8, addend: 0x0, symName: __ZNSt8_Rb_treeINSt7__cxx1112basic_stringIcSt11char_traitsIcESaIcEEESt4pairIKS5_St6vectorIiSaIiEEESt10_Select1stISB_ESt4lessIS5_ESaISB_EEC1Ev, symObjAddr: 0x140, symBinAddr: 0x1000010FC, symSize: 0x20 }
  - { offsetInCU: 0x1621F, offset: 0x1621F, size: 0x8, addend: 0x0, symName: __ZNSt8_Rb_treeINSt7__cxx1112basic_stringIcSt11char_traitsIcESaIcEEESt4pairIKS5_St6vectorIiSaIiEEESt10_Select1stISB_ESt4lessIS5_ESaISB_EE13_Rb_tree_implISF_Lb1EED1Ev, symObjAddr: 0x114, symBinAddr: 0x1000010D0, symSize: 0x2C }
  - { offsetInCU: 0x16204, offset: 0x16204, size: 0x8, addend: 0x0, symName: __ZNSt3mapIciSt4lessIcESaISt4pairIKciEEEC1Ev, symObjAddr: 0xF4, symBinAddr: 0x1000010B0, symSize: 0x20 }
  - { offsetInCU: 0x1625A, offset: 0x1625A, size: 0x8, addend: 0x0, symName: __ZNSt8_Rb_treeIcSt4pairIKciESt10_Select1stIS2_ESt4lessIcESaIS2_EEC1Ev, symObjAddr: 0xD4, symBinAddr: 0x100001090, symSize: 0x20 }
  - { offsetInCU: 0x162BC, offset: 0x162BC, size: 0x8, addend: 0x0, symName: __ZNSt8_Rb_treeIcSt4pairIKciESt10_Select1stIS2_ESt4lessIcESaIS2_EE13_Rb_tree_implIS6_Lb1EED1Ev, symObjAddr: 0xA8, symBinAddr: 0x100001064, symSize: 0x2C }
  - { offsetInCU: 0x162A8, offset: 0x162A8, size: 0x8, addend: 0x0, symName: __ZNSt15_Rb_tree_header8_M_resetEv, symObjAddr: 0x6C, symBinAddr: 0x100001028, symSize: 0x3C }
  - { offsetInCU: 0x16301, offset: 0x16301, size: 0x8, addend: 0x0, symName: __ZNSt15_Rb_tree_headerC2Ev, symObjAddr: 0x44, symBinAddr: 0x100001000, symSize: 0x28 }
  - { offsetInCU: 0x16317, offset: 0x16317, size: 0x8, addend: 0x0, symName: __ZdlPvS_, symObjAddr: 0x2C, symBinAddr: 0x100000FE8, symSize: 0x18 }
  - { offsetInCU: 0x1634C, offset: 0x1634C, size: 0x8, addend: 0x0, symName: __ZnwmPv, symObjAddr: 0x14, symBinAddr: 0x100000FD0, symSize: 0x18 }
  - { offsetInCU: 0x16378, offset: 0x16378, size: 0x8, addend: 0x0, symName: __ZSt17__size_to_integerm, symObjAddr: 0x0, symBinAddr: 0x100000FBC, symSize: 0x14 }
...
