---
triple:          'arm64-apple-darwin'
binary-path:     '/Users/dingkai/Code/IOI2024/test.gout'
relocations:
  - { offsetInCU: 0xB2, offset: 0xB2, size: 0x8, addend: 0x0, symName: __ZnwmPv, symObjAddr: 0x0, symBinAddr: 0x10000386C, symSize: 0x18 }
  - { offsetInCU: 0x671F, offset: 0x671F, size: 0x8, addend: 0x0, symName: __ZStL8__ioinit, symObjAddr: 0x34318, symBinAddr: 0x10000C056, symSize: 0x0 }
  - { offsetInCU: 0x67CC, offset: 0x67CC, size: 0x8, addend: 0x0, symName: _n, symObjAddr: 0x34320, symBinAddr: 0x10000C058, symSize: 0x0 }
  - { offsetInCU: 0x67EE, offset: 0x67EE, size: 0x8, addend: 0x0, symName: _a, symObjAddr: 0x34324, symBinAddr: 0x10000C05C, symSize: 0x0 }
  - { offsetInCU: 0x6810, offset: 0x6810, size: 0x8, addend: 0x0, symName: _b, symObjAddr: 0x34330, symBinAddr: 0x10000C068, symSize: 0x0 }
  - { offsetInCU: 0x6AA2, offset: 0x6AA2, size: 0x8, addend: 0x0, symName: _conditions, symObjAddr: 0x34348, symBinAddr: 0x10000C080, symSize: 0x0 }
  - { offsetInCU: 0x6AB8, offset: 0x6AB8, size: 0x8, addend: 0x0, symName: _cantFriend, symObjAddr: 0x34460, symBinAddr: 0x10000C198, symSize: 0x0 }
  - { offsetInCU: 0x6AD6, offset: 0x6AD6, size: 0x8, addend: 0x0, symName: _formed, symObjAddr: 0x34498, symBinAddr: 0x10000C1D0, symSize: 0x0 }
  - { offsetInCU: 0x6DC8, offset: 0x6DC8, size: 0x8, addend: 0x0, symName: __GLOBAL__sub_I_test.cpp, symObjAddr: 0x2600, symBinAddr: 0x100005E6C, symSize: 0x14 }
  - { offsetInCU: 0x6DF1, offset: 0x6DF1, size: 0x8, addend: 0x0, symName: __Z41__static_initialization_and_destruction_0v, symObjAddr: 0x2550, symBinAddr: 0x100005DBC, symSize: 0xB0 }
  - { offsetInCU: 0x6DE6, offset: 0x6DE6, size: 0x8, addend: 0x0, symName: ___tcf_0, symObjAddr: 0x250C, symBinAddr: 0x100005D78, symSize: 0x44 }
  - { offsetInCU: 0x6E19, offset: 0x6E19, size: 0x8, addend: 0x0, symName: __ZNSt15__new_allocatorIPNSt8__detail15_Hash_node_baseEE8allocateEmPKv, symObjAddr: 0x2490, symBinAddr: 0x100005CFC, symSize: 0x7C }
  - { offsetInCU: 0x6E83, offset: 0x6E83, size: 0x8, addend: 0x0, symName: __ZSt12__to_addressIPNSt8__detail15_Hash_node_baseEEPT_S4_, symObjAddr: 0x247C, symBinAddr: 0x100005CE8, symSize: 0x14 }
  - { offsetInCU: 0x6EEC, offset: 0x6EEC, size: 0x8, addend: 0x0, symName: __ZNSt8__detail16_Hashtable_allocISaINS_10_Hash_nodeIxLb0EEEEE19_M_allocate_bucketsEm, symObjAddr: 0x23C4, symBinAddr: 0x100005C30, symSize: 0xB8 }
  - { offsetInCU: 0x703F, offset: 0x703F, size: 0x8, addend: 0x0, symName: __ZNSt15__new_allocatorINSt8__detail10_Hash_nodeIxLb0EEEE8allocateEmPKv, symObjAddr: 0x2348, symBinAddr: 0x100005BB4, symSize: 0x7C }
  - { offsetInCU: 0x70AD, offset: 0x70AD, size: 0x8, addend: 0x0, symName: __ZNSt10_HashtableIxxSaIxENSt8__detail9_IdentityESt8equal_toIxESt4hashIxENS1_18_Mod_range_hashingENS1_20_Default_ranged_hashENS1_20_Prime_rehash_policyENS1_17_Hashtable_traitsILb0ELb1ELb1EEEE19_M_allocate_bucketsEm, symObjAddr: 0x22F0, symBinAddr: 0x100005B5C, symSize: 0x58 }
  - { offsetInCU: 0x7121, offset: 0x7121, size: 0x8, addend: 0x0, symName: __ZSt12__to_addressINSt8__detail10_Hash_nodeIxLb0EEEEPT_S4_, symObjAddr: 0x22DC, symBinAddr: 0x100005B48, symSize: 0x14 }
  - { offsetInCU: 0x7176, offset: 0x7176, size: 0x8, addend: 0x0, symName: __ZNSt10_HashtableIxxSaIxENSt8__detail9_IdentityESt8equal_toIxESt4hashIxENS1_18_Mod_range_hashingENS1_20_Default_ranged_hashENS1_20_Prime_rehash_policyENS1_17_Hashtable_traitsILb0ELb1ELb1EEEE13_M_rehash_auxEmSt17integral_constantIbLb1EE, symObjAddr: 0x2170, symBinAddr: 0x1000059DC, symSize: 0x16C }
  - { offsetInCU: 0x721A, offset: 0x721A, size: 0x8, addend: 0x0, symName: __ZNSt8__detail16_Hashtable_allocISaINS_10_Hash_nodeIxLb0EEEEE16_M_allocate_nodeIJRKxEEEPS2_DpOT_, symObjAddr: 0x2084, symBinAddr: 0x1000058F0, symSize: 0xEC }
  - { offsetInCU: 0x734C, offset: 0x734C, size: 0x8, addend: 0x0, symName: __ZNSt8__detail10_Hash_nodeIxLb0EEC1Ev, symObjAddr: 0x2064, symBinAddr: 0x1000058D0, symSize: 0x20 }
  - { offsetInCU: 0x734F, offset: 0x734F, size: 0x8, addend: 0x0, symName: __ZNKSt8__detail15_Hashtable_baseIxxNS_9_IdentityESt8equal_toIxESt4hashIxENS_18_Mod_range_hashingENS_20_Default_ranged_hashENS_17_Hashtable_traitsILb0ELb1ELb1EEEE12_M_equals_trIxEEbRKT_mRKNS_16_Hash_node_valueIxLb0EEE, symObjAddr: 0x1FFC, symBinAddr: 0x100005868, symSize: 0x68 }
  - { offsetInCU: 0x73AC, offset: 0x73AC, size: 0x8, addend: 0x0, symName: __ZSt11__addressofINSt8__detail10_Hash_nodeIxLb0EEEEPT_RS3_, symObjAddr: 0x1FE8, symBinAddr: 0x100005854, symSize: 0x14 }
  - { offsetInCU: 0x73E5, offset: 0x73E5, size: 0x8, addend: 0x0, symName: __ZNK9__gnu_cxx16__aligned_bufferIxE7_M_addrEv, symObjAddr: 0x1FD4, symBinAddr: 0x100005840, symSize: 0x14 }
  - { offsetInCU: 0x740D, offset: 0x740D, size: 0x8, addend: 0x0, symName: __ZNSt10_HashtableIxxSaIxENSt8__detail9_IdentityESt8equal_toIxESt4hashIxENS1_18_Mod_range_hashingENS1_20_Default_ranged_hashENS1_20_Prime_rehash_policyENS1_17_Hashtable_traitsILb0ELb1ELb1EEEE22_M_insert_bucket_beginEmPNS1_10_Hash_nodeIxLb0EEE, symObjAddr: 0x1EC8, symBinAddr: 0x100005734, symSize: 0x10C }
  - { offsetInCU: 0x7455, offset: 0x7455, size: 0x8, addend: 0x0, symName: __ZNKSt8__detail15_Hash_code_baseIxxNS_9_IdentityESt4hashIxENS_18_Mod_range_hashingENS_20_Default_ranged_hashELb0EE13_M_store_codeERNS_21_Hash_node_code_cacheILb0EEEm, symObjAddr: 0x1EAC, symBinAddr: 0x100005718, symSize: 0x1C }
  - { offsetInCU: 0x748D, offset: 0x748D, size: 0x8, addend: 0x0, symName: __ZNSt10_HashtableIxxSaIxENSt8__detail9_IdentityESt8equal_toIxESt4hashIxENS1_18_Mod_range_hashingENS1_20_Default_ranged_hashENS1_20_Prime_rehash_policyENS1_17_Hashtable_traitsILb0ELb1ELb1EEEE9_M_rehashEmRKm, symObjAddr: 0x1E40, symBinAddr: 0x1000056AC, symSize: 0x6C }
  - { offsetInCU: 0x74E6, offset: 0x74E6, size: 0x8, addend: 0x0, symName: __ZNKSt8__detail10_AllocNodeISaINS_10_Hash_nodeIxLb0EEEEEclIJRKxEEEPS2_DpOT_, symObjAddr: 0x1E04, symBinAddr: 0x100005670, symSize: 0x3C }
  - { offsetInCU: 0x7528, offset: 0x7528, size: 0x8, addend: 0x0, symName: __ZSt7forwardINSt8__detail14_Node_iteratorIxLb1ELb0EEEEOT_RNSt16remove_referenceIS3_E4typeE, symObjAddr: 0x1DF0, symBinAddr: 0x10000565C, symSize: 0x14 }
  - { offsetInCU: 0x755C, offset: 0x755C, size: 0x8, addend: 0x0, symName: __ZNKSt10_HashtableIxxSaIxENSt8__detail9_IdentityESt8equal_toIxESt4hashIxENS1_18_Mod_range_hashingENS1_20_Default_ranged_hashENS1_20_Prime_rehash_policyENS1_17_Hashtable_traitsILb0ELb1ELb1EEEE22_M_find_before_node_trIxEEPNS1_15_Hash_node_baseEmRKT_m, symObjAddr: 0x1CF0, symBinAddr: 0x10000555C, symSize: 0x100 }
  - { offsetInCU: 0x75F2, offset: 0x75F2, size: 0x8, addend: 0x0, symName: __ZSt7forwardIRNSt8__detail14_Node_iteratorIxLb1ELb0EEEEOT_RNSt16remove_referenceIS4_E4typeE, symObjAddr: 0x1CDC, symBinAddr: 0x100005548, symSize: 0x14 }
  - { offsetInCU: 0x7622, offset: 0x7622, size: 0x8, addend: 0x0, symName: __ZSt11__addressofIPNSt8__detail15_Hash_node_baseEEPT_RS3_, symObjAddr: 0x1CC8, symBinAddr: 0x100005534, symSize: 0x14 }
  - { offsetInCU: 0x7656, offset: 0x7656, size: 0x8, addend: 0x0, symName: __ZNSt15__new_allocatorINSt8__detail10_Hash_nodeIxLb0EEEE10deallocateEPS2_m, symObjAddr: 0x1C98, symBinAddr: 0x100005504, symSize: 0x30 }
  - { offsetInCU: 0x7698, offset: 0x7698, size: 0x8, addend: 0x0, symName: __ZSt9addressofINSt8__detail10_Hash_nodeIxLb0EEEEPT_RS3_, symObjAddr: 0x1C7C, symBinAddr: 0x1000054E8, symSize: 0x1C }
  - { offsetInCU: 0x76D1, offset: 0x76D1, size: 0x8, addend: 0x0, symName: __ZN9__gnu_cxx16__aligned_bufferIxE7_M_addrEv, symObjAddr: 0x1C68, symBinAddr: 0x1000054D4, symSize: 0x14 }
  - { offsetInCU: 0x76F5, offset: 0x76F5, size: 0x8, addend: 0x0, symName: __ZNSt8__detail15_Hashtable_baseIxxNS_9_IdentityESt8equal_toIxESt4hashIxENS_18_Mod_range_hashingENS_20_Default_ranged_hashENS_17_Hashtable_traitsILb0ELb1ELb1EEEE9_S_equalsEmRKNS_21_Hash_node_code_cacheILb0EEE, symObjAddr: 0x1C50, symBinAddr: 0x1000054BC, symSize: 0x18 }
  - { offsetInCU: 0x7721, offset: 0x7721, size: 0x8, addend: 0x0, symName: __ZNK9__gnu_cxx16__aligned_bufferIxE6_M_ptrEv, symObjAddr: 0x1C34, symBinAddr: 0x1000054A0, symSize: 0x1C }
  - { offsetInCU: 0x7749, offset: 0x7749, size: 0x8, addend: 0x0, symName: __ZNSt10_HashtableIxxSaIxENSt8__detail9_IdentityESt8equal_toIxESt4hashIxENS1_18_Mod_range_hashingENS1_20_Default_ranged_hashENS1_20_Prime_rehash_policyENS1_17_Hashtable_traitsILb0ELb1ELb1EEEE21_M_insert_unique_nodeEmmPNS1_10_Hash_nodeIxLb0EEEm, symObjAddr: 0x1B4C, symBinAddr: 0x1000053B8, symSize: 0xE8 }
  - { offsetInCU: 0x78C2, offset: 0x78C2, size: 0x8, addend: 0x0, symName: __ZNSt10_HashtableIxxSaIxENSt8__detail9_IdentityESt8equal_toIxESt4hashIxENS1_18_Mod_range_hashingENS1_20_Default_ranged_hashENS1_20_Prime_rehash_policyENS1_17_Hashtable_traitsILb0ELb1ELb1EEEE12_Scoped_nodeD1Ev, symObjAddr: 0x1B08, symBinAddr: 0x100005374, symSize: 0x44 }
  - { offsetInCU: 0x7952, offset: 0x7952, size: 0x8, addend: 0x0, symName: __ZNSt10_HashtableIxxSaIxENSt8__detail9_IdentityESt8equal_toIxESt4hashIxENS1_18_Mod_range_hashingENS1_20_Default_ranged_hashENS1_20_Prime_rehash_policyENS1_17_Hashtable_traitsILb0ELb1ELb1EEEE12_Scoped_nodeC1EPNS1_10_Hash_nodeIxLb0EEEPNS1_16_Hashtable_allocISaISF_EEE, symObjAddr: 0x1AD4, symBinAddr: 0x100005340, symSize: 0x34 }
  - { offsetInCU: 0x7883, offset: 0x7883, size: 0x8, addend: 0x0, symName: __ZNSt8__detail12_NodeBuilderINS_9_IdentityEE8_S_buildIRKxS5_NS_10_AllocNodeISaINS_10_Hash_nodeIxLb0EEEEEEEEPNT1_11__node_typeEOT_OT0_RKSB_, symObjAddr: 0x1AA4, symBinAddr: 0x100005310, symSize: 0x30 }
  - { offsetInCU: 0x796A, offset: 0x796A, size: 0x8, addend: 0x0, symName: __ZNSt4pairINSt8__detail14_Node_iteratorIxLb1ELb0EEEbEC1IS2_bLb1EEEOT_OT0_, symObjAddr: 0x1A58, symBinAddr: 0x1000052C4, symSize: 0x4C }
  - { offsetInCU: 0x796B, offset: 0x796B, size: 0x8, addend: 0x0, symName: __ZNKSt10_HashtableIxxSaIxENSt8__detail9_IdentityESt8equal_toIxESt4hashIxENS1_18_Mod_range_hashingENS1_20_Default_ranged_hashENS1_20_Prime_rehash_policyENS1_17_Hashtable_traitsILb0ELb1ELb1EEEE15_M_find_node_trIxEEPNS1_10_Hash_nodeIxLb0EEEmRKT_m, symObjAddr: 0x1A04, symBinAddr: 0x100005270, symSize: 0x54 }
  - { offsetInCU: 0x79DC, offset: 0x79DC, size: 0x8, addend: 0x0, symName: __ZNKSt8__detail15_Hash_code_baseIxxNS_9_IdentityESt4hashIxENS_18_Mod_range_hashingENS_20_Default_ranged_hashELb0EE15_M_hash_code_trIxEEmRKT_, symObjAddr: 0x19CC, symBinAddr: 0x100005238, symSize: 0x38 }
  - { offsetInCU: 0x7AA8, offset: 0x7AA8, size: 0x8, addend: 0x0, symName: __ZNSt4pairINSt8__detail14_Node_iteratorIxLb1ELb0EEEbEC1IRS2_bLb1EEEOT_OT0_, symObjAddr: 0x1980, symBinAddr: 0x1000051EC, symSize: 0x4C }
  - { offsetInCU: 0x7AA8, offset: 0x7AA8, size: 0x8, addend: 0x0, symName: __ZNKSt8__detail15_Hashtable_baseIxxNS_9_IdentityESt8equal_toIxESt4hashIxENS_18_Mod_range_hashingENS_20_Default_ranged_hashENS_17_Hashtable_traitsILb0ELb1ELb1EEEE16_M_key_equals_trIxEEbRKT_RKNS_16_Hash_node_valueIxLb0EEE, symObjAddr: 0x1928, symBinAddr: 0x100005194, symSize: 0x58 }
  - { offsetInCU: 0x7AF9, offset: 0x7AF9, size: 0x8, addend: 0x0, symName: __ZNSt15__new_allocatorIPNSt8__detail15_Hash_node_baseEE10deallocateEPS2_m, symObjAddr: 0x18F8, symBinAddr: 0x100005164, symSize: 0x30 }
  - { offsetInCU: 0x7B98, offset: 0x7B98, size: 0x8, addend: 0x0, symName: __ZNSt15__new_allocatorIPNSt8__detail15_Hash_node_baseEED2Ev, symObjAddr: 0x18E4, symBinAddr: 0x100005150, symSize: 0x14 }
  - { offsetInCU: 0x7B95, offset: 0x7B95, size: 0x8, addend: 0x0, symName: __ZSt9addressofIPNSt8__detail15_Hash_node_baseEEPT_RS3_, symObjAddr: 0x18C8, symBinAddr: 0x100005134, symSize: 0x1C }
  - { offsetInCU: 0x7BF3, offset: 0x7BF3, size: 0x8, addend: 0x0, symName: __ZNSt19__ptr_traits_ptr_toIPNSt8__detail10_Hash_nodeIxLb0EEES2_Lb0EE10pointer_toERS2_, symObjAddr: 0x18AC, symBinAddr: 0x100005118, symSize: 0x1C }
  - { offsetInCU: 0x7C47, offset: 0x7C47, size: 0x8, addend: 0x0, symName: __ZN9__gnu_cxx16__aligned_bufferIxE6_M_ptrEv, symObjAddr: 0x1890, symBinAddr: 0x1000050FC, symSize: 0x1C }
  - { offsetInCU: 0x7C6F, offset: 0x7C6F, size: 0x8, addend: 0x0, symName: __ZNSt8__detail21_Hashtable_ebo_helperILi0ESaINS_10_Hash_nodeIxLb0EEEELb1EE6_M_getEv, symObjAddr: 0x187C, symBinAddr: 0x1000050E8, symSize: 0x14 }
  - { offsetInCU: 0x7C97, offset: 0x7C97, size: 0x8, addend: 0x0, symName: __ZNSt10_HashtableIxxSaIxENSt8__detail9_IdentityESt8equal_toIxESt4hashIxENS1_18_Mod_range_hashingENS1_20_Default_ranged_hashENS1_20_Prime_rehash_policyENS1_17_Hashtable_traitsILb0ELb1ELb1EEEE22_M_remove_bucket_beginEmPNS1_10_Hash_nodeIxLb0EEEm, symObjAddr: 0x17B8, symBinAddr: 0x100005024, symSize: 0xC4 }
  - { offsetInCU: 0x7CEF, offset: 0x7CEF, size: 0x8, addend: 0x0, symName: __ZNKSt8__detail15_Hash_code_baseIxxNS_9_IdentityESt4hashIxENS_18_Mod_range_hashingENS_20_Default_ranged_hashELb0EE15_M_bucket_indexERKNS_16_Hash_node_valueIxLb0EEEm, symObjAddr: 0x176C, symBinAddr: 0x100004FD8, symSize: 0x4C }
  - { offsetInCU: 0x7D37, offset: 0x7D37, size: 0x8, addend: 0x0, symName: __ZNKSt8__detail15_Hashtable_baseIxxNS_9_IdentityESt8equal_toIxESt4hashIxENS_18_Mod_range_hashingENS_20_Default_ranged_hashENS_17_Hashtable_traitsILb0ELb1ELb1EEEE9_M_equalsERKxmRKNS_16_Hash_node_valueIxLb0EEE, symObjAddr: 0x1704, symBinAddr: 0x100004F70, symSize: 0x68 }
  - { offsetInCU: 0x7D8F, offset: 0x7D8F, size: 0x8, addend: 0x0, symName: __ZNKSt8__detail21_Hashtable_ebo_helperILi1ESt4hashIxELb1EE7_M_cgetEv, symObjAddr: 0x16F0, symBinAddr: 0x100004F5C, symSize: 0x14 }
  - { offsetInCU: 0x7DB7, offset: 0x7DB7, size: 0x8, addend: 0x0, symName: __ZNKSt8__detail21_Hash_node_value_baseIxE9_M_valptrEv, symObjAddr: 0x16D4, symBinAddr: 0x100004F40, symSize: 0x1C }
  - { offsetInCU: 0x7DDF, offset: 0x7DDF, size: 0x8, addend: 0x0, symName: __ZNKSt8__detail21_Hashtable_ebo_helperILi0ESt8equal_toIxELb1EE7_M_cgetEv, symObjAddr: 0x16C0, symBinAddr: 0x100004F2C, symSize: 0x14 }
  - { offsetInCU: 0x7E07, offset: 0x7E07, size: 0x8, addend: 0x0, symName: __ZNSt10_HashtableIxxSaIxENSt8__detail9_IdentityESt8equal_toIxESt4hashIxENS1_18_Mod_range_hashingENS1_20_Default_ranged_hashENS1_20_Prime_rehash_policyENS1_17_Hashtable_traitsILb0ELb1ELb1EEEE16_M_insert_uniqueIRKxSF_NS1_10_AllocNodeISaINS1_10_Hash_nodeIxLb0EEEEEEEESt4pairINS1_14_Node_iteratorIxLb1ELb0EEEbEOT_OT0_RKT1_, symObjAddr: 0x14B4, symBinAddr: 0x100004D20, symSize: 0x20C }
  - { offsetInCU: 0x7F03, offset: 0x7F03, size: 0x8, addend: 0x0, symName: __ZNSt10_HashtableIxxSaIxENSt8__detail9_IdentityESt8equal_toIxESt4hashIxENS1_18_Mod_range_hashingENS1_20_Default_ranged_hashENS1_20_Prime_rehash_policyENS1_17_Hashtable_traitsILb0ELb1ELb1EEEE14_S_forward_keyERKx, symObjAddr: 0x14A0, symBinAddr: 0x100004D0C, symSize: 0x14 }
  - { offsetInCU: 0x7F98, offset: 0x7F98, size: 0x8, addend: 0x0, symName: __ZNSt19__ptr_traits_ptr_toIPPNSt8__detail15_Hash_node_baseES2_Lb0EE10pointer_toERS2_, symObjAddr: 0x1484, symBinAddr: 0x100004CF0, symSize: 0x1C }
  - { offsetInCU: 0x7FC3, offset: 0x7FC3, size: 0x8, addend: 0x0, symName: __ZNSt8__detail16_Hashtable_allocISaINS_10_Hash_nodeIxLb0EEEEE22_M_deallocate_node_ptrEPS2_, symObjAddr: 0x142C, symBinAddr: 0x100004C98, symSize: 0x58 }
  - { offsetInCU: 0x8067, offset: 0x8067, size: 0x8, addend: 0x0, symName: __ZNSt8__detail21_Hash_node_value_baseIxE9_M_valptrEv, symObjAddr: 0x1410, symBinAddr: 0x100004C7C, symSize: 0x1C }
  - { offsetInCU: 0x808F, offset: 0x808F, size: 0x8, addend: 0x0, symName: __ZNSt8__detail16_Hashtable_allocISaINS_10_Hash_nodeIxLb0EEEEE17_M_node_allocatorEv, symObjAddr: 0x13F4, symBinAddr: 0x100004C60, symSize: 0x1C }
  - { offsetInCU: 0x80B7, offset: 0x80B7, size: 0x8, addend: 0x0, symName: __ZNSt10_HashtableIxxSaIxENSt8__detail9_IdentityESt8equal_toIxESt4hashIxENS1_18_Mod_range_hashingENS1_20_Default_ranged_hashENS1_20_Prime_rehash_policyENS1_17_Hashtable_traitsILb0ELb1ELb1EEEE8_M_eraseEmPNS1_15_Hash_node_baseEPNS1_10_Hash_nodeIxLb0EEE, symObjAddr: 0x12B4, symBinAddr: 0x100004B20, symSize: 0x140 }
  - { offsetInCU: 0x8142, offset: 0x8142, size: 0x8, addend: 0x0, symName: __ZNKSt10_HashtableIxxSaIxENSt8__detail9_IdentityESt8equal_toIxESt4hashIxENS1_18_Mod_range_hashingENS1_20_Default_ranged_hashENS1_20_Prime_rehash_policyENS1_17_Hashtable_traitsILb0ELb1ELb1EEEE15_M_bucket_indexERKNS1_16_Hash_node_valueIxLb0EEE, symObjAddr: 0x1284, symBinAddr: 0x100004AF0, symSize: 0x30 }
  - { offsetInCU: 0x817A, offset: 0x817A, size: 0x8, addend: 0x0, symName: __ZNSt10_HashtableIxxSaIxENSt8__detail9_IdentityESt8equal_toIxESt4hashIxENS1_18_Mod_range_hashingENS1_20_Default_ranged_hashENS1_20_Prime_rehash_policyENS1_17_Hashtable_traitsILb0ELb1ELb1EEEE19_M_find_before_nodeERKx, symObjAddr: 0x11E4, symBinAddr: 0x100004A50, symSize: 0xA0 }
  - { offsetInCU: 0x824C, offset: 0x824C, size: 0x8, addend: 0x0, symName: __ZNSt8__detail19_Node_iterator_baseIxLb0EEC2EPNS_10_Hash_nodeIxLb0EEE, symObjAddr: 0x11C0, symBinAddr: 0x100004A2C, symSize: 0x24 }
  - { offsetInCU: 0x8237, offset: 0x8237, size: 0x8, addend: 0x0, symName: __ZNKSt10_HashtableIxxSaIxENSt8__detail9_IdentityESt8equal_toIxESt4hashIxENS1_18_Mod_range_hashingENS1_20_Default_ranged_hashENS1_20_Prime_rehash_policyENS1_17_Hashtable_traitsILb0ELb1ELb1EEEE19_M_find_before_nodeEmRKxm, symObjAddr: 0x10C0, symBinAddr: 0x10000492C, symSize: 0x100 }
  - { offsetInCU: 0x82C2, offset: 0x82C2, size: 0x8, addend: 0x0, symName: __ZNKSt8__detail15_Hash_code_baseIxxNS_9_IdentityESt4hashIxENS_18_Mod_range_hashingENS_20_Default_ranged_hashELb0EE15_M_bucket_indexEmm, symObjAddr: 0x1094, symBinAddr: 0x100004900, symSize: 0x2C }
  - { offsetInCU: 0x830A, offset: 0x830A, size: 0x8, addend: 0x0, symName: __ZNKSt8__detail15_Hash_code_baseIxxNS_9_IdentityESt4hashIxENS_18_Mod_range_hashingENS_20_Default_ranged_hashELb0EE7_M_hashEv, symObjAddr: 0x1078, symBinAddr: 0x1000048E4, symSize: 0x1C }
  - { offsetInCU: 0x8332, offset: 0x8332, size: 0x8, addend: 0x0, symName: __ZNKSt8equal_toIxEclERKxS2_, symObjAddr: 0x1044, symBinAddr: 0x1000048B0, symSize: 0x34 }
  - { offsetInCU: 0x8385, offset: 0x8385, size: 0x8, addend: 0x0, symName: __ZNKSt8__detail9_IdentityclIRKxEEOT_S5_, symObjAddr: 0x1024, symBinAddr: 0x100004890, symSize: 0x20 }
  - { offsetInCU: 0x83C5, offset: 0x83C5, size: 0x8, addend: 0x0, symName: __ZNKSt8__detail21_Hash_node_value_baseIxE4_M_vEv, symObjAddr: 0x1008, symBinAddr: 0x100004874, symSize: 0x1C }
  - { offsetInCU: 0x83ED, offset: 0x83ED, size: 0x8, addend: 0x0, symName: __ZNKSt8__detail15_Hashtable_baseIxxNS_9_IdentityESt8equal_toIxESt4hashIxENS_18_Mod_range_hashingENS_20_Default_ranged_hashENS_17_Hashtable_traitsILb0ELb1ELb1EEEE5_M_eqEv, symObjAddr: 0xFEC, symBinAddr: 0x100004858, symSize: 0x1C }
  - { offsetInCU: 0x8415, offset: 0x8415, size: 0x8, addend: 0x0, symName: __ZNSt8__detail19_Node_iterator_baseIxLb0EE7_M_incrEv, symObjAddr: 0xFBC, symBinAddr: 0x100004828, symSize: 0x30 }
  - { offsetInCU: 0x843A, offset: 0x843A, size: 0x8, addend: 0x0, symName: __ZNSt8__detail22_Hashtable_hash_traitsISt4hashIxEE22__small_size_thresholdEv, symObjAddr: 0xFB4, symBinAddr: 0x100004820, symSize: 0x8 }
  - { offsetInCU: 0x8455, offset: 0x8455, size: 0x8, addend: 0x0, symName: __ZNSt10_HashtableIxxSaIxENSt8__detail9_IdentityESt8equal_toIxESt4hashIxENS1_18_Mod_range_hashingENS1_20_Default_ranged_hashENS1_20_Prime_rehash_policyENS1_17_Hashtable_traitsILb0ELb1ELb1EEEE20_M_insert_unique_auxIRKxNS1_10_AllocNodeISaINS1_10_Hash_nodeIxLb0EEEEEEEESt4pairINS1_14_Node_iteratorIxLb1ELb0EEEbEOT_RKT0_, symObjAddr: 0xF58, symBinAddr: 0x1000047C4, symSize: 0x5C }
  - { offsetInCU: 0x84BA, offset: 0x84BA, size: 0x8, addend: 0x0, symName: __ZNKSt8__detail19_ConvertToValueTypeINS_9_IdentityExEclIRKxEEOT_S7_, symObjAddr: 0xF38, symBinAddr: 0x1000047A4, symSize: 0x20 }
  - { offsetInCU: 0x84FC, offset: 0x84FC, size: 0x8, addend: 0x0, symName: __ZSt7forwardIRKxEOT_RNSt16remove_referenceIS2_E4typeE, symObjAddr: 0xF24, symBinAddr: 0x100004790, symSize: 0x14 }
  - { offsetInCU: 0x8530, offset: 0x8530, size: 0x8, addend: 0x0, symName: __ZNSt8__detail16_Hashtable_allocISaINS_10_Hash_nodeIxLb0EEEEE21_M_deallocate_bucketsEPPNS_15_Hash_node_baseEm, symObjAddr: 0xEAC, symBinAddr: 0x100004718, symSize: 0x78 }
  - { offsetInCU: 0x862F, offset: 0x862F, size: 0x8, addend: 0x0, symName: __ZNKSt10_HashtableIxxSaIxENSt8__detail9_IdentityESt8equal_toIxESt4hashIxENS1_18_Mod_range_hashingENS1_20_Default_ranged_hashENS1_20_Prime_rehash_policyENS1_17_Hashtable_traitsILb0ELb1ELb1EEEE21_M_uses_single_bucketEPPNS1_15_Hash_node_baseE, symObjAddr: 0xE70, symBinAddr: 0x1000046DC, symSize: 0x3C }
  - { offsetInCU: 0x8667, offset: 0x8667, size: 0x8, addend: 0x0, symName: __ZNSt8__detail16_Hashtable_allocISaINS_10_Hash_nodeIxLb0EEEEE18_M_deallocate_nodeEPS2_, symObjAddr: 0xE08, symBinAddr: 0x100004674, symSize: 0x68 }
  - { offsetInCU: 0x86F3, offset: 0x86F3, size: 0x8, addend: 0x0, symName: __ZNKSt8__detail10_Hash_nodeIxLb0EE7_M_nextEv, symObjAddr: 0xDF0, symBinAddr: 0x10000465C, symSize: 0x18 }
  - { offsetInCU: 0x871B, offset: 0x871B, size: 0x8, addend: 0x0, symName: __ZNSt10_HashtableIxxSaIxENSt8__detail9_IdentityESt8equal_toIxESt4hashIxENS1_18_Mod_range_hashingENS1_20_Default_ranged_hashENS1_20_Prime_rehash_policyENS1_17_Hashtable_traitsILb0ELb1ELb1EEEE8_M_eraseESt17integral_constantIbLb1EERKx, symObjAddr: 0xCE8, symBinAddr: 0x100004554, symSize: 0x108 }
  - { offsetInCU: 0x8814, offset: 0x8814, size: 0x8, addend: 0x0, symName: __ZNSt8__detail14_Node_iteratorIxLb1ELb0EEC1EPNS_10_Hash_nodeIxLb0EEE, symObjAddr: 0xCC0, symBinAddr: 0x10000452C, symSize: 0x28 }
  - { offsetInCU: 0x8800, offset: 0x8800, size: 0x8, addend: 0x0, symName: __ZNKSt10_HashtableIxxSaIxENSt8__detail9_IdentityESt8equal_toIxESt4hashIxENS1_18_Mod_range_hashingENS1_20_Default_ranged_hashENS1_20_Prime_rehash_policyENS1_17_Hashtable_traitsILb0ELb1ELb1EEEE12_M_find_nodeEmRKxm, symObjAddr: 0xC6C, symBinAddr: 0x1000044D8, symSize: 0x54 }
  - { offsetInCU: 0x8868, offset: 0x8868, size: 0x8, addend: 0x0, symName: __ZNKSt10_HashtableIxxSaIxENSt8__detail9_IdentityESt8equal_toIxESt4hashIxENS1_18_Mod_range_hashingENS1_20_Default_ranged_hashENS1_20_Prime_rehash_policyENS1_17_Hashtable_traitsILb0ELb1ELb1EEEE15_M_bucket_indexEm, symObjAddr: 0xC3C, symBinAddr: 0x1000044A8, symSize: 0x30 }
  - { offsetInCU: 0x88A0, offset: 0x88A0, size: 0x8, addend: 0x0, symName: __ZNKSt8__detail15_Hash_code_baseIxxNS_9_IdentityESt4hashIxENS_18_Mod_range_hashingENS_20_Default_ranged_hashELb0EE12_M_hash_codeERKx, symObjAddr: 0xC04, symBinAddr: 0x100004470, symSize: 0x38 }
  - { offsetInCU: 0x88D8, offset: 0x88D8, size: 0x8, addend: 0x0, symName: __ZNKSt8__detail15_Hashtable_baseIxxNS_9_IdentityESt8equal_toIxESt4hashIxENS_18_Mod_range_hashingENS_20_Default_ranged_hashENS_17_Hashtable_traitsILb0ELb1ELb1EEEE13_M_key_equalsERKxRKNS_16_Hash_node_valueIxLb0EEE, symObjAddr: 0xBAC, symBinAddr: 0x100004418, symSize: 0x58 }
  - { offsetInCU: 0x8920, offset: 0x8920, size: 0x8, addend: 0x0, symName: __ZNSt8__detail14_Node_iteratorIxLb1ELb0EEppEv, symObjAddr: 0xB8C, symBinAddr: 0x1000043F8, symSize: 0x20 }
  - { offsetInCU: 0x8948, offset: 0x8948, size: 0x8, addend: 0x0, symName: __ZNSt10_HashtableIxxSaIxENSt8__detail9_IdentityESt8equal_toIxESt4hashIxENS1_18_Mod_range_hashingENS1_20_Default_ranged_hashENS1_20_Prime_rehash_policyENS1_17_Hashtable_traitsILb0ELb1ELb1EEEE5beginEv, symObjAddr: 0xB60, symBinAddr: 0x1000043CC, symSize: 0x2C }
  - { offsetInCU: 0x896D, offset: 0x896D, size: 0x8, addend: 0x0, symName: __ZNSt10_HashtableIxxSaIxENSt8__detail9_IdentityESt8equal_toIxESt4hashIxENS1_18_Mod_range_hashingENS1_20_Default_ranged_hashENS1_20_Prime_rehash_policyENS1_17_Hashtable_traitsILb0ELb1ELb1EEEE22__small_size_thresholdEv, symObjAddr: 0xB4C, symBinAddr: 0x1000043B8, symSize: 0x14 }
  - { offsetInCU: 0x8988, offset: 0x8988, size: 0x8, addend: 0x0, symName: __ZNSt10_HashtableIxxSaIxENSt8__detail9_IdentityESt8equal_toIxESt4hashIxENS1_18_Mod_range_hashingENS1_20_Default_ranged_hashENS1_20_Prime_rehash_policyENS1_17_Hashtable_traitsILb0ELb1ELb1EEEE9_M_insertIRKxNS1_10_AllocNodeISaINS1_10_Hash_nodeIxLb0EEEEEEEESt4pairINS1_14_Node_iteratorIxLb1ELb0EEEbEOT_RKT0_St17integral_constantIbLb1EE, symObjAddr: 0xB08, symBinAddr: 0x100004374, symSize: 0x44 }
  - { offsetInCU: 0x8A61, offset: 0x8A61, size: 0x8, addend: 0x0, symName: __ZNSt8__detail10_AllocNodeISaINS_10_Hash_nodeIxLb0EEEEEC1ERNS_16_Hashtable_allocIS3_EE, symObjAddr: 0xAE4, symBinAddr: 0x100004350, symSize: 0x24 }
  - { offsetInCU: 0x8A3B, offset: 0x8A3B, size: 0x8, addend: 0x0, symName: __ZNSt8__detail12_Insert_baseIxxSaIxENS_9_IdentityESt8equal_toIxESt4hashIxENS_18_Mod_range_hashingENS_20_Default_ranged_hashENS_20_Prime_rehash_policyENS_17_Hashtable_traitsILb0ELb1ELb1EEEE20_M_conjure_hashtableEv, symObjAddr: 0xAD0, symBinAddr: 0x10000433C, symSize: 0x14 }
  - { offsetInCU: 0x8A77, offset: 0x8A77, size: 0x8, addend: 0x0, symName: __ZNSt10_HashtableIxxSaIxENSt8__detail9_IdentityESt8equal_toIxESt4hashIxENS1_18_Mod_range_hashingENS1_20_Default_ranged_hashENS1_20_Prime_rehash_policyENS1_17_Hashtable_traitsILb0ELb1ELb1EEEE21_M_deallocate_bucketsEPPNS1_15_Hash_node_baseEm, symObjAddr: 0xA80, symBinAddr: 0x1000042EC, symSize: 0x50 }
  - { offsetInCU: 0x8ABF, offset: 0x8ABF, size: 0x8, addend: 0x0, symName: __ZNSt8__detail16_Hashtable_allocISaINS_10_Hash_nodeIxLb0EEEEE19_M_deallocate_nodesEPS2_, symObjAddr: 0xA30, symBinAddr: 0x10000429C, symSize: 0x50 }
  - { offsetInCU: 0x8B1A, offset: 0x8B1A, size: 0x8, addend: 0x0, symName: __ZNKSt10_HashtableIxxSaIxENSt8__detail9_IdentityESt8equal_toIxESt4hashIxENS1_18_Mod_range_hashingENS1_20_Default_ranged_hashENS1_20_Prime_rehash_policyENS1_17_Hashtable_traitsILb0ELb1ELb1EEEE8_M_beginEv, symObjAddr: 0xA18, symBinAddr: 0x100004284, symSize: 0x18 }
  - { offsetInCU: 0x8B42, offset: 0x8B42, size: 0x8, addend: 0x0, symName: __ZNSt10_HashtableIxxSaIxENSt8__detail9_IdentityESt8equal_toIxESt4hashIxENS1_18_Mod_range_hashingENS1_20_Default_ranged_hashENS1_20_Prime_rehash_policyENS1_17_Hashtable_traitsILb0ELb1ELb1EEEE5eraseERKx, symObjAddr: 0x9F0, symBinAddr: 0x10000425C, symSize: 0x28 }
  - { offsetInCU: 0x8B7A, offset: 0x8B7A, size: 0x8, addend: 0x0, symName: __ZNSt10_HashtableIxxSaIxENSt8__detail9_IdentityESt8equal_toIxESt4hashIxENS1_18_Mod_range_hashingENS1_20_Default_ranged_hashENS1_20_Prime_rehash_policyENS1_17_Hashtable_traitsILb0ELb1ELb1EEEE3endEv, symObjAddr: 0x9CC, symBinAddr: 0x100004238, symSize: 0x24 }
  - { offsetInCU: 0x8BA2, offset: 0x8BA2, size: 0x8, addend: 0x0, symName: __ZNSt10_HashtableIxxSaIxENSt8__detail9_IdentityESt8equal_toIxESt4hashIxENS1_18_Mod_range_hashingENS1_20_Default_ranged_hashENS1_20_Prime_rehash_policyENS1_17_Hashtable_traitsILb0ELb1ELb1EEEE4findERKx, symObjAddr: 0x8C4, symBinAddr: 0x100004130, symSize: 0x108 }
  - { offsetInCU: 0x8C1D, offset: 0x8C1D, size: 0x8, addend: 0x0, symName: __ZNKSt10_HashtableIxxSaIxENSt8__detail9_IdentityESt8equal_toIxESt4hashIxENS1_18_Mod_range_hashingENS1_20_Default_ranged_hashENS1_20_Prime_rehash_policyENS1_17_Hashtable_traitsILb0ELb1ELb1EEEE4sizeEv, symObjAddr: 0x8AC, symBinAddr: 0x100004118, symSize: 0x18 }
  - { offsetInCU: 0x8C45, offset: 0x8C45, size: 0x8, addend: 0x0, symName: __ZNSt8__detail12_Insert_baseIxxSaIxENS_9_IdentityESt8equal_toIxESt4hashIxENS_18_Mod_range_hashingENS_20_Default_ranged_hashENS_20_Prime_rehash_policyENS_17_Hashtable_traitsILb0ELb1ELb1EEEE6insertERKx, symObjAddr: 0x85C, symBinAddr: 0x1000040C8, symSize: 0x50 }
  - { offsetInCU: 0x8CF7, offset: 0x8CF7, size: 0x8, addend: 0x0, symName: __ZNSt15__new_allocatorINSt8__detail10_Hash_nodeIxLb0EEEED2Ev, symObjAddr: 0x848, symBinAddr: 0x1000040B4, symSize: 0x14 }
  - { offsetInCU: 0x8CF7, offset: 0x8CF7, size: 0x8, addend: 0x0, symName: __ZNSt10_HashtableIxxSaIxENSt8__detail9_IdentityESt8equal_toIxESt4hashIxENS1_18_Mod_range_hashingENS1_20_Default_ranged_hashENS1_20_Prime_rehash_policyENS1_17_Hashtable_traitsILb0ELb1ELb1EEEE21_M_deallocate_bucketsEv, symObjAddr: 0x814, symBinAddr: 0x100004080, symSize: 0x34 }
  - { offsetInCU: 0x8D1F, offset: 0x8D1F, size: 0x8, addend: 0x0, symName: __ZNSt10_HashtableIxxSaIxENSt8__detail9_IdentityESt8equal_toIxESt4hashIxENS1_18_Mod_range_hashingENS1_20_Default_ranged_hashENS1_20_Prime_rehash_policyENS1_17_Hashtable_traitsILb0ELb1ELb1EEEE5clearEv, symObjAddr: 0x7B0, symBinAddr: 0x10000401C, symSize: 0x64 }
  - { offsetInCU: 0x8D49, offset: 0x8D49, size: 0x8, addend: 0x0, symName: __ZSt7forwardIbEOT_RNSt16remove_referenceIS0_E4typeE, symObjAddr: 0x79C, symBinAddr: 0x100004008, symSize: 0x14 }
  - { offsetInCU: 0x8D7D, offset: 0x8D7D, size: 0x8, addend: 0x0, symName: __ZNSt13unordered_setIxSt4hashIxESt8equal_toIxESaIxEE5eraseERKx, symObjAddr: 0x778, symBinAddr: 0x100003FE4, symSize: 0x24 }
  - { offsetInCU: 0x8DB7, offset: 0x8DB7, size: 0x8, addend: 0x0, symName: __ZNSt8__detailneERKNS_19_Node_iterator_baseIxLb0EEES3_, symObjAddr: 0x748, symBinAddr: 0x100003FB4, symSize: 0x30 }
  - { offsetInCU: 0x8DF3, offset: 0x8DF3, size: 0x8, addend: 0x0, symName: __ZNSt13unordered_setIxSt4hashIxESt8equal_toIxESaIxEE3endEv, symObjAddr: 0x72C, symBinAddr: 0x100003F98, symSize: 0x1C }
  - { offsetInCU: 0x8E1B, offset: 0x8E1B, size: 0x8, addend: 0x0, symName: __ZNSt13unordered_setIxSt4hashIxESt8equal_toIxESaIxEE4findERKx, symObjAddr: 0x708, symBinAddr: 0x100003F74, symSize: 0x24 }
  - { offsetInCU: 0x8E53, offset: 0x8E53, size: 0x8, addend: 0x0, symName: __ZNKSt13unordered_setIxSt4hashIxESt8equal_toIxESaIxEE4sizeEv, symObjAddr: 0x6EC, symBinAddr: 0x100003F58, symSize: 0x1C }
  - { offsetInCU: 0x8E7B, offset: 0x8E7B, size: 0x8, addend: 0x0, symName: __ZNSt13unordered_setIxSt4hashIxESt8equal_toIxESaIxEE6insertERKx, symObjAddr: 0x6C8, symBinAddr: 0x100003F34, symSize: 0x24 }
  - { offsetInCU: 0x8F33, offset: 0x8F33, size: 0x8, addend: 0x0, symName: __ZNSt8__detail21_Hashtable_ebo_helperILi0ESaINS_10_Hash_nodeIxLb0EEEELb1EEC2Ev, symObjAddr: 0x69C, symBinAddr: 0x100003F08, symSize: 0x2C }
  - { offsetInCU: 0x8FA6, offset: 0x8FA6, size: 0x8, addend: 0x0, symName: __ZNSt8__detail21_Hashtable_ebo_helperILi0ESt8equal_toIxELb1EEC2Ev, symObjAddr: 0x688, symBinAddr: 0x100003EF4, symSize: 0x14 }
  - { offsetInCU: 0x8FDF, offset: 0x8FDF, size: 0x8, addend: 0x0, symName: __ZNSt8__detail21_Hashtable_ebo_helperILi1ESt4hashIxELb1EEC2Ev, symObjAddr: 0x674, symBinAddr: 0x100003EE0, symSize: 0x14 }
  - { offsetInCU: 0x90AA, offset: 0x90AA, size: 0x8, addend: 0x0, symName: __ZNSt10_HashtableIxxSaIxENSt8__detail9_IdentityESt8equal_toIxESt4hashIxENS1_18_Mod_range_hashingENS1_20_Default_ranged_hashENS1_20_Prime_rehash_policyENS1_17_Hashtable_traitsILb0ELb1ELb1EEEED1Ev, symObjAddr: 0x644, symBinAddr: 0x100003EB0, symSize: 0x30 }
  - { offsetInCU: 0x9015, offset: 0x9015, size: 0x8, addend: 0x0, symName: _main, symObjAddr: 0x264, symBinAddr: 0x100003AD0, symSize: 0x3E0 }
  - { offsetInCU: 0x914F, offset: 0x914F, size: 0x8, addend: 0x0, symName: __ZNSt13unordered_setIxSt4hashIxESt8equal_toIxESaIxEEC1Ev, symObjAddr: 0x244, symBinAddr: 0x100003AB0, symSize: 0x20 }
  - { offsetInCU: 0x9216, offset: 0x9216, size: 0x8, addend: 0x0, symName: __ZNSt10_HashtableIxxSaIxENSt8__detail9_IdentityESt8equal_toIxESt4hashIxENS1_18_Mod_range_hashingENS1_20_Default_ranged_hashENS1_20_Prime_rehash_policyENS1_17_Hashtable_traitsILb0ELb1ELb1EEEEC1Ev, symObjAddr: 0x1D4, symBinAddr: 0x100003A40, symSize: 0x70 }
  - { offsetInCU: 0x91E0, offset: 0x91E0, size: 0x8, addend: 0x0, symName: __ZNSt8__detail16_Hashtable_allocISaINS_10_Hash_nodeIxLb0EEEEED2Ev, symObjAddr: 0x1B4, symBinAddr: 0x100003A20, symSize: 0x20 }
  - { offsetInCU: 0x921D, offset: 0x921D, size: 0x8, addend: 0x0, symName: __ZNSt8__detail16_Hashtable_allocISaINS_10_Hash_nodeIxLb0EEEEEC2Ev, symObjAddr: 0x194, symBinAddr: 0x100003A00, symSize: 0x20 }
  - { offsetInCU: 0x9275, offset: 0x9275, size: 0x8, addend: 0x0, symName: __ZNSt8__detail21_Hashtable_ebo_helperILi0ESaINS_10_Hash_nodeIxLb0EEEELb1EED2Ev, symObjAddr: 0x168, symBinAddr: 0x1000039D4, symSize: 0x2C }
  - { offsetInCU: 0x932A, offset: 0x932A, size: 0x8, addend: 0x0, symName: __ZNSt8__detail15_Hashtable_baseIxxNS_9_IdentityESt8equal_toIxESt4hashIxENS_18_Mod_range_hashingENS_20_Default_ranged_hashENS_17_Hashtable_traitsILb0ELb1ELb1EEEEC2Ev, symObjAddr: 0x140, symBinAddr: 0x1000039AC, symSize: 0x28 }
  - { offsetInCU: 0x9338, offset: 0x9338, size: 0x8, addend: 0x0, symName: __ZNSt8__detail15_Hash_code_baseIxxNS_9_IdentityESt4hashIxENS_18_Mod_range_hashingENS_20_Default_ranged_hashELb0EEC2Ev, symObjAddr: 0x120, symBinAddr: 0x10000398C, symSize: 0x20 }
  - { offsetInCU: 0x9345, offset: 0x9345, size: 0x8, addend: 0x0, symName: __ZNSt13unordered_setIxSt4hashIxESt8equal_toIxESaIxEED1Ev, symObjAddr: 0x100, symBinAddr: 0x10000396C, symSize: 0x20 }
  - { offsetInCU: 0x9335, offset: 0x9335, size: 0x8, addend: 0x0, symName: __ZNSt8__detail20_Prime_rehash_policy8_M_resetEm, symObjAddr: 0xDC, symBinAddr: 0x100003948, symSize: 0x24 }
  - { offsetInCU: 0x936D, offset: 0x936D, size: 0x8, addend: 0x0, symName: __ZNKSt8__detail20_Prime_rehash_policy8_M_stateEv, symObjAddr: 0xC4, symBinAddr: 0x100003930, symSize: 0x18 }
  - { offsetInCU: 0x93DF, offset: 0x93DF, size: 0x8, addend: 0x0, symName: __ZNSt8__detail20_Prime_rehash_policyC1Ef, symObjAddr: 0x98, symBinAddr: 0x100003904, symSize: 0x2C }
  - { offsetInCU: 0x93E7, offset: 0x93E7, size: 0x8, addend: 0x0, symName: __ZNKSt8__detail18_Mod_range_hashingclEmm, symObjAddr: 0x68, symBinAddr: 0x1000038D4, symSize: 0x30 }
  - { offsetInCU: 0x9467, offset: 0x9467, size: 0x8, addend: 0x0, symName: __ZNSt8__detail15_Hash_node_baseC1Ev, symObjAddr: 0x4C, symBinAddr: 0x1000038B8, symSize: 0x1C }
  - { offsetInCU: 0x9490, offset: 0x9490, size: 0x8, addend: 0x0, symName: __ZNSt8__detail15_Hash_node_baseC2Ev, symObjAddr: 0x30, symBinAddr: 0x10000389C, symSize: 0x1C }
  - { offsetInCU: 0x9495, offset: 0x9495, size: 0x8, addend: 0x0, symName: __ZNKSt4hashIxEclEx, symObjAddr: 0x18, symBinAddr: 0x100003884, symSize: 0x18 }
  - { offsetInCU: 0x94D8, offset: 0x94D8, size: 0x8, addend: 0x0, symName: __ZnwmPv, symObjAddr: 0x0, symBinAddr: 0x10000386C, symSize: 0x18 }
...
