---
triple:          'arm64-apple-darwin'
binary-path:     '/Users/dingkai/USACO/Bronze/donot_be_last/donot_be_last'
relocations:
  - { offsetInCU: 0xC6, offset: 0xC6, size: 0x8, addend: 0x0, symName: __ZSt23__is_constant_evaluatedv, symObjAddr: 0x0, symBinAddr: 0x100002C58, symSize: 0x8 }
  - { offsetInCU: 0xCE, offset: 0xCE, size: 0x8, addend: 0x0, symName: __ZSt19piecewise_construct, symObjAddr: 0x50C8, symBinAddr: 0x10000890C, symSize: 0x0 }
  - { offsetInCU: 0x667, offset: 0x667, size: 0x8, addend: 0x0, symName: __ZSt19piecewise_construct, symObjAddr: 0x50C8, symBinAddr: 0x10000890C, symSize: 0x0 }
  - { offsetInCU: 0x9FF2, offset: 0x9FF2, size: 0x8, addend: 0x0, symName: __Z3cowB5cxx11, symObjAddr: 0x5F480, symBinAddr: 0x100010180, symSize: 0x0 }
  - { offsetInCU: 0xA001, offset: 0xA001, size: 0x8, addend: 0x0, symName: _M, symObjAddr: 0x50CC, symBinAddr: 0x100010000, symSize: 0x0 }
  - { offsetInCU: 0xBB93, offset: 0xBB93, size: 0x8, addend: 0x0, symName: __Z5namesB5cxx11, symObjAddr: 0x5F4B0, symBinAddr: 0x1000101B0, symSize: 0x0 }
  - { offsetInCU: 0xBBAB, offset: 0xBBAB, size: 0x8, addend: 0x0, symName: _secondSmallest, symObjAddr: 0x5F4C8, symBinAddr: 0x1000101C8, symSize: 0x0 }
  - { offsetInCU: 0xBBB9, offset: 0xBBB9, size: 0x8, addend: 0x0, symName: _N, symObjAddr: 0x5F4CC, symBinAddr: 0x1000101CC, symSize: 0x0 }
  - { offsetInCU: 0xD7CC, offset: 0xD7CC, size: 0x8, addend: 0x0, symName: __Z8CowMilksB5cxx11, symObjAddr: 0x5F4D0, symBinAddr: 0x1000101D0, symSize: 0x0 }
  - { offsetInCU: 0xDABC, offset: 0xDABC, size: 0x8, addend: 0x0, symName: __Z7cowMilkB5cxx11, symObjAddr: 0x5F4E8, symBinAddr: 0x1000101E8, symSize: 0x0 }
  - { offsetInCU: 0xDAE8, offset: 0xDAE8, size: 0x8, addend: 0x0, symName: __Z13strSecondNameB5cxx11, symObjAddr: 0x5F510, symBinAddr: 0x100010210, symSize: 0x0 }
  - { offsetInCU: 0xDAE6, offset: 0xDAE6, size: 0x8, addend: 0x0, symName: _count, symObjAddr: 0x5F530, symBinAddr: 0x100010230, symSize: 0x0 }
  - { offsetInCU: 0xFC5F, offset: 0xFC5F, size: 0x8, addend: 0x0, symName: __ZNSt8__detail30__integer_to_chars_is_unsignedIjEE, symObjAddr: 0x50C9, symBinAddr: 0x10000890D, symSize: 0x0 }
  - { offsetInCU: 0xFC79, offset: 0xFC79, size: 0x8, addend: 0x0, symName: __ZNSt8__detail30__integer_to_chars_is_unsignedImEE, symObjAddr: 0x50CA, symBinAddr: 0x10000890E, symSize: 0x0 }
  - { offsetInCU: 0xFC93, offset: 0xFC93, size: 0x8, addend: 0x0, symName: __ZNSt8__detail30__integer_to_chars_is_unsignedIyEE, symObjAddr: 0x50CB, symBinAddr: 0x10000890F, symSize: 0x0 }
  - { offsetInCU: 0xFCDA, offset: 0xFCDA, size: 0x8, addend: 0x0, symName: __GLOBAL__sub_I_donot_be_last.cpp, symObjAddr: 0x50B4, symBinAddr: 0x100007D0C, symSize: 0x14 }
  - { offsetInCU: 0xFCE2, offset: 0xFCE2, size: 0x8, addend: 0x0, symName: __ZSt19piecewise_construct, symObjAddr: 0x50C8, symBinAddr: 0x10000890C, symSize: 0x0 }
  - { offsetInCU: 0xFDA9, offset: 0xFDA9, size: 0x8, addend: 0x0, symName: __ZNSt6vectorISt4pairINSt7__cxx1112basic_stringIcSt11char_traitsIcESaIcEEEiESaIS7_EED1Ev, symObjAddr: 0x5058, symBinAddr: 0x100007CB0, symSize: 0x5C }
  - { offsetInCU: 0xFDB1, offset: 0xFDB1, size: 0x8, addend: 0x0, symName: __GLOBAL__sub_I_donot_be_last.cpp, symObjAddr: 0x50B4, symBinAddr: 0x100007D0C, symSize: 0x14 }
  - { offsetInCU: 0xFE32, offset: 0xFE32, size: 0x8, addend: 0x0, symName: __ZNSt6vectorINSt7__cxx1112basic_stringIcSt11char_traitsIcESaIcEEESaIS5_EED1Ev, symObjAddr: 0x4FFC, symBinAddr: 0x100007C54, symSize: 0x5C }
  - { offsetInCU: 0xFE3A, offset: 0xFE3A, size: 0x8, addend: 0x0, symName: __ZNSt6vectorISt4pairINSt7__cxx1112basic_stringIcSt11char_traitsIcESaIcEEEiESaIS7_EED1Ev, symObjAddr: 0x5058, symBinAddr: 0x100007CB0, symSize: 0x5C }
  - { offsetInCU: 0xFE78, offset: 0xFE78, size: 0x8, addend: 0x0, symName: __Z41__static_initialization_and_destruction_0v, symObjAddr: 0x4CD4, symBinAddr: 0x10000792C, symSize: 0x328 }
  - { offsetInCU: 0xFE80, offset: 0xFE80, size: 0x8, addend: 0x0, symName: __ZNSt6vectorINSt7__cxx1112basic_stringIcSt11char_traitsIcESaIcEEESaIS5_EED1Ev, symObjAddr: 0x4FFC, symBinAddr: 0x100007C54, symSize: 0x5C }
  - { offsetInCU: 0x100A2, offset: 0x100A2, size: 0x8, addend: 0x0, symName: __ZNSt3mapINSt7__cxx1112basic_stringIcSt11char_traitsIcESaIcEEEiSt4lessIS5_ESaISt4pairIKS5_iEEED1Ev, symObjAddr: 0x4CB4, symBinAddr: 0x10000790C, symSize: 0x20 }
  - { offsetInCU: 0x100AA, offset: 0x100AA, size: 0x8, addend: 0x0, symName: __Z41__static_initialization_and_destruction_0v, symObjAddr: 0x4CD4, symBinAddr: 0x10000792C, symSize: 0x328 }
  - { offsetInCU: 0x1006D, offset: 0x1006D, size: 0x8, addend: 0x0, symName: __ZNSt10_Head_baseILm0ERKNSt7__cxx1112basic_stringIcSt11char_traitsIcESaIcEEELb0EE7_M_headERS8_, symObjAddr: 0x4C9C, symBinAddr: 0x1000078F4, symSize: 0x18 }
  - { offsetInCU: 0x10075, offset: 0x10075, size: 0x8, addend: 0x0, symName: __ZNSt3mapINSt7__cxx1112basic_stringIcSt11char_traitsIcESaIcEEEiSt4lessIS5_ESaISt4pairIKS5_iEEED1Ev, symObjAddr: 0x4CB4, symBinAddr: 0x10000790C, symSize: 0x20 }
  - { offsetInCU: 0x1009E, offset: 0x1009E, size: 0x8, addend: 0x0, symName: __ZNSt11_Tuple_implILm0EJRKNSt7__cxx1112basic_stringIcSt11char_traitsIcESaIcEEEEE7_M_headERS8_, symObjAddr: 0x4C80, symBinAddr: 0x1000078D8, symSize: 0x1C }
  - { offsetInCU: 0x100A6, offset: 0x100A6, size: 0x8, addend: 0x0, symName: __ZNSt10_Head_baseILm0ERKNSt7__cxx1112basic_stringIcSt11char_traitsIcESaIcEEELb0EE7_M_headERS8_, symObjAddr: 0x4C9C, symBinAddr: 0x1000078F4, symSize: 0x18 }
  - { offsetInCU: 0x10183, offset: 0x10183, size: 0x8, addend: 0x0, symName: __ZSt12__get_helperILm0ERKNSt7__cxx1112basic_stringIcSt11char_traitsIcESaIcEEEJEERT0_RSt11_Tuple_implIXT_EJS8_DpT1_EE, symObjAddr: 0x4C64, symBinAddr: 0x1000078BC, symSize: 0x1C }
  - { offsetInCU: 0x1018B, offset: 0x1018B, size: 0x8, addend: 0x0, symName: __ZNSt11_Tuple_implILm0EJRKNSt7__cxx1112basic_stringIcSt11char_traitsIcESaIcEEEEE7_M_headERS8_, symObjAddr: 0x4C80, symBinAddr: 0x1000078D8, symSize: 0x1C }
  - { offsetInCU: 0x10170, offset: 0x10170, size: 0x8, addend: 0x0, symName: __ZSt4moveIRiEONSt16remove_referenceIT_E4typeEOS2_, symObjAddr: 0x4C50, symBinAddr: 0x1000078A8, symSize: 0x14 }
  - { offsetInCU: 0x10178, offset: 0x10178, size: 0x8, addend: 0x0, symName: __ZSt12__get_helperILm0ERKNSt7__cxx1112basic_stringIcSt11char_traitsIcESaIcEEEJEERT0_RSt11_Tuple_implIXT_EJS8_DpT1_EE, symObjAddr: 0x4C64, symBinAddr: 0x1000078BC, symSize: 0x1C }
  - { offsetInCU: 0x10262, offset: 0x10262, size: 0x8, addend: 0x0, symName: __ZSt3getILm0EJRKNSt7__cxx1112basic_stringIcSt11char_traitsIcESaIcEEEEERNSt13tuple_elementIXT_ESt5tupleIJDpT0_EEE4typeERSC_, symObjAddr: 0x4C34, symBinAddr: 0x10000788C, symSize: 0x1C }
  - { offsetInCU: 0x1026A, offset: 0x1026A, size: 0x8, addend: 0x0, symName: __ZSt4moveIRiEONSt16remove_referenceIT_E4typeEOS2_, symObjAddr: 0x4C50, symBinAddr: 0x1000078A8, symSize: 0x14 }
  - { offsetInCU: 0x101DF, offset: 0x101DF, size: 0x8, addend: 0x0, symName: __ZNSt20__copy_move_backwardILb1ELb0ESt26random_access_iterator_tagE13__copy_move_bIPSt4pairINSt7__cxx1112basic_stringIcSt11char_traitsIcESaIcEEEiESB_EET0_T_SD_SC_, symObjAddr: 0x4BAC, symBinAddr: 0x100007804, symSize: 0x88 }
  - { offsetInCU: 0x101E7, offset: 0x101E7, size: 0x8, addend: 0x0, symName: __ZSt3getILm0EJRKNSt7__cxx1112basic_stringIcSt11char_traitsIcESaIcEEEEERNSt13tuple_elementIXT_ESt5tupleIJDpT0_EEE4typeERSC_, symObjAddr: 0x4C34, symBinAddr: 0x10000788C, symSize: 0x1C }
  - { offsetInCU: 0x1030D, offset: 0x1030D, size: 0x8, addend: 0x0, symName: __ZSt4swapIiENSt9enable_ifIXsrSt6__and_IJSt6__not_ISt15__is_tuple_likeIT_EESt21is_move_constructibleIS4_ESt18is_move_assignableIS4_EEE5valueEvE4typeERS4_SE_, symObjAddr: 0x4B58, symBinAddr: 0x1000077B0, symSize: 0x54 }
  - { offsetInCU: 0x10315, offset: 0x10315, size: 0x8, addend: 0x0, symName: __ZNSt20__copy_move_backwardILb1ELb0ESt26random_access_iterator_tagE13__copy_move_bIPSt4pairINSt7__cxx1112basic_stringIcSt11char_traitsIcESaIcEEEiESB_EET0_T_SD_SC_, symObjAddr: 0x4BAC, symBinAddr: 0x100007804, symSize: 0x88 }
  - { offsetInCU: 0x10358, offset: 0x10358, size: 0x8, addend: 0x0, symName: __ZSt4swapIcSt11char_traitsIcESaIcEEvRNSt7__cxx1112basic_stringIT_T0_T1_EES9_, symObjAddr: 0x4B30, symBinAddr: 0x100007788, symSize: 0x28 }
  - { offsetInCU: 0x10360, offset: 0x10360, size: 0x8, addend: 0x0, symName: __ZSt4swapIiENSt9enable_ifIXsrSt6__and_IJSt6__not_ISt15__is_tuple_likeIT_EESt21is_move_constructibleIS4_ESt18is_move_assignableIS4_EEE5valueEvE4typeERS4_SE_, symObjAddr: 0x4B58, symBinAddr: 0x1000077B0, symSize: 0x54 }
  - { offsetInCU: 0x10341, offset: 0x10341, size: 0x8, addend: 0x0, symName: __ZN9__gnu_cxx5__ops14_Iter_comp_valIZ4mainEUlRKSt4pairINSt7__cxx1112basic_stringIcSt11char_traitsIcESaIcEEEiESB_E_EclINS_17__normal_iteratorIPS9_St6vectorIS9_SaIS9_EEEES9_EEbT_RT0_, symObjAddr: 0x4AEC, symBinAddr: 0x100007744, symSize: 0x44 }
  - { offsetInCU: 0x10349, offset: 0x10349, size: 0x8, addend: 0x0, symName: __ZSt4swapIcSt11char_traitsIcESaIcEEvRNSt7__cxx1112basic_stringIT_T0_T1_EES9_, symObjAddr: 0x4B30, symBinAddr: 0x100007788, symSize: 0x28 }
  - { offsetInCU: 0x104CB, offset: 0x104CB, size: 0x8, addend: 0x0, symName: __ZNSt4pairIKNSt7__cxx1112basic_stringIcSt11char_traitsIcESaIcEEEiEC1IJRS6_EJLm0EEJEJEEERSt5tupleIJDpT_EERSA_IJDpT1_EESt12_Index_tupleIJXspT0_EEESJ_IJXspT2_EEE, symObjAddr: 0x4A98, symBinAddr: 0x1000076F0, symSize: 0x54 }
  - { offsetInCU: 0x104D3, offset: 0x104D3, size: 0x8, addend: 0x0, symName: __ZN9__gnu_cxx5__ops14_Iter_comp_valIZ4mainEUlRKSt4pairINSt7__cxx1112basic_stringIcSt11char_traitsIcESaIcEEEiESB_E_EclINS_17__normal_iteratorIPS9_St6vectorIS9_SaIS9_EEEES9_EEbT_RT0_, symObjAddr: 0x4AEC, symBinAddr: 0x100007744, symSize: 0x44 }
  - { offsetInCU: 0x1052D, offset: 0x1052D, size: 0x8, addend: 0x0, symName: __ZSt8_DestroyINSt7__cxx1112basic_stringIcSt11char_traitsIcESaIcEEEEvPT_, symObjAddr: 0x4A78, symBinAddr: 0x1000076D0, symSize: 0x20 }
  - { offsetInCU: 0x10535, offset: 0x10535, size: 0x8, addend: 0x0, symName: __ZNSt4pairIKNSt7__cxx1112basic_stringIcSt11char_traitsIcESaIcEEEiEC1IJRS6_EJLm0EEJEJEEERSt5tupleIJDpT_EERSA_IJDpT1_EESt12_Index_tupleIJXspT0_EEESJ_IJXspT2_EEE, symObjAddr: 0x4A98, symBinAddr: 0x1000076F0, symSize: 0x54 }
  - { offsetInCU: 0x105F6, offset: 0x105F6, size: 0x8, addend: 0x0, symName: __ZSt23__copy_move_backward_a2ILb1EPSt4pairINSt7__cxx1112basic_stringIcSt11char_traitsIcESaIcEEEiES8_ET1_T0_SA_S9_, symObjAddr: 0x4A4C, symBinAddr: 0x1000076A4, symSize: 0x2C }
  - { offsetInCU: 0x105FE, offset: 0x105FE, size: 0x8, addend: 0x0, symName: __ZSt8_DestroyINSt7__cxx1112basic_stringIcSt11char_traitsIcESaIcEEEEvPT_, symObjAddr: 0x4A78, symBinAddr: 0x1000076D0, symSize: 0x20 }
  - { offsetInCU: 0x1058A, offset: 0x1058A, size: 0x8, addend: 0x0, symName: __ZNSt4pairINSt7__cxx1112basic_stringIcSt11char_traitsIcESaIcEEEiE4swapERS6_, symObjAddr: 0x4A08, symBinAddr: 0x100007660, symSize: 0x44 }
  - { offsetInCU: 0x10592, offset: 0x10592, size: 0x8, addend: 0x0, symName: __ZSt23__copy_move_backward_a2ILb1EPSt4pairINSt7__cxx1112basic_stringIcSt11char_traitsIcESaIcEEEiES8_ET1_T0_SA_S9_, symObjAddr: 0x4A4C, symBinAddr: 0x1000076A4, symSize: 0x2C }
  - { offsetInCU: 0x1074D, offset: 0x1074D, size: 0x8, addend: 0x0, symName: __ZSt11__push_heapIN9__gnu_cxx17__normal_iteratorIPSt4pairINSt7__cxx1112basic_stringIcSt11char_traitsIcESaIcEEEiESt6vectorIS9_SaIS9_EEEElS9_NS0_5__ops14_Iter_comp_valIZ4mainEUlRKS9_SI_E_EEEvT_T0_SM_T1_RT2_, symObjAddr: 0x48DC, symBinAddr: 0x100007534, symSize: 0x12C }
  - { offsetInCU: 0x10755, offset: 0x10755, size: 0x8, addend: 0x0, symName: __ZNSt4pairINSt7__cxx1112basic_stringIcSt11char_traitsIcESaIcEEEiE4swapERS6_, symObjAddr: 0x4A08, symBinAddr: 0x100007660, symSize: 0x44 }
  - { offsetInCU: 0x106C5, offset: 0x106C5, size: 0x8, addend: 0x0, symName: __ZN9__gnu_cxx5__ops14_Iter_comp_valIZ4mainEUlRKSt4pairINSt7__cxx1112basic_stringIcSt11char_traitsIcESaIcEEEiESB_E_EC1EONS0_15_Iter_comp_iterISC_EE, symObjAddr: 0x48B8, symBinAddr: 0x100007510, symSize: 0x24 }
  - { offsetInCU: 0x106CD, offset: 0x106CD, size: 0x8, addend: 0x0, symName: __ZSt11__push_heapIN9__gnu_cxx17__normal_iteratorIPSt4pairINSt7__cxx1112basic_stringIcSt11char_traitsIcESaIcEEEiESt6vectorIS9_SaIS9_EEEElS9_NS0_5__ops14_Iter_comp_valIZ4mainEUlRKS9_SI_E_EEEvT_T0_SM_T1_RT2_, symObjAddr: 0x48DC, symBinAddr: 0x100007534, symSize: 0x12C }
  - { offsetInCU: 0x107FD, offset: 0x107FD, size: 0x8, addend: 0x0, symName: __ZSt7forwardISt4pairINSt7__cxx1112basic_stringIcSt11char_traitsIcESaIcEEEiEEOT_RNSt16remove_referenceIS8_E4typeE, symObjAddr: 0x48A4, symBinAddr: 0x1000074FC, symSize: 0x14 }
  - { offsetInCU: 0x10805, offset: 0x10805, size: 0x8, addend: 0x0, symName: __ZN9__gnu_cxx5__ops14_Iter_comp_valIZ4mainEUlRKSt4pairINSt7__cxx1112basic_stringIcSt11char_traitsIcESaIcEEEiESB_E_EC1EONS0_15_Iter_comp_iterISC_EE, symObjAddr: 0x48B8, symBinAddr: 0x100007510, symSize: 0x24 }
  - { offsetInCU: 0x1087E, offset: 0x1087E, size: 0x8, addend: 0x0, symName: __ZNSt4pairIKNSt7__cxx1112basic_stringIcSt11char_traitsIcESaIcEEEiEC1IJRS6_EJEEESt21piecewise_construct_tSt5tupleIJDpT_EESB_IJDpT0_EE, symObjAddr: 0x4868, symBinAddr: 0x1000074C0, symSize: 0x3C }
  - { offsetInCU: 0x10886, offset: 0x10886, size: 0x8, addend: 0x0, symName: __ZSt7forwardISt4pairINSt7__cxx1112basic_stringIcSt11char_traitsIcESaIcEEEiEEOT_RNSt16remove_referenceIS8_E4typeE, symObjAddr: 0x48A4, symBinAddr: 0x1000074FC, symSize: 0x14 }
  - { offsetInCU: 0x108E2, offset: 0x108E2, size: 0x8, addend: 0x0, symName: __ZNSt11_Tuple_implILm0EJRKNSt7__cxx1112basic_stringIcSt11char_traitsIcESaIcEEEEEC2EOS8_, symObjAddr: 0x4840, symBinAddr: 0x100007498, symSize: 0x28 }
  - { offsetInCU: 0x108EA, offset: 0x108EA, size: 0x8, addend: 0x0, symName: __ZNSt4pairIKNSt7__cxx1112basic_stringIcSt11char_traitsIcESaIcEEEiEC1IJRS6_EJEEESt21piecewise_construct_tSt5tupleIJDpT_EESB_IJDpT0_EE, symObjAddr: 0x4868, symBinAddr: 0x1000074C0, symSize: 0x3C }
  - { offsetInCU: 0x108DD, offset: 0x108DD, size: 0x8, addend: 0x0, symName: __ZNSt12_Destroy_auxILb0EE9__destroyIPNSt7__cxx1112basic_stringIcSt11char_traitsIcESaIcEEEEEvT_S9_, symObjAddr: 0x47F4, symBinAddr: 0x10000744C, symSize: 0x4C }
  - { offsetInCU: 0x108E5, offset: 0x108E5, size: 0x8, addend: 0x0, symName: __ZNSt11_Tuple_implILm0EJRKNSt7__cxx1112basic_stringIcSt11char_traitsIcESaIcEEEEEC2EOS8_, symObjAddr: 0x4840, symBinAddr: 0x100007498, symSize: 0x28 }
  - { offsetInCU: 0x109CC, offset: 0x109CC, size: 0x8, addend: 0x0, symName: __ZSt7forwardIRKNSt7__cxx1112basic_stringIcSt11char_traitsIcESaIcEEEEOT_RNSt16remove_referenceIS8_E4typeE, symObjAddr: 0x47E0, symBinAddr: 0x100007438, symSize: 0x14 }
  - { offsetInCU: 0x109D4, offset: 0x109D4, size: 0x8, addend: 0x0, symName: __ZNSt12_Destroy_auxILb0EE9__destroyIPNSt7__cxx1112basic_stringIcSt11char_traitsIcESaIcEEEEEvT_S9_, symObjAddr: 0x47F4, symBinAddr: 0x10000744C, symSize: 0x4C }
  - { offsetInCU: 0x10AEE, offset: 0x10AEE, size: 0x8, addend: 0x0, symName: __ZSt12__niter_wrapIN9__gnu_cxx17__normal_iteratorIPSt4pairINSt7__cxx1112basic_stringIcSt11char_traitsIcESaIcEEEiESt6vectorIS9_SaIS9_EEEESA_ET_SF_T0_, symObjAddr: 0x4798, symBinAddr: 0x1000073F0, symSize: 0x48 }
  - { offsetInCU: 0x10AF6, offset: 0x10AF6, size: 0x8, addend: 0x0, symName: __ZSt7forwardIRKNSt7__cxx1112basic_stringIcSt11char_traitsIcESaIcEEEEOT_RNSt16remove_referenceIS8_E4typeE, symObjAddr: 0x47E0, symBinAddr: 0x100007438, symSize: 0x14 }
  - { offsetInCU: 0x10AEA, offset: 0x10AEA, size: 0x8, addend: 0x0, symName: __ZSt23__copy_move_backward_a1ILb1EPSt4pairINSt7__cxx1112basic_stringIcSt11char_traitsIcESaIcEEEiES8_ET1_T0_SA_S9_, symObjAddr: 0x476C, symBinAddr: 0x1000073C4, symSize: 0x2C }
  - { offsetInCU: 0x10AF2, offset: 0x10AF2, size: 0x8, addend: 0x0, symName: __ZSt12__niter_wrapIN9__gnu_cxx17__normal_iteratorIPSt4pairINSt7__cxx1112basic_stringIcSt11char_traitsIcESaIcEEEiESt6vectorIS9_SaIS9_EEEESA_ET_SF_T0_, symObjAddr: 0x4798, symBinAddr: 0x1000073F0, symSize: 0x48 }
  - { offsetInCU: 0x10B96, offset: 0x10B96, size: 0x8, addend: 0x0, symName: __ZSt12__niter_baseIPSt4pairINSt7__cxx1112basic_stringIcSt11char_traitsIcESaIcEEEiESt6vectorIS7_SaIS7_EEET_N9__gnu_cxx17__normal_iteratorISC_T0_EE, symObjAddr: 0x474C, symBinAddr: 0x1000073A4, symSize: 0x20 }
  - { offsetInCU: 0x10B9E, offset: 0x10B9E, size: 0x8, addend: 0x0, symName: __ZSt23__copy_move_backward_a1ILb1EPSt4pairINSt7__cxx1112basic_stringIcSt11char_traitsIcESaIcEEEiES8_ET1_T0_SA_S9_, symObjAddr: 0x476C, symBinAddr: 0x1000073C4, symSize: 0x2C }
  - { offsetInCU: 0x10BA4, offset: 0x10BA4, size: 0x8, addend: 0x0, symName: __ZSt4swapINSt7__cxx1112basic_stringIcSt11char_traitsIcESaIcEEEiENSt9enable_ifIXsrSt6__and_IJSt14__is_swappableIT_ES8_IT0_EEE5valueEvE4typeERSt4pairIS9_SB_ESI_, symObjAddr: 0x4724, symBinAddr: 0x10000737C, symSize: 0x28 }
  - { offsetInCU: 0x10BAC, offset: 0x10BAC, size: 0x8, addend: 0x0, symName: __ZSt12__niter_baseIPSt4pairINSt7__cxx1112basic_stringIcSt11char_traitsIcESaIcEEEiESt6vectorIS7_SaIS7_EEET_N9__gnu_cxx17__normal_iteratorISC_T0_EE, symObjAddr: 0x474C, symBinAddr: 0x1000073A4, symSize: 0x20 }
  - { offsetInCU: 0x10CC0, offset: 0x10CC0, size: 0x8, addend: 0x0, symName: __ZSt13__adjust_heapIN9__gnu_cxx17__normal_iteratorIPSt4pairINSt7__cxx1112basic_stringIcSt11char_traitsIcESaIcEEEiESt6vectorIS9_SaIS9_EEEElS9_NS0_5__ops15_Iter_comp_iterIZ4mainEUlRKS9_SI_E_EEEvT_T0_SM_T1_T2_, symObjAddr: 0x451C, symBinAddr: 0x100007174, symSize: 0x208 }
  - { offsetInCU: 0x10CC8, offset: 0x10CC8, size: 0x8, addend: 0x0, symName: __ZSt4swapINSt7__cxx1112basic_stringIcSt11char_traitsIcESaIcEEEiENSt9enable_ifIXsrSt6__and_IJSt14__is_swappableIT_ES8_IT0_EEE5valueEvE4typeERSt4pairIS9_SB_ESI_, symObjAddr: 0x4724, symBinAddr: 0x10000737C, symSize: 0x28 }
  - { offsetInCU: 0x10C89, offset: 0x10C89, size: 0x8, addend: 0x0, symName: __ZNK9__gnu_cxx16__aligned_membufISt4pairIKNSt7__cxx1112basic_stringIcSt11char_traitsIcESaIcEEEiEE7_M_addrEv, symObjAddr: 0x4508, symBinAddr: 0x100007160, symSize: 0x14 }
  - { offsetInCU: 0x10C91, offset: 0x10C91, size: 0x8, addend: 0x0, symName: __ZSt13__adjust_heapIN9__gnu_cxx17__normal_iteratorIPSt4pairINSt7__cxx1112basic_stringIcSt11char_traitsIcESaIcEEEiESt6vectorIS9_SaIS9_EEEElS9_NS0_5__ops15_Iter_comp_iterIZ4mainEUlRKS9_SI_E_EEEvT_T0_SM_T1_T2_, symObjAddr: 0x451C, symBinAddr: 0x100007174, symSize: 0x208 }
  - { offsetInCU: 0x10DB5, offset: 0x10DB5, size: 0x8, addend: 0x0, symName: __ZNSt5tupleIJRKNSt7__cxx1112basic_stringIcSt11char_traitsIcESaIcEEEEEC1EOS8_, symObjAddr: 0x44E0, symBinAddr: 0x100007138, symSize: 0x28 }
  - { offsetInCU: 0x10DBD, offset: 0x10DBD, size: 0x8, addend: 0x0, symName: __ZNK9__gnu_cxx16__aligned_membufISt4pairIKNSt7__cxx1112basic_stringIcSt11char_traitsIcESaIcEEEiEE7_M_addrEv, symObjAddr: 0x4508, symBinAddr: 0x100007160, symSize: 0x14 }
  - { offsetInCU: 0x10DA2, offset: 0x10DA2, size: 0x8, addend: 0x0, symName: __ZNSt15__new_allocatorISt13_Rb_tree_nodeISt4pairIKNSt7__cxx1112basic_stringIcSt11char_traitsIcESaIcEEEiEEE8allocateEmPKv, symObjAddr: 0x4440, symBinAddr: 0x100007098, symSize: 0xA0 }
  - { offsetInCU: 0x10DAA, offset: 0x10DAA, size: 0x8, addend: 0x0, symName: __ZNSt5tupleIJRKNSt7__cxx1112basic_stringIcSt11char_traitsIcESaIcEEEEEC1EOS8_, symObjAddr: 0x44E0, symBinAddr: 0x100007138, symSize: 0x28 }
  - { offsetInCU: 0x10EA0, offset: 0x10EA0, size: 0x8, addend: 0x0, symName: __ZSt8_DestroyIPNSt7__cxx1112basic_stringIcSt11char_traitsIcESaIcEEEEvT_S7_, symObjAddr: 0x4418, symBinAddr: 0x100007070, symSize: 0x28 }
  - { offsetInCU: 0x10EA8, offset: 0x10EA8, size: 0x8, addend: 0x0, symName: __ZNSt15__new_allocatorISt13_Rb_tree_nodeISt4pairIKNSt7__cxx1112basic_stringIcSt11char_traitsIcESaIcEEEiEEE8allocateEmPKv, symObjAddr: 0x4440, symBinAddr: 0x100007098, symSize: 0xA0 }
  - { offsetInCU: 0x10F5B, offset: 0x10F5B, size: 0x8, addend: 0x0, symName: __ZSt10_ConstructINSt7__cxx1112basic_stringIcSt11char_traitsIcESaIcEEEJRKS5_EEvPT_DpOT0_, symObjAddr: 0x439C, symBinAddr: 0x100006FF4, symSize: 0x7C }
  - { offsetInCU: 0x10F63, offset: 0x10F63, size: 0x8, addend: 0x0, symName: __ZSt8_DestroyIPNSt7__cxx1112basic_stringIcSt11char_traitsIcESaIcEEEEvT_S7_, symObjAddr: 0x4418, symBinAddr: 0x100007070, symSize: 0x28 }
  - { offsetInCU: 0x10EE0, offset: 0x10EE0, size: 0x8, addend: 0x0, symName: __ZN9__gnu_cxx5__ops14_Val_comp_iterIZ4mainEUlRKSt4pairINSt7__cxx1112basic_stringIcSt11char_traitsIcESaIcEEEiESB_E_EclIS9_NS_17__normal_iteratorIPS9_St6vectorIS9_SaIS9_EEEEEEbRT_T0_, symObjAddr: 0x4358, symBinAddr: 0x100006FB0, symSize: 0x44 }
  - { offsetInCU: 0x10EE8, offset: 0x10EE8, size: 0x8, addend: 0x0, symName: __ZSt10_ConstructINSt7__cxx1112basic_stringIcSt11char_traitsIcESaIcEEEJRKS5_EEvPT_DpOT0_, symObjAddr: 0x439C, symBinAddr: 0x100006FF4, symSize: 0x7C }
  - { offsetInCU: 0x10F79, offset: 0x10F79, size: 0x8, addend: 0x0, symName: __ZN9__gnu_cxx5__ops14_Val_comp_iterIZ4mainEUlRKSt4pairINSt7__cxx1112basic_stringIcSt11char_traitsIcESaIcEEEiESB_E_EC1EONS0_15_Iter_comp_iterISC_EE, symObjAddr: 0x4334, symBinAddr: 0x100006F8C, symSize: 0x24 }
  - { offsetInCU: 0x10F81, offset: 0x10F81, size: 0x8, addend: 0x0, symName: __ZN9__gnu_cxx5__ops14_Val_comp_iterIZ4mainEUlRKSt4pairINSt7__cxx1112basic_stringIcSt11char_traitsIcESaIcEEEiESB_E_EclIS9_NS_17__normal_iteratorIPS9_St6vectorIS9_SaIS9_EEEEEEbRT_T0_, symObjAddr: 0x4358, symBinAddr: 0x100006FB0, symSize: 0x44 }
  - { offsetInCU: 0x1105F, offset: 0x1105F, size: 0x8, addend: 0x0, symName: __ZSt4moveIRN9__gnu_cxx5__ops15_Iter_comp_iterIZ4mainEUlRKSt4pairINSt7__cxx1112basic_stringIcSt11char_traitsIcESaIcEEEiESC_E_EEEONSt16remove_referenceIT_E4typeEOSH_, symObjAddr: 0x4320, symBinAddr: 0x100006F78, symSize: 0x14 }
  - { offsetInCU: 0x11067, offset: 0x11067, size: 0x8, addend: 0x0, symName: __ZN9__gnu_cxx5__ops14_Val_comp_iterIZ4mainEUlRKSt4pairINSt7__cxx1112basic_stringIcSt11char_traitsIcESaIcEEEiESB_E_EC1EONS0_15_Iter_comp_iterISC_EE, symObjAddr: 0x4334, symBinAddr: 0x100006F8C, symSize: 0x24 }
  - { offsetInCU: 0x111F6, offset: 0x111F6, size: 0x8, addend: 0x0, symName: __ZSt22__copy_move_backward_aILb1EN9__gnu_cxx17__normal_iteratorIPSt4pairINSt7__cxx1112basic_stringIcSt11char_traitsIcESaIcEEEiESt6vectorIS9_SaIS9_EEEESE_ET1_T0_SG_SF_, symObjAddr: 0x42C0, symBinAddr: 0x100006F18, symSize: 0x60 }
  - { offsetInCU: 0x111FE, offset: 0x111FE, size: 0x8, addend: 0x0, symName: __ZSt4moveIRN9__gnu_cxx5__ops15_Iter_comp_iterIZ4mainEUlRKSt4pairINSt7__cxx1112basic_stringIcSt11char_traitsIcESaIcEEEiESC_E_EEEONSt16remove_referenceIT_E4typeEOSH_, symObjAddr: 0x4320, symBinAddr: 0x100006F78, symSize: 0x14 }
  - { offsetInCU: 0x111CB, offset: 0x111CB, size: 0x8, addend: 0x0, symName: __ZSt12__miter_baseIN9__gnu_cxx17__normal_iteratorIPSt4pairINSt7__cxx1112basic_stringIcSt11char_traitsIcESaIcEEEiESt6vectorIS9_SaIS9_EEEEET_SF_, symObjAddr: 0x42AC, symBinAddr: 0x100006F04, symSize: 0x14 }
  - { offsetInCU: 0x111D3, offset: 0x111D3, size: 0x8, addend: 0x0, symName: __ZSt22__copy_move_backward_aILb1EN9__gnu_cxx17__normal_iteratorIPSt4pairINSt7__cxx1112basic_stringIcSt11char_traitsIcESaIcEEEiESt6vectorIS9_SaIS9_EEEESE_ET1_T0_SG_SF_, symObjAddr: 0x42C0, symBinAddr: 0x100006F18, symSize: 0x60 }
  - { offsetInCU: 0x112A1, offset: 0x112A1, size: 0x8, addend: 0x0, symName: __ZSt9iter_swapIN9__gnu_cxx17__normal_iteratorIPSt4pairINSt7__cxx1112basic_stringIcSt11char_traitsIcESaIcEEEiESt6vectorIS9_SaIS9_EEEESE_EvT_T0_, symObjAddr: 0x4268, symBinAddr: 0x100006EC0, symSize: 0x44 }
  - { offsetInCU: 0x112A9, offset: 0x112A9, size: 0x8, addend: 0x0, symName: __ZSt12__miter_baseIN9__gnu_cxx17__normal_iteratorIPSt4pairINSt7__cxx1112basic_stringIcSt11char_traitsIcESaIcEEEiESt6vectorIS9_SaIS9_EEEEET_SF_, symObjAddr: 0x42AC, symBinAddr: 0x100006F04, symSize: 0x14 }
  - { offsetInCU: 0x11145, offset: 0x11145, size: 0x8, addend: 0x0, symName: __ZN9__gnu_cxx17__normal_iteratorIPSt4pairINSt7__cxx1112basic_stringIcSt11char_traitsIcESaIcEEEiESt6vectorIS8_SaIS8_EEEmmEv, symObjAddr: 0x4240, symBinAddr: 0x100006E98, symSize: 0x28 }
  - { offsetInCU: 0x1114D, offset: 0x1114D, size: 0x8, addend: 0x0, symName: __ZSt9iter_swapIN9__gnu_cxx17__normal_iteratorIPSt4pairINSt7__cxx1112basic_stringIcSt11char_traitsIcESaIcEEEiESt6vectorIS9_SaIS9_EEEESE_EvT_T0_, symObjAddr: 0x4268, symBinAddr: 0x100006EC0, symSize: 0x44 }
  - { offsetInCU: 0x112B9, offset: 0x112B9, size: 0x8, addend: 0x0, symName: __ZSt10__pop_heapIN9__gnu_cxx17__normal_iteratorIPSt4pairINSt7__cxx1112basic_stringIcSt11char_traitsIcESaIcEEEiESt6vectorIS9_SaIS9_EEEENS0_5__ops15_Iter_comp_iterIZ4mainEUlRKS9_SI_E_EEEvT_SL_SL_RT0_, symObjAddr: 0x416C, symBinAddr: 0x100006DC4, symSize: 0xD4 }
  - { offsetInCU: 0x112C1, offset: 0x112C1, size: 0x8, addend: 0x0, symName: __ZN9__gnu_cxx17__normal_iteratorIPSt4pairINSt7__cxx1112basic_stringIcSt11char_traitsIcESaIcEEEiESt6vectorIS8_SaIS8_EEEmmEv, symObjAddr: 0x4240, symBinAddr: 0x100006E98, symSize: 0x28 }
  - { offsetInCU: 0x11341, offset: 0x11341, size: 0x8, addend: 0x0, symName: __ZN9__gnu_cxxltIPSt4pairINSt7__cxx1112basic_stringIcSt11char_traitsIcESaIcEEEiESt6vectorIS8_SaIS8_EEEEbRKNS_17__normal_iteratorIT_T0_EESI_, symObjAddr: 0x4128, symBinAddr: 0x100006D80, symSize: 0x44 }
  - { offsetInCU: 0x11349, offset: 0x11349, size: 0x8, addend: 0x0, symName: __ZSt10__pop_heapIN9__gnu_cxx17__normal_iteratorIPSt4pairINSt7__cxx1112basic_stringIcSt11char_traitsIcESaIcEEEiESt6vectorIS9_SaIS9_EEEENS0_5__ops15_Iter_comp_iterIZ4mainEUlRKS9_SI_E_EEEvT_SL_SL_RT0_, symObjAddr: 0x416C, symBinAddr: 0x100006DC4, symSize: 0xD4 }
  - { offsetInCU: 0x113F0, offset: 0x113F0, size: 0x8, addend: 0x0, symName: __ZSt11__make_heapIN9__gnu_cxx17__normal_iteratorIPSt4pairINSt7__cxx1112basic_stringIcSt11char_traitsIcESaIcEEEiESt6vectorIS9_SaIS9_EEEENS0_5__ops15_Iter_comp_iterIZ4mainEUlRKS9_SI_E_EEEvT_SL_RT0_, symObjAddr: 0x3FF4, symBinAddr: 0x100006C4C, symSize: 0x134 }
  - { offsetInCU: 0x113F8, offset: 0x113F8, size: 0x8, addend: 0x0, symName: __ZN9__gnu_cxxltIPSt4pairINSt7__cxx1112basic_stringIcSt11char_traitsIcESaIcEEEiESt6vectorIS8_SaIS8_EEEEbRKNS_17__normal_iteratorIT_T0_EESI_, symObjAddr: 0x4128, symBinAddr: 0x100006D80, symSize: 0x44 }
  - { offsetInCU: 0x1142A, offset: 0x1142A, size: 0x8, addend: 0x0, symName: __ZSt8_DestroyISt4pairINSt7__cxx1112basic_stringIcSt11char_traitsIcESaIcEEEiEEvPT_, symObjAddr: 0x3FD4, symBinAddr: 0x100006C2C, symSize: 0x20 }
  - { offsetInCU: 0x11432, offset: 0x11432, size: 0x8, addend: 0x0, symName: __ZSt11__make_heapIN9__gnu_cxx17__normal_iteratorIPSt4pairINSt7__cxx1112basic_stringIcSt11char_traitsIcESaIcEEEiESt6vectorIS9_SaIS9_EEEENS0_5__ops15_Iter_comp_iterIZ4mainEUlRKS9_SI_E_EEEvT_SL_RT0_, symObjAddr: 0x3FF4, symBinAddr: 0x100006C4C, symSize: 0x134 }
  - { offsetInCU: 0x1150C, offset: 0x1150C, size: 0x8, addend: 0x0, symName: __ZSt19__relocate_object_aISt4pairINSt7__cxx1112basic_stringIcSt11char_traitsIcESaIcEEEiES7_SaIS7_EEvPT_PT0_RT1_, symObjAddr: 0x3F04, symBinAddr: 0x100006B5C, symSize: 0xD0 }
  - { offsetInCU: 0x11514, offset: 0x11514, size: 0x8, addend: 0x0, symName: __ZSt8_DestroyISt4pairINSt7__cxx1112basic_stringIcSt11char_traitsIcESaIcEEEiEEvPT_, symObjAddr: 0x3FD4, symBinAddr: 0x100006C2C, symSize: 0x20 }
  - { offsetInCU: 0x11549, offset: 0x11549, size: 0x8, addend: 0x0, symName: __ZNK9__gnu_cxx16__aligned_membufISt4pairIKNSt7__cxx1112basic_stringIcSt11char_traitsIcESaIcEEEiEE6_M_ptrEv, symObjAddr: 0x3EE8, symBinAddr: 0x100006B40, symSize: 0x1C }
  - { offsetInCU: 0x11551, offset: 0x11551, size: 0x8, addend: 0x0, symName: __ZSt19__relocate_object_aISt4pairINSt7__cxx1112basic_stringIcSt11char_traitsIcESaIcEEEiES7_SaIS7_EEvPT_PT0_RT1_, symObjAddr: 0x3F04, symBinAddr: 0x100006B5C, symSize: 0xD0 }
  - { offsetInCU: 0x1165A, offset: 0x1165A, size: 0x8, addend: 0x0, symName: __ZSt7forwardIRPSt13_Rb_tree_nodeISt4pairIKNSt7__cxx1112basic_stringIcSt11char_traitsIcESaIcEEEiEEEOT_RNSt16remove_referenceISD_E4typeE, symObjAddr: 0x3ED4, symBinAddr: 0x100006B2C, symSize: 0x14 }
  - { offsetInCU: 0x11662, offset: 0x11662, size: 0x8, addend: 0x0, symName: __ZNK9__gnu_cxx16__aligned_membufISt4pairIKNSt7__cxx1112basic_stringIcSt11char_traitsIcESaIcEEEiEE6_M_ptrEv, symObjAddr: 0x3EE8, symBinAddr: 0x100006B40, symSize: 0x1C }
  - { offsetInCU: 0x1171A, offset: 0x1171A, size: 0x8, addend: 0x0, symName: __ZSt10_ConstructISt4pairINSt7__cxx1112basic_stringIcSt11char_traitsIcESaIcEEEiEJEEvPT_DpOT0_, symObjAddr: 0x3EA8, symBinAddr: 0x100006B00, symSize: 0x2C }
  - { offsetInCU: 0x11722, offset: 0x11722, size: 0x8, addend: 0x0, symName: __ZSt7forwardIRPSt13_Rb_tree_nodeISt4pairIKNSt7__cxx1112basic_stringIcSt11char_traitsIcESaIcEEEiEEEOT_RNSt16remove_referenceISD_E4typeE, symObjAddr: 0x3ED4, symBinAddr: 0x100006B2C, symSize: 0x14 }
  - { offsetInCU: 0x11767, offset: 0x11767, size: 0x8, addend: 0x0, symName: __ZSt11__addressofISt4pairINSt7__cxx1112basic_stringIcSt11char_traitsIcESaIcEEEiEEPT_RS8_, symObjAddr: 0x3E94, symBinAddr: 0x100006AEC, symSize: 0x14 }
  - { offsetInCU: 0x1176F, offset: 0x1176F, size: 0x8, addend: 0x0, symName: __ZSt10_ConstructISt4pairINSt7__cxx1112basic_stringIcSt11char_traitsIcESaIcEEEiEJEEvPT_DpOT0_, symObjAddr: 0x3EA8, symBinAddr: 0x100006B00, symSize: 0x2C }
  - { offsetInCU: 0x117ED, offset: 0x117ED, size: 0x8, addend: 0x0, symName: __ZSt16__do_uninit_copyIPKNSt7__cxx1112basic_stringIcSt11char_traitsIcESaIcEEEPS5_ET0_T_SA_S9_, symObjAddr: 0x3E00, symBinAddr: 0x100006A58, symSize: 0x94 }
  - { offsetInCU: 0x117F5, offset: 0x117F5, size: 0x8, addend: 0x0, symName: __ZSt11__addressofISt4pairINSt7__cxx1112basic_stringIcSt11char_traitsIcESaIcEEEiEEPT_RS8_, symObjAddr: 0x3E94, symBinAddr: 0x100006AEC, symSize: 0x14 }
  - { offsetInCU: 0x117F0, offset: 0x117F0, size: 0x8, addend: 0x0, symName: __ZNSt15__new_allocatorISt13_Rb_tree_nodeISt4pairIKNSt7__cxx1112basic_stringIcSt11char_traitsIcESaIcEEEiEEE10deallocateEPSA_m, symObjAddr: 0x3DC4, symBinAddr: 0x100006A1C, symSize: 0x3C }
  - { offsetInCU: 0x117F8, offset: 0x117F8, size: 0x8, addend: 0x0, symName: __ZSt16__do_uninit_copyIPKNSt7__cxx1112basic_stringIcSt11char_traitsIcESaIcEEEPS5_ET0_T_SA_S9_, symObjAddr: 0x3E00, symBinAddr: 0x100006A58, symSize: 0x94 }
  - { offsetInCU: 0x118ED, offset: 0x118ED, size: 0x8, addend: 0x0, symName: __ZNSt4pairIKNSt7__cxx1112basic_stringIcSt11char_traitsIcESaIcEEEiED1Ev, symObjAddr: 0x3DA4, symBinAddr: 0x1000069FC, symSize: 0x20 }
  - { offsetInCU: 0x118F5, offset: 0x118F5, size: 0x8, addend: 0x0, symName: __ZNSt15__new_allocatorISt13_Rb_tree_nodeISt4pairIKNSt7__cxx1112basic_stringIcSt11char_traitsIcESaIcEEEiEEE10deallocateEPSA_m, symObjAddr: 0x3DC4, symBinAddr: 0x100006A1C, symSize: 0x3C }
  - { offsetInCU: 0x11A28, offset: 0x11A28, size: 0x8, addend: 0x0, symName: __ZSt25__unguarded_linear_insertIN9__gnu_cxx17__normal_iteratorIPSt4pairINSt7__cxx1112basic_stringIcSt11char_traitsIcESaIcEEEiESt6vectorIS9_SaIS9_EEEENS0_5__ops14_Val_comp_iterIZ4mainEUlRKS9_SI_E_EEEvT_T0_, symObjAddr: 0x3CE4, symBinAddr: 0x10000693C, symSize: 0xC0 }
  - { offsetInCU: 0x11A30, offset: 0x11A30, size: 0x8, addend: 0x0, symName: __ZNSt4pairIKNSt7__cxx1112basic_stringIcSt11char_traitsIcESaIcEEEiED1Ev, symObjAddr: 0x3DA4, symBinAddr: 0x1000069FC, symSize: 0x20 }
  - { offsetInCU: 0x119F5, offset: 0x119F5, size: 0x8, addend: 0x0, symName: __ZN9__gnu_cxx5__ops15__val_comp_iterIZ4mainEUlRKSt4pairINSt7__cxx1112basic_stringIcSt11char_traitsIcESaIcEEEiESB_E_EENS0_14_Val_comp_iterIT_EENS0_15_Iter_comp_iterISE_EE, symObjAddr: 0x3CAC, symBinAddr: 0x100006904, symSize: 0x38 }
  - { offsetInCU: 0x119FD, offset: 0x119FD, size: 0x8, addend: 0x0, symName: __ZSt25__unguarded_linear_insertIN9__gnu_cxx17__normal_iteratorIPSt4pairINSt7__cxx1112basic_stringIcSt11char_traitsIcESaIcEEEiESt6vectorIS9_SaIS9_EEEENS0_5__ops14_Val_comp_iterIZ4mainEUlRKS9_SI_E_EEEvT_T0_, symObjAddr: 0x3CE4, symBinAddr: 0x10000693C, symSize: 0xC0 }
  - { offsetInCU: 0x11B74, offset: 0x11B74, size: 0x8, addend: 0x0, symName: __ZSt13move_backwardIN9__gnu_cxx17__normal_iteratorIPSt4pairINSt7__cxx1112basic_stringIcSt11char_traitsIcESaIcEEEiESt6vectorIS9_SaIS9_EEEESE_ET0_T_SG_SF_, symObjAddr: 0x3C64, symBinAddr: 0x1000068BC, symSize: 0x48 }
  - { offsetInCU: 0x11B7C, offset: 0x11B7C, size: 0x8, addend: 0x0, symName: __ZN9__gnu_cxx5__ops15__val_comp_iterIZ4mainEUlRKSt4pairINSt7__cxx1112basic_stringIcSt11char_traitsIcESaIcEEEiESB_E_EENS0_14_Val_comp_iterIT_EENS0_15_Iter_comp_iterISE_EE, symObjAddr: 0x3CAC, symBinAddr: 0x100006904, symSize: 0x38 }
  - { offsetInCU: 0x11ACF, offset: 0x11ACF, size: 0x8, addend: 0x0, symName: __ZSt4moveIRSt4pairINSt7__cxx1112basic_stringIcSt11char_traitsIcESaIcEEEiEEONSt16remove_referenceIT_E4typeEOSA_, symObjAddr: 0x3C50, symBinAddr: 0x1000068A8, symSize: 0x14 }
  - { offsetInCU: 0x11AD7, offset: 0x11AD7, size: 0x8, addend: 0x0, symName: __ZSt13move_backwardIN9__gnu_cxx17__normal_iteratorIPSt4pairINSt7__cxx1112basic_stringIcSt11char_traitsIcESaIcEEEiESt6vectorIS9_SaIS9_EEEESE_ET0_T_SG_SF_, symObjAddr: 0x3C64, symBinAddr: 0x1000068BC, symSize: 0x48 }
  - { offsetInCU: 0x11A78, offset: 0x11A78, size: 0x8, addend: 0x0, symName: __ZNK9__gnu_cxx17__normal_iteratorIPSt4pairINSt7__cxx1112basic_stringIcSt11char_traitsIcESaIcEEEiESt6vectorIS8_SaIS8_EEEdeEv, symObjAddr: 0x3C38, symBinAddr: 0x100006890, symSize: 0x18 }
  - { offsetInCU: 0x11A80, offset: 0x11A80, size: 0x8, addend: 0x0, symName: __ZSt4moveIRSt4pairINSt7__cxx1112basic_stringIcSt11char_traitsIcESaIcEEEiEEONSt16remove_referenceIT_E4typeEOSA_, symObjAddr: 0x3C50, symBinAddr: 0x1000068A8, symSize: 0x14 }
  - { offsetInCU: 0x11AA7, offset: 0x11AA7, size: 0x8, addend: 0x0, symName: __ZN9__gnu_cxx5__ops15_Iter_comp_iterIZ4mainEUlRKSt4pairINSt7__cxx1112basic_stringIcSt11char_traitsIcESaIcEEEiESB_E_EclINS_17__normal_iteratorIPS9_St6vectorIS9_SaIS9_EEEESK_EEbT_T0_, symObjAddr: 0x3BE8, symBinAddr: 0x100006840, symSize: 0x50 }
  - { offsetInCU: 0x11AAF, offset: 0x11AAF, size: 0x8, addend: 0x0, symName: __ZNK9__gnu_cxx17__normal_iteratorIPSt4pairINSt7__cxx1112basic_stringIcSt11char_traitsIcESaIcEEEiESt6vectorIS8_SaIS8_EEEdeEv, symObjAddr: 0x3C38, symBinAddr: 0x100006890, symSize: 0x18 }
  - { offsetInCU: 0x11B16, offset: 0x11B16, size: 0x8, addend: 0x0, symName: __ZN9__gnu_cxx17__normal_iteratorIPSt4pairINSt7__cxx1112basic_stringIcSt11char_traitsIcESaIcEEEiESt6vectorIS8_SaIS8_EEEppEv, symObjAddr: 0x3BC0, symBinAddr: 0x100006818, symSize: 0x28 }
  - { offsetInCU: 0x11B1E, offset: 0x11B1E, size: 0x8, addend: 0x0, symName: __ZN9__gnu_cxx5__ops15_Iter_comp_iterIZ4mainEUlRKSt4pairINSt7__cxx1112basic_stringIcSt11char_traitsIcESaIcEEEiESB_E_EclINS_17__normal_iteratorIPS9_St6vectorIS9_SaIS9_EEEESK_EEbT_T0_, symObjAddr: 0x3BE8, symBinAddr: 0x100006840, symSize: 0x50 }
  - { offsetInCU: 0x11C54, offset: 0x11C54, size: 0x8, addend: 0x0, symName: __ZN9__gnu_cxxeqIPSt4pairINSt7__cxx1112basic_stringIcSt11char_traitsIcESaIcEEEiESt6vectorIS8_SaIS8_EEEEbRKNS_17__normal_iteratorIT_T0_EESI_, symObjAddr: 0x3B7C, symBinAddr: 0x1000067D4, symSize: 0x44 }
  - { offsetInCU: 0x11C5C, offset: 0x11C5C, size: 0x8, addend: 0x0, symName: __ZN9__gnu_cxx17__normal_iteratorIPSt4pairINSt7__cxx1112basic_stringIcSt11char_traitsIcESaIcEEEiESt6vectorIS8_SaIS8_EEEppEv, symObjAddr: 0x3BC0, symBinAddr: 0x100006818, symSize: 0x28 }
  - { offsetInCU: 0x11D08, offset: 0x11D08, size: 0x8, addend: 0x0, symName: __ZSt21__unguarded_partitionIN9__gnu_cxx17__normal_iteratorIPSt4pairINSt7__cxx1112basic_stringIcSt11char_traitsIcESaIcEEEiESt6vectorIS9_SaIS9_EEEENS0_5__ops15_Iter_comp_iterIZ4mainEUlRKS9_SI_E_EEET_SL_SL_SL_T0_, symObjAddr: 0x3AB8, symBinAddr: 0x100006710, symSize: 0xC4 }
  - { offsetInCU: 0x11D10, offset: 0x11D10, size: 0x8, addend: 0x0, symName: __ZN9__gnu_cxxeqIPSt4pairINSt7__cxx1112basic_stringIcSt11char_traitsIcESaIcEEEiESt6vectorIS8_SaIS8_EEEEbRKNS_17__normal_iteratorIT_T0_EESI_, symObjAddr: 0x3B7C, symBinAddr: 0x1000067D4, symSize: 0x44 }
  - { offsetInCU: 0x11D94, offset: 0x11D94, size: 0x8, addend: 0x0, symName: __ZSt22__move_median_to_firstIN9__gnu_cxx17__normal_iteratorIPSt4pairINSt7__cxx1112basic_stringIcSt11char_traitsIcESaIcEEEiESt6vectorIS9_SaIS9_EEEENS0_5__ops15_Iter_comp_iterIZ4mainEUlRKS9_SI_E_EEEvT_SL_SL_SL_T0_, symObjAddr: 0x3994, symBinAddr: 0x1000065EC, symSize: 0x124 }
  - { offsetInCU: 0x11D9C, offset: 0x11D9C, size: 0x8, addend: 0x0, symName: __ZSt21__unguarded_partitionIN9__gnu_cxx17__normal_iteratorIPSt4pairINSt7__cxx1112basic_stringIcSt11char_traitsIcESaIcEEEiESt6vectorIS9_SaIS9_EEEENS0_5__ops15_Iter_comp_iterIZ4mainEUlRKS9_SI_E_EEET_SL_SL_SL_T0_, symObjAddr: 0x3AB8, symBinAddr: 0x100006710, symSize: 0xC4 }
  - { offsetInCU: 0x11CD9, offset: 0x11CD9, size: 0x8, addend: 0x0, symName: __ZNK9__gnu_cxx17__normal_iteratorIPSt4pairINSt7__cxx1112basic_stringIcSt11char_traitsIcESaIcEEEiESt6vectorIS8_SaIS8_EEEmiEl, symObjAddr: 0x3944, symBinAddr: 0x10000659C, symSize: 0x50 }
  - { offsetInCU: 0x11CE1, offset: 0x11CE1, size: 0x8, addend: 0x0, symName: __ZSt22__move_median_to_firstIN9__gnu_cxx17__normal_iteratorIPSt4pairINSt7__cxx1112basic_stringIcSt11char_traitsIcESaIcEEEiESt6vectorIS9_SaIS9_EEEENS0_5__ops15_Iter_comp_iterIZ4mainEUlRKS9_SI_E_EEEvT_SL_SL_SL_T0_, symObjAddr: 0x3994, symBinAddr: 0x1000065EC, symSize: 0x124 }
  - { offsetInCU: 0x11E63, offset: 0x11E63, size: 0x8, addend: 0x0, symName: __ZSt11__sort_heapIN9__gnu_cxx17__normal_iteratorIPSt4pairINSt7__cxx1112basic_stringIcSt11char_traitsIcESaIcEEEiESt6vectorIS9_SaIS9_EEEENS0_5__ops15_Iter_comp_iterIZ4mainEUlRKS9_SI_E_EEEvT_SL_RT0_, symObjAddr: 0x38DC, symBinAddr: 0x100006534, symSize: 0x68 }
  - { offsetInCU: 0x11E6B, offset: 0x11E6B, size: 0x8, addend: 0x0, symName: __ZNK9__gnu_cxx17__normal_iteratorIPSt4pairINSt7__cxx1112basic_stringIcSt11char_traitsIcESaIcEEEiESt6vectorIS8_SaIS8_EEEmiEl, symObjAddr: 0x3944, symBinAddr: 0x10000659C, symSize: 0x50 }
  - { offsetInCU: 0x11EDA, offset: 0x11EDA, size: 0x8, addend: 0x0, symName: __ZSt13__heap_selectIN9__gnu_cxx17__normal_iteratorIPSt4pairINSt7__cxx1112basic_stringIcSt11char_traitsIcESaIcEEEiESt6vectorIS9_SaIS9_EEEENS0_5__ops15_Iter_comp_iterIZ4mainEUlRKS9_SI_E_EEEvT_SL_SL_T0_, symObjAddr: 0x3838, symBinAddr: 0x100006490, symSize: 0xA4 }
  - { offsetInCU: 0x11EE2, offset: 0x11EE2, size: 0x8, addend: 0x0, symName: __ZSt11__sort_heapIN9__gnu_cxx17__normal_iteratorIPSt4pairINSt7__cxx1112basic_stringIcSt11char_traitsIcESaIcEEEiESt6vectorIS9_SaIS9_EEEENS0_5__ops15_Iter_comp_iterIZ4mainEUlRKS9_SI_E_EEEvT_SL_RT0_, symObjAddr: 0x38DC, symBinAddr: 0x100006534, symSize: 0x68 }
  - { offsetInCU: 0x11E80, offset: 0x11E80, size: 0x8, addend: 0x0, symName: __ZSt13__countl_zeroImEiT_, symObjAddr: 0x37E4, symBinAddr: 0x10000643C, symSize: 0x54 }
  - { offsetInCU: 0x11E88, offset: 0x11E88, size: 0x8, addend: 0x0, symName: __ZSt13__heap_selectIN9__gnu_cxx17__normal_iteratorIPSt4pairINSt7__cxx1112basic_stringIcSt11char_traitsIcESaIcEEEiESt6vectorIS9_SaIS9_EEEENS0_5__ops15_Iter_comp_iterIZ4mainEUlRKS9_SI_E_EEEvT_SL_SL_T0_, symObjAddr: 0x3838, symBinAddr: 0x100006490, symSize: 0xA4 }
  - { offsetInCU: 0x11EFD, offset: 0x11EFD, size: 0x8, addend: 0x0, symName: __ZNSt12_Destroy_auxILb0EE9__destroyIPSt4pairINSt7__cxx1112basic_stringIcSt11char_traitsIcESaIcEEEiEEEvT_SB_, symObjAddr: 0x3798, symBinAddr: 0x1000063F0, symSize: 0x4C }
  - { offsetInCU: 0x11F05, offset: 0x11F05, size: 0x8, addend: 0x0, symName: __ZSt13__countl_zeroImEiT_, symObjAddr: 0x37E4, symBinAddr: 0x10000643C, symSize: 0x54 }
  - { offsetInCU: 0x1207B, offset: 0x1207B, size: 0x8, addend: 0x0, symName: __ZSt14__relocate_a_1IPSt4pairINSt7__cxx1112basic_stringIcSt11char_traitsIcESaIcEEEiES8_SaIS7_EET0_T_SB_SA_RT1_, symObjAddr: 0x3714, symBinAddr: 0x10000636C, symSize: 0x84 }
  - { offsetInCU: 0x12083, offset: 0x12083, size: 0x8, addend: 0x0, symName: __ZNSt12_Destroy_auxILb0EE9__destroyIPSt4pairINSt7__cxx1112basic_stringIcSt11char_traitsIcESaIcEEEiEEEvT_SB_, symObjAddr: 0x3798, symBinAddr: 0x1000063F0, symSize: 0x4C }
  - { offsetInCU: 0x120A2, offset: 0x120A2, size: 0x8, addend: 0x0, symName: __ZSt12__niter_baseIPSt4pairINSt7__cxx1112basic_stringIcSt11char_traitsIcESaIcEEEiEET_S9_, symObjAddr: 0x3700, symBinAddr: 0x100006358, symSize: 0x14 }
  - { offsetInCU: 0x120AA, offset: 0x120AA, size: 0x8, addend: 0x0, symName: __ZSt14__relocate_a_1IPSt4pairINSt7__cxx1112basic_stringIcSt11char_traitsIcESaIcEEEiES8_SaIS7_EET0_T_SB_SA_RT1_, symObjAddr: 0x3714, symBinAddr: 0x10000636C, symSize: 0x84 }
  - { offsetInCU: 0x12050, offset: 0x12050, size: 0x8, addend: 0x0, symName: __ZNSt15__new_allocatorISt4pairINSt7__cxx1112basic_stringIcSt11char_traitsIcESaIcEEEiEE8allocateEmPKv, symObjAddr: 0x3670, symBinAddr: 0x1000062C8, symSize: 0x90 }
  - { offsetInCU: 0x12058, offset: 0x12058, size: 0x8, addend: 0x0, symName: __ZSt12__niter_baseIPSt4pairINSt7__cxx1112basic_stringIcSt11char_traitsIcESaIcEEEiEET_S9_, symObjAddr: 0x3700, symBinAddr: 0x100006358, symSize: 0x14 }
  - { offsetInCU: 0x120D7, offset: 0x120D7, size: 0x8, addend: 0x0, symName: __ZNKSt12_Vector_baseISt4pairINSt7__cxx1112basic_stringIcSt11char_traitsIcESaIcEEEiESaIS7_EE19_M_get_Tp_allocatorEv, symObjAddr: 0x365C, symBinAddr: 0x1000062B4, symSize: 0x14 }
  - { offsetInCU: 0x120DF, offset: 0x120DF, size: 0x8, addend: 0x0, symName: __ZNSt15__new_allocatorISt4pairINSt7__cxx1112basic_stringIcSt11char_traitsIcESaIcEEEiEE8allocateEmPKv, symObjAddr: 0x3670, symBinAddr: 0x1000062C8, symSize: 0x90 }
  - { offsetInCU: 0x12106, offset: 0x12106, size: 0x8, addend: 0x0, symName: __ZNKSt10_Select1stISt4pairIKNSt7__cxx1112basic_stringIcSt11char_traitsIcESaIcEEEiEEclERKS8_, symObjAddr: 0x3644, symBinAddr: 0x10000629C, symSize: 0x18 }
  - { offsetInCU: 0x1210E, offset: 0x1210E, size: 0x8, addend: 0x0, symName: __ZNKSt12_Vector_baseISt4pairINSt7__cxx1112basic_stringIcSt11char_traitsIcESaIcEEEiESaIS7_EE19_M_get_Tp_allocatorEv, symObjAddr: 0x365C, symBinAddr: 0x1000062B4, symSize: 0x14 }
  - { offsetInCU: 0x12149, offset: 0x12149, size: 0x8, addend: 0x0, symName: __ZNKSt13_Rb_tree_nodeISt4pairIKNSt7__cxx1112basic_stringIcSt11char_traitsIcESaIcEEEiEE9_M_valptrEv, symObjAddr: 0x3624, symBinAddr: 0x10000627C, symSize: 0x20 }
  - { offsetInCU: 0x12151, offset: 0x12151, size: 0x8, addend: 0x0, symName: __ZNKSt10_Select1stISt4pairIKNSt7__cxx1112basic_stringIcSt11char_traitsIcESaIcEEEiEEclERKS8_, symObjAddr: 0x3644, symBinAddr: 0x10000629C, symSize: 0x18 }
  - { offsetInCU: 0x121EA, offset: 0x121EA, size: 0x8, addend: 0x0, symName: __ZSt7forwardIRPSt18_Rb_tree_node_baseEOT_RNSt16remove_referenceIS3_E4typeE, symObjAddr: 0x3610, symBinAddr: 0x100006268, symSize: 0x14 }
  - { offsetInCU: 0x121F2, offset: 0x121F2, size: 0x8, addend: 0x0, symName: __ZNKSt13_Rb_tree_nodeISt4pairIKNSt7__cxx1112basic_stringIcSt11char_traitsIcESaIcEEEiEE9_M_valptrEv, symObjAddr: 0x3624, symBinAddr: 0x10000627C, symSize: 0x20 }
  - { offsetInCU: 0x122AB, offset: 0x122AB, size: 0x8, addend: 0x0, symName: __ZNSt4pairIPSt18_Rb_tree_node_baseS1_EC1IRPSt13_Rb_tree_nodeIS_IKNSt7__cxx1112basic_stringIcSt11char_traitsIcESaIcEEEiEERS1_Lb1EEEOT_OT0_, symObjAddr: 0x35C8, symBinAddr: 0x100006220, symSize: 0x48 }
  - { offsetInCU: 0x122B3, offset: 0x122B3, size: 0x8, addend: 0x0, symName: __ZSt7forwardIRPSt18_Rb_tree_node_baseEOT_RNSt16remove_referenceIS3_E4typeE, symObjAddr: 0x3610, symBinAddr: 0x100006268, symSize: 0x14 }
  - { offsetInCU: 0x12281, offset: 0x12281, size: 0x8, addend: 0x0, symName: __ZNSt8_Rb_treeINSt7__cxx1112basic_stringIcSt11char_traitsIcESaIcEEESt4pairIKS5_iESt10_Select1stIS8_ESt4lessIS5_ESaIS8_EE5beginEv, symObjAddr: 0x35A0, symBinAddr: 0x1000061F8, symSize: 0x28 }
  - { offsetInCU: 0x12289, offset: 0x12289, size: 0x8, addend: 0x0, symName: __ZNSt4pairIPSt18_Rb_tree_node_baseS1_EC1IRPSt13_Rb_tree_nodeIS_IKNSt7__cxx1112basic_stringIcSt11char_traitsIcESaIcEEEiEERS1_Lb1EEEOT_OT0_, symObjAddr: 0x35C8, symBinAddr: 0x100006220, symSize: 0x48 }
  - { offsetInCU: 0x122B0, offset: 0x122B0, size: 0x8, addend: 0x0, symName: __ZNSt8_Rb_treeINSt7__cxx1112basic_stringIcSt11char_traitsIcESaIcEEESt4pairIKS5_iESt10_Select1stIS8_ESt4lessIS5_ESaIS8_EE17_M_construct_nodeIJRKSt21piecewise_construct_tSt5tupleIJRS7_EESJ_IJEEEEEvPSt13_Rb_tree_nodeIS8_EDpOT_, symObjAddr: 0x3424, symBinAddr: 0x10000607C, symSize: 0x17C }
  - { offsetInCU: 0x122B8, offset: 0x122B8, size: 0x8, addend: 0x0, symName: __ZNSt8_Rb_treeINSt7__cxx1112basic_stringIcSt11char_traitsIcESaIcEEESt4pairIKS5_iESt10_Select1stIS8_ESt4lessIS5_ESaIS8_EE5beginEv, symObjAddr: 0x35A0, symBinAddr: 0x1000061F8, symSize: 0x28 }
  - { offsetInCU: 0x123F1, offset: 0x123F1, size: 0x8, addend: 0x0, symName: __ZNSt8_Rb_treeINSt7__cxx1112basic_stringIcSt11char_traitsIcESaIcEEESt4pairIKS5_iESt10_Select1stIS8_ESt4lessIS5_ESaIS8_EE11_M_get_nodeEv, symObjAddr: 0x33E8, symBinAddr: 0x100006040, symSize: 0x3C }
  - { offsetInCU: 0x123F9, offset: 0x123F9, size: 0x8, addend: 0x0, symName: __ZNSt8_Rb_treeINSt7__cxx1112basic_stringIcSt11char_traitsIcESaIcEEESt4pairIKS5_iESt10_Select1stIS8_ESt4lessIS5_ESaIS8_EE17_M_construct_nodeIJRKSt21piecewise_construct_tSt5tupleIJRS7_EESJ_IJEEEEEvPSt13_Rb_tree_nodeIS8_EDpOT_, symObjAddr: 0x3424, symBinAddr: 0x10000607C, symSize: 0x17C }
  - { offsetInCU: 0x12457, offset: 0x12457, size: 0x8, addend: 0x0, symName: __ZN9__gnu_cxx16__aligned_membufISt4pairIKNSt7__cxx1112basic_stringIcSt11char_traitsIcESaIcEEEiEE7_M_addrEv, symObjAddr: 0x33D4, symBinAddr: 0x10000602C, symSize: 0x14 }
  - { offsetInCU: 0x1245F, offset: 0x1245F, size: 0x8, addend: 0x0, symName: __ZNSt8_Rb_treeINSt7__cxx1112basic_stringIcSt11char_traitsIcESaIcEEESt4pairIKS5_iESt10_Select1stIS8_ESt4lessIS5_ESaIS8_EE11_M_get_nodeEv, symObjAddr: 0x33E8, symBinAddr: 0x100006040, symSize: 0x3C }
  - { offsetInCU: 0x12489, offset: 0x12489, size: 0x8, addend: 0x0, symName: __ZNSt27__uninitialized_default_n_1ILb0EE18__uninit_default_nIPSt4pairINSt7__cxx1112basic_stringIcSt11char_traitsIcESaIcEEEiEmEET_SB_T0_, symObjAddr: 0x337C, symBinAddr: 0x100005FD4, symSize: 0x58 }
  - { offsetInCU: 0x12491, offset: 0x12491, size: 0x8, addend: 0x0, symName: __ZN9__gnu_cxx16__aligned_membufISt4pairIKNSt7__cxx1112basic_stringIcSt11char_traitsIcESaIcEEEiEE7_M_addrEv, symObjAddr: 0x33D4, symBinAddr: 0x10000602C, symSize: 0x14 }
  - { offsetInCU: 0x124FD, offset: 0x124FD, size: 0x8, addend: 0x0, symName: __ZNSt15__new_allocatorISt4pairINSt7__cxx1112basic_stringIcSt11char_traitsIcESaIcEEEiEE10deallocateEPS7_m, symObjAddr: 0x3340, symBinAddr: 0x100005F98, symSize: 0x3C }
  - { offsetInCU: 0x12505, offset: 0x12505, size: 0x8, addend: 0x0, symName: __ZNSt27__uninitialized_default_n_1ILb0EE18__uninit_default_nIPSt4pairINSt7__cxx1112basic_stringIcSt11char_traitsIcESaIcEEEiEmEET_SB_T0_, symObjAddr: 0x337C, symBinAddr: 0x100005FD4, symSize: 0x58 }
  - { offsetInCU: 0x1256B, offset: 0x1256B, size: 0x8, addend: 0x0, symName: __ZNSt20__uninitialized_copyILb0EE13__uninit_copyIPKNSt7__cxx1112basic_stringIcSt11char_traitsIcESaIcEEEPS7_EET0_T_SC_SB_, symObjAddr: 0x3314, symBinAddr: 0x100005F6C, symSize: 0x2C }
  - { offsetInCU: 0x12573, offset: 0x12573, size: 0x8, addend: 0x0, symName: __ZNSt15__new_allocatorISt4pairINSt7__cxx1112basic_stringIcSt11char_traitsIcESaIcEEEiEE10deallocateEPS7_m, symObjAddr: 0x3340, symBinAddr: 0x100005F98, symSize: 0x3C }
  - { offsetInCU: 0x125DC, offset: 0x125DC, size: 0x8, addend: 0x0, symName: __ZNSt15__new_allocatorINSt7__cxx1112basic_stringIcSt11char_traitsIcESaIcEEEE8allocateEmPKv, symObjAddr: 0x3298, symBinAddr: 0x100005EF0, symSize: 0x7C }
  - { offsetInCU: 0x125E4, offset: 0x125E4, size: 0x8, addend: 0x0, symName: __ZNSt20__uninitialized_copyILb0EE13__uninit_copyIPKNSt7__cxx1112basic_stringIcSt11char_traitsIcESaIcEEEPS7_EET0_T_SC_SB_, symObjAddr: 0x3314, symBinAddr: 0x100005F6C, symSize: 0x2C }
  - { offsetInCU: 0x1267F, offset: 0x1267F, size: 0x8, addend: 0x0, symName: __ZNSt15__new_allocatorINSt7__cxx1112basic_stringIcSt11char_traitsIcESaIcEEEE10deallocateEPS5_m, symObjAddr: 0x3268, symBinAddr: 0x100005EC0, symSize: 0x30 }
  - { offsetInCU: 0x12687, offset: 0x12687, size: 0x8, addend: 0x0, symName: __ZNSt15__new_allocatorINSt7__cxx1112basic_stringIcSt11char_traitsIcESaIcEEEE8allocateEmPKv, symObjAddr: 0x3298, symBinAddr: 0x100005EF0, symSize: 0x7C }
  - { offsetInCU: 0x1276E, offset: 0x1276E, size: 0x8, addend: 0x0, symName: __ZNSt8_Rb_treeINSt7__cxx1112basic_stringIcSt11char_traitsIcESaIcEEESt4pairIKS5_iESt10_Select1stIS8_ESt4lessIS5_ESaIS8_EE21_M_get_Node_allocatorEv, symObjAddr: 0x3254, symBinAddr: 0x100005EAC, symSize: 0x14 }
  - { offsetInCU: 0x12776, offset: 0x12776, size: 0x8, addend: 0x0, symName: __ZNSt15__new_allocatorINSt7__cxx1112basic_stringIcSt11char_traitsIcESaIcEEEE10deallocateEPS5_m, symObjAddr: 0x3268, symBinAddr: 0x100005EC0, symSize: 0x30 }
  - { offsetInCU: 0x128F3, offset: 0x128F3, size: 0x8, addend: 0x0, symName: __ZSt26__unguarded_insertion_sortIN9__gnu_cxx17__normal_iteratorIPSt4pairINSt7__cxx1112basic_stringIcSt11char_traitsIcESaIcEEEiESt6vectorIS9_SaIS9_EEEENS0_5__ops15_Iter_comp_iterIZ4mainEUlRKS9_SI_E_EEEvT_SL_T0_, symObjAddr: 0x31E4, symBinAddr: 0x100005E3C, symSize: 0x70 }
  - { offsetInCU: 0x128FB, offset: 0x128FB, size: 0x8, addend: 0x0, symName: __ZNSt8_Rb_treeINSt7__cxx1112basic_stringIcSt11char_traitsIcESaIcEEESt4pairIKS5_iESt10_Select1stIS8_ESt4lessIS5_ESaIS8_EE21_M_get_Node_allocatorEv, symObjAddr: 0x3254, symBinAddr: 0x100005EAC, symSize: 0x14 }
  - { offsetInCU: 0x12985, offset: 0x12985, size: 0x8, addend: 0x0, symName: __ZSt16__insertion_sortIN9__gnu_cxx17__normal_iteratorIPSt4pairINSt7__cxx1112basic_stringIcSt11char_traitsIcESaIcEEEiESt6vectorIS9_SaIS9_EEEENS0_5__ops15_Iter_comp_iterIZ4mainEUlRKS9_SI_E_EEEvT_SL_T0_, symObjAddr: 0x30C0, symBinAddr: 0x100005D18, symSize: 0x124 }
  - { offsetInCU: 0x1298D, offset: 0x1298D, size: 0x8, addend: 0x0, symName: __ZSt26__unguarded_insertion_sortIN9__gnu_cxx17__normal_iteratorIPSt4pairINSt7__cxx1112basic_stringIcSt11char_traitsIcESaIcEEEiESt6vectorIS9_SaIS9_EEEENS0_5__ops15_Iter_comp_iterIZ4mainEUlRKS9_SI_E_EEEvT_SL_T0_, symObjAddr: 0x31E4, symBinAddr: 0x100005E3C, symSize: 0x70 }
  - { offsetInCU: 0x12968, offset: 0x12968, size: 0x8, addend: 0x0, symName: __ZNSt4pairINSt7__cxx1112basic_stringIcSt11char_traitsIcESaIcEEEiEC1EOS6_, symObjAddr: 0x3088, symBinAddr: 0x100005CE0, symSize: 0x38 }
  - { offsetInCU: 0x12970, offset: 0x12970, size: 0x8, addend: 0x0, symName: __ZSt16__insertion_sortIN9__gnu_cxx17__normal_iteratorIPSt4pairINSt7__cxx1112basic_stringIcSt11char_traitsIcESaIcEEEiESt6vectorIS9_SaIS9_EEEENS0_5__ops15_Iter_comp_iterIZ4mainEUlRKS9_SI_E_EEEvT_SL_T0_, symObjAddr: 0x30C0, symBinAddr: 0x100005D18, symSize: 0x124 }
  - { offsetInCU: 0x12959, offset: 0x12959, size: 0x8, addend: 0x0, symName: __ZNK9__gnu_cxx17__normal_iteratorIPSt4pairINSt7__cxx1112basic_stringIcSt11char_traitsIcESaIcEEEiESt6vectorIS8_SaIS8_EEEplEl, symObjAddr: 0x303C, symBinAddr: 0x100005C94, symSize: 0x4C }
  - { offsetInCU: 0x12961, offset: 0x12961, size: 0x8, addend: 0x0, symName: __ZNSt4pairINSt7__cxx1112basic_stringIcSt11char_traitsIcESaIcEEEiEC1EOS6_, symObjAddr: 0x3088, symBinAddr: 0x100005CE0, symSize: 0x38 }
  - { offsetInCU: 0x12AF8, offset: 0x12AF8, size: 0x8, addend: 0x0, symName: __ZSt27__unguarded_partition_pivotIN9__gnu_cxx17__normal_iteratorIPSt4pairINSt7__cxx1112basic_stringIcSt11char_traitsIcESaIcEEEiESt6vectorIS9_SaIS9_EEEENS0_5__ops15_Iter_comp_iterIZ4mainEUlRKS9_SI_E_EEET_SL_SL_T0_, symObjAddr: 0x2FA0, symBinAddr: 0x100005BF8, symSize: 0x9C }
  - { offsetInCU: 0x12B00, offset: 0x12B00, size: 0x8, addend: 0x0, symName: __ZNK9__gnu_cxx17__normal_iteratorIPSt4pairINSt7__cxx1112basic_stringIcSt11char_traitsIcESaIcEEEiESt6vectorIS8_SaIS8_EEEplEl, symObjAddr: 0x303C, symBinAddr: 0x100005C94, symSize: 0x4C }
  - { offsetInCU: 0x12B77, offset: 0x12B77, size: 0x8, addend: 0x0, symName: __ZSt14__partial_sortIN9__gnu_cxx17__normal_iteratorIPSt4pairINSt7__cxx1112basic_stringIcSt11char_traitsIcESaIcEEEiESt6vectorIS9_SaIS9_EEEENS0_5__ops15_Iter_comp_iterIZ4mainEUlRKS9_SI_E_EEEvT_SL_SL_T0_, symObjAddr: 0x2F54, symBinAddr: 0x100005BAC, symSize: 0x4C }
  - { offsetInCU: 0x12B7F, offset: 0x12B7F, size: 0x8, addend: 0x0, symName: __ZSt27__unguarded_partition_pivotIN9__gnu_cxx17__normal_iteratorIPSt4pairINSt7__cxx1112basic_stringIcSt11char_traitsIcESaIcEEEiESt6vectorIS9_SaIS9_EEEENS0_5__ops15_Iter_comp_iterIZ4mainEUlRKS9_SI_E_EEET_SL_SL_T0_, symObjAddr: 0x2FA0, symBinAddr: 0x100005BF8, symSize: 0x9C }
  - { offsetInCU: 0x12AF2, offset: 0x12AF2, size: 0x8, addend: 0x0, symName: __ZSt11__bit_widthImEiT_, symObjAddr: 0x2F24, symBinAddr: 0x100005B7C, symSize: 0x30 }
  - { offsetInCU: 0x12AFA, offset: 0x12AFA, size: 0x8, addend: 0x0, symName: __ZSt14__partial_sortIN9__gnu_cxx17__normal_iteratorIPSt4pairINSt7__cxx1112basic_stringIcSt11char_traitsIcESaIcEEEiESt6vectorIS9_SaIS9_EEEENS0_5__ops15_Iter_comp_iterIZ4mainEUlRKS9_SI_E_EEEvT_SL_SL_T0_, symObjAddr: 0x2F54, symBinAddr: 0x100005BAC, symSize: 0x4C }
  - { offsetInCU: 0x12BA7, offset: 0x12BA7, size: 0x8, addend: 0x0, symName: __ZSt8_DestroyIPSt4pairINSt7__cxx1112basic_stringIcSt11char_traitsIcESaIcEEEiEEvT_S9_, symObjAddr: 0x2EFC, symBinAddr: 0x100005B54, symSize: 0x28 }
  - { offsetInCU: 0x12BAF, offset: 0x12BAF, size: 0x8, addend: 0x0, symName: __ZSt11__bit_widthImEiT_, symObjAddr: 0x2F24, symBinAddr: 0x100005B7C, symSize: 0x30 }
  - { offsetInCU: 0x12CCA, offset: 0x12CCA, size: 0x8, addend: 0x0, symName: __ZSt12__relocate_aIPSt4pairINSt7__cxx1112basic_stringIcSt11char_traitsIcESaIcEEEiES8_SaIS7_EET0_T_SB_SA_RT1_, symObjAddr: 0x2EA0, symBinAddr: 0x100005AF8, symSize: 0x5C }
  - { offsetInCU: 0x12CD2, offset: 0x12CD2, size: 0x8, addend: 0x0, symName: __ZSt8_DestroyIPSt4pairINSt7__cxx1112basic_stringIcSt11char_traitsIcESaIcEEEiEEvT_S9_, symObjAddr: 0x2EFC, symBinAddr: 0x100005B54, symSize: 0x28 }
  - { offsetInCU: 0x12CA2, offset: 0x12CA2, size: 0x8, addend: 0x0, symName: __ZSt3maxImERKT_S2_S2_, symObjAddr: 0x2E68, symBinAddr: 0x100005AC0, symSize: 0x38 }
  - { offsetInCU: 0x12CAA, offset: 0x12CAA, size: 0x8, addend: 0x0, symName: __ZSt12__relocate_aIPSt4pairINSt7__cxx1112basic_stringIcSt11char_traitsIcESaIcEEEiES8_SaIS7_EET0_T_SB_SA_RT1_, symObjAddr: 0x2EA0, symBinAddr: 0x100005AF8, symSize: 0x5C }
  - { offsetInCU: 0x12CD0, offset: 0x12CD0, size: 0x8, addend: 0x0, symName: __ZNKSt6vectorISt4pairINSt7__cxx1112basic_stringIcSt11char_traitsIcESaIcEEEiESaIS7_EE8max_sizeEv, symObjAddr: 0x2E48, symBinAddr: 0x100005AA0, symSize: 0x20 }
  - { offsetInCU: 0x12CD8, offset: 0x12CD8, size: 0x8, addend: 0x0, symName: __ZSt3maxImERKT_S2_S2_, symObjAddr: 0x2E68, symBinAddr: 0x100005AC0, symSize: 0x38 }
  - { offsetInCU: 0x12CFF, offset: 0x12CFF, size: 0x8, addend: 0x0, symName: __ZNSt8_Rb_treeINSt7__cxx1112basic_stringIcSt11char_traitsIcESaIcEEESt4pairIKS5_iESt10_Select1stIS8_ESt4lessIS5_ESaIS8_EE14_M_insert_nodeEPSt18_Rb_tree_node_baseSG_PSt13_Rb_tree_nodeIS8_E, symObjAddr: 0x2D74, symBinAddr: 0x1000059CC, symSize: 0xD4 }
  - { offsetInCU: 0x12D07, offset: 0x12D07, size: 0x8, addend: 0x0, symName: __ZNKSt6vectorISt4pairINSt7__cxx1112basic_stringIcSt11char_traitsIcESaIcEEEiESaIS7_EE8max_sizeEv, symObjAddr: 0x2E48, symBinAddr: 0x100005AA0, symSize: 0x20 }
  - { offsetInCU: 0x12D7E, offset: 0x12D7E, size: 0x8, addend: 0x0, symName: __ZNSt8_Rb_treeINSt7__cxx1112basic_stringIcSt11char_traitsIcESaIcEEESt4pairIKS5_iESt10_Select1stIS8_ESt4lessIS5_ESaIS8_EE6_S_keyEPKSt13_Rb_tree_nodeIS8_E, symObjAddr: 0x2D4C, symBinAddr: 0x1000059A4, symSize: 0x28 }
  - { offsetInCU: 0x12D86, offset: 0x12D86, size: 0x8, addend: 0x0, symName: __ZNSt8_Rb_treeINSt7__cxx1112basic_stringIcSt11char_traitsIcESaIcEEESt4pairIKS5_iESt10_Select1stIS8_ESt4lessIS5_ESaIS8_EE14_M_insert_nodeEPSt18_Rb_tree_node_baseSG_PSt13_Rb_tree_nodeIS8_E, symObjAddr: 0x2D74, symBinAddr: 0x1000059CC, symSize: 0xD4 }
  - { offsetInCU: 0x12DB0, offset: 0x12DB0, size: 0x8, addend: 0x0, symName: __ZNSt17_Rb_tree_iteratorISt4pairIKNSt7__cxx1112basic_stringIcSt11char_traitsIcESaIcEEEiEEppEv, symObjAddr: 0x2D1C, symBinAddr: 0x100005974, symSize: 0x30 }
  - { offsetInCU: 0x12DB8, offset: 0x12DB8, size: 0x8, addend: 0x0, symName: __ZNSt8_Rb_treeINSt7__cxx1112basic_stringIcSt11char_traitsIcESaIcEEESt4pairIKS5_iESt10_Select1stIS8_ESt4lessIS5_ESaIS8_EE6_S_keyEPKSt13_Rb_tree_nodeIS8_E, symObjAddr: 0x2D4C, symBinAddr: 0x1000059A4, symSize: 0x28 }
  - { offsetInCU: 0x12DDF, offset: 0x12DDF, size: 0x8, addend: 0x0, symName: __ZNSt17_Rb_tree_iteratorISt4pairIKNSt7__cxx1112basic_stringIcSt11char_traitsIcESaIcEEEiEEmmEv, symObjAddr: 0x2CEC, symBinAddr: 0x100005944, symSize: 0x30 }
  - { offsetInCU: 0x12DE7, offset: 0x12DE7, size: 0x8, addend: 0x0, symName: __ZNSt17_Rb_tree_iteratorISt4pairIKNSt7__cxx1112basic_stringIcSt11char_traitsIcESaIcEEEiEEppEv, symObjAddr: 0x2D1C, symBinAddr: 0x100005974, symSize: 0x30 }
  - { offsetInCU: 0x12EA1, offset: 0x12EA1, size: 0x8, addend: 0x0, symName: __ZNSt4pairIPSt18_Rb_tree_node_baseS1_EC1IRS1_S4_Lb1EEEOT_OT0_, symObjAddr: 0x2CA4, symBinAddr: 0x1000058FC, symSize: 0x48 }
  - { offsetInCU: 0x12EA9, offset: 0x12EA9, size: 0x8, addend: 0x0, symName: __ZNSt17_Rb_tree_iteratorISt4pairIKNSt7__cxx1112basic_stringIcSt11char_traitsIcESaIcEEEiEEmmEv, symObjAddr: 0x2CEC, symBinAddr: 0x100005944, symSize: 0x30 }
  - { offsetInCU: 0x12EC3, offset: 0x12EC3, size: 0x8, addend: 0x0, symName: __ZNSt8_Rb_treeINSt7__cxx1112basic_stringIcSt11char_traitsIcESaIcEEESt4pairIKS5_iESt10_Select1stIS8_ESt4lessIS5_ESaIS8_EE11_M_leftmostEv, symObjAddr: 0x2C8C, symBinAddr: 0x1000058E4, symSize: 0x18 }
  - { offsetInCU: 0x12ECB, offset: 0x12ECB, size: 0x8, addend: 0x0, symName: __ZNSt4pairIPSt18_Rb_tree_node_baseS1_EC1IRS1_S4_Lb1EEEOT_OT0_, symObjAddr: 0x2CA4, symBinAddr: 0x1000058FC, symSize: 0x48 }
  - { offsetInCU: 0x12EF2, offset: 0x12EF2, size: 0x8, addend: 0x0, symName: __ZNSt8_Rb_treeINSt7__cxx1112basic_stringIcSt11char_traitsIcESaIcEEESt4pairIKS5_iESt10_Select1stIS8_ESt4lessIS5_ESaIS8_EE24_M_get_insert_unique_posERS7_, symObjAddr: 0x2B2C, symBinAddr: 0x100005784, symSize: 0x160 }
  - { offsetInCU: 0x12EFA, offset: 0x12EFA, size: 0x8, addend: 0x0, symName: __ZNSt8_Rb_treeINSt7__cxx1112basic_stringIcSt11char_traitsIcESaIcEEESt4pairIKS5_iESt10_Select1stIS8_ESt4lessIS5_ESaIS8_EE11_M_leftmostEv, symObjAddr: 0x2C8C, symBinAddr: 0x1000058E4, symSize: 0x18 }
  - { offsetInCU: 0x1301F, offset: 0x1301F, size: 0x8, addend: 0x0, symName: __ZNSt4pairIPSt18_Rb_tree_node_baseS1_EC1IS1_S1_Lb1EEERKS1_S5_, symObjAddr: 0x2AF0, symBinAddr: 0x100005748, symSize: 0x3C }
  - { offsetInCU: 0x13027, offset: 0x13027, size: 0x8, addend: 0x0, symName: __ZNSt8_Rb_treeINSt7__cxx1112basic_stringIcSt11char_traitsIcESaIcEEESt4pairIKS5_iESt10_Select1stIS8_ESt4lessIS5_ESaIS8_EE24_M_get_insert_unique_posERS7_, symObjAddr: 0x2B2C, symBinAddr: 0x100005784, symSize: 0x160 }
  - { offsetInCU: 0x13043, offset: 0x13043, size: 0x8, addend: 0x0, symName: __ZNSt8_Rb_treeINSt7__cxx1112basic_stringIcSt11char_traitsIcESaIcEEESt4pairIKS5_iESt10_Select1stIS8_ESt4lessIS5_ESaIS8_EE6_S_keyEPKSt18_Rb_tree_node_base, symObjAddr: 0x2AD4, symBinAddr: 0x10000572C, symSize: 0x1C }
  - { offsetInCU: 0x1304B, offset: 0x1304B, size: 0x8, addend: 0x0, symName: __ZNSt4pairIPSt18_Rb_tree_node_baseS1_EC1IS1_S1_Lb1EEERKS1_S5_, symObjAddr: 0x2AF0, symBinAddr: 0x100005748, symSize: 0x3C }
  - { offsetInCU: 0x13075, offset: 0x13075, size: 0x8, addend: 0x0, symName: __ZNSt8_Rb_treeINSt7__cxx1112basic_stringIcSt11char_traitsIcESaIcEEESt4pairIKS5_iESt10_Select1stIS8_ESt4lessIS5_ESaIS8_EE12_M_rightmostEv, symObjAddr: 0x2ABC, symBinAddr: 0x100005714, symSize: 0x18 }
  - { offsetInCU: 0x1307D, offset: 0x1307D, size: 0x8, addend: 0x0, symName: __ZNSt8_Rb_treeINSt7__cxx1112basic_stringIcSt11char_traitsIcESaIcEEESt4pairIKS5_iESt10_Select1stIS8_ESt4lessIS5_ESaIS8_EE6_S_keyEPKSt18_Rb_tree_node_base, symObjAddr: 0x2AD4, symBinAddr: 0x10000572C, symSize: 0x1C }
  - { offsetInCU: 0x130A4, offset: 0x130A4, size: 0x8, addend: 0x0, symName: __ZNKSt8_Rb_treeINSt7__cxx1112basic_stringIcSt11char_traitsIcESaIcEEESt4pairIKS5_iESt10_Select1stIS8_ESt4lessIS5_ESaIS8_EE4sizeEv, symObjAddr: 0x2AA4, symBinAddr: 0x1000056FC, symSize: 0x18 }
  - { offsetInCU: 0x130AC, offset: 0x130AC, size: 0x8, addend: 0x0, symName: __ZNSt8_Rb_treeINSt7__cxx1112basic_stringIcSt11char_traitsIcESaIcEEESt4pairIKS5_iESt10_Select1stIS8_ESt4lessIS5_ESaIS8_EE12_M_rightmostEv, symObjAddr: 0x2ABC, symBinAddr: 0x100005714, symSize: 0x18 }
  - { offsetInCU: 0x130D3, offset: 0x130D3, size: 0x8, addend: 0x0, symName: __ZNKSt23_Rb_tree_const_iteratorISt4pairIKNSt7__cxx1112basic_stringIcSt11char_traitsIcESaIcEEEiEE13_M_const_castEv, symObjAddr: 0x2A7C, symBinAddr: 0x1000056D4, symSize: 0x28 }
  - { offsetInCU: 0x130DB, offset: 0x130DB, size: 0x8, addend: 0x0, symName: __ZNKSt8_Rb_treeINSt7__cxx1112basic_stringIcSt11char_traitsIcESaIcEEESt4pairIKS5_iESt10_Select1stIS8_ESt4lessIS5_ESaIS8_EE4sizeEv, symObjAddr: 0x2AA4, symBinAddr: 0x1000056FC, symSize: 0x18 }
  - { offsetInCU: 0x13102, offset: 0x13102, size: 0x8, addend: 0x0, symName: __ZNSt8_Rb_treeINSt7__cxx1112basic_stringIcSt11char_traitsIcESaIcEEESt4pairIKS5_iESt10_Select1stIS8_ESt4lessIS5_ESaIS8_EE14_M_create_nodeIJRKSt21piecewise_construct_tSt5tupleIJRS7_EESJ_IJEEEEEPSt13_Rb_tree_nodeIS8_EDpOT_, symObjAddr: 0x2A0C, symBinAddr: 0x100005664, symSize: 0x70 }
  - { offsetInCU: 0x1310A, offset: 0x1310A, size: 0x8, addend: 0x0, symName: __ZNKSt23_Rb_tree_const_iteratorISt4pairIKNSt7__cxx1112basic_stringIcSt11char_traitsIcESaIcEEEiEE13_M_const_castEv, symObjAddr: 0x2A7C, symBinAddr: 0x1000056D4, symSize: 0x28 }
  - { offsetInCU: 0x13211, offset: 0x13211, size: 0x8, addend: 0x0, symName: __ZNSt10_Head_baseILm0ERKNSt7__cxx1112basic_stringIcSt11char_traitsIcESaIcEEELb0EEC2ES7_, symObjAddr: 0x29E8, symBinAddr: 0x100005640, symSize: 0x24 }
  - { offsetInCU: 0x13219, offset: 0x13219, size: 0x8, addend: 0x0, symName: __ZNSt8_Rb_treeINSt7__cxx1112basic_stringIcSt11char_traitsIcESaIcEEESt4pairIKS5_iESt10_Select1stIS8_ESt4lessIS5_ESaIS8_EE14_M_create_nodeIJRKSt21piecewise_construct_tSt5tupleIJRS7_EESJ_IJEEEEEPSt13_Rb_tree_nodeIS8_EDpOT_, symObjAddr: 0x2A0C, symBinAddr: 0x100005664, symSize: 0x70 }
  - { offsetInCU: 0x131F3, offset: 0x131F3, size: 0x8, addend: 0x0, symName: __ZN9__gnu_cxx16__aligned_membufISt4pairIKNSt7__cxx1112basic_stringIcSt11char_traitsIcESaIcEEEiEE6_M_ptrEv, symObjAddr: 0x29CC, symBinAddr: 0x100005624, symSize: 0x1C }
  - { offsetInCU: 0x131FB, offset: 0x131FB, size: 0x8, addend: 0x0, symName: __ZNSt10_Head_baseILm0ERKNSt7__cxx1112basic_stringIcSt11char_traitsIcESaIcEEELb0EEC2ES7_, symObjAddr: 0x29E8, symBinAddr: 0x100005640, symSize: 0x24 }
  - { offsetInCU: 0x13222, offset: 0x13222, size: 0x8, addend: 0x0, symName: __ZNSt8_Rb_treeINSt7__cxx1112basic_stringIcSt11char_traitsIcESaIcEEESt4pairIKS5_iESt10_Select1stIS8_ESt4lessIS5_ESaIS8_EE14_M_lower_boundEPSt13_Rb_tree_nodeIS8_EPSt18_Rb_tree_node_baseRS7_, symObjAddr: 0x292C, symBinAddr: 0x100005584, symSize: 0xA0 }
  - { offsetInCU: 0x1322A, offset: 0x1322A, size: 0x8, addend: 0x0, symName: __ZN9__gnu_cxx16__aligned_membufISt4pairIKNSt7__cxx1112basic_stringIcSt11char_traitsIcESaIcEEEiEE6_M_ptrEv, symObjAddr: 0x29CC, symBinAddr: 0x100005624, symSize: 0x1C }
  - { offsetInCU: 0x1328D, offset: 0x1328D, size: 0x8, addend: 0x0, symName: __ZNSt8_Rb_treeINSt7__cxx1112basic_stringIcSt11char_traitsIcESaIcEEESt4pairIKS5_iESt10_Select1stIS8_ESt4lessIS5_ESaIS8_EE6_M_endEv, symObjAddr: 0x2914, symBinAddr: 0x10000556C, symSize: 0x18 }
  - { offsetInCU: 0x13295, offset: 0x13295, size: 0x8, addend: 0x0, symName: __ZNSt8_Rb_treeINSt7__cxx1112basic_stringIcSt11char_traitsIcESaIcEEESt4pairIKS5_iESt10_Select1stIS8_ESt4lessIS5_ESaIS8_EE14_M_lower_boundEPSt13_Rb_tree_nodeIS8_EPSt18_Rb_tree_node_baseRS7_, symObjAddr: 0x292C, symBinAddr: 0x100005584, symSize: 0xA0 }
  - { offsetInCU: 0x1338B, offset: 0x1338B, size: 0x8, addend: 0x0, symName: __ZSt25__uninitialized_default_nIPSt4pairINSt7__cxx1112basic_stringIcSt11char_traitsIcESaIcEEEiEmET_S9_T0_, symObjAddr: 0x28E8, symBinAddr: 0x100005540, symSize: 0x2C }
  - { offsetInCU: 0x13393, offset: 0x13393, size: 0x8, addend: 0x0, symName: __ZNSt8_Rb_treeINSt7__cxx1112basic_stringIcSt11char_traitsIcESaIcEEESt4pairIKS5_iESt10_Select1stIS8_ESt4lessIS5_ESaIS8_EE6_M_endEv, symObjAddr: 0x2914, symBinAddr: 0x10000556C, symSize: 0x18 }
  - { offsetInCU: 0x13406, offset: 0x13406, size: 0x8, addend: 0x0, symName: __ZNSt12_Vector_baseISt4pairINSt7__cxx1112basic_stringIcSt11char_traitsIcESaIcEEEiESaIS7_EE17_Vector_impl_dataC2Ev, symObjAddr: 0x28BC, symBinAddr: 0x100005514, symSize: 0x2C }
  - { offsetInCU: 0x1340E, offset: 0x1340E, size: 0x8, addend: 0x0, symName: __ZSt25__uninitialized_default_nIPSt4pairINSt7__cxx1112basic_stringIcSt11char_traitsIcESaIcEEEiEmET_S9_T0_, symObjAddr: 0x28E8, symBinAddr: 0x100005540, symSize: 0x2C }
  - { offsetInCU: 0x13415, offset: 0x13415, size: 0x8, addend: 0x0, symName: __ZSt3minImERKT_S2_S2_, symObjAddr: 0x2884, symBinAddr: 0x1000054DC, symSize: 0x38 }
  - { offsetInCU: 0x1341D, offset: 0x1341D, size: 0x8, addend: 0x0, symName: __ZNSt12_Vector_baseISt4pairINSt7__cxx1112basic_stringIcSt11char_traitsIcESaIcEEEiESaIS7_EE17_Vector_impl_dataC2Ev, symObjAddr: 0x28BC, symBinAddr: 0x100005514, symSize: 0x2C }
  - { offsetInCU: 0x13520, offset: 0x13520, size: 0x8, addend: 0x0, symName: __ZSt18uninitialized_copyIPKNSt7__cxx1112basic_stringIcSt11char_traitsIcESaIcEEEPS5_ET0_T_SA_S9_, symObjAddr: 0x2850, symBinAddr: 0x1000054A8, symSize: 0x34 }
  - { offsetInCU: 0x13528, offset: 0x13528, size: 0x8, addend: 0x0, symName: __ZSt3minImERKT_S2_S2_, symObjAddr: 0x2884, symBinAddr: 0x1000054DC, symSize: 0x38 }
  - { offsetInCU: 0x1352D, offset: 0x1352D, size: 0x8, addend: 0x0, symName: __ZNSt6vectorINSt7__cxx1112basic_stringIcSt11char_traitsIcESaIcEEESaIS5_EE11_S_max_sizeERKS6_, symObjAddr: 0x27FC, symBinAddr: 0x100005454, symSize: 0x54 }
  - { offsetInCU: 0x13535, offset: 0x13535, size: 0x8, addend: 0x0, symName: __ZSt18uninitialized_copyIPKNSt7__cxx1112basic_stringIcSt11char_traitsIcESaIcEEEPS5_ET0_T_SA_S9_, symObjAddr: 0x2850, symBinAddr: 0x1000054A8, symSize: 0x34 }
  - { offsetInCU: 0x136B8, offset: 0x136B8, size: 0x8, addend: 0x0, symName: __ZNSt12_Vector_baseINSt7__cxx1112basic_stringIcSt11char_traitsIcESaIcEEESaIS5_EE17_Vector_impl_dataC2Ev, symObjAddr: 0x27D0, symBinAddr: 0x100005428, symSize: 0x2C }
  - { offsetInCU: 0x136C0, offset: 0x136C0, size: 0x8, addend: 0x0, symName: __ZNSt6vectorINSt7__cxx1112basic_stringIcSt11char_traitsIcESaIcEEESaIS5_EE11_S_max_sizeERKS6_, symObjAddr: 0x27FC, symBinAddr: 0x100005454, symSize: 0x54 }
  - { offsetInCU: 0x136A7, offset: 0x136A7, size: 0x8, addend: 0x0, symName: __ZNSt8_Rb_treeINSt7__cxx1112basic_stringIcSt11char_traitsIcESaIcEEESt4pairIKS5_iESt10_Select1stIS8_ESt4lessIS5_ESaIS8_EE11_M_put_nodeEPSt13_Rb_tree_nodeIS8_E, symObjAddr: 0x2784, symBinAddr: 0x1000053DC, symSize: 0x4C }
  - { offsetInCU: 0x136AF, offset: 0x136AF, size: 0x8, addend: 0x0, symName: __ZNSt12_Vector_baseINSt7__cxx1112basic_stringIcSt11char_traitsIcESaIcEEESaIS5_EE17_Vector_impl_dataC2Ev, symObjAddr: 0x27D0, symBinAddr: 0x100005428, symSize: 0x2C }
  - { offsetInCU: 0x13728, offset: 0x13728, size: 0x8, addend: 0x0, symName: __ZNSt8_Rb_treeINSt7__cxx1112basic_stringIcSt11char_traitsIcESaIcEEESt4pairIKS5_iESt10_Select1stIS8_ESt4lessIS5_ESaIS8_EE15_M_destroy_nodeEPSt13_Rb_tree_nodeIS8_E, symObjAddr: 0x2724, symBinAddr: 0x10000537C, symSize: 0x60 }
  - { offsetInCU: 0x13730, offset: 0x13730, size: 0x8, addend: 0x0, symName: __ZNSt8_Rb_treeINSt7__cxx1112basic_stringIcSt11char_traitsIcESaIcEEESt4pairIKS5_iESt10_Select1stIS8_ESt4lessIS5_ESaIS8_EE11_M_put_nodeEPSt13_Rb_tree_nodeIS8_E, symObjAddr: 0x2784, symBinAddr: 0x1000053DC, symSize: 0x4C }
  - { offsetInCU: 0x1399D, offset: 0x1399D, size: 0x8, addend: 0x0, symName: __ZSt22__final_insertion_sortIN9__gnu_cxx17__normal_iteratorIPSt4pairINSt7__cxx1112basic_stringIcSt11char_traitsIcESaIcEEEiESt6vectorIS9_SaIS9_EEEENS0_5__ops15_Iter_comp_iterIZ4mainEUlRKS9_SI_E_EEEvT_SL_T0_, symObjAddr: 0x2698, symBinAddr: 0x1000052F0, symSize: 0x8C }
  - { offsetInCU: 0x139A5, offset: 0x139A5, size: 0x8, addend: 0x0, symName: __ZNSt8_Rb_treeINSt7__cxx1112basic_stringIcSt11char_traitsIcESaIcEEESt4pairIKS5_iESt10_Select1stIS8_ESt4lessIS5_ESaIS8_EE15_M_destroy_nodeEPSt13_Rb_tree_nodeIS8_E, symObjAddr: 0x2724, symBinAddr: 0x10000537C, symSize: 0x60 }
  - { offsetInCU: 0x13A16, offset: 0x13A16, size: 0x8, addend: 0x0, symName: __ZSt16__introsort_loopIN9__gnu_cxx17__normal_iteratorIPSt4pairINSt7__cxx1112basic_stringIcSt11char_traitsIcESaIcEEEiESt6vectorIS9_SaIS9_EEEElNS0_5__ops15_Iter_comp_iterIZ4mainEUlRKS9_SI_E_EEEvT_SL_T0_T1_, symObjAddr: 0x25F0, symBinAddr: 0x100005248, symSize: 0xA8 }
  - { offsetInCU: 0x13A1E, offset: 0x13A1E, size: 0x8, addend: 0x0, symName: __ZSt22__final_insertion_sortIN9__gnu_cxx17__normal_iteratorIPSt4pairINSt7__cxx1112basic_stringIcSt11char_traitsIcESaIcEEEiESt6vectorIS9_SaIS9_EEEENS0_5__ops15_Iter_comp_iterIZ4mainEUlRKS9_SI_E_EEEvT_SL_T0_, symObjAddr: 0x2698, symBinAddr: 0x1000052F0, symSize: 0x8C }
  - { offsetInCU: 0x139A3, offset: 0x139A3, size: 0x8, addend: 0x0, symName: __ZSt4__lgIlET_S0_, symObjAddr: 0x25CC, symBinAddr: 0x100005224, symSize: 0x24 }
  - { offsetInCU: 0x139AB, offset: 0x139AB, size: 0x8, addend: 0x0, symName: __ZSt16__introsort_loopIN9__gnu_cxx17__normal_iteratorIPSt4pairINSt7__cxx1112basic_stringIcSt11char_traitsIcESaIcEEEiESt6vectorIS9_SaIS9_EEEElNS0_5__ops15_Iter_comp_iterIZ4mainEUlRKS9_SI_E_EEEvT_SL_T0_T1_, symObjAddr: 0x25F0, symBinAddr: 0x100005248, symSize: 0xA8 }
  - { offsetInCU: 0x13AD8, offset: 0x13AD8, size: 0x8, addend: 0x0, symName: __ZN9__gnu_cxxneIPSt4pairINSt7__cxx1112basic_stringIcSt11char_traitsIcESaIcEEEiESt6vectorIS8_SaIS8_EEEEbRKNS_17__normal_iteratorIT_T0_EESI_, symObjAddr: 0x2588, symBinAddr: 0x1000051E0, symSize: 0x44 }
  - { offsetInCU: 0x13AE0, offset: 0x13AE0, size: 0x8, addend: 0x0, symName: __ZSt4__lgIlET_S0_, symObjAddr: 0x25CC, symBinAddr: 0x100005224, symSize: 0x24 }
  - { offsetInCU: 0x13A60, offset: 0x13A60, size: 0x8, addend: 0x0, symName: __ZN9__gnu_cxx5__ops15_Iter_comp_iterIZ4mainEUlRKSt4pairINSt7__cxx1112basic_stringIcSt11char_traitsIcESaIcEEEiESB_E_EC1ESC_, symObjAddr: 0x2564, symBinAddr: 0x1000051BC, symSize: 0x24 }
  - { offsetInCU: 0x13A68, offset: 0x13A68, size: 0x8, addend: 0x0, symName: __ZN9__gnu_cxxneIPSt4pairINSt7__cxx1112basic_stringIcSt11char_traitsIcESaIcEEEiESt6vectorIS8_SaIS8_EEEEbRKNS_17__normal_iteratorIT_T0_EESI_, symObjAddr: 0x2588, symBinAddr: 0x1000051E0, symSize: 0x44 }
  - { offsetInCU: 0x13B22, offset: 0x13B22, size: 0x8, addend: 0x0, symName: __ZSt4moveIRZ4mainEUlRKSt4pairINSt7__cxx1112basic_stringIcSt11char_traitsIcESaIcEEEiES9_E_EONSt16remove_referenceIT_E4typeEOSD_, symObjAddr: 0x2550, symBinAddr: 0x1000051A8, symSize: 0x14 }
  - { offsetInCU: 0x13B2A, offset: 0x13B2A, size: 0x8, addend: 0x0, symName: __ZN9__gnu_cxx5__ops15_Iter_comp_iterIZ4mainEUlRKSt4pairINSt7__cxx1112basic_stringIcSt11char_traitsIcESaIcEEEiESB_E_EC1ESC_, symObjAddr: 0x2564, symBinAddr: 0x1000051BC, symSize: 0x24 }
  - { offsetInCU: 0x13B7E, offset: 0x13B7E, size: 0x8, addend: 0x0, symName: __ZNK9__gnu_cxx17__normal_iteratorIPSt4pairINSt7__cxx1112basic_stringIcSt11char_traitsIcESaIcEEEiESt6vectorIS8_SaIS8_EEE4baseEv, symObjAddr: 0x253C, symBinAddr: 0x100005194, symSize: 0x14 }
  - { offsetInCU: 0x13B86, offset: 0x13B86, size: 0x8, addend: 0x0, symName: __ZSt4moveIRZ4mainEUlRKSt4pairINSt7__cxx1112basic_stringIcSt11char_traitsIcESaIcEEEiES9_E_EONSt16remove_referenceIT_E4typeEOSD_, symObjAddr: 0x2550, symBinAddr: 0x1000051A8, symSize: 0x14 }
  - { offsetInCU: 0x13BAD, offset: 0x13BAD, size: 0x8, addend: 0x0, symName: __ZNSt6vectorISt4pairINSt7__cxx1112basic_stringIcSt11char_traitsIcESaIcEEEiESaIS7_EE11_S_relocateEPS7_SA_SA_RS8_, symObjAddr: 0x2508, symBinAddr: 0x100005160, symSize: 0x34 }
  - { offsetInCU: 0x13BB5, offset: 0x13BB5, size: 0x8, addend: 0x0, symName: __ZNK9__gnu_cxx17__normal_iteratorIPSt4pairINSt7__cxx1112basic_stringIcSt11char_traitsIcESaIcEEEiESt6vectorIS8_SaIS8_EEE4baseEv, symObjAddr: 0x253C, symBinAddr: 0x100005194, symSize: 0x14 }
  - { offsetInCU: 0x13C1B, offset: 0x13C1B, size: 0x8, addend: 0x0, symName: __ZNSt12_Vector_baseISt4pairINSt7__cxx1112basic_stringIcSt11char_traitsIcESaIcEEEiESaIS7_EE11_M_allocateEm, symObjAddr: 0x24B8, symBinAddr: 0x100005110, symSize: 0x50 }
  - { offsetInCU: 0x13C23, offset: 0x13C23, size: 0x8, addend: 0x0, symName: __ZNSt6vectorISt4pairINSt7__cxx1112basic_stringIcSt11char_traitsIcESaIcEEEiESaIS7_EE11_S_relocateEPS7_SA_SA_RS8_, symObjAddr: 0x2508, symBinAddr: 0x100005160, symSize: 0x34 }
  - { offsetInCU: 0x13DB1, offset: 0x13DB1, size: 0x8, addend: 0x0, symName: __ZN9__gnu_cxxmiIPSt4pairINSt7__cxx1112basic_stringIcSt11char_traitsIcESaIcEEEiESt6vectorIS8_SaIS8_EEEENS_17__normal_iteratorIT_T0_E15difference_typeERKSG_SJ_, symObjAddr: 0x246C, symBinAddr: 0x1000050C4, symSize: 0x4C }
  - { offsetInCU: 0x13DB9, offset: 0x13DB9, size: 0x8, addend: 0x0, symName: __ZNSt12_Vector_baseISt4pairINSt7__cxx1112basic_stringIcSt11char_traitsIcESaIcEEEiESaIS7_EE11_M_allocateEm, symObjAddr: 0x24B8, symBinAddr: 0x100005110, symSize: 0x50 }
  - { offsetInCU: 0x13CFD, offset: 0x13CFD, size: 0x8, addend: 0x0, symName: __ZNKSt6vectorISt4pairINSt7__cxx1112basic_stringIcSt11char_traitsIcESaIcEEEiESaIS7_EE12_M_check_lenEmPKc, symObjAddr: 0x239C, symBinAddr: 0x100004FF4, symSize: 0xD0 }
  - { offsetInCU: 0x13D05, offset: 0x13D05, size: 0x8, addend: 0x0, symName: __ZN9__gnu_cxxmiIPSt4pairINSt7__cxx1112basic_stringIcSt11char_traitsIcESaIcEEEiESt6vectorIS8_SaIS8_EEEENS_17__normal_iteratorIT_T0_E15difference_typeERKSG_SJ_, symObjAddr: 0x246C, symBinAddr: 0x1000050C4, symSize: 0x4C }
  - { offsetInCU: 0x13E27, offset: 0x13E27, size: 0x8, addend: 0x0, symName: __ZNSt4pairINSt7__cxx1112basic_stringIcSt11char_traitsIcESaIcEEEiEC1ERKS6_, symObjAddr: 0x2364, symBinAddr: 0x100004FBC, symSize: 0x38 }
  - { offsetInCU: 0x13E2F, offset: 0x13E2F, size: 0x8, addend: 0x0, symName: __ZNKSt6vectorISt4pairINSt7__cxx1112basic_stringIcSt11char_traitsIcESaIcEEEiESaIS7_EE12_M_check_lenEmPKc, symObjAddr: 0x239C, symBinAddr: 0x100004FF4, symSize: 0xD0 }
  - { offsetInCU: 0x13ECF, offset: 0x13ECF, size: 0x8, addend: 0x0, symName: __ZSt7forwardIRKSt4pairINSt7__cxx1112basic_stringIcSt11char_traitsIcESaIcEEEiEEOT_RNSt16remove_referenceISA_E4typeE, symObjAddr: 0x2350, symBinAddr: 0x100004FA8, symSize: 0x14 }
  - { offsetInCU: 0x13ED7, offset: 0x13ED7, size: 0x8, addend: 0x0, symName: __ZNSt4pairINSt7__cxx1112basic_stringIcSt11char_traitsIcESaIcEEEiEC1ERKS6_, symObjAddr: 0x2364, symBinAddr: 0x100004FBC, symSize: 0x38 }
  - { offsetInCU: 0x13EED, offset: 0x13EED, size: 0x8, addend: 0x0, symName: __ZSt11__addressofINSt7__cxx1112basic_stringIcSt11char_traitsIcESaIcEEEEPT_RS6_, symObjAddr: 0x233C, symBinAddr: 0x100004F94, symSize: 0x14 }
  - { offsetInCU: 0x13EF5, offset: 0x13EF5, size: 0x8, addend: 0x0, symName: __ZSt7forwardIRKSt4pairINSt7__cxx1112basic_stringIcSt11char_traitsIcESaIcEEEiEEOT_RNSt16remove_referenceISA_E4typeE, symObjAddr: 0x2350, symBinAddr: 0x100004FA8, symSize: 0x14 }
  - { offsetInCU: 0x13F53, offset: 0x13F53, size: 0x8, addend: 0x0, symName: __ZNSt17_Rb_tree_iteratorISt4pairIKNSt7__cxx1112basic_stringIcSt11char_traitsIcESaIcEEEiEEC1EPSt18_Rb_tree_node_base, symObjAddr: 0x2318, symBinAddr: 0x100004F70, symSize: 0x24 }
  - { offsetInCU: 0x13F5B, offset: 0x13F5B, size: 0x8, addend: 0x0, symName: __ZSt11__addressofINSt7__cxx1112basic_stringIcSt11char_traitsIcESaIcEEEEPT_RS6_, symObjAddr: 0x233C, symBinAddr: 0x100004F94, symSize: 0x14 }
  - { offsetInCU: 0x13F19, offset: 0x13F19, size: 0x8, addend: 0x0, symName: __ZNSt8_Rb_treeINSt7__cxx1112basic_stringIcSt11char_traitsIcESaIcEEESt4pairIKS5_iESt10_Select1stIS8_ESt4lessIS5_ESaIS8_EE10_Auto_node9_M_insertES6_IPSt18_Rb_tree_node_baseSH_E, symObjAddr: 0x22CC, symBinAddr: 0x100004F24, symSize: 0x4C }
  - { offsetInCU: 0x13F21, offset: 0x13F21, size: 0x8, addend: 0x0, symName: __ZNSt17_Rb_tree_iteratorISt4pairIKNSt7__cxx1112basic_stringIcSt11char_traitsIcESaIcEEEiEEC1EPSt18_Rb_tree_node_base, symObjAddr: 0x2318, symBinAddr: 0x100004F70, symSize: 0x24 }
  - { offsetInCU: 0x13F70, offset: 0x13F70, size: 0x8, addend: 0x0, symName: __ZNKSt8_Rb_treeINSt7__cxx1112basic_stringIcSt11char_traitsIcESaIcEEESt4pairIKS5_iESt10_Select1stIS8_ESt4lessIS5_ESaIS8_EE10_Auto_node6_M_keyEv, symObjAddr: 0x22AC, symBinAddr: 0x100004F04, symSize: 0x20 }
  - { offsetInCU: 0x13F78, offset: 0x13F78, size: 0x8, addend: 0x0, symName: __ZNSt8_Rb_treeINSt7__cxx1112basic_stringIcSt11char_traitsIcESaIcEEESt4pairIKS5_iESt10_Select1stIS8_ESt4lessIS5_ESaIS8_EE10_Auto_node9_M_insertES6_IPSt18_Rb_tree_node_baseSH_E, symObjAddr: 0x22CC, symBinAddr: 0x100004F24, symSize: 0x4C }
  - { offsetInCU: 0x13F9F, offset: 0x13F9F, size: 0x8, addend: 0x0, symName: __ZNSt8_Rb_treeINSt7__cxx1112basic_stringIcSt11char_traitsIcESaIcEEESt4pairIKS5_iESt10_Select1stIS8_ESt4lessIS5_ESaIS8_EE29_M_get_insert_hint_unique_posESt23_Rb_tree_const_iteratorIS8_ERS7_, symObjAddr: 0x1F74, symBinAddr: 0x100004BCC, symSize: 0x338 }
  - { offsetInCU: 0x13FA7, offset: 0x13FA7, size: 0x8, addend: 0x0, symName: __ZNKSt8_Rb_treeINSt7__cxx1112basic_stringIcSt11char_traitsIcESaIcEEESt4pairIKS5_iESt10_Select1stIS8_ESt4lessIS5_ESaIS8_EE10_Auto_node6_M_keyEv, symObjAddr: 0x22AC, symBinAddr: 0x100004F04, symSize: 0x20 }
  - { offsetInCU: 0x1410E, offset: 0x1410E, size: 0x8, addend: 0x0, symName: __ZNSt8_Rb_treeINSt7__cxx1112basic_stringIcSt11char_traitsIcESaIcEEESt4pairIKS5_iESt10_Select1stIS8_ESt4lessIS5_ESaIS8_EE10_Auto_nodeD1Ev, symObjAddr: 0x1F30, symBinAddr: 0x100004B88, symSize: 0x44 }
  - { offsetInCU: 0x14116, offset: 0x14116, size: 0x8, addend: 0x0, symName: __ZNSt8_Rb_treeINSt7__cxx1112basic_stringIcSt11char_traitsIcESaIcEEESt4pairIKS5_iESt10_Select1stIS8_ESt4lessIS5_ESaIS8_EE29_M_get_insert_hint_unique_posESt23_Rb_tree_const_iteratorIS8_ERS7_, symObjAddr: 0x1F74, symBinAddr: 0x100004BCC, symSize: 0x338 }
  - { offsetInCU: 0x141E6, offset: 0x141E6, size: 0x8, addend: 0x0, symName: __ZNSt8_Rb_treeINSt7__cxx1112basic_stringIcSt11char_traitsIcESaIcEEESt4pairIKS5_iESt10_Select1stIS8_ESt4lessIS5_ESaIS8_EE10_Auto_nodeC1IJRKSt21piecewise_construct_tSt5tupleIJRS7_EESK_IJEEEEERSE_DpOT_, symObjAddr: 0x1EB4, symBinAddr: 0x100004B0C, symSize: 0x7C }
  - { offsetInCU: 0x141EE, offset: 0x141EE, size: 0x8, addend: 0x0, symName: __ZNSt8_Rb_treeINSt7__cxx1112basic_stringIcSt11char_traitsIcESaIcEEESt4pairIKS5_iESt10_Select1stIS8_ESt4lessIS5_ESaIS8_EE10_Auto_nodeD1Ev, symObjAddr: 0x1F30, symBinAddr: 0x100004B88, symSize: 0x44 }
  - { offsetInCU: 0x141FE, offset: 0x141FE, size: 0x8, addend: 0x0, symName: __ZSt7forwardISt5tupleIJEEEOT_RNSt16remove_referenceIS2_E4typeE, symObjAddr: 0x1EA0, symBinAddr: 0x100004AF8, symSize: 0x14 }
  - { offsetInCU: 0x14206, offset: 0x14206, size: 0x8, addend: 0x0, symName: __ZNSt8_Rb_treeINSt7__cxx1112basic_stringIcSt11char_traitsIcESaIcEEESt4pairIKS5_iESt10_Select1stIS8_ESt4lessIS5_ESaIS8_EE10_Auto_nodeC1IJRKSt21piecewise_construct_tSt5tupleIJRS7_EESK_IJEEEEERSE_DpOT_, symObjAddr: 0x1EB4, symBinAddr: 0x100004B0C, symSize: 0x7C }
  - { offsetInCU: 0x142DE, offset: 0x142DE, size: 0x8, addend: 0x0, symName: __ZSt7forwardISt5tupleIJRKNSt7__cxx1112basic_stringIcSt11char_traitsIcESaIcEEEEEEOT_RNSt16remove_referenceISA_E4typeE, symObjAddr: 0x1E8C, symBinAddr: 0x100004AE4, symSize: 0x14 }
  - { offsetInCU: 0x142E6, offset: 0x142E6, size: 0x8, addend: 0x0, symName: __ZSt7forwardISt5tupleIJEEEOT_RNSt16remove_referenceIS2_E4typeE, symObjAddr: 0x1EA0, symBinAddr: 0x100004AF8, symSize: 0x14 }
  - { offsetInCU: 0x142C9, offset: 0x142C9, size: 0x8, addend: 0x0, symName: __ZSt7forwardIRKSt21piecewise_construct_tEOT_RNSt16remove_referenceIS3_E4typeE, symObjAddr: 0x1E78, symBinAddr: 0x100004AD0, symSize: 0x14 }
  - { offsetInCU: 0x142D1, offset: 0x142D1, size: 0x8, addend: 0x0, symName: __ZSt7forwardISt5tupleIJRKNSt7__cxx1112basic_stringIcSt11char_traitsIcESaIcEEEEEEOT_RNSt16remove_referenceISA_E4typeE, symObjAddr: 0x1E8C, symBinAddr: 0x100004AE4, symSize: 0x14 }
  - { offsetInCU: 0x14321, offset: 0x14321, size: 0x8, addend: 0x0, symName: __ZNSt11_Tuple_implILm0EJRKNSt7__cxx1112basic_stringIcSt11char_traitsIcESaIcEEEEEC2ES7_, symObjAddr: 0x1E50, symBinAddr: 0x100004AA8, symSize: 0x28 }
  - { offsetInCU: 0x14329, offset: 0x14329, size: 0x8, addend: 0x0, symName: __ZSt7forwardIRKSt21piecewise_construct_tEOT_RNSt16remove_referenceIS3_E4typeE, symObjAddr: 0x1E78, symBinAddr: 0x100004AD0, symSize: 0x14 }
  - { offsetInCU: 0x14394, offset: 0x14394, size: 0x8, addend: 0x0, symName: __ZStltIcSt11char_traitsIcESaIcEEbRKNSt7__cxx1112basic_stringIT_T0_T1_EESA_, symObjAddr: 0x1E24, symBinAddr: 0x100004A7C, symSize: 0x2C }
  - { offsetInCU: 0x1439C, offset: 0x1439C, size: 0x8, addend: 0x0, symName: __ZNSt11_Tuple_implILm0EJRKNSt7__cxx1112basic_stringIcSt11char_traitsIcESaIcEEEEEC2ES7_, symObjAddr: 0x1E50, symBinAddr: 0x100004AA8, symSize: 0x28 }
  - { offsetInCU: 0x1437E, offset: 0x1437E, size: 0x8, addend: 0x0, symName: __ZNSt13_Rb_tree_nodeISt4pairIKNSt7__cxx1112basic_stringIcSt11char_traitsIcESaIcEEEiEE9_M_valptrEv, symObjAddr: 0x1E04, symBinAddr: 0x100004A5C, symSize: 0x20 }
  - { offsetInCU: 0x14386, offset: 0x14386, size: 0x8, addend: 0x0, symName: __ZStltIcSt11char_traitsIcESaIcEEbRKNSt7__cxx1112basic_stringIT_T0_T1_EESA_, symObjAddr: 0x1E24, symBinAddr: 0x100004A7C, symSize: 0x2C }
  - { offsetInCU: 0x143AD, offset: 0x143AD, size: 0x8, addend: 0x0, symName: __ZNKSt8_Rb_treeINSt7__cxx1112basic_stringIcSt11char_traitsIcESaIcEEESt4pairIKS5_iESt10_Select1stIS8_ESt4lessIS5_ESaIS8_EE8key_compEv, symObjAddr: 0x1DEC, symBinAddr: 0x100004A44, symSize: 0x18 }
  - { offsetInCU: 0x143B5, offset: 0x143B5, size: 0x8, addend: 0x0, symName: __ZNSt13_Rb_tree_nodeISt4pairIKNSt7__cxx1112basic_stringIcSt11char_traitsIcESaIcEEEiEE9_M_valptrEv, symObjAddr: 0x1E04, symBinAddr: 0x100004A5C, symSize: 0x20 }
  - { offsetInCU: 0x143DC, offset: 0x143DC, size: 0x8, addend: 0x0, symName: __ZNSt8_Rb_treeINSt7__cxx1112basic_stringIcSt11char_traitsIcESaIcEEESt4pairIKS5_iESt10_Select1stIS8_ESt4lessIS5_ESaIS8_EE3endEv, symObjAddr: 0x1DC4, symBinAddr: 0x100004A1C, symSize: 0x28 }
  - { offsetInCU: 0x143E4, offset: 0x143E4, size: 0x8, addend: 0x0, symName: __ZNKSt8_Rb_treeINSt7__cxx1112basic_stringIcSt11char_traitsIcESaIcEEESt4pairIKS5_iESt10_Select1stIS8_ESt4lessIS5_ESaIS8_EE8key_compEv, symObjAddr: 0x1DEC, symBinAddr: 0x100004A44, symSize: 0x18 }
  - { offsetInCU: 0x1440B, offset: 0x1440B, size: 0x8, addend: 0x0, symName: __ZNSt8_Rb_treeINSt7__cxx1112basic_stringIcSt11char_traitsIcESaIcEEESt4pairIKS5_iESt10_Select1stIS8_ESt4lessIS5_ESaIS8_EE11lower_boundERS7_, symObjAddr: 0x1D7C, symBinAddr: 0x1000049D4, symSize: 0x48 }
  - { offsetInCU: 0x14413, offset: 0x14413, size: 0x8, addend: 0x0, symName: __ZNSt8_Rb_treeINSt7__cxx1112basic_stringIcSt11char_traitsIcESaIcEEESt4pairIKS5_iESt10_Select1stIS8_ESt4lessIS5_ESaIS8_EE3endEv, symObjAddr: 0x1DC4, symBinAddr: 0x100004A1C, symSize: 0x28 }
  - { offsetInCU: 0x1455F, offset: 0x1455F, size: 0x8, addend: 0x0, symName: __ZSt27__uninitialized_default_n_aIPSt4pairINSt7__cxx1112basic_stringIcSt11char_traitsIcESaIcEEEiEmS7_ET_S9_T0_RSaIT1_E, symObjAddr: 0x1D54, symBinAddr: 0x1000049AC, symSize: 0x28 }
  - { offsetInCU: 0x14567, offset: 0x14567, size: 0x8, addend: 0x0, symName: __ZNSt8_Rb_treeINSt7__cxx1112basic_stringIcSt11char_traitsIcESaIcEEESt4pairIKS5_iESt10_Select1stIS8_ESt4lessIS5_ESaIS8_EE11lower_boundERS7_, symObjAddr: 0x1D7C, symBinAddr: 0x1000049D4, symSize: 0x48 }
  - { offsetInCU: 0x144D4, offset: 0x144D4, size: 0x8, addend: 0x0, symName: __ZNSt12_Vector_baseISt4pairINSt7__cxx1112basic_stringIcSt11char_traitsIcESaIcEEEiESaIS7_EE19_M_get_Tp_allocatorEv, symObjAddr: 0x1D40, symBinAddr: 0x100004998, symSize: 0x14 }
  - { offsetInCU: 0x144DC, offset: 0x144DC, size: 0x8, addend: 0x0, symName: __ZSt27__uninitialized_default_n_aIPSt4pairINSt7__cxx1112basic_stringIcSt11char_traitsIcESaIcEEEiEmS7_ET_S9_T0_RSaIT1_E, symObjAddr: 0x1D54, symBinAddr: 0x1000049AC, symSize: 0x28 }
  - { offsetInCU: 0x14503, offset: 0x14503, size: 0x8, addend: 0x0, symName: __ZNSt12_Vector_baseISt4pairINSt7__cxx1112basic_stringIcSt11char_traitsIcESaIcEEEiESaIS7_EE13_M_deallocateEPS7_m, symObjAddr: 0x1CE8, symBinAddr: 0x100004940, symSize: 0x58 }
  - { offsetInCU: 0x1450B, offset: 0x1450B, size: 0x8, addend: 0x0, symName: __ZNSt12_Vector_baseISt4pairINSt7__cxx1112basic_stringIcSt11char_traitsIcESaIcEEEiESaIS7_EE19_M_get_Tp_allocatorEv, symObjAddr: 0x1D40, symBinAddr: 0x100004998, symSize: 0x14 }
  - { offsetInCU: 0x14598, offset: 0x14598, size: 0x8, addend: 0x0, symName: __ZNSt12_Vector_baseISt4pairINSt7__cxx1112basic_stringIcSt11char_traitsIcESaIcEEEiESaIS7_EE17_M_create_storageEm, symObjAddr: 0x1C7C, symBinAddr: 0x1000048D4, symSize: 0x6C }
  - { offsetInCU: 0x145A0, offset: 0x145A0, size: 0x8, addend: 0x0, symName: __ZNSt12_Vector_baseISt4pairINSt7__cxx1112basic_stringIcSt11char_traitsIcESaIcEEEiESaIS7_EE13_M_deallocateEPS7_m, symObjAddr: 0x1CE8, symBinAddr: 0x100004940, symSize: 0x58 }
  - { offsetInCU: 0x14675, offset: 0x14675, size: 0x8, addend: 0x0, symName: __ZNSt12_Vector_baseISt4pairINSt7__cxx1112basic_stringIcSt11char_traitsIcESaIcEEEiESaIS7_EE12_Vector_implC1ERKS8_, symObjAddr: 0x1C30, symBinAddr: 0x100004888, symSize: 0x4C }
  - { offsetInCU: 0x1467D, offset: 0x1467D, size: 0x8, addend: 0x0, symName: __ZNSt12_Vector_baseISt4pairINSt7__cxx1112basic_stringIcSt11char_traitsIcESaIcEEEiESaIS7_EE17_M_create_storageEm, symObjAddr: 0x1C7C, symBinAddr: 0x1000048D4, symSize: 0x6C }
  - { offsetInCU: 0x146CB, offset: 0x146CB, size: 0x8, addend: 0x0, symName: __ZNSt6vectorISt4pairINSt7__cxx1112basic_stringIcSt11char_traitsIcESaIcEEEiESaIS7_EE11_S_max_sizeERKS8_, symObjAddr: 0x1BD4, symBinAddr: 0x10000482C, symSize: 0x5C }
  - { offsetInCU: 0x146D3, offset: 0x146D3, size: 0x8, addend: 0x0, symName: __ZNSt12_Vector_baseISt4pairINSt7__cxx1112basic_stringIcSt11char_traitsIcESaIcEEEiESaIS7_EE12_Vector_implC1ERKS8_, symObjAddr: 0x1C30, symBinAddr: 0x100004888, symSize: 0x4C }
  - { offsetInCU: 0x14891, offset: 0x14891, size: 0x8, addend: 0x0, symName: __ZSt22__uninitialized_copy_aIPKNSt7__cxx1112basic_stringIcSt11char_traitsIcESaIcEEEPS5_S5_ET0_T_SA_S9_RSaIT1_E, symObjAddr: 0x1BA4, symBinAddr: 0x1000047FC, symSize: 0x30 }
  - { offsetInCU: 0x14899, offset: 0x14899, size: 0x8, addend: 0x0, symName: __ZNSt6vectorISt4pairINSt7__cxx1112basic_stringIcSt11char_traitsIcESaIcEEEiESaIS7_EE11_S_max_sizeERKS8_, symObjAddr: 0x1BD4, symBinAddr: 0x10000482C, symSize: 0x5C }
  - { offsetInCU: 0x14831, offset: 0x14831, size: 0x8, addend: 0x0, symName: __ZNSt12_Vector_baseINSt7__cxx1112basic_stringIcSt11char_traitsIcESaIcEEESaIS5_EE11_M_allocateEm, symObjAddr: 0x1B54, symBinAddr: 0x1000047AC, symSize: 0x50 }
  - { offsetInCU: 0x14839, offset: 0x14839, size: 0x8, addend: 0x0, symName: __ZSt22__uninitialized_copy_aIPKNSt7__cxx1112basic_stringIcSt11char_traitsIcESaIcEEEPS5_S5_ET0_T_SA_S9_RSaIT1_E, symObjAddr: 0x1BA4, symBinAddr: 0x1000047FC, symSize: 0x30 }
  - { offsetInCU: 0x148A6, offset: 0x148A6, size: 0x8, addend: 0x0, symName: __ZNSt12_Vector_baseINSt7__cxx1112basic_stringIcSt11char_traitsIcESaIcEEESaIS5_EE19_M_get_Tp_allocatorEv, symObjAddr: 0x1B40, symBinAddr: 0x100004798, symSize: 0x14 }
  - { offsetInCU: 0x148AE, offset: 0x148AE, size: 0x8, addend: 0x0, symName: __ZNSt12_Vector_baseINSt7__cxx1112basic_stringIcSt11char_traitsIcESaIcEEESaIS5_EE11_M_allocateEm, symObjAddr: 0x1B54, symBinAddr: 0x1000047AC, symSize: 0x50 }
  - { offsetInCU: 0x148D5, offset: 0x148D5, size: 0x8, addend: 0x0, symName: __ZNSt6vectorINSt7__cxx1112basic_stringIcSt11char_traitsIcESaIcEEESaIS5_EE17_S_check_init_lenEmRKS6_, symObjAddr: 0x1ABC, symBinAddr: 0x100004714, symSize: 0x84 }
  - { offsetInCU: 0x148DD, offset: 0x148DD, size: 0x8, addend: 0x0, symName: __ZNSt12_Vector_baseINSt7__cxx1112basic_stringIcSt11char_traitsIcESaIcEEESaIS5_EE19_M_get_Tp_allocatorEv, symObjAddr: 0x1B40, symBinAddr: 0x100004798, symSize: 0x14 }
  - { offsetInCU: 0x14A25, offset: 0x14A25, size: 0x8, addend: 0x0, symName: __ZNKSt16initializer_listINSt7__cxx1112basic_stringIcSt11char_traitsIcESaIcEEEE4sizeEv, symObjAddr: 0x1AA4, symBinAddr: 0x1000046FC, symSize: 0x18 }
  - { offsetInCU: 0x14A2D, offset: 0x14A2D, size: 0x8, addend: 0x0, symName: __ZNSt6vectorINSt7__cxx1112basic_stringIcSt11char_traitsIcESaIcEEESaIS5_EE17_S_check_init_lenEmRKS6_, symObjAddr: 0x1ABC, symBinAddr: 0x100004714, symSize: 0x84 }
  - { offsetInCU: 0x14A54, offset: 0x14A54, size: 0x8, addend: 0x0, symName: __ZNSt12_Vector_baseINSt7__cxx1112basic_stringIcSt11char_traitsIcESaIcEEESaIS5_EE13_M_deallocateEPS5_m, symObjAddr: 0x1A4C, symBinAddr: 0x1000046A4, symSize: 0x58 }
  - { offsetInCU: 0x14A5C, offset: 0x14A5C, size: 0x8, addend: 0x0, symName: __ZNKSt16initializer_listINSt7__cxx1112basic_stringIcSt11char_traitsIcESaIcEEEE4sizeEv, symObjAddr: 0x1AA4, symBinAddr: 0x1000046FC, symSize: 0x18 }
  - { offsetInCU: 0x14B79, offset: 0x14B79, size: 0x8, addend: 0x0, symName: __ZNSt12_Vector_baseINSt7__cxx1112basic_stringIcSt11char_traitsIcESaIcEEESaIS5_EE12_Vector_implC1ERKS6_, symObjAddr: 0x1A00, symBinAddr: 0x100004658, symSize: 0x4C }
  - { offsetInCU: 0x14B81, offset: 0x14B81, size: 0x8, addend: 0x0, symName: __ZNSt12_Vector_baseINSt7__cxx1112basic_stringIcSt11char_traitsIcESaIcEEESaIS5_EE13_M_deallocateEPS5_m, symObjAddr: 0x1A4C, symBinAddr: 0x1000046A4, symSize: 0x58 }
  - { offsetInCU: 0x14BB0, offset: 0x14BB0, size: 0x8, addend: 0x0, symName: __ZNKSt8_Rb_treeINSt7__cxx1112basic_stringIcSt11char_traitsIcESaIcEEESt4pairIKS5_iESt10_Select1stIS8_ESt4lessIS5_ESaIS8_EE9_M_mbeginEv, symObjAddr: 0x19E8, symBinAddr: 0x100004640, symSize: 0x18 }
  - { offsetInCU: 0x14BB8, offset: 0x14BB8, size: 0x8, addend: 0x0, symName: __ZNSt12_Vector_baseINSt7__cxx1112basic_stringIcSt11char_traitsIcESaIcEEESaIS5_EE12_Vector_implC1ERKS6_, symObjAddr: 0x1A00, symBinAddr: 0x100004658, symSize: 0x4C }
  - { offsetInCU: 0x14BDF, offset: 0x14BDF, size: 0x8, addend: 0x0, symName: __ZNSt8_Rb_treeINSt7__cxx1112basic_stringIcSt11char_traitsIcESaIcEEESt4pairIKS5_iESt10_Select1stIS8_ESt4lessIS5_ESaIS8_EE12_M_drop_nodeEPSt13_Rb_tree_nodeIS8_E, symObjAddr: 0x19B4, symBinAddr: 0x10000460C, symSize: 0x34 }
  - { offsetInCU: 0x14BE7, offset: 0x14BE7, size: 0x8, addend: 0x0, symName: __ZNKSt8_Rb_treeINSt7__cxx1112basic_stringIcSt11char_traitsIcESaIcEEESt4pairIKS5_iESt10_Select1stIS8_ESt4lessIS5_ESaIS8_EE9_M_mbeginEv, symObjAddr: 0x19E8, symBinAddr: 0x100004640, symSize: 0x18 }
  - { offsetInCU: 0x14C22, offset: 0x14C22, size: 0x8, addend: 0x0, symName: __ZNSt8_Rb_treeINSt7__cxx1112basic_stringIcSt11char_traitsIcESaIcEEESt4pairIKS5_iESt10_Select1stIS8_ESt4lessIS5_ESaIS8_EE7_S_leftEPSt18_Rb_tree_node_base, symObjAddr: 0x199C, symBinAddr: 0x1000045F4, symSize: 0x18 }
  - { offsetInCU: 0x14C2A, offset: 0x14C2A, size: 0x8, addend: 0x0, symName: __ZNSt8_Rb_treeINSt7__cxx1112basic_stringIcSt11char_traitsIcESaIcEEESt4pairIKS5_iESt10_Select1stIS8_ESt4lessIS5_ESaIS8_EE12_M_drop_nodeEPSt13_Rb_tree_nodeIS8_E, symObjAddr: 0x19B4, symBinAddr: 0x10000460C, symSize: 0x34 }
  - { offsetInCU: 0x14C54, offset: 0x14C54, size: 0x8, addend: 0x0, symName: __ZNSt8_Rb_treeINSt7__cxx1112basic_stringIcSt11char_traitsIcESaIcEEESt4pairIKS5_iESt10_Select1stIS8_ESt4lessIS5_ESaIS8_EE8_S_rightEPSt18_Rb_tree_node_base, symObjAddr: 0x1984, symBinAddr: 0x1000045DC, symSize: 0x18 }
  - { offsetInCU: 0x14C5C, offset: 0x14C5C, size: 0x8, addend: 0x0, symName: __ZNSt8_Rb_treeINSt7__cxx1112basic_stringIcSt11char_traitsIcESaIcEEESt4pairIKS5_iESt10_Select1stIS8_ESt4lessIS5_ESaIS8_EE7_S_leftEPSt18_Rb_tree_node_base, symObjAddr: 0x199C, symBinAddr: 0x1000045F4, symSize: 0x18 }
  - { offsetInCU: 0x14E26, offset: 0x14E26, size: 0x8, addend: 0x0, symName: __ZSt6__sortIN9__gnu_cxx17__normal_iteratorIPSt4pairINSt7__cxx1112basic_stringIcSt11char_traitsIcESaIcEEEiESt6vectorIS9_SaIS9_EEEENS0_5__ops15_Iter_comp_iterIZ4mainEUlRKS9_SI_E_EEEvT_SL_T0_, symObjAddr: 0x1910, symBinAddr: 0x100004568, symSize: 0x74 }
  - { offsetInCU: 0x14E2E, offset: 0x14E2E, size: 0x8, addend: 0x0, symName: __ZNSt8_Rb_treeINSt7__cxx1112basic_stringIcSt11char_traitsIcESaIcEEESt4pairIKS5_iESt10_Select1stIS8_ESt4lessIS5_ESaIS8_EE8_S_rightEPSt18_Rb_tree_node_base, symObjAddr: 0x1984, symBinAddr: 0x1000045DC, symSize: 0x18 }
  - { offsetInCU: 0x14DF2, offset: 0x14DF2, size: 0x8, addend: 0x0, symName: __ZN9__gnu_cxx5__ops16__iter_comp_iterIZ4mainEUlRKSt4pairINSt7__cxx1112basic_stringIcSt11char_traitsIcESaIcEEEiESB_E_EENS0_15_Iter_comp_iterIT_EESE_, symObjAddr: 0x18D8, symBinAddr: 0x100004530, symSize: 0x38 }
  - { offsetInCU: 0x14DFA, offset: 0x14DFA, size: 0x8, addend: 0x0, symName: __ZSt6__sortIN9__gnu_cxx17__normal_iteratorIPSt4pairINSt7__cxx1112basic_stringIcSt11char_traitsIcESaIcEEEiESt6vectorIS9_SaIS9_EEEENS0_5__ops15_Iter_comp_iterIZ4mainEUlRKS9_SI_E_EEEvT_SL_T0_, symObjAddr: 0x1910, symBinAddr: 0x100004568, symSize: 0x74 }
  - { offsetInCU: 0x14E48, offset: 0x14E48, size: 0x8, addend: 0x0, symName: __ZN9__gnu_cxx17__normal_iteratorIPSt4pairINSt7__cxx1112basic_stringIcSt11char_traitsIcESaIcEEEiESt6vectorIS8_SaIS8_EEEC1ERKS9_, symObjAddr: 0x18B0, symBinAddr: 0x100004508, symSize: 0x28 }
  - { offsetInCU: 0x14E50, offset: 0x14E50, size: 0x8, addend: 0x0, symName: __ZN9__gnu_cxx5__ops16__iter_comp_iterIZ4mainEUlRKSt4pairINSt7__cxx1112basic_stringIcSt11char_traitsIcESaIcEEEiESB_E_EENS0_15_Iter_comp_iterIT_EESE_, symObjAddr: 0x18D8, symBinAddr: 0x100004530, symSize: 0x38 }
  - { offsetInCU: 0x14E03, offset: 0x14E03, size: 0x8, addend: 0x0, symName: __ZNSt6vectorISt4pairINSt7__cxx1112basic_stringIcSt11char_traitsIcESaIcEEEiESaIS7_EE17_M_realloc_insertIJRKS7_EEEvN9__gnu_cxx17__normal_iteratorIPS7_S9_EEDpOT_, symObjAddr: 0x15E4, symBinAddr: 0x10000423C, symSize: 0x2CC }
  - { offsetInCU: 0x14E0B, offset: 0x14E0B, size: 0x8, addend: 0x0, symName: __ZN9__gnu_cxx17__normal_iteratorIPSt4pairINSt7__cxx1112basic_stringIcSt11char_traitsIcESaIcEEEiESt6vectorIS8_SaIS8_EEEC1ERKS9_, symObjAddr: 0x18B0, symBinAddr: 0x100004508, symSize: 0x28 }
  - { offsetInCU: 0x150A8, offset: 0x150A8, size: 0x8, addend: 0x0, symName: __ZSt7forwardIiEOT_RNSt16remove_referenceIS0_E4typeE, symObjAddr: 0x15D0, symBinAddr: 0x100004228, symSize: 0x14 }
  - { offsetInCU: 0x150B0, offset: 0x150B0, size: 0x8, addend: 0x0, symName: __ZNSt6vectorISt4pairINSt7__cxx1112basic_stringIcSt11char_traitsIcESaIcEEEiESaIS7_EE17_M_realloc_insertIJRKS7_EEEvN9__gnu_cxx17__normal_iteratorIPS7_S9_EEDpOT_, symObjAddr: 0x15E4, symBinAddr: 0x10000423C, symSize: 0x2CC }
  - { offsetInCU: 0x1514D, offset: 0x1514D, size: 0x8, addend: 0x0, symName: __ZSt7forwardINSt7__cxx1112basic_stringIcSt11char_traitsIcESaIcEEEEOT_RNSt16remove_referenceIS6_E4typeE, symObjAddr: 0x15BC, symBinAddr: 0x100004214, symSize: 0x14 }
  - { offsetInCU: 0x15155, offset: 0x15155, size: 0x8, addend: 0x0, symName: __ZSt7forwardIiEOT_RNSt16remove_referenceIS0_E4typeE, symObjAddr: 0x15D0, symBinAddr: 0x100004228, symSize: 0x14 }
  - { offsetInCU: 0x151B8, offset: 0x151B8, size: 0x8, addend: 0x0, symName: __ZNSt4pairINSt7__cxx1112basic_stringIcSt11char_traitsIcESaIcEEEiEC1IRS5_RiLb1EEEOT_OT0_, symObjAddr: 0x1568, symBinAddr: 0x1000041C0, symSize: 0x54 }
  - { offsetInCU: 0x151C0, offset: 0x151C0, size: 0x8, addend: 0x0, symName: __ZSt7forwardINSt7__cxx1112basic_stringIcSt11char_traitsIcESaIcEEEEOT_RNSt16remove_referenceIS6_E4typeE, symObjAddr: 0x15BC, symBinAddr: 0x100004214, symSize: 0x14 }
  - { offsetInCU: 0x15207, offset: 0x15207, size: 0x8, addend: 0x0, symName: __ZSt7forwardIRiEOT_RNSt16remove_referenceIS1_E4typeE, symObjAddr: 0x1554, symBinAddr: 0x1000041AC, symSize: 0x14 }
  - { offsetInCU: 0x1520F, offset: 0x1520F, size: 0x8, addend: 0x0, symName: __ZNSt4pairINSt7__cxx1112basic_stringIcSt11char_traitsIcESaIcEEEiEC1IRS5_RiLb1EEEOT_OT0_, symObjAddr: 0x1568, symBinAddr: 0x1000041C0, symSize: 0x54 }
  - { offsetInCU: 0x152AB, offset: 0x152AB, size: 0x8, addend: 0x0, symName: __ZSt7forwardIRNSt7__cxx1112basic_stringIcSt11char_traitsIcESaIcEEEEOT_RNSt16remove_referenceIS7_E4typeE, symObjAddr: 0x1540, symBinAddr: 0x100004198, symSize: 0x14 }
  - { offsetInCU: 0x152B3, offset: 0x152B3, size: 0x8, addend: 0x0, symName: __ZSt7forwardIRiEOT_RNSt16remove_referenceIS1_E4typeE, symObjAddr: 0x1554, symBinAddr: 0x1000041AC, symSize: 0x14 }
  - { offsetInCU: 0x15268, offset: 0x15268, size: 0x8, addend: 0x0, symName: __ZNK9__gnu_cxx17__normal_iteratorIPNSt7__cxx1112basic_stringIcSt11char_traitsIcESaIcEEESt6vectorIS6_SaIS6_EEE4baseEv, symObjAddr: 0x152C, symBinAddr: 0x100004184, symSize: 0x14 }
  - { offsetInCU: 0x15270, offset: 0x15270, size: 0x8, addend: 0x0, symName: __ZSt7forwardIRNSt7__cxx1112basic_stringIcSt11char_traitsIcESaIcEEEEOT_RNSt16remove_referenceIS7_E4typeE, symObjAddr: 0x1540, symBinAddr: 0x100004198, symSize: 0x14 }
  - { offsetInCU: 0x15336, offset: 0x15336, size: 0x8, addend: 0x0, symName: __ZN9__gnu_cxx17__normal_iteratorIPNSt7__cxx1112basic_stringIcSt11char_traitsIcESaIcEEESt6vectorIS6_SaIS6_EEEC1ERKS7_, symObjAddr: 0x1504, symBinAddr: 0x10000415C, symSize: 0x28 }
  - { offsetInCU: 0x1533E, offset: 0x1533E, size: 0x8, addend: 0x0, symName: __ZNK9__gnu_cxx17__normal_iteratorIPNSt7__cxx1112basic_stringIcSt11char_traitsIcESaIcEEESt6vectorIS6_SaIS6_EEE4baseEv, symObjAddr: 0x152C, symBinAddr: 0x100004184, symSize: 0x14 }
  - { offsetInCU: 0x152FB, offset: 0x152FB, size: 0x8, addend: 0x0, symName: __ZNSt8_Rb_treeINSt7__cxx1112basic_stringIcSt11char_traitsIcESaIcEEESt4pairIKS5_iESt10_Select1stIS8_ESt4lessIS5_ESaIS8_EE22_M_emplace_hint_uniqueIJRKSt21piecewise_construct_tSt5tupleIJRS7_EESJ_IJEEEEESt17_Rb_tree_iteratorIS8_ESt23_Rb_tree_const_iteratorIS8_EDpOT_, symObjAddr: 0x142C, symBinAddr: 0x100004084, symSize: 0xD8 }
  - { offsetInCU: 0x15303, offset: 0x15303, size: 0x8, addend: 0x0, symName: __ZN9__gnu_cxx17__normal_iteratorIPNSt7__cxx1112basic_stringIcSt11char_traitsIcESaIcEEESt6vectorIS6_SaIS6_EEEC1ERKS7_, symObjAddr: 0x1504, symBinAddr: 0x10000415C, symSize: 0x28 }
  - { offsetInCU: 0x1545D, offset: 0x1545D, size: 0x8, addend: 0x0, symName: __ZNSt23_Rb_tree_const_iteratorISt4pairIKNSt7__cxx1112basic_stringIcSt11char_traitsIcESaIcEEEiEEC1ERKSt17_Rb_tree_iteratorIS8_E, symObjAddr: 0x1404, symBinAddr: 0x10000405C, symSize: 0x28 }
  - { offsetInCU: 0x15465, offset: 0x15465, size: 0x8, addend: 0x0, symName: __ZNSt8_Rb_treeINSt7__cxx1112basic_stringIcSt11char_traitsIcESaIcEEESt4pairIKS5_iESt10_Select1stIS8_ESt4lessIS5_ESaIS8_EE22_M_emplace_hint_uniqueIJRKSt21piecewise_construct_tSt5tupleIJRS7_EESJ_IJEEEEESt17_Rb_tree_iteratorIS8_ESt23_Rb_tree_const_iteratorIS8_EDpOT_, symObjAddr: 0x142C, symBinAddr: 0x100004084, symSize: 0xD8 }
  - { offsetInCU: 0x154A7, offset: 0x154A7, size: 0x8, addend: 0x0, symName: __ZNSt5tupleIJRKNSt7__cxx1112basic_stringIcSt11char_traitsIcESaIcEEEEEC1ILb1ELb1EEES7_, symObjAddr: 0x13DC, symBinAddr: 0x100004034, symSize: 0x28 }
  - { offsetInCU: 0x154AF, offset: 0x154AF, size: 0x8, addend: 0x0, symName: __ZNSt23_Rb_tree_const_iteratorISt4pairIKNSt7__cxx1112basic_stringIcSt11char_traitsIcESaIcEEEiEEC1ERKSt17_Rb_tree_iteratorIS8_E, symObjAddr: 0x1404, symBinAddr: 0x10000405C, symSize: 0x28 }
  - { offsetInCU: 0x1549A, offset: 0x1549A, size: 0x8, addend: 0x0, symName: __ZNKSt4lessINSt7__cxx1112basic_stringIcSt11char_traitsIcESaIcEEEEclERKS5_S8_, symObjAddr: 0x13B0, symBinAddr: 0x100004008, symSize: 0x2C }
  - { offsetInCU: 0x154A2, offset: 0x154A2, size: 0x8, addend: 0x0, symName: __ZNSt5tupleIJRKNSt7__cxx1112basic_stringIcSt11char_traitsIcESaIcEEEEEC1ILb1ELb1EEES7_, symObjAddr: 0x13DC, symBinAddr: 0x100004034, symSize: 0x28 }
  - { offsetInCU: 0x154F1, offset: 0x154F1, size: 0x8, addend: 0x0, symName: __ZNKSt17_Rb_tree_iteratorISt4pairIKNSt7__cxx1112basic_stringIcSt11char_traitsIcESaIcEEEiEEdeEv, symObjAddr: 0x1390, symBinAddr: 0x100003FE8, symSize: 0x20 }
  - { offsetInCU: 0x154F9, offset: 0x154F9, size: 0x8, addend: 0x0, symName: __ZNKSt4lessINSt7__cxx1112basic_stringIcSt11char_traitsIcESaIcEEEEclERKS5_S8_, symObjAddr: 0x13B0, symBinAddr: 0x100004008, symSize: 0x2C }
  - { offsetInCU: 0x15520, offset: 0x15520, size: 0x8, addend: 0x0, symName: __ZNKSt3mapINSt7__cxx1112basic_stringIcSt11char_traitsIcESaIcEEEiSt4lessIS5_ESaISt4pairIKS5_iEEE8key_compEv, symObjAddr: 0x1364, symBinAddr: 0x100003FBC, symSize: 0x2C }
  - { offsetInCU: 0x15528, offset: 0x15528, size: 0x8, addend: 0x0, symName: __ZNKSt17_Rb_tree_iteratorISt4pairIKNSt7__cxx1112basic_stringIcSt11char_traitsIcESaIcEEEiEEdeEv, symObjAddr: 0x1390, symBinAddr: 0x100003FE8, symSize: 0x20 }
  - { offsetInCU: 0x155C1, offset: 0x155C1, size: 0x8, addend: 0x0, symName: __ZSteqRKSt17_Rb_tree_iteratorISt4pairIKNSt7__cxx1112basic_stringIcSt11char_traitsIcESaIcEEEiEESB_, symObjAddr: 0x1334, symBinAddr: 0x100003F8C, symSize: 0x30 }
  - { offsetInCU: 0x155C9, offset: 0x155C9, size: 0x8, addend: 0x0, symName: __ZNKSt3mapINSt7__cxx1112basic_stringIcSt11char_traitsIcESaIcEEEiSt4lessIS5_ESaISt4pairIKS5_iEEE8key_compEv, symObjAddr: 0x1364, symBinAddr: 0x100003FBC, symSize: 0x2C }
  - { offsetInCU: 0x155AC, offset: 0x155AC, size: 0x8, addend: 0x0, symName: __ZNSt3mapINSt7__cxx1112basic_stringIcSt11char_traitsIcESaIcEEEiSt4lessIS5_ESaISt4pairIKS5_iEEE3endEv, symObjAddr: 0x1318, symBinAddr: 0x100003F70, symSize: 0x1C }
  - { offsetInCU: 0x155B4, offset: 0x155B4, size: 0x8, addend: 0x0, symName: __ZSteqRKSt17_Rb_tree_iteratorISt4pairIKNSt7__cxx1112basic_stringIcSt11char_traitsIcESaIcEEEiEESB_, symObjAddr: 0x1334, symBinAddr: 0x100003F8C, symSize: 0x30 }
  - { offsetInCU: 0x155DB, offset: 0x155DB, size: 0x8, addend: 0x0, symName: __ZNSt3mapINSt7__cxx1112basic_stringIcSt11char_traitsIcESaIcEEEiSt4lessIS5_ESaISt4pairIKS5_iEEE11lower_boundERS9_, symObjAddr: 0x12F4, symBinAddr: 0x100003F4C, symSize: 0x24 }
  - { offsetInCU: 0x155E3, offset: 0x155E3, size: 0x8, addend: 0x0, symName: __ZNSt3mapINSt7__cxx1112basic_stringIcSt11char_traitsIcESaIcEEEiSt4lessIS5_ESaISt4pairIKS5_iEEE3endEv, symObjAddr: 0x1318, symBinAddr: 0x100003F70, symSize: 0x1C }
  - { offsetInCU: 0x15637, offset: 0x15637, size: 0x8, addend: 0x0, symName: __ZNSt6vectorISt4pairINSt7__cxx1112basic_stringIcSt11char_traitsIcESaIcEEEiESaIS7_EE21_M_default_initializeEm, symObjAddr: 0x12A4, symBinAddr: 0x100003EFC, symSize: 0x50 }
  - { offsetInCU: 0x1563F, offset: 0x1563F, size: 0x8, addend: 0x0, symName: __ZNSt3mapINSt7__cxx1112basic_stringIcSt11char_traitsIcESaIcEEEiSt4lessIS5_ESaISt4pairIKS5_iEEE11lower_boundERS9_, symObjAddr: 0x12F4, symBinAddr: 0x100003F4C, symSize: 0x24 }
  - { offsetInCU: 0x15700, offset: 0x15700, size: 0x8, addend: 0x0, symName: __ZNSt12_Vector_baseISt4pairINSt7__cxx1112basic_stringIcSt11char_traitsIcESaIcEEEiESaIS7_EED2Ev, symObjAddr: 0x1248, symBinAddr: 0x100003EA0, symSize: 0x5C }
  - { offsetInCU: 0x15708, offset: 0x15708, size: 0x8, addend: 0x0, symName: __ZNSt6vectorISt4pairINSt7__cxx1112basic_stringIcSt11char_traitsIcESaIcEEEiESaIS7_EE21_M_default_initializeEm, symObjAddr: 0x12A4, symBinAddr: 0x100003EFC, symSize: 0x50 }
  - { offsetInCU: 0x1576E, offset: 0x1576E, size: 0x8, addend: 0x0, symName: __ZNSt12_Vector_baseISt4pairINSt7__cxx1112basic_stringIcSt11char_traitsIcESaIcEEEiESaIS7_EEC2EmRKS8_, symObjAddr: 0x11F4, symBinAddr: 0x100003E4C, symSize: 0x54 }
  - { offsetInCU: 0x15776, offset: 0x15776, size: 0x8, addend: 0x0, symName: __ZNSt12_Vector_baseISt4pairINSt7__cxx1112basic_stringIcSt11char_traitsIcESaIcEEEiESaIS7_EED2Ev, symObjAddr: 0x1248, symBinAddr: 0x100003EA0, symSize: 0x5C }
  - { offsetInCU: 0x157E8, offset: 0x157E8, size: 0x8, addend: 0x0, symName: __ZNSt12_Vector_baseISt4pairINSt7__cxx1112basic_stringIcSt11char_traitsIcESaIcEEEiESaIS7_EE12_Vector_implD1Ev, symObjAddr: 0x11C8, symBinAddr: 0x100003E20, symSize: 0x2C }
  - { offsetInCU: 0x157F0, offset: 0x157F0, size: 0x8, addend: 0x0, symName: __ZNSt12_Vector_baseISt4pairINSt7__cxx1112basic_stringIcSt11char_traitsIcESaIcEEEiESaIS7_EEC2EmRKS8_, symObjAddr: 0x11F4, symBinAddr: 0x100003E4C, symSize: 0x54 }
  - { offsetInCU: 0x157CF, offset: 0x157CF, size: 0x8, addend: 0x0, symName: __ZNSt6vectorISt4pairINSt7__cxx1112basic_stringIcSt11char_traitsIcESaIcEEEiESaIS7_EE17_S_check_init_lenEmRKS8_, symObjAddr: 0x1144, symBinAddr: 0x100003D9C, symSize: 0x84 }
  - { offsetInCU: 0x157D7, offset: 0x157D7, size: 0x8, addend: 0x0, symName: __ZNSt12_Vector_baseISt4pairINSt7__cxx1112basic_stringIcSt11char_traitsIcESaIcEEEiESaIS7_EE12_Vector_implD1Ev, symObjAddr: 0x11C8, symBinAddr: 0x100003E20, symSize: 0x2C }
  - { offsetInCU: 0x1591B, offset: 0x1591B, size: 0x8, addend: 0x0, symName: __ZNSt15__new_allocatorISt4pairINSt7__cxx1112basic_stringIcSt11char_traitsIcESaIcEEEiEED2Ev, symObjAddr: 0x1130, symBinAddr: 0x100003D88, symSize: 0x14 }
  - { offsetInCU: 0x15923, offset: 0x15923, size: 0x8, addend: 0x0, symName: __ZNSt6vectorISt4pairINSt7__cxx1112basic_stringIcSt11char_traitsIcESaIcEEEiESaIS7_EE17_S_check_init_lenEmRKS8_, symObjAddr: 0x1144, symBinAddr: 0x100003D9C, symSize: 0x84 }
  - { offsetInCU: 0x15907, offset: 0x15907, size: 0x8, addend: 0x0, symName: __ZNSt6vectorINSt7__cxx1112basic_stringIcSt11char_traitsIcESaIcEEESaIS5_EE19_M_range_initializeIPKS5_EEvT_SB_St20forward_iterator_tag, symObjAddr: 0x104C, symBinAddr: 0x100003CA4, symSize: 0xE4 }
  - { offsetInCU: 0x1590F, offset: 0x1590F, size: 0x8, addend: 0x0, symName: __ZNSt15__new_allocatorISt4pairINSt7__cxx1112basic_stringIcSt11char_traitsIcESaIcEEEiEED2Ev, symObjAddr: 0x1130, symBinAddr: 0x100003D88, symSize: 0x14 }
  - { offsetInCU: 0x15A65, offset: 0x15A65, size: 0x8, addend: 0x0, symName: __ZNKSt16initializer_listINSt7__cxx1112basic_stringIcSt11char_traitsIcESaIcEEEE3endEv, symObjAddr: 0x1014, symBinAddr: 0x100003C6C, symSize: 0x38 }
  - { offsetInCU: 0x15A6D, offset: 0x15A6D, size: 0x8, addend: 0x0, symName: __ZNSt6vectorINSt7__cxx1112basic_stringIcSt11char_traitsIcESaIcEEESaIS5_EE19_M_range_initializeIPKS5_EEvT_SB_St20forward_iterator_tag, symObjAddr: 0x104C, symBinAddr: 0x100003CA4, symSize: 0xE4 }
  - { offsetInCU: 0x15A94, offset: 0x15A94, size: 0x8, addend: 0x0, symName: __ZNKSt16initializer_listINSt7__cxx1112basic_stringIcSt11char_traitsIcESaIcEEEE5beginEv, symObjAddr: 0xFFC, symBinAddr: 0x100003C54, symSize: 0x18 }
  - { offsetInCU: 0x15A9C, offset: 0x15A9C, size: 0x8, addend: 0x0, symName: __ZNKSt16initializer_listINSt7__cxx1112basic_stringIcSt11char_traitsIcESaIcEEEE3endEv, symObjAddr: 0x1014, symBinAddr: 0x100003C6C, symSize: 0x38 }
  - { offsetInCU: 0x15B3F, offset: 0x15B3F, size: 0x8, addend: 0x0, symName: __ZNSt12_Vector_baseINSt7__cxx1112basic_stringIcSt11char_traitsIcESaIcEEESaIS5_EED2Ev, symObjAddr: 0xFAC, symBinAddr: 0x100003C04, symSize: 0x50 }
  - { offsetInCU: 0x15B47, offset: 0x15B47, size: 0x8, addend: 0x0, symName: __ZNKSt16initializer_listINSt7__cxx1112basic_stringIcSt11char_traitsIcESaIcEEEE5beginEv, symObjAddr: 0xFFC, symBinAddr: 0x100003C54, symSize: 0x18 }
  - { offsetInCU: 0x15B9B, offset: 0x15B9B, size: 0x8, addend: 0x0, symName: __ZNSt12_Vector_baseINSt7__cxx1112basic_stringIcSt11char_traitsIcESaIcEEESaIS5_EEC2ERKS6_, symObjAddr: 0xF84, symBinAddr: 0x100003BDC, symSize: 0x28 }
  - { offsetInCU: 0x15BA3, offset: 0x15BA3, size: 0x8, addend: 0x0, symName: __ZNSt12_Vector_baseINSt7__cxx1112basic_stringIcSt11char_traitsIcESaIcEEESaIS5_EED2Ev, symObjAddr: 0xFAC, symBinAddr: 0x100003C04, symSize: 0x50 }
  - { offsetInCU: 0x15C0A, offset: 0x15C0A, size: 0x8, addend: 0x0, symName: __ZNSt12_Vector_baseINSt7__cxx1112basic_stringIcSt11char_traitsIcESaIcEEESaIS5_EE12_Vector_implD1Ev, symObjAddr: 0xF58, symBinAddr: 0x100003BB0, symSize: 0x2C }
  - { offsetInCU: 0x15C12, offset: 0x15C12, size: 0x8, addend: 0x0, symName: __ZNSt12_Vector_baseINSt7__cxx1112basic_stringIcSt11char_traitsIcESaIcEEESaIS5_EEC2ERKS6_, symObjAddr: 0xF84, symBinAddr: 0x100003BDC, symSize: 0x28 }
  - { offsetInCU: 0x15C73, offset: 0x15C73, size: 0x8, addend: 0x0, symName: __ZNSt15__new_allocatorINSt7__cxx1112basic_stringIcSt11char_traitsIcESaIcEEEED2Ev, symObjAddr: 0xF44, symBinAddr: 0x100003B9C, symSize: 0x14 }
  - { offsetInCU: 0x15C7B, offset: 0x15C7B, size: 0x8, addend: 0x0, symName: __ZNSt12_Vector_baseINSt7__cxx1112basic_stringIcSt11char_traitsIcESaIcEEESaIS5_EE12_Vector_implD1Ev, symObjAddr: 0xF58, symBinAddr: 0x100003BB0, symSize: 0x2C }
  - { offsetInCU: 0x15C69, offset: 0x15C69, size: 0x8, addend: 0x0, symName: __ZNSt8_Rb_treeINSt7__cxx1112basic_stringIcSt11char_traitsIcESaIcEEESt4pairIKS5_iESt10_Select1stIS8_ESt4lessIS5_ESaIS8_EE8_M_beginEv, symObjAddr: 0xF28, symBinAddr: 0x100003B80, symSize: 0x1C }
  - { offsetInCU: 0x15C71, offset: 0x15C71, size: 0x8, addend: 0x0, symName: __ZNSt15__new_allocatorINSt7__cxx1112basic_stringIcSt11char_traitsIcESaIcEEEED2Ev, symObjAddr: 0xF44, symBinAddr: 0x100003B9C, symSize: 0x14 }
  - { offsetInCU: 0x15C98, offset: 0x15C98, size: 0x8, addend: 0x0, symName: __ZNSt8_Rb_treeINSt7__cxx1112basic_stringIcSt11char_traitsIcESaIcEEESt4pairIKS5_iESt10_Select1stIS8_ESt4lessIS5_ESaIS8_EE8_M_eraseEPSt13_Rb_tree_nodeIS8_E, symObjAddr: 0xEC4, symBinAddr: 0x100003B1C, symSize: 0x64 }
  - { offsetInCU: 0x15CA0, offset: 0x15CA0, size: 0x8, addend: 0x0, symName: __ZNSt8_Rb_treeINSt7__cxx1112basic_stringIcSt11char_traitsIcESaIcEEESt4pairIKS5_iESt10_Select1stIS8_ESt4lessIS5_ESaIS8_EE8_M_beginEv, symObjAddr: 0xF28, symBinAddr: 0x100003B80, symSize: 0x1C }
  - { offsetInCU: 0x15D98, offset: 0x15D98, size: 0x8, addend: 0x0, symName: __ZNSt15__new_allocatorISt13_Rb_tree_nodeISt4pairIKNSt7__cxx1112basic_stringIcSt11char_traitsIcESaIcEEEiEEED2Ev, symObjAddr: 0xEB0, symBinAddr: 0x100003B08, symSize: 0x14 }
  - { offsetInCU: 0x15DA0, offset: 0x15DA0, size: 0x8, addend: 0x0, symName: __ZNSt8_Rb_treeINSt7__cxx1112basic_stringIcSt11char_traitsIcESaIcEEESt4pairIKS5_iESt10_Select1stIS8_ESt4lessIS5_ESaIS8_EE8_M_eraseEPSt13_Rb_tree_nodeIS8_E, symObjAddr: 0xEC4, symBinAddr: 0x100003B1C, symSize: 0x64 }
  - { offsetInCU: 0x15DCF, offset: 0x15DCF, size: 0x8, addend: 0x0, symName: __ZNSt20_Rb_tree_key_compareISt4lessINSt7__cxx1112basic_stringIcSt11char_traitsIcESaIcEEEEEC2Ev, symObjAddr: 0xE9C, symBinAddr: 0x100003AF4, symSize: 0x14 }
  - { offsetInCU: 0x15DD7, offset: 0x15DD7, size: 0x8, addend: 0x0, symName: __ZNSt15__new_allocatorISt13_Rb_tree_nodeISt4pairIKNSt7__cxx1112basic_stringIcSt11char_traitsIcESaIcEEEiEEED2Ev, symObjAddr: 0xEB0, symBinAddr: 0x100003B08, symSize: 0x14 }
  - { offsetInCU: 0x15DB7, offset: 0x15DB7, size: 0x8, addend: 0x0, symName: __ZNSt7__cxx1112basic_stringIcSt11char_traitsIcESaIcEE12_M_constructIPKcEEvT_S8_St20forward_iterator_tag, symObjAddr: 0xDB4, symBinAddr: 0x100003A0C, symSize: 0xE8 }
  - { offsetInCU: 0x15DBF, offset: 0x15DBF, size: 0x8, addend: 0x0, symName: __ZNSt20_Rb_tree_key_compareISt4lessINSt7__cxx1112basic_stringIcSt11char_traitsIcESaIcEEEEEC2Ev, symObjAddr: 0xE9C, symBinAddr: 0x100003AF4, symSize: 0x14 }
  - { offsetInCU: 0x15F70, offset: 0x15F70, size: 0x8, addend: 0x0, symName: __ZZNSt7__cxx1112basic_stringIcSt11char_traitsIcESaIcEE12_M_constructIPKcEEvT_S8_St20forward_iterator_tagEN6_GuardC1EPS4_, symObjAddr: 0xD5C, symBinAddr: 0x1000039B4, symSize: 0x24 }
  - { offsetInCU: 0x15F78, offset: 0x15F78, size: 0x8, addend: 0x0, symName: __ZZNSt7__cxx1112basic_stringIcSt11char_traitsIcESaIcEE12_M_constructIPKcEEvT_S8_St20forward_iterator_tagEN6_GuardD1Ev, symObjAddr: 0xD80, symBinAddr: 0x1000039D8, symSize: 0x34 }
  - { offsetInCU: 0x15FA8, offset: 0x15FA8, size: 0x8, addend: 0x0, symName: __ZZNSt7__cxx1112basic_stringIcSt11char_traitsIcESaIcEE12_M_constructIPKcEEvT_S8_St20forward_iterator_tagEN6_GuardD1Ev, symObjAddr: 0xD80, symBinAddr: 0x1000039D8, symSize: 0x34 }
  - { offsetInCU: 0x15FB0, offset: 0x15FB0, size: 0x8, addend: 0x0, symName: __ZNSt7__cxx1112basic_stringIcSt11char_traitsIcESaIcEE12_M_constructIPKcEEvT_S8_St20forward_iterator_tag, symObjAddr: 0xDB4, symBinAddr: 0x100003A0C, symSize: 0xE8 }
  - { offsetInCU: 0x16072, offset: 0x16072, size: 0x8, addend: 0x0, symName: __ZNSt15__new_allocatorIcED2Ev, symObjAddr: 0xD48, symBinAddr: 0x1000039A0, symSize: 0x14 }
  - { offsetInCU: 0x1607A, offset: 0x1607A, size: 0x8, addend: 0x0, symName: __ZZNSt7__cxx1112basic_stringIcSt11char_traitsIcESaIcEE12_M_constructIPKcEEvT_S8_St20forward_iterator_tagEN6_GuardC1EPS4_, symObjAddr: 0xD5C, symBinAddr: 0x1000039B4, symSize: 0x24 }
  - { offsetInCU: 0x1609B, offset: 0x1609B, size: 0x8, addend: 0x0, symName: __ZN9__gnu_cxx11char_traitsIcE2eqERKcS3_, symObjAddr: 0xD18, symBinAddr: 0x100003970, symSize: 0x30 }
  - { offsetInCU: 0x160A3, offset: 0x160A3, size: 0x8, addend: 0x0, symName: __ZNSt15__new_allocatorIcED2Ev, symObjAddr: 0xD48, symBinAddr: 0x1000039A0, symSize: 0x14 }
  - { offsetInCU: 0x160DF, offset: 0x160DF, size: 0x8, addend: 0x0, symName: __ZNSt6vectorISt4pairINSt7__cxx1112basic_stringIcSt11char_traitsIcESaIcEEEiESaIS7_EEixEm, symObjAddr: 0xCE4, symBinAddr: 0x10000393C, symSize: 0x34 }
  - { offsetInCU: 0x160E7, offset: 0x160E7, size: 0x8, addend: 0x0, symName: __ZN9__gnu_cxx11char_traitsIcE2eqERKcS3_, symObjAddr: 0xD18, symBinAddr: 0x100003970, symSize: 0x30 }
  - { offsetInCU: 0x16122, offset: 0x16122, size: 0x8, addend: 0x0, symName: __ZNKSt6vectorISt4pairINSt7__cxx1112basic_stringIcSt11char_traitsIcESaIcEEEiESaIS7_EE4sizeEv, symObjAddr: 0xCB0, symBinAddr: 0x100003908, symSize: 0x34 }
  - { offsetInCU: 0x1612A, offset: 0x1612A, size: 0x8, addend: 0x0, symName: __ZNSt6vectorISt4pairINSt7__cxx1112basic_stringIcSt11char_traitsIcESaIcEEEiESaIS7_EEixEm, symObjAddr: 0xCE4, symBinAddr: 0x10000393C, symSize: 0x34 }
  - { offsetInCU: 0x1626D, offset: 0x1626D, size: 0x8, addend: 0x0, symName: __ZSt4sortIN9__gnu_cxx17__normal_iteratorIPSt4pairINSt7__cxx1112basic_stringIcSt11char_traitsIcESaIcEEEiESt6vectorIS9_SaIS9_EEEEZ4mainEUlRKS9_SG_E_EvT_SI_T0_, symObjAddr: 0xC70, symBinAddr: 0x1000038C8, symSize: 0x40 }
  - { offsetInCU: 0x16275, offset: 0x16275, size: 0x8, addend: 0x0, symName: __ZNKSt6vectorISt4pairINSt7__cxx1112basic_stringIcSt11char_traitsIcESaIcEEEiESaIS7_EE4sizeEv, symObjAddr: 0xCB0, symBinAddr: 0x100003908, symSize: 0x34 }
  - { offsetInCU: 0x161C6, offset: 0x161C6, size: 0x8, addend: 0x0, symName: __ZNSt6vectorISt4pairINSt7__cxx1112basic_stringIcSt11char_traitsIcESaIcEEEiESaIS7_EE3endEv, symObjAddr: 0xC48, symBinAddr: 0x1000038A0, symSize: 0x28 }
  - { offsetInCU: 0x161CE, offset: 0x161CE, size: 0x8, addend: 0x0, symName: __ZSt4sortIN9__gnu_cxx17__normal_iteratorIPSt4pairINSt7__cxx1112basic_stringIcSt11char_traitsIcESaIcEEEiESt6vectorIS9_SaIS9_EEEEZ4mainEUlRKS9_SG_E_EvT_SI_T0_, symObjAddr: 0xC70, symBinAddr: 0x1000038C8, symSize: 0x40 }
  - { offsetInCU: 0x161F5, offset: 0x161F5, size: 0x8, addend: 0x0, symName: __ZNSt6vectorISt4pairINSt7__cxx1112basic_stringIcSt11char_traitsIcESaIcEEEiESaIS7_EE5beginEv, symObjAddr: 0xC24, symBinAddr: 0x10000387C, symSize: 0x24 }
  - { offsetInCU: 0x161FD, offset: 0x161FD, size: 0x8, addend: 0x0, symName: __ZNSt6vectorISt4pairINSt7__cxx1112basic_stringIcSt11char_traitsIcESaIcEEEiESaIS7_EE3endEv, symObjAddr: 0xC48, symBinAddr: 0x1000038A0, symSize: 0x28 }
  - { offsetInCU: 0x16224, offset: 0x16224, size: 0x8, addend: 0x0, symName: __ZNSt6vectorISt4pairINSt7__cxx1112basic_stringIcSt11char_traitsIcESaIcEEEiESaIS7_EE9push_backERKS7_, symObjAddr: 0xB1C, symBinAddr: 0x100003774, symSize: 0x108 }
  - { offsetInCU: 0x1622C, offset: 0x1622C, size: 0x8, addend: 0x0, symName: __ZNSt6vectorISt4pairINSt7__cxx1112basic_stringIcSt11char_traitsIcESaIcEEEiESaIS7_EE5beginEv, symObjAddr: 0xC24, symBinAddr: 0x10000387C, symSize: 0x24 }
  - { offsetInCU: 0x162E3, offset: 0x162E3, size: 0x8, addend: 0x0, symName: __ZNSt4pairINSt7__cxx1112basic_stringIcSt11char_traitsIcESaIcEEEiEaSEOS6_, symObjAddr: 0xAD4, symBinAddr: 0x10000372C, symSize: 0x48 }
  - { offsetInCU: 0x162EB, offset: 0x162EB, size: 0x8, addend: 0x0, symName: __ZNSt6vectorISt4pairINSt7__cxx1112basic_stringIcSt11char_traitsIcESaIcEEEiESaIS7_EE9push_backERKS7_, symObjAddr: 0xB1C, symBinAddr: 0x100003774, symSize: 0x108 }
  - { offsetInCU: 0x1640F, offset: 0x1640F, size: 0x8, addend: 0x0, symName: __ZSt9make_pairIRNSt7__cxx1112basic_stringIcSt11char_traitsIcESaIcEEERiESt4pairINSt25__strip_reference_wrapperINSt5decayIT_E4typeEE6__typeENS9_INSA_IT0_E4typeEE6__typeEEOSB_OSG_, symObjAddr: 0xA88, symBinAddr: 0x1000036E0, symSize: 0x4C }
  - { offsetInCU: 0x16417, offset: 0x16417, size: 0x8, addend: 0x0, symName: __ZNSt4pairINSt7__cxx1112basic_stringIcSt11char_traitsIcESaIcEEEiEaSEOS6_, symObjAddr: 0xAD4, symBinAddr: 0x10000372C, symSize: 0x48 }
  - { offsetInCU: 0x163B6, offset: 0x163B6, size: 0x8, addend: 0x0, symName: __ZSt3minIiERKT_S2_S2_, symObjAddr: 0xA50, symBinAddr: 0x1000036A8, symSize: 0x38 }
  - { offsetInCU: 0x163BE, offset: 0x163BE, size: 0x8, addend: 0x0, symName: __ZSt9make_pairIRNSt7__cxx1112basic_stringIcSt11char_traitsIcESaIcEEERiESt4pairINSt25__strip_reference_wrapperINSt5decayIT_E4typeEE6__typeENS9_INSA_IT0_E4typeEE6__typeEEOSB_OSG_, symObjAddr: 0xA88, symBinAddr: 0x1000036E0, symSize: 0x4C }
  - { offsetInCU: 0x163F0, offset: 0x163F0, size: 0x8, addend: 0x0, symName: __ZNK9__gnu_cxx17__normal_iteratorIPNSt7__cxx1112basic_stringIcSt11char_traitsIcESaIcEEESt6vectorIS6_SaIS6_EEEdeEv, symObjAddr: 0xA38, symBinAddr: 0x100003690, symSize: 0x18 }
  - { offsetInCU: 0x163F8, offset: 0x163F8, size: 0x8, addend: 0x0, symName: __ZSt3minIiERKT_S2_S2_, symObjAddr: 0xA50, symBinAddr: 0x1000036A8, symSize: 0x38 }
  - { offsetInCU: 0x1641F, offset: 0x1641F, size: 0x8, addend: 0x0, symName: __ZN9__gnu_cxx17__normal_iteratorIPNSt7__cxx1112basic_stringIcSt11char_traitsIcESaIcEEESt6vectorIS6_SaIS6_EEEppEv, symObjAddr: 0xA10, symBinAddr: 0x100003668, symSize: 0x28 }
  - { offsetInCU: 0x16427, offset: 0x16427, size: 0x8, addend: 0x0, symName: __ZNK9__gnu_cxx17__normal_iteratorIPNSt7__cxx1112basic_stringIcSt11char_traitsIcESaIcEEESt6vectorIS6_SaIS6_EEEdeEv, symObjAddr: 0xA38, symBinAddr: 0x100003690, symSize: 0x18 }
  - { offsetInCU: 0x16533, offset: 0x16533, size: 0x8, addend: 0x0, symName: __ZN9__gnu_cxxneIPNSt7__cxx1112basic_stringIcSt11char_traitsIcESaIcEEESt6vectorIS6_SaIS6_EEEEbRKNS_17__normal_iteratorIT_T0_EESG_, symObjAddr: 0x9CC, symBinAddr: 0x100003624, symSize: 0x44 }
  - { offsetInCU: 0x1653B, offset: 0x1653B, size: 0x8, addend: 0x0, symName: __ZN9__gnu_cxx17__normal_iteratorIPNSt7__cxx1112basic_stringIcSt11char_traitsIcESaIcEEESt6vectorIS6_SaIS6_EEEppEv, symObjAddr: 0xA10, symBinAddr: 0x100003668, symSize: 0x28 }
  - { offsetInCU: 0x164C5, offset: 0x164C5, size: 0x8, addend: 0x0, symName: __ZNSt6vectorINSt7__cxx1112basic_stringIcSt11char_traitsIcESaIcEEESaIS5_EE3endEv, symObjAddr: 0x9A4, symBinAddr: 0x1000035FC, symSize: 0x28 }
  - { offsetInCU: 0x164CD, offset: 0x164CD, size: 0x8, addend: 0x0, symName: __ZN9__gnu_cxxneIPNSt7__cxx1112basic_stringIcSt11char_traitsIcESaIcEEESt6vectorIS6_SaIS6_EEEEbRKNS_17__normal_iteratorIT_T0_EESG_, symObjAddr: 0x9CC, symBinAddr: 0x100003624, symSize: 0x44 }
  - { offsetInCU: 0x164F4, offset: 0x164F4, size: 0x8, addend: 0x0, symName: __ZNSt6vectorINSt7__cxx1112basic_stringIcSt11char_traitsIcESaIcEEESaIS5_EE5beginEv, symObjAddr: 0x980, symBinAddr: 0x1000035D8, symSize: 0x24 }
  - { offsetInCU: 0x164FC, offset: 0x164FC, size: 0x8, addend: 0x0, symName: __ZNSt6vectorINSt7__cxx1112basic_stringIcSt11char_traitsIcESaIcEEESaIS5_EE3endEv, symObjAddr: 0x9A4, symBinAddr: 0x1000035FC, symSize: 0x28 }
  - { offsetInCU: 0x16523, offset: 0x16523, size: 0x8, addend: 0x0, symName: __ZNSt3mapINSt7__cxx1112basic_stringIcSt11char_traitsIcESaIcEEEiSt4lessIS5_ESaISt4pairIKS5_iEEEixERS9_, symObjAddr: 0x88C, symBinAddr: 0x1000034E4, symSize: 0xF4 }
  - { offsetInCU: 0x1652B, offset: 0x1652B, size: 0x8, addend: 0x0, symName: __ZNSt6vectorINSt7__cxx1112basic_stringIcSt11char_traitsIcESaIcEEESaIS5_EE5beginEv, symObjAddr: 0x980, symBinAddr: 0x1000035D8, symSize: 0x24 }
  - { offsetInCU: 0x1661C, offset: 0x1661C, size: 0x8, addend: 0x0, symName: __ZNSt6vectorISt4pairINSt7__cxx1112basic_stringIcSt11char_traitsIcESaIcEEEiESaIS7_EEC1EmRKS8_, symObjAddr: 0x824, symBinAddr: 0x10000347C, symSize: 0x68 }
  - { offsetInCU: 0x16624, offset: 0x16624, size: 0x8, addend: 0x0, symName: __ZNSt3mapINSt7__cxx1112basic_stringIcSt11char_traitsIcESaIcEEEiSt4lessIS5_ESaISt4pairIKS5_iEEEixERS9_, symObjAddr: 0x88C, symBinAddr: 0x1000034E4, symSize: 0xF4 }
  - { offsetInCU: 0x16645, offset: 0x16645, size: 0x8, addend: 0x0, symName: __ZNKSt6vectorINSt7__cxx1112basic_stringIcSt11char_traitsIcESaIcEEESaIS5_EE4sizeEv, symObjAddr: 0x7FC, symBinAddr: 0x100003454, symSize: 0x28 }
  - { offsetInCU: 0x1664D, offset: 0x1664D, size: 0x8, addend: 0x0, symName: __ZNSt6vectorISt4pairINSt7__cxx1112basic_stringIcSt11char_traitsIcESaIcEEEiESaIS7_EEC1EmRKS8_, symObjAddr: 0x824, symBinAddr: 0x10000347C, symSize: 0x68 }
  - { offsetInCU: 0x1671A, offset: 0x1671A, size: 0x8, addend: 0x0, symName: __ZNSt6vectorINSt7__cxx1112basic_stringIcSt11char_traitsIcESaIcEEESaIS5_EEC1ESt16initializer_listIS5_ERKS6_, symObjAddr: 0x78C, symBinAddr: 0x1000033E4, symSize: 0x70 }
  - { offsetInCU: 0x16722, offset: 0x16722, size: 0x8, addend: 0x0, symName: __ZNKSt6vectorINSt7__cxx1112basic_stringIcSt11char_traitsIcESaIcEEESaIS5_EE4sizeEv, symObjAddr: 0x7FC, symBinAddr: 0x100003454, symSize: 0x28 }
  - { offsetInCU: 0x167CA, offset: 0x167CA, size: 0x8, addend: 0x0, symName: __ZNSt7__cxx1112basic_stringIcSt11char_traitsIcESaIcEEC1IS3_EEPKcRKS3_, symObjAddr: 0x6F0, symBinAddr: 0x100003348, symSize: 0x9C }
  - { offsetInCU: 0x167D2, offset: 0x167D2, size: 0x8, addend: 0x0, symName: __ZNSt6vectorINSt7__cxx1112basic_stringIcSt11char_traitsIcESaIcEEESaIS5_EEC1ESt16initializer_listIS5_ERKS6_, symObjAddr: 0x78C, symBinAddr: 0x1000033E4, symSize: 0x70 }
  - { offsetInCU: 0x168AB, offset: 0x168AB, size: 0x8, addend: 0x0, symName: __ZNSt8_Rb_treeINSt7__cxx1112basic_stringIcSt11char_traitsIcESaIcEEESt4pairIKS5_iESt10_Select1stIS8_ESt4lessIS5_ESaIS8_EED1Ev, symObjAddr: 0x6BC, symBinAddr: 0x100003314, symSize: 0x34 }
  - { offsetInCU: 0x168B3, offset: 0x168B3, size: 0x8, addend: 0x0, symName: __ZNSt7__cxx1112basic_stringIcSt11char_traitsIcESaIcEEC1IS3_EEPKcRKS3_, symObjAddr: 0x6F0, symBinAddr: 0x100003348, symSize: 0x9C }
  - { offsetInCU: 0x16931, offset: 0x16931, size: 0x8, addend: 0x0, symName: __ZNSt8_Rb_treeINSt7__cxx1112basic_stringIcSt11char_traitsIcESaIcEEESt4pairIKS5_iESt10_Select1stIS8_ESt4lessIS5_ESaIS8_EE13_Rb_tree_implISC_Lb1EEC1Ev, symObjAddr: 0x678, symBinAddr: 0x1000032D0, symSize: 0x44 }
  - { offsetInCU: 0x16939, offset: 0x16939, size: 0x8, addend: 0x0, symName: __ZNSt8_Rb_treeINSt7__cxx1112basic_stringIcSt11char_traitsIcESaIcEEESt4pairIKS5_iESt10_Select1stIS8_ESt4lessIS5_ESaIS8_EED1Ev, symObjAddr: 0x6BC, symBinAddr: 0x100003314, symSize: 0x34 }
  - { offsetInCU: 0x16989, offset: 0x16989, size: 0x8, addend: 0x0, symName: __ZNSt7__cxx1112basic_stringIcSt11char_traitsIcESaIcEE12_Alloc_hiderD1Ev, symObjAddr: 0x64C, symBinAddr: 0x1000032A4, symSize: 0x2C }
  - { offsetInCU: 0x16991, offset: 0x16991, size: 0x8, addend: 0x0, symName: __ZNSt8_Rb_treeINSt7__cxx1112basic_stringIcSt11char_traitsIcESaIcEEESt4pairIKS5_iESt10_Select1stIS8_ESt4lessIS5_ESaIS8_EE13_Rb_tree_implISC_Lb1EEC1Ev, symObjAddr: 0x678, symBinAddr: 0x1000032D0, symSize: 0x44 }
  - { offsetInCU: 0x169D5, offset: 0x169D5, size: 0x8, addend: 0x0, symName: __ZN9__gnu_cxx11char_traitsIcE6lengthEPKc, symObjAddr: 0x5F0, symBinAddr: 0x100003248, symSize: 0x5C }
  - { offsetInCU: 0x169DD, offset: 0x169DD, size: 0x8, addend: 0x0, symName: __ZNSt7__cxx1112basic_stringIcSt11char_traitsIcESaIcEE12_Alloc_hiderD1Ev, symObjAddr: 0x64C, symBinAddr: 0x1000032A4, symSize: 0x2C }
  - { offsetInCU: 0x16A23, offset: 0x16A23, size: 0x8, addend: 0x0, symName: _main, symObjAddr: 0x1C4, symBinAddr: 0x100002E1C, symSize: 0x42C }
  - { offsetInCU: 0x16A2B, offset: 0x16A2B, size: 0x8, addend: 0x0, symName: __ZN9__gnu_cxx11char_traitsIcE6lengthEPKc, symObjAddr: 0x5F0, symBinAddr: 0x100003248, symSize: 0x5C }
  - { offsetInCU: 0x16AE4, offset: 0x16AE4, size: 0x8, addend: 0x0, symName: __ZZ4mainENKUlRKSt4pairINSt7__cxx1112basic_stringIcSt11char_traitsIcESaIcEEEiES8_E_clES8_S8_, symObjAddr: 0x190, symBinAddr: 0x100002DE8, symSize: 0x34 }
  - { offsetInCU: 0x16AEC, offset: 0x16AEC, size: 0x8, addend: 0x0, symName: _main, symObjAddr: 0x1C4, symBinAddr: 0x100002E1C, symSize: 0x42C }
  - { offsetInCU: 0x16CBA, offset: 0x16CBA, size: 0x8, addend: 0x0, symName: __ZNSt4pairINSt7__cxx1112basic_stringIcSt11char_traitsIcESaIcEEEiED1Ev, symObjAddr: 0x170, symBinAddr: 0x100002DC8, symSize: 0x20 }
  - { offsetInCU: 0x16CC2, offset: 0x16CC2, size: 0x8, addend: 0x0, symName: __ZZ4mainENKUlRKSt4pairINSt7__cxx1112basic_stringIcSt11char_traitsIcESaIcEEEiES8_E_clES8_S8_, symObjAddr: 0x190, symBinAddr: 0x100002DE8, symSize: 0x34 }
  - { offsetInCU: 0x16D27, offset: 0x16D27, size: 0x8, addend: 0x0, symName: __ZNSt4pairINSt7__cxx1112basic_stringIcSt11char_traitsIcESaIcEEEiEC1IS5_iLb1EEEv, symObjAddr: 0x148, symBinAddr: 0x100002DA0, symSize: 0x28 }
  - { offsetInCU: 0x16D2F, offset: 0x16D2F, size: 0x8, addend: 0x0, symName: __ZNSt4pairINSt7__cxx1112basic_stringIcSt11char_traitsIcESaIcEEEiED1Ev, symObjAddr: 0x170, symBinAddr: 0x100002DC8, symSize: 0x20 }
  - { offsetInCU: 0x16D9D, offset: 0x16D9D, size: 0x8, addend: 0x0, symName: __ZNSt3mapINSt7__cxx1112basic_stringIcSt11char_traitsIcESaIcEEEiSt4lessIS5_ESaISt4pairIKS5_iEEEC1Ev, symObjAddr: 0x128, symBinAddr: 0x100002D80, symSize: 0x20 }
  - { offsetInCU: 0x16DA5, offset: 0x16DA5, size: 0x8, addend: 0x0, symName: __ZNSt4pairINSt7__cxx1112basic_stringIcSt11char_traitsIcESaIcEEEiEC1IS5_iLb1EEEv, symObjAddr: 0x148, symBinAddr: 0x100002DA0, symSize: 0x28 }
  - { offsetInCU: 0x16DFE, offset: 0x16DFE, size: 0x8, addend: 0x0, symName: __ZNSt8_Rb_treeINSt7__cxx1112basic_stringIcSt11char_traitsIcESaIcEEESt4pairIKS5_iESt10_Select1stIS8_ESt4lessIS5_ESaIS8_EEC1Ev, symObjAddr: 0x108, symBinAddr: 0x100002D60, symSize: 0x20 }
  - { offsetInCU: 0x16E06, offset: 0x16E06, size: 0x8, addend: 0x0, symName: __ZNSt3mapINSt7__cxx1112basic_stringIcSt11char_traitsIcESaIcEEEiSt4lessIS5_ESaISt4pairIKS5_iEEEC1Ev, symObjAddr: 0x128, symBinAddr: 0x100002D80, symSize: 0x20 }
  - { offsetInCU: 0x16E70, offset: 0x16E70, size: 0x8, addend: 0x0, symName: __ZNSt8_Rb_treeINSt7__cxx1112basic_stringIcSt11char_traitsIcESaIcEEESt4pairIKS5_iESt10_Select1stIS8_ESt4lessIS5_ESaIS8_EE13_Rb_tree_implISC_Lb1EED1Ev, symObjAddr: 0xDC, symBinAddr: 0x100002D34, symSize: 0x2C }
  - { offsetInCU: 0x16E78, offset: 0x16E78, size: 0x8, addend: 0x0, symName: __ZNSt8_Rb_treeINSt7__cxx1112basic_stringIcSt11char_traitsIcESaIcEEESt4pairIKS5_iESt10_Select1stIS8_ESt4lessIS5_ESaIS8_EEC1Ev, symObjAddr: 0x108, symBinAddr: 0x100002D60, symSize: 0x20 }
  - { offsetInCU: 0x16E2F, offset: 0x16E2F, size: 0x8, addend: 0x0, symName: __ZNSt15_Rb_tree_header8_M_resetEv, symObjAddr: 0xA0, symBinAddr: 0x100002CF8, symSize: 0x3C }
  - { offsetInCU: 0x16E37, offset: 0x16E37, size: 0x8, addend: 0x0, symName: __ZNSt8_Rb_treeINSt7__cxx1112basic_stringIcSt11char_traitsIcESaIcEEESt4pairIKS5_iESt10_Select1stIS8_ESt4lessIS5_ESaIS8_EE13_Rb_tree_implISC_Lb1EED1Ev, symObjAddr: 0xDC, symBinAddr: 0x100002D34, symSize: 0x2C }
  - { offsetInCU: 0x16E92, offset: 0x16E92, size: 0x8, addend: 0x0, symName: __ZNSt15_Rb_tree_headerC2Ev, symObjAddr: 0x78, symBinAddr: 0x100002CD0, symSize: 0x28 }
  - { offsetInCU: 0x16E9A, offset: 0x16E9A, size: 0x8, addend: 0x0, symName: __ZNSt15_Rb_tree_header8_M_resetEv, symObjAddr: 0xA0, symBinAddr: 0x100002CF8, symSize: 0x3C }
  - { offsetInCU: 0x16EA5, offset: 0x16EA5, size: 0x8, addend: 0x0, symName: __ZNSt11char_traitsIcE6lengthEPKc, symObjAddr: 0x38, symBinAddr: 0x100002C90, symSize: 0x40 }
  - { offsetInCU: 0x16EAD, offset: 0x16EAD, size: 0x8, addend: 0x0, symName: __ZNSt15_Rb_tree_headerC2Ev, symObjAddr: 0x78, symBinAddr: 0x100002CD0, symSize: 0x28 }
  - { offsetInCU: 0x16EE5, offset: 0x16EE5, size: 0x8, addend: 0x0, symName: __ZdlPvS_, symObjAddr: 0x20, symBinAddr: 0x100002C78, symSize: 0x18 }
  - { offsetInCU: 0x16EED, offset: 0x16EED, size: 0x8, addend: 0x0, symName: __ZNSt11char_traitsIcE6lengthEPKc, symObjAddr: 0x38, symBinAddr: 0x100002C90, symSize: 0x40 }
  - { offsetInCU: 0x16F22, offset: 0x16F22, size: 0x8, addend: 0x0, symName: __ZnwmPv, symObjAddr: 0x8, symBinAddr: 0x100002C60, symSize: 0x18 }
  - { offsetInCU: 0x16F2A, offset: 0x16F2A, size: 0x8, addend: 0x0, symName: __ZdlPvS_, symObjAddr: 0x20, symBinAddr: 0x100002C78, symSize: 0x18 }
  - { offsetInCU: 0x16F97, offset: 0x16F97, size: 0x8, addend: 0x0, symName: __ZSt23__is_constant_evaluatedv, symObjAddr: 0x0, symBinAddr: 0x100002C58, symSize: 0x8 }
  - { offsetInCU: 0x16F9F, offset: 0x16F9F, size: 0x8, addend: 0x0, symName: __ZnwmPv, symObjAddr: 0x8, symBinAddr: 0x100002C60, symSize: 0x18 }
...
