---
triple:          'arm64-apple-darwin'
binary-path:     '/Users/dingkai/Code/IOI2024/cses/SortingAndSearch/test.gout'
relocations:
  - { offsetInCU: 0xBA, offset: 0xBA, size: 0x8, addend: 0x0, symName: __ZN9__gnu_cxx5__ops16__iter_less_iterEv, symObjAddr: 0x0, symBinAddr: 0x100001198, symSize: 0x8 }
  - { offsetInCU: 0x38B0, offset: 0x38B0, size: 0x8, addend: 0x0, symName: __ZStL8__ioinit, symObjAddr: 0x50698, symBinAddr: 0x1000100AE, symSize: 0x0 }
  - { offsetInCU: 0x81C9, offset: 0x81C9, size: 0x8, addend: 0x0, symName: _msSmallDel, symObjAddr: 0x506A0, symBinAddr: 0x1000100B0, symSize: 0x0 }
  - { offsetInCU: 0x81E4, offset: 0x81E4, size: 0x8, addend: 0x0, symName: _msLargeDel, symObjAddr: 0x506D8, symBinAddr: 0x1000100E8, symSize: 0x0 }
  - { offsetInCU: 0x9B53, offset: 0x9B53, size: 0x8, addend: 0x0, symName: _prSmall, symObjAddr: 0x50710, symBinAddr: 0x100010120, symSize: 0x0 }
  - { offsetInCU: 0x9E62, offset: 0x9E62, size: 0x8, addend: 0x0, symName: _prLarge, symObjAddr: 0x50730, symBinAddr: 0x100010140, symSize: 0x0 }
  - { offsetInCU: 0x9E77, offset: 0x9E77, size: 0x8, addend: 0x0, symName: _x, symObjAddr: 0x50750, symBinAddr: 0x100010160, symSize: 0x0 }
  - { offsetInCU: 0xBF5C, offset: 0xBF5C, size: 0x8, addend: 0x0, symName: __ZNSt8__detail30__integer_to_chars_is_unsignedIjEE, symObjAddr: 0x63BE, symBinAddr: 0x10000826A, symSize: 0x0 }
  - { offsetInCU: 0xBF76, offset: 0xBF76, size: 0x8, addend: 0x0, symName: __ZNSt8__detail30__integer_to_chars_is_unsignedImEE, symObjAddr: 0x63BF, symBinAddr: 0x10000826B, symSize: 0x0 }
  - { offsetInCU: 0xBF90, offset: 0xBF90, size: 0x8, addend: 0x0, symName: __ZNSt8__detail30__integer_to_chars_is_unsignedIyEE, symObjAddr: 0x63C0, symBinAddr: 0x10000826C, symSize: 0x0 }
  - { offsetInCU: 0xBFB7, offset: 0xBFB7, size: 0x8, addend: 0x0, symName: __GLOBAL__sub_I_test.cpp, symObjAddr: 0x6278, symBinAddr: 0x100007410, symSize: 0x14 }
  - { offsetInCU: 0xBFE3, offset: 0xBFE3, size: 0x8, addend: 0x0, symName: __Z41__static_initialization_and_destruction_0v, symObjAddr: 0x6174, symBinAddr: 0x10000730C, symSize: 0x104 }
  - { offsetInCU: 0xBFEB, offset: 0xBFEB, size: 0x8, addend: 0x0, symName: __GLOBAL__sub_I_test.cpp, symObjAddr: 0x6278, symBinAddr: 0x100007410, symSize: 0x14 }
  - { offsetInCU: 0xC03B, offset: 0xC03B, size: 0x8, addend: 0x0, symName: __ZNSt14priority_queueIiSt6vectorIiSaIiEESt7greaterIiEED1Ev, symObjAddr: 0x6154, symBinAddr: 0x1000072EC, symSize: 0x20 }
  - { offsetInCU: 0xC043, offset: 0xC043, size: 0x8, addend: 0x0, symName: __Z41__static_initialization_and_destruction_0v, symObjAddr: 0x6174, symBinAddr: 0x10000730C, symSize: 0x104 }
  - { offsetInCU: 0xC091, offset: 0xC091, size: 0x8, addend: 0x0, symName: __ZNSt14priority_queueIiSt6vectorIiSaIiEESt4lessIiEED1Ev, symObjAddr: 0x6134, symBinAddr: 0x1000072CC, symSize: 0x20 }
  - { offsetInCU: 0xC099, offset: 0xC099, size: 0x8, addend: 0x0, symName: __ZNSt14priority_queueIiSt6vectorIiSaIiEESt7greaterIiEED1Ev, symObjAddr: 0x6154, symBinAddr: 0x1000072EC, symSize: 0x20 }
  - { offsetInCU: 0xC0EA, offset: 0xC0EA, size: 0x8, addend: 0x0, symName: __ZNSt13unordered_setIiSt4hashIiESt8equal_toIiESaIiEED1Ev, symObjAddr: 0x6114, symBinAddr: 0x1000072AC, symSize: 0x20 }
  - { offsetInCU: 0xC0F2, offset: 0xC0F2, size: 0x8, addend: 0x0, symName: __ZNSt14priority_queueIiSt6vectorIiSaIiEESt4lessIiEED1Ev, symObjAddr: 0x6134, symBinAddr: 0x1000072CC, symSize: 0x20 }
  - { offsetInCU: 0xC0F8, offset: 0xC0F8, size: 0x8, addend: 0x0, symName: __ZNSt15__new_allocatorIPNSt8__detail15_Hash_node_baseEE8allocateEmPKv, symObjAddr: 0x6098, symBinAddr: 0x100007230, symSize: 0x7C }
  - { offsetInCU: 0xC100, offset: 0xC100, size: 0x8, addend: 0x0, symName: __ZNSt13unordered_setIiSt4hashIiESt8equal_toIiESaIiEED1Ev, symObjAddr: 0x6114, symBinAddr: 0x1000072AC, symSize: 0x20 }
  - { offsetInCU: 0xC1EA, offset: 0xC1EA, size: 0x8, addend: 0x0, symName: __ZSt12__to_addressIPNSt8__detail15_Hash_node_baseEEPT_S4_, symObjAddr: 0x6084, symBinAddr: 0x10000721C, symSize: 0x14 }
  - { offsetInCU: 0xC1F2, offset: 0xC1F2, size: 0x8, addend: 0x0, symName: __ZNSt15__new_allocatorIPNSt8__detail15_Hash_node_baseEE8allocateEmPKv, symObjAddr: 0x6098, symBinAddr: 0x100007230, symSize: 0x7C }
  - { offsetInCU: 0xC20E, offset: 0xC20E, size: 0x8, addend: 0x0, symName: __ZNSt11__copy_moveILb0ELb0ESt26random_access_iterator_tagE12__assign_oneIiiEEvPT_PT0_, symObjAddr: 0x605C, symBinAddr: 0x1000071F4, symSize: 0x28 }
  - { offsetInCU: 0xC216, offset: 0xC216, size: 0x8, addend: 0x0, symName: __ZSt12__to_addressIPNSt8__detail15_Hash_node_baseEEPT_S4_, symObjAddr: 0x6084, symBinAddr: 0x10000721C, symSize: 0x14 }
  - { offsetInCU: 0xC26E, offset: 0xC26E, size: 0x8, addend: 0x0, symName: __ZNSt8__detail16_Hashtable_allocISaINS_10_Hash_nodeIiLb0EEEEE19_M_allocate_bucketsEm, symObjAddr: 0x5FA4, symBinAddr: 0x10000713C, symSize: 0xB8 }
  - { offsetInCU: 0xC276, offset: 0xC276, size: 0x8, addend: 0x0, symName: __ZNSt11__copy_moveILb0ELb0ESt26random_access_iterator_tagE12__assign_oneIiiEEvPT_PT0_, symObjAddr: 0x605C, symBinAddr: 0x1000071F4, symSize: 0x28 }
  - { offsetInCU: 0xC40A, offset: 0xC40A, size: 0x8, addend: 0x0, symName: __ZNSt15__new_allocatorINSt8__detail10_Hash_nodeIiLb0EEEE8allocateEmPKv, symObjAddr: 0x5F28, symBinAddr: 0x1000070C0, symSize: 0x7C }
  - { offsetInCU: 0xC412, offset: 0xC412, size: 0x8, addend: 0x0, symName: __ZNSt8__detail16_Hashtable_allocISaINS_10_Hash_nodeIiLb0EEEEE19_M_allocate_bucketsEm, symObjAddr: 0x5FA4, symBinAddr: 0x10000713C, symSize: 0xB8 }
  - { offsetInCU: 0xC490, offset: 0xC490, size: 0x8, addend: 0x0, symName: __ZNSt11__copy_moveILb1ELb0ESt26random_access_iterator_tagE12__assign_oneIiiEEvPT_PT0_, symObjAddr: 0x5EF8, symBinAddr: 0x100007090, symSize: 0x30 }
  - { offsetInCU: 0xC498, offset: 0xC498, size: 0x8, addend: 0x0, symName: __ZNSt15__new_allocatorINSt8__detail10_Hash_nodeIiLb0EEEE8allocateEmPKv, symObjAddr: 0x5F28, symBinAddr: 0x1000070C0, symSize: 0x7C }
  - { offsetInCU: 0xC4F0, offset: 0xC4F0, size: 0x8, addend: 0x0, symName: __ZNSt11__copy_moveILb0ELb1ESt26random_access_iterator_tagE8__copy_mIiiEEPT0_PT_S6_S4_, symObjAddr: 0x5E68, symBinAddr: 0x100007000, symSize: 0x90 }
  - { offsetInCU: 0xC4F8, offset: 0xC4F8, size: 0x8, addend: 0x0, symName: __ZNSt11__copy_moveILb1ELb0ESt26random_access_iterator_tagE12__assign_oneIiiEEvPT_PT0_, symObjAddr: 0x5EF8, symBinAddr: 0x100007090, symSize: 0x30 }
  - { offsetInCU: 0xC578, offset: 0xC578, size: 0x8, addend: 0x0, symName: __ZNSt10_HashtableIiiSaIiENSt8__detail9_IdentityESt8equal_toIiESt4hashIiENS1_18_Mod_range_hashingENS1_20_Default_ranged_hashENS1_20_Prime_rehash_policyENS1_17_Hashtable_traitsILb0ELb1ELb1EEEE19_M_allocate_bucketsEm, symObjAddr: 0x5E10, symBinAddr: 0x100006FA8, symSize: 0x58 }
  - { offsetInCU: 0xC580, offset: 0xC580, size: 0x8, addend: 0x0, symName: __ZNSt11__copy_moveILb0ELb1ESt26random_access_iterator_tagE8__copy_mIiiEEPT0_PT_S6_S4_, symObjAddr: 0x5E68, symBinAddr: 0x100007000, symSize: 0x90 }
  - { offsetInCU: 0xC687, offset: 0xC687, size: 0x8, addend: 0x0, symName: __ZSt12__to_addressINSt8__detail10_Hash_nodeIiLb0EEEEPT_S4_, symObjAddr: 0x5DFC, symBinAddr: 0x100006F94, symSize: 0x14 }
  - { offsetInCU: 0xC68F, offset: 0xC68F, size: 0x8, addend: 0x0, symName: __ZNSt10_HashtableIiiSaIiENSt8__detail9_IdentityESt8equal_toIiESt4hashIiENS1_18_Mod_range_hashingENS1_20_Default_ranged_hashENS1_20_Prime_rehash_policyENS1_17_Hashtable_traitsILb0ELb1ELb1EEEE19_M_allocate_bucketsEm, symObjAddr: 0x5E10, symBinAddr: 0x100006FA8, symSize: 0x58 }
  - { offsetInCU: 0xC68A, offset: 0xC68A, size: 0x8, addend: 0x0, symName: __ZNSt20__copy_move_backwardILb1ELb1ESt26random_access_iterator_tagE13__copy_move_bIiiEEPT0_PT_S6_S4_, symObjAddr: 0x5D50, symBinAddr: 0x100006EE8, symSize: 0xAC }
  - { offsetInCU: 0xC692, offset: 0xC692, size: 0x8, addend: 0x0, symName: __ZSt12__to_addressINSt8__detail10_Hash_nodeIiLb0EEEEPT_S4_, symObjAddr: 0x5DFC, symBinAddr: 0x100006F94, symSize: 0x14 }
  - { offsetInCU: 0xC725, offset: 0xC725, size: 0x8, addend: 0x0, symName: __ZNK9__gnu_cxx5__ops14_Iter_less_valclINS_17__normal_iteratorIPiSt6vectorIiSaIiEEEEiEEbT_RT0_, symObjAddr: 0x5D14, symBinAddr: 0x100006EAC, symSize: 0x3C }
  - { offsetInCU: 0xC72D, offset: 0xC72D, size: 0x8, addend: 0x0, symName: __ZNSt20__copy_move_backwardILb1ELb1ESt26random_access_iterator_tagE13__copy_move_bIiiEEPT0_PT_S6_S4_, symObjAddr: 0x5D50, symBinAddr: 0x100006EE8, symSize: 0xAC }
  - { offsetInCU: 0xC7E7, offset: 0xC7E7, size: 0x8, addend: 0x0, symName: __ZSt14__copy_move_a2ILb0EPiS0_ET1_T0_S2_S1_, symObjAddr: 0x5CE8, symBinAddr: 0x100006E80, symSize: 0x2C }
  - { offsetInCU: 0xC7EF, offset: 0xC7EF, size: 0x8, addend: 0x0, symName: __ZNK9__gnu_cxx5__ops14_Iter_less_valclINS_17__normal_iteratorIPiSt6vectorIiSaIiEEEEiEEbT_RT0_, symObjAddr: 0x5D14, symBinAddr: 0x100006EAC, symSize: 0x3C }
  - { offsetInCU: 0xC89A, offset: 0xC89A, size: 0x8, addend: 0x0, symName: __ZSt9__fill_a1IPiiEN9__gnu_cxx11__enable_ifIXsrSt11__is_scalarIT0_E7__valueEvE6__typeET_S8_RKS4_, symObjAddr: 0x5C90, symBinAddr: 0x100006E28, symSize: 0x58 }
  - { offsetInCU: 0xC8A2, offset: 0xC8A2, size: 0x8, addend: 0x0, symName: __ZSt14__copy_move_a2ILb0EPiS0_ET1_T0_S2_S1_, symObjAddr: 0x5CE8, symBinAddr: 0x100006E80, symSize: 0x2C }
  - { offsetInCU: 0xC8B0, offset: 0xC8B0, size: 0x8, addend: 0x0, symName: __ZNSt10_HashtableIiiSaIiENSt8__detail9_IdentityESt8equal_toIiESt4hashIiENS1_18_Mod_range_hashingENS1_20_Default_ranged_hashENS1_20_Prime_rehash_policyENS1_17_Hashtable_traitsILb0ELb1ELb1EEEE13_M_rehash_auxEmSt17integral_constantIbLb1EE, symObjAddr: 0x5B24, symBinAddr: 0x100006CBC, symSize: 0x16C }
  - { offsetInCU: 0xC8B8, offset: 0xC8B8, size: 0x8, addend: 0x0, symName: __ZSt9__fill_a1IPiiEN9__gnu_cxx11__enable_ifIXsrSt11__is_scalarIT0_E7__valueEvE6__typeET_S8_RKS4_, symObjAddr: 0x5C90, symBinAddr: 0x100006E28, symSize: 0x58 }
  - { offsetInCU: 0xC976, offset: 0xC976, size: 0x8, addend: 0x0, symName: __ZNSt8__detail16_Hashtable_allocISaINS_10_Hash_nodeIiLb0EEEEE16_M_allocate_nodeIJRKiEEEPS2_DpOT_, symObjAddr: 0x5A38, symBinAddr: 0x100006BD0, symSize: 0xEC }
  - { offsetInCU: 0xC97E, offset: 0xC97E, size: 0x8, addend: 0x0, symName: __ZNSt10_HashtableIiiSaIiENSt8__detail9_IdentityESt8equal_toIiESt4hashIiENS1_18_Mod_range_hashingENS1_20_Default_ranged_hashENS1_20_Prime_rehash_policyENS1_17_Hashtable_traitsILb0ELb1ELb1EEEE13_M_rehash_auxEmSt17integral_constantIbLb1EE, symObjAddr: 0x5B24, symBinAddr: 0x100006CBC, symSize: 0x16C }
  - { offsetInCU: 0xCAE3, offset: 0xCAE3, size: 0x8, addend: 0x0, symName: __ZNSt8__detail10_Hash_nodeIiLb0EEC1Ev, symObjAddr: 0x5A18, symBinAddr: 0x100006BB0, symSize: 0x20 }
  - { offsetInCU: 0xCAEB, offset: 0xCAEB, size: 0x8, addend: 0x0, symName: __ZNSt8__detail16_Hashtable_allocISaINS_10_Hash_nodeIiLb0EEEEE16_M_allocate_nodeIJRKiEEEPS2_DpOT_, symObjAddr: 0x5A38, symBinAddr: 0x100006BD0, symSize: 0xEC }
  - { offsetInCU: 0xCAEB, offset: 0xCAEB, size: 0x8, addend: 0x0, symName: __ZNKSt8__detail15_Hashtable_baseIiiNS_9_IdentityESt8equal_toIiESt4hashIiENS_18_Mod_range_hashingENS_20_Default_ranged_hashENS_17_Hashtable_traitsILb0ELb1ELb1EEEE12_M_equals_trIiEEbRKT_mRKNS_16_Hash_node_valueIiLb0EEE, symObjAddr: 0x59B0, symBinAddr: 0x100006B48, symSize: 0x68 }
  - { offsetInCU: 0xCAF3, offset: 0xCAF3, size: 0x8, addend: 0x0, symName: __ZNSt8__detail10_Hash_nodeIiLb0EEC1Ev, symObjAddr: 0x5A18, symBinAddr: 0x100006BB0, symSize: 0x20 }
  - { offsetInCU: 0xCBC7, offset: 0xCBC7, size: 0x8, addend: 0x0, symName: __ZSt23__copy_move_backward_a2ILb1EPiS0_ET1_T0_S2_S1_, symObjAddr: 0x5984, symBinAddr: 0x100006B1C, symSize: 0x2C }
  - { offsetInCU: 0xCBCF, offset: 0xCBCF, size: 0x8, addend: 0x0, symName: __ZNKSt8__detail15_Hashtable_baseIiiNS_9_IdentityESt8equal_toIiESt4hashIiENS_18_Mod_range_hashingENS_20_Default_ranged_hashENS_17_Hashtable_traitsILb0ELb1ELb1EEEE12_M_equals_trIiEEbRKT_mRKNS_16_Hash_node_valueIiLb0EEE, symObjAddr: 0x59B0, symBinAddr: 0x100006B48, symSize: 0x68 }
  - { offsetInCU: 0xCCF1, offset: 0xCCF1, size: 0x8, addend: 0x0, symName: __ZSt11__push_heapIN9__gnu_cxx17__normal_iteratorIPiSt6vectorIiSaIiEEEEliNS0_5__ops14_Iter_less_valEEvT_T0_SA_T1_RT2_, symObjAddr: 0x585C, symBinAddr: 0x1000069F4, symSize: 0x128 }
  - { offsetInCU: 0xCCF9, offset: 0xCCF9, size: 0x8, addend: 0x0, symName: __ZSt23__copy_move_backward_a2ILb1EPiS0_ET1_T0_S2_S1_, symObjAddr: 0x5984, symBinAddr: 0x100006B1C, symSize: 0x2C }
  - { offsetInCU: 0xCD46, offset: 0xCD46, size: 0x8, addend: 0x0, symName: __ZSt4moveIRN9__gnu_cxx5__ops15_Iter_less_iterEEONSt16remove_referenceIT_E4typeEOS5_, symObjAddr: 0x5848, symBinAddr: 0x1000069E0, symSize: 0x14 }
  - { offsetInCU: 0xCD4E, offset: 0xCD4E, size: 0x8, addend: 0x0, symName: __ZSt11__push_heapIN9__gnu_cxx17__normal_iteratorIPiSt6vectorIiSaIiEEEEliNS0_5__ops14_Iter_less_valEEvT_T0_SA_T1_RT2_, symObjAddr: 0x585C, symBinAddr: 0x1000069F4, symSize: 0x128 }
  - { offsetInCU: 0xCD5C, offset: 0xCD5C, size: 0x8, addend: 0x0, symName: __ZSt12__niter_wrapIPiET_RKS1_S1_, symObjAddr: 0x5830, symBinAddr: 0x1000069C8, symSize: 0x18 }
  - { offsetInCU: 0xCD64, offset: 0xCD64, size: 0x8, addend: 0x0, symName: __ZSt4moveIRN9__gnu_cxx5__ops15_Iter_less_iterEEONSt16remove_referenceIT_E4typeEOS5_, symObjAddr: 0x5848, symBinAddr: 0x1000069E0, symSize: 0x14 }
  - { offsetInCU: 0xCDCE, offset: 0xCDCE, size: 0x8, addend: 0x0, symName: __ZSt14__copy_move_a1ILb0EPiS0_ET1_T0_S2_S1_, symObjAddr: 0x5804, symBinAddr: 0x10000699C, symSize: 0x2C }
  - { offsetInCU: 0xCDD6, offset: 0xCDD6, size: 0x8, addend: 0x0, symName: __ZSt12__niter_wrapIPiET_RKS1_S1_, symObjAddr: 0x5830, symBinAddr: 0x1000069C8, symSize: 0x18 }
  - { offsetInCU: 0xCE3D, offset: 0xCE3D, size: 0x8, addend: 0x0, symName: __ZSt8__fill_aIPiiEvT_S1_RKT0_, symObjAddr: 0x57D4, symBinAddr: 0x10000696C, symSize: 0x30 }
  - { offsetInCU: 0xCE45, offset: 0xCE45, size: 0x8, addend: 0x0, symName: __ZSt14__copy_move_a1ILb0EPiS0_ET1_T0_S2_S1_, symObjAddr: 0x5804, symBinAddr: 0x10000699C, symSize: 0x2C }
  - { offsetInCU: 0xCEF6, offset: 0xCEF6, size: 0x8, addend: 0x0, symName: __ZSt11__addressofINSt8__detail10_Hash_nodeIiLb0EEEEPT_RS3_, symObjAddr: 0x57C0, symBinAddr: 0x100006958, symSize: 0x14 }
  - { offsetInCU: 0xCEFE, offset: 0xCEFE, size: 0x8, addend: 0x0, symName: __ZSt8__fill_aIPiiEvT_S1_RKT0_, symObjAddr: 0x57D4, symBinAddr: 0x10000696C, symSize: 0x30 }
  - { offsetInCU: 0xCECD, offset: 0xCECD, size: 0x8, addend: 0x0, symName: __ZNSt10_HashtableIiiSaIiENSt8__detail9_IdentityESt8equal_toIiESt4hashIiENS1_18_Mod_range_hashingENS1_20_Default_ranged_hashENS1_20_Prime_rehash_policyENS1_17_Hashtable_traitsILb0ELb1ELb1EEEE22_M_insert_bucket_beginEmPNS1_10_Hash_nodeIiLb0EEE, symObjAddr: 0x56B4, symBinAddr: 0x10000684C, symSize: 0x10C }
  - { offsetInCU: 0xCED5, offset: 0xCED5, size: 0x8, addend: 0x0, symName: __ZSt11__addressofINSt8__detail10_Hash_nodeIiLb0EEEEPT_RS3_, symObjAddr: 0x57C0, symBinAddr: 0x100006958, symSize: 0x14 }
  - { offsetInCU: 0xCF24, offset: 0xCF24, size: 0x8, addend: 0x0, symName: __ZNKSt8__detail15_Hash_code_baseIiiNS_9_IdentityESt4hashIiENS_18_Mod_range_hashingENS_20_Default_ranged_hashELb0EE13_M_store_codeERNS_21_Hash_node_code_cacheILb0EEEm, symObjAddr: 0x5698, symBinAddr: 0x100006830, symSize: 0x1C }
  - { offsetInCU: 0xCF2C, offset: 0xCF2C, size: 0x8, addend: 0x0, symName: __ZNSt10_HashtableIiiSaIiENSt8__detail9_IdentityESt8equal_toIiESt4hashIiENS1_18_Mod_range_hashingENS1_20_Default_ranged_hashENS1_20_Prime_rehash_policyENS1_17_Hashtable_traitsILb0ELb1ELb1EEEE22_M_insert_bucket_beginEmPNS1_10_Hash_nodeIiLb0EEE, symObjAddr: 0x56B4, symBinAddr: 0x10000684C, symSize: 0x10C }
  - { offsetInCU: 0xCF6B, offset: 0xCF6B, size: 0x8, addend: 0x0, symName: __ZNSt10_HashtableIiiSaIiENSt8__detail9_IdentityESt8equal_toIiESt4hashIiENS1_18_Mod_range_hashingENS1_20_Default_ranged_hashENS1_20_Prime_rehash_policyENS1_17_Hashtable_traitsILb0ELb1ELb1EEEE9_M_rehashEmRKm, symObjAddr: 0x562C, symBinAddr: 0x1000067C4, symSize: 0x6C }
  - { offsetInCU: 0xCF73, offset: 0xCF73, size: 0x8, addend: 0x0, symName: __ZNKSt8__detail15_Hash_code_baseIiiNS_9_IdentityESt4hashIiENS_18_Mod_range_hashingENS_20_Default_ranged_hashELb0EE13_M_store_codeERNS_21_Hash_node_code_cacheILb0EEEm, symObjAddr: 0x5698, symBinAddr: 0x100006830, symSize: 0x1C }
  - { offsetInCU: 0xCFDF, offset: 0xCFDF, size: 0x8, addend: 0x0, symName: __ZNKSt8__detail10_AllocNodeISaINS_10_Hash_nodeIiLb0EEEEEclIJRKiEEEPS2_DpOT_, symObjAddr: 0x55F0, symBinAddr: 0x100006788, symSize: 0x3C }
  - { offsetInCU: 0xCFE7, offset: 0xCFE7, size: 0x8, addend: 0x0, symName: __ZNSt10_HashtableIiiSaIiENSt8__detail9_IdentityESt8equal_toIiESt4hashIiENS1_18_Mod_range_hashingENS1_20_Default_ranged_hashENS1_20_Prime_rehash_policyENS1_17_Hashtable_traitsILb0ELb1ELb1EEEE9_M_rehashEmRKm, symObjAddr: 0x562C, symBinAddr: 0x1000067C4, symSize: 0x6C }
  - { offsetInCU: 0xD0C7, offset: 0xD0C7, size: 0x8, addend: 0x0, symName: __ZSt7forwardINSt8__detail14_Node_iteratorIiLb1ELb0EEEEOT_RNSt16remove_referenceIS3_E4typeE, symObjAddr: 0x55DC, symBinAddr: 0x100006774, symSize: 0x14 }
  - { offsetInCU: 0xD0CF, offset: 0xD0CF, size: 0x8, addend: 0x0, symName: __ZNKSt8__detail10_AllocNodeISaINS_10_Hash_nodeIiLb0EEEEEclIJRKiEEEPS2_DpOT_, symObjAddr: 0x55F0, symBinAddr: 0x100006788, symSize: 0x3C }
  - { offsetInCU: 0xD082, offset: 0xD082, size: 0x8, addend: 0x0, symName: __ZNKSt10_HashtableIiiSaIiENSt8__detail9_IdentityESt8equal_toIiESt4hashIiENS1_18_Mod_range_hashingENS1_20_Default_ranged_hashENS1_20_Prime_rehash_policyENS1_17_Hashtable_traitsILb0ELb1ELb1EEEE22_M_find_before_node_trIiEEPNS1_15_Hash_node_baseEmRKT_m, symObjAddr: 0x54DC, symBinAddr: 0x100006674, symSize: 0x100 }
  - { offsetInCU: 0xD08A, offset: 0xD08A, size: 0x8, addend: 0x0, symName: __ZSt7forwardINSt8__detail14_Node_iteratorIiLb1ELb0EEEEOT_RNSt16remove_referenceIS3_E4typeE, symObjAddr: 0x55DC, symBinAddr: 0x100006774, symSize: 0x14 }
  - { offsetInCU: 0xD1CE, offset: 0xD1CE, size: 0x8, addend: 0x0, symName: __ZSt7forwardIRNSt8__detail14_Node_iteratorIiLb1ELb0EEEEOT_RNSt16remove_referenceIS4_E4typeE, symObjAddr: 0x54C8, symBinAddr: 0x100006660, symSize: 0x14 }
  - { offsetInCU: 0xD1D6, offset: 0xD1D6, size: 0x8, addend: 0x0, symName: __ZNKSt10_HashtableIiiSaIiENSt8__detail9_IdentityESt8equal_toIiESt4hashIiENS1_18_Mod_range_hashingENS1_20_Default_ranged_hashENS1_20_Prime_rehash_policyENS1_17_Hashtable_traitsILb0ELb1ELb1EEEE22_M_find_before_node_trIiEEPNS1_15_Hash_node_baseEmRKT_m, symObjAddr: 0x54DC, symBinAddr: 0x100006674, symSize: 0x100 }
  - { offsetInCU: 0xD241, offset: 0xD241, size: 0x8, addend: 0x0, symName: __ZSt12__niter_wrapIN9__gnu_cxx17__normal_iteratorIPiSt6vectorIiSaIiEEEES2_ET_S7_T0_, symObjAddr: 0x548C, symBinAddr: 0x100006624, symSize: 0x3C }
  - { offsetInCU: 0xD249, offset: 0xD249, size: 0x8, addend: 0x0, symName: __ZSt7forwardIRNSt8__detail14_Node_iteratorIiLb1ELb0EEEEOT_RNSt16remove_referenceIS4_E4typeE, symObjAddr: 0x54C8, symBinAddr: 0x100006660, symSize: 0x14 }
  - { offsetInCU: 0xD259, offset: 0xD259, size: 0x8, addend: 0x0, symName: __ZSt23__copy_move_backward_a1ILb1EPiS0_ET1_T0_S2_S1_, symObjAddr: 0x5460, symBinAddr: 0x1000065F8, symSize: 0x2C }
  - { offsetInCU: 0xD261, offset: 0xD261, size: 0x8, addend: 0x0, symName: __ZSt12__niter_wrapIN9__gnu_cxx17__normal_iteratorIPiSt6vectorIiSaIiEEEES2_ET_S7_T0_, symObjAddr: 0x548C, symBinAddr: 0x100006624, symSize: 0x3C }
  - { offsetInCU: 0xD316, offset: 0xD316, size: 0x8, addend: 0x0, symName: __ZSt12__niter_baseIPiSt6vectorIiSaIiEEET_N9__gnu_cxx17__normal_iteratorIS4_T0_EE, symObjAddr: 0x5440, symBinAddr: 0x1000065D8, symSize: 0x20 }
  - { offsetInCU: 0xD31E, offset: 0xD31E, size: 0x8, addend: 0x0, symName: __ZSt23__copy_move_backward_a1ILb1EPiS0_ET1_T0_S2_S1_, symObjAddr: 0x5460, symBinAddr: 0x1000065F8, symSize: 0x2C }
  - { offsetInCU: 0xD383, offset: 0xD383, size: 0x8, addend: 0x0, symName: __ZSt4swapIiENSt9enable_ifIXsrSt6__and_IJSt6__not_ISt15__is_tuple_likeIT_EESt21is_move_constructibleIS4_ESt18is_move_assignableIS4_EEE5valueEvE4typeERS4_SE_, symObjAddr: 0x53EC, symBinAddr: 0x100006584, symSize: 0x54 }
  - { offsetInCU: 0xD38B, offset: 0xD38B, size: 0x8, addend: 0x0, symName: __ZSt12__niter_baseIPiSt6vectorIiSaIiEEET_N9__gnu_cxx17__normal_iteratorIS4_T0_EE, symObjAddr: 0x5440, symBinAddr: 0x1000065D8, symSize: 0x20 }
  - { offsetInCU: 0xD449, offset: 0xD449, size: 0x8, addend: 0x0, symName: __ZSt13__adjust_heapIN9__gnu_cxx17__normal_iteratorIPiSt6vectorIiSaIiEEEEliNS0_5__ops15_Iter_less_iterEEvT_T0_SA_T1_T2_, symObjAddr: 0x5214, symBinAddr: 0x1000063AC, symSize: 0x1D8 }
  - { offsetInCU: 0xD451, offset: 0xD451, size: 0x8, addend: 0x0, symName: __ZSt4swapIiENSt9enable_ifIXsrSt6__and_IJSt6__not_ISt15__is_tuple_likeIT_EESt21is_move_constructibleIS4_ESt18is_move_assignableIS4_EEE5valueEvE4typeERS4_SE_, symObjAddr: 0x53EC, symBinAddr: 0x100006584, symSize: 0x54 }
  - { offsetInCU: 0xD502, offset: 0xD502, size: 0x8, addend: 0x0, symName: __ZSt13__copy_move_aILb0EN9__gnu_cxx17__normal_iteratorIPiSt6vectorIiSaIiEEEES2_ET1_T0_S8_S7_, symObjAddr: 0x51B4, symBinAddr: 0x10000634C, symSize: 0x60 }
  - { offsetInCU: 0xD50A, offset: 0xD50A, size: 0x8, addend: 0x0, symName: __ZSt13__adjust_heapIN9__gnu_cxx17__normal_iteratorIPiSt6vectorIiSaIiEEEEliNS0_5__ops15_Iter_less_iterEEvT_T0_SA_T1_T2_, symObjAddr: 0x5214, symBinAddr: 0x1000063AC, symSize: 0x1D8 }
  - { offsetInCU: 0xD537, offset: 0xD537, size: 0x8, addend: 0x0, symName: __ZSt10__fill_n_aIPimiET_S1_T0_RKT1_St26random_access_iterator_tag, symObjAddr: 0x5150, symBinAddr: 0x1000062E8, symSize: 0x64 }
  - { offsetInCU: 0xD53F, offset: 0xD53F, size: 0x8, addend: 0x0, symName: __ZSt13__copy_move_aILb0EN9__gnu_cxx17__normal_iteratorIPiSt6vectorIiSaIiEEEES2_ET1_T0_S8_S7_, symObjAddr: 0x51B4, symBinAddr: 0x10000634C, symSize: 0x60 }
  - { offsetInCU: 0xD593, offset: 0xD593, size: 0x8, addend: 0x0, symName: __ZNK9__gnu_cxx16__aligned_bufferIiE7_M_addrEv, symObjAddr: 0x513C, symBinAddr: 0x1000062D4, symSize: 0x14 }
  - { offsetInCU: 0xD59B, offset: 0xD59B, size: 0x8, addend: 0x0, symName: __ZSt10__fill_n_aIPimiET_S1_T0_RKT1_St26random_access_iterator_tag, symObjAddr: 0x5150, symBinAddr: 0x1000062E8, symSize: 0x64 }
  - { offsetInCU: 0xD630, offset: 0xD630, size: 0x8, addend: 0x0, symName: __ZSt11__addressofIPNSt8__detail15_Hash_node_baseEEPT_RS3_, symObjAddr: 0x5128, symBinAddr: 0x1000062C0, symSize: 0x14 }
  - { offsetInCU: 0xD638, offset: 0xD638, size: 0x8, addend: 0x0, symName: __ZNK9__gnu_cxx16__aligned_bufferIiE7_M_addrEv, symObjAddr: 0x513C, symBinAddr: 0x1000062D4, symSize: 0x14 }
  - { offsetInCU: 0xD60F, offset: 0xD60F, size: 0x8, addend: 0x0, symName: __ZNSt15__new_allocatorINSt8__detail10_Hash_nodeIiLb0EEEE10deallocateEPS2_m, symObjAddr: 0x50F8, symBinAddr: 0x100006290, symSize: 0x30 }
  - { offsetInCU: 0xD617, offset: 0xD617, size: 0x8, addend: 0x0, symName: __ZSt11__addressofIPNSt8__detail15_Hash_node_baseEEPT_RS3_, symObjAddr: 0x5128, symBinAddr: 0x1000062C0, symSize: 0x14 }
  - { offsetInCU: 0xD6D2, offset: 0xD6D2, size: 0x8, addend: 0x0, symName: __ZSt9addressofINSt8__detail10_Hash_nodeIiLb0EEEEPT_RS3_, symObjAddr: 0x50DC, symBinAddr: 0x100006274, symSize: 0x1C }
  - { offsetInCU: 0xD6DA, offset: 0xD6DA, size: 0x8, addend: 0x0, symName: __ZNSt15__new_allocatorINSt8__detail10_Hash_nodeIiLb0EEEE10deallocateEPS2_m, symObjAddr: 0x50F8, symBinAddr: 0x100006290, symSize: 0x30 }
  - { offsetInCU: 0xD6B3, offset: 0xD6B3, size: 0x8, addend: 0x0, symName: __ZN9__gnu_cxx16__aligned_bufferIiE7_M_addrEv, symObjAddr: 0x50C8, symBinAddr: 0x100006260, symSize: 0x14 }
  - { offsetInCU: 0xD6BB, offset: 0xD6BB, size: 0x8, addend: 0x0, symName: __ZSt9addressofINSt8__detail10_Hash_nodeIiLb0EEEEPT_RS3_, symObjAddr: 0x50DC, symBinAddr: 0x100006274, symSize: 0x1C }
  - { offsetInCU: 0xD6E5, offset: 0xD6E5, size: 0x8, addend: 0x0, symName: __ZNSt10_HashtableIiiSaIiENSt8__detail9_IdentityESt8equal_toIiESt4hashIiENS1_18_Mod_range_hashingENS1_20_Default_ranged_hashENS1_20_Prime_rehash_policyENS1_17_Hashtable_traitsILb0ELb1ELb1EEEE21_M_insert_unique_nodeEmmPNS1_10_Hash_nodeIiLb0EEEm, symObjAddr: 0x4FE0, symBinAddr: 0x100006178, symSize: 0xE8 }
  - { offsetInCU: 0xD6ED, offset: 0xD6ED, size: 0x8, addend: 0x0, symName: __ZN9__gnu_cxx16__aligned_bufferIiE7_M_addrEv, symObjAddr: 0x50C8, symBinAddr: 0x100006260, symSize: 0x14 }
  - { offsetInCU: 0xD887, offset: 0xD887, size: 0x8, addend: 0x0, symName: __ZNSt10_HashtableIiiSaIiENSt8__detail9_IdentityESt8equal_toIiESt4hashIiENS1_18_Mod_range_hashingENS1_20_Default_ranged_hashENS1_20_Prime_rehash_policyENS1_17_Hashtable_traitsILb0ELb1ELb1EEEE12_Scoped_nodeD1Ev, symObjAddr: 0x4F9C, symBinAddr: 0x100006134, symSize: 0x44 }
  - { offsetInCU: 0xD88F, offset: 0xD88F, size: 0x8, addend: 0x0, symName: __ZNSt10_HashtableIiiSaIiENSt8__detail9_IdentityESt8equal_toIiESt4hashIiENS1_18_Mod_range_hashingENS1_20_Default_ranged_hashENS1_20_Prime_rehash_policyENS1_17_Hashtable_traitsILb0ELb1ELb1EEEE21_M_insert_unique_nodeEmmPNS1_10_Hash_nodeIiLb0EEEm, symObjAddr: 0x4FE0, symBinAddr: 0x100006178, symSize: 0xE8 }
  - { offsetInCU: 0xD929, offset: 0xD929, size: 0x8, addend: 0x0, symName: __ZNSt10_HashtableIiiSaIiENSt8__detail9_IdentityESt8equal_toIiESt4hashIiENS1_18_Mod_range_hashingENS1_20_Default_ranged_hashENS1_20_Prime_rehash_policyENS1_17_Hashtable_traitsILb0ELb1ELb1EEEE12_Scoped_nodeC1EPNS1_10_Hash_nodeIiLb0EEEPNS1_16_Hashtable_allocISaISF_EEE, symObjAddr: 0x4F68, symBinAddr: 0x100006100, symSize: 0x34 }
  - { offsetInCU: 0xD931, offset: 0xD931, size: 0x8, addend: 0x0, symName: __ZNSt10_HashtableIiiSaIiENSt8__detail9_IdentityESt8equal_toIiESt4hashIiENS1_18_Mod_range_hashingENS1_20_Default_ranged_hashENS1_20_Prime_rehash_policyENS1_17_Hashtable_traitsILb0ELb1ELb1EEEE12_Scoped_nodeD1Ev, symObjAddr: 0x4F9C, symBinAddr: 0x100006134, symSize: 0x44 }
  - { offsetInCU: 0xD86F, offset: 0xD86F, size: 0x8, addend: 0x0, symName: __ZNSt8__detail12_NodeBuilderINS_9_IdentityEE8_S_buildIRKiS5_NS_10_AllocNodeISaINS_10_Hash_nodeIiLb0EEEEEEEEPNT1_11__node_typeEOT_OT0_RKSB_, symObjAddr: 0x4F38, symBinAddr: 0x1000060D0, symSize: 0x30 }
  - { offsetInCU: 0xD877, offset: 0xD877, size: 0x8, addend: 0x0, symName: __ZNSt10_HashtableIiiSaIiENSt8__detail9_IdentityESt8equal_toIiESt4hashIiENS1_18_Mod_range_hashingENS1_20_Default_ranged_hashENS1_20_Prime_rehash_policyENS1_17_Hashtable_traitsILb0ELb1ELb1EEEE12_Scoped_nodeC1EPNS1_10_Hash_nodeIiLb0EEEPNS1_16_Hashtable_allocISaISF_EEE, symObjAddr: 0x4F68, symBinAddr: 0x100006100, symSize: 0x34 }
  - { offsetInCU: 0xD985, offset: 0xD985, size: 0x8, addend: 0x0, symName: __ZNSt4pairINSt8__detail14_Node_iteratorIiLb1ELb0EEEbEC1IS2_bLb1EEEOT_OT0_, symObjAddr: 0x4EEC, symBinAddr: 0x100006084, symSize: 0x4C }
  - { offsetInCU: 0xD98D, offset: 0xD98D, size: 0x8, addend: 0x0, symName: __ZNSt8__detail12_NodeBuilderINS_9_IdentityEE8_S_buildIRKiS5_NS_10_AllocNodeISaINS_10_Hash_nodeIiLb0EEEEEEEEPNT1_11__node_typeEOT_OT0_RKSB_, symObjAddr: 0x4F38, symBinAddr: 0x1000060D0, symSize: 0x30 }
  - { offsetInCU: 0xD99B, offset: 0xD99B, size: 0x8, addend: 0x0, symName: __ZNKSt10_HashtableIiiSaIiENSt8__detail9_IdentityESt8equal_toIiESt4hashIiENS1_18_Mod_range_hashingENS1_20_Default_ranged_hashENS1_20_Prime_rehash_policyENS1_17_Hashtable_traitsILb0ELb1ELb1EEEE15_M_find_node_trIiEEPNS1_10_Hash_nodeIiLb0EEEmRKT_m, symObjAddr: 0x4E98, symBinAddr: 0x100006030, symSize: 0x54 }
  - { offsetInCU: 0xD9A3, offset: 0xD9A3, size: 0x8, addend: 0x0, symName: __ZNSt4pairINSt8__detail14_Node_iteratorIiLb1ELb0EEEbEC1IS2_bLb1EEEOT_OT0_, symObjAddr: 0x4EEC, symBinAddr: 0x100006084, symSize: 0x4C }
  - { offsetInCU: 0xDA27, offset: 0xDA27, size: 0x8, addend: 0x0, symName: __ZNKSt8__detail15_Hash_code_baseIiiNS_9_IdentityESt4hashIiENS_18_Mod_range_hashingENS_20_Default_ranged_hashELb0EE15_M_hash_code_trIiEEmRKT_, symObjAddr: 0x4E60, symBinAddr: 0x100005FF8, symSize: 0x38 }
  - { offsetInCU: 0xDA2F, offset: 0xDA2F, size: 0x8, addend: 0x0, symName: __ZNKSt10_HashtableIiiSaIiENSt8__detail9_IdentityESt8equal_toIiESt4hashIiENS1_18_Mod_range_hashingENS1_20_Default_ranged_hashENS1_20_Prime_rehash_policyENS1_17_Hashtable_traitsILb0ELb1ELb1EEEE15_M_find_node_trIiEEPNS1_10_Hash_nodeIiLb0EEEmRKT_m, symObjAddr: 0x4E98, symBinAddr: 0x100006030, symSize: 0x54 }
  - { offsetInCU: 0xDB17, offset: 0xDB17, size: 0x8, addend: 0x0, symName: __ZNSt4pairINSt8__detail14_Node_iteratorIiLb1ELb0EEEbEC1IRS2_bLb1EEEOT_OT0_, symObjAddr: 0x4E14, symBinAddr: 0x100005FAC, symSize: 0x4C }
  - { offsetInCU: 0xDB1F, offset: 0xDB1F, size: 0x8, addend: 0x0, symName: __ZNKSt8__detail15_Hash_code_baseIiiNS_9_IdentityESt4hashIiENS_18_Mod_range_hashingENS_20_Default_ranged_hashELb0EE15_M_hash_code_trIiEEmRKT_, symObjAddr: 0x4E60, symBinAddr: 0x100005FF8, symSize: 0x38 }
  - { offsetInCU: 0xDB2C, offset: 0xDB2C, size: 0x8, addend: 0x0, symName: __ZNKSt8__detail15_Hashtable_baseIiiNS_9_IdentityESt8equal_toIiESt4hashIiENS_18_Mod_range_hashingENS_20_Default_ranged_hashENS_17_Hashtable_traitsILb0ELb1ELb1EEEE16_M_key_equals_trIiEEbRKT_RKNS_16_Hash_node_valueIiLb0EEE, symObjAddr: 0x4DBC, symBinAddr: 0x100005F54, symSize: 0x58 }
  - { offsetInCU: 0xDB34, offset: 0xDB34, size: 0x8, addend: 0x0, symName: __ZNSt4pairINSt8__detail14_Node_iteratorIiLb1ELb0EEEbEC1IRS2_bLb1EEEOT_OT0_, symObjAddr: 0x4E14, symBinAddr: 0x100005FAC, symSize: 0x4C }
  - { offsetInCU: 0xDBA3, offset: 0xDBA3, size: 0x8, addend: 0x0, symName: __ZNK9__gnu_cxx5__ops14_Val_less_iterclIiNS_17__normal_iteratorIPiSt6vectorIiSaIiEEEEEEbRT_T0_, symObjAddr: 0x4D78, symBinAddr: 0x100005F10, symSize: 0x44 }
  - { offsetInCU: 0xDBAB, offset: 0xDBAB, size: 0x8, addend: 0x0, symName: __ZNKSt8__detail15_Hashtable_baseIiiNS_9_IdentityESt8equal_toIiESt4hashIiENS_18_Mod_range_hashingENS_20_Default_ranged_hashENS_17_Hashtable_traitsILb0ELb1ELb1EEEE16_M_key_equals_trIiEEbRKT_RKNS_16_Hash_node_valueIiLb0EEE, symObjAddr: 0x4DBC, symBinAddr: 0x100005F54, symSize: 0x58 }
  - { offsetInCU: 0xDD35, offset: 0xDD35, size: 0x8, addend: 0x0, symName: __ZSt22__copy_move_backward_aILb1EN9__gnu_cxx17__normal_iteratorIPiSt6vectorIiSaIiEEEES6_ET1_T0_S8_S7_, symObjAddr: 0x4D18, symBinAddr: 0x100005EB0, symSize: 0x60 }
  - { offsetInCU: 0xDD3D, offset: 0xDD3D, size: 0x8, addend: 0x0, symName: __ZNK9__gnu_cxx5__ops14_Val_less_iterclIiNS_17__normal_iteratorIPiSt6vectorIiSaIiEEEEEEbRT_T0_, symObjAddr: 0x4D78, symBinAddr: 0x100005F10, symSize: 0x44 }
  - { offsetInCU: 0xDD4F, offset: 0xDD4F, size: 0x8, addend: 0x0, symName: __ZSt12__miter_baseIN9__gnu_cxx17__normal_iteratorIPiSt6vectorIiSaIiEEEEET_S7_, symObjAddr: 0x4D04, symBinAddr: 0x100005E9C, symSize: 0x14 }
  - { offsetInCU: 0xDD57, offset: 0xDD57, size: 0x8, addend: 0x0, symName: __ZSt22__copy_move_backward_aILb1EN9__gnu_cxx17__normal_iteratorIPiSt6vectorIiSaIiEEEES6_ET1_T0_S8_S7_, symObjAddr: 0x4D18, symBinAddr: 0x100005EB0, symSize: 0x60 }
  - { offsetInCU: 0xDDE0, offset: 0xDDE0, size: 0x8, addend: 0x0, symName: __ZSt9iter_swapIN9__gnu_cxx17__normal_iteratorIPiSt6vectorIiSaIiEEEES6_EvT_T0_, symObjAddr: 0x4CC0, symBinAddr: 0x100005E58, symSize: 0x44 }
  - { offsetInCU: 0xDDE8, offset: 0xDDE8, size: 0x8, addend: 0x0, symName: __ZSt12__miter_baseIN9__gnu_cxx17__normal_iteratorIPiSt6vectorIiSaIiEEEEET_S7_, symObjAddr: 0x4D04, symBinAddr: 0x100005E9C, symSize: 0x14 }
  - { offsetInCU: 0xDE3A, offset: 0xDE3A, size: 0x8, addend: 0x0, symName: __ZSt10__pop_heapIN9__gnu_cxx17__normal_iteratorIPiSt6vectorIiSaIiEEEENS0_5__ops15_Iter_less_iterEEvT_S9_S9_RT0_, symObjAddr: 0x4C30, symBinAddr: 0x100005DC8, symSize: 0x90 }
  - { offsetInCU: 0xDE42, offset: 0xDE42, size: 0x8, addend: 0x0, symName: __ZSt9iter_swapIN9__gnu_cxx17__normal_iteratorIPiSt6vectorIiSaIiEEEES6_EvT_T0_, symObjAddr: 0x4CC0, symBinAddr: 0x100005E58, symSize: 0x44 }
  - { offsetInCU: 0xDE96, offset: 0xDE96, size: 0x8, addend: 0x0, symName: __ZN9__gnu_cxxltIPiSt6vectorIiSaIiEEEEbRKNS_17__normal_iteratorIT_T0_EESA_, symObjAddr: 0x4BEC, symBinAddr: 0x100005D84, symSize: 0x44 }
  - { offsetInCU: 0xDE9E, offset: 0xDE9E, size: 0x8, addend: 0x0, symName: __ZSt10__pop_heapIN9__gnu_cxx17__normal_iteratorIPiSt6vectorIiSaIiEEEENS0_5__ops15_Iter_less_iterEEvT_S9_S9_RT0_, symObjAddr: 0x4C30, symBinAddr: 0x100005DC8, symSize: 0x90 }
  - { offsetInCU: 0xDF6F, offset: 0xDF6F, size: 0x8, addend: 0x0, symName: __ZSt11__make_heapIN9__gnu_cxx17__normal_iteratorIPiSt6vectorIiSaIiEEEENS0_5__ops15_Iter_less_iterEEvT_S9_RT0_, symObjAddr: 0x4B0C, symBinAddr: 0x100005CA4, symSize: 0xE0 }
  - { offsetInCU: 0xDF77, offset: 0xDF77, size: 0x8, addend: 0x0, symName: __ZN9__gnu_cxxltIPiSt6vectorIiSaIiEEEEbRKNS_17__normal_iteratorIT_T0_EESA_, symObjAddr: 0x4BEC, symBinAddr: 0x100005D84, symSize: 0x44 }
  - { offsetInCU: 0xE021, offset: 0xE021, size: 0x8, addend: 0x0, symName: __ZSt4copyIN9__gnu_cxx17__normal_iteratorIPiSt6vectorIiSaIiEEEES2_ET0_T_S8_S7_, symObjAddr: 0x4AC4, symBinAddr: 0x100005C5C, symSize: 0x48 }
  - { offsetInCU: 0xE029, offset: 0xE029, size: 0x8, addend: 0x0, symName: __ZSt11__make_heapIN9__gnu_cxx17__normal_iteratorIPiSt6vectorIiSaIiEEEENS0_5__ops15_Iter_less_iterEEvT_S9_RT0_, symObjAddr: 0x4B0C, symBinAddr: 0x100005CA4, symSize: 0xE0 }
  - { offsetInCU: 0xE059, offset: 0xE059, size: 0x8, addend: 0x0, symName: __ZSt6fill_nIPimiET_S1_T0_RKT1_, symObjAddr: 0x4A7C, symBinAddr: 0x100005C14, symSize: 0x48 }
  - { offsetInCU: 0xE061, offset: 0xE061, size: 0x8, addend: 0x0, symName: __ZSt4copyIN9__gnu_cxx17__normal_iteratorIPiSt6vectorIiSaIiEEEES2_ET0_T_S8_S7_, symObjAddr: 0x4AC4, symBinAddr: 0x100005C5C, symSize: 0x48 }
  - { offsetInCU: 0xE0F1, offset: 0xE0F1, size: 0x8, addend: 0x0, symName: __ZSt10_ConstructIiJEEvPT_DpOT0_, symObjAddr: 0x4A50, symBinAddr: 0x100005BE8, symSize: 0x2C }
  - { offsetInCU: 0xE0F9, offset: 0xE0F9, size: 0x8, addend: 0x0, symName: __ZSt6fill_nIPimiET_S1_T0_RKT1_, symObjAddr: 0x4A7C, symBinAddr: 0x100005C14, symSize: 0x48 }
  - { offsetInCU: 0xE13D, offset: 0xE13D, size: 0x8, addend: 0x0, symName: __ZSt11__addressofIiEPT_RS0_, symObjAddr: 0x4A3C, symBinAddr: 0x100005BD4, symSize: 0x14 }
  - { offsetInCU: 0xE145, offset: 0xE145, size: 0x8, addend: 0x0, symName: __ZSt10_ConstructIiJEEvPT_DpOT0_, symObjAddr: 0x4A50, symBinAddr: 0x100005BE8, symSize: 0x2C }
  - { offsetInCU: 0xE16F, offset: 0xE16F, size: 0x8, addend: 0x0, symName: __ZNSt8__detail15_Hashtable_baseIiiNS_9_IdentityESt8equal_toIiESt4hashIiENS_18_Mod_range_hashingENS_20_Default_ranged_hashENS_17_Hashtable_traitsILb0ELb1ELb1EEEE9_S_equalsEmRKNS_21_Hash_node_code_cacheILb0EEE, symObjAddr: 0x4A24, symBinAddr: 0x100005BBC, symSize: 0x18 }
  - { offsetInCU: 0xE177, offset: 0xE177, size: 0x8, addend: 0x0, symName: __ZSt11__addressofIiEPT_RS0_, symObjAddr: 0x4A3C, symBinAddr: 0x100005BD4, symSize: 0x14 }
  - { offsetInCU: 0xE1A5, offset: 0xE1A5, size: 0x8, addend: 0x0, symName: __ZNK9__gnu_cxx16__aligned_bufferIiE6_M_ptrEv, symObjAddr: 0x4A08, symBinAddr: 0x100005BA0, symSize: 0x1C }
  - { offsetInCU: 0xE1AD, offset: 0xE1AD, size: 0x8, addend: 0x0, symName: __ZNSt8__detail15_Hashtable_baseIiiNS_9_IdentityESt8equal_toIiESt4hashIiENS_18_Mod_range_hashingENS_20_Default_ranged_hashENS_17_Hashtable_traitsILb0ELb1ELb1EEEE9_S_equalsEmRKNS_21_Hash_node_code_cacheILb0EEE, symObjAddr: 0x4A24, symBinAddr: 0x100005BBC, symSize: 0x18 }
  - { offsetInCU: 0xE1D4, offset: 0xE1D4, size: 0x8, addend: 0x0, symName: __ZNSt15__new_allocatorIPNSt8__detail15_Hash_node_baseEE10deallocateEPS2_m, symObjAddr: 0x49D8, symBinAddr: 0x100005B70, symSize: 0x30 }
  - { offsetInCU: 0xE1DC, offset: 0xE1DC, size: 0x8, addend: 0x0, symName: __ZNK9__gnu_cxx16__aligned_bufferIiE6_M_ptrEv, symObjAddr: 0x4A08, symBinAddr: 0x100005BA0, symSize: 0x1C }
  - { offsetInCU: 0xE28C, offset: 0xE28C, size: 0x8, addend: 0x0, symName: __ZNSt15__new_allocatorIPNSt8__detail15_Hash_node_baseEED2Ev, symObjAddr: 0x49C4, symBinAddr: 0x100005B5C, symSize: 0x14 }
  - { offsetInCU: 0xE294, offset: 0xE294, size: 0x8, addend: 0x0, symName: __ZNSt15__new_allocatorIPNSt8__detail15_Hash_node_baseEE10deallocateEPS2_m, symObjAddr: 0x49D8, symBinAddr: 0x100005B70, symSize: 0x30 }
  - { offsetInCU: 0xE2FD, offset: 0xE2FD, size: 0x8, addend: 0x0, symName: __ZSt9addressofIPNSt8__detail15_Hash_node_baseEEPT_RS3_, symObjAddr: 0x49A8, symBinAddr: 0x100005B40, symSize: 0x1C }
  - { offsetInCU: 0xE305, offset: 0xE305, size: 0x8, addend: 0x0, symName: __ZNSt15__new_allocatorIPNSt8__detail15_Hash_node_baseEED2Ev, symObjAddr: 0x49C4, symBinAddr: 0x100005B5C, symSize: 0x14 }
  - { offsetInCU: 0xE31F, offset: 0xE31F, size: 0x8, addend: 0x0, symName: __ZNSt19__ptr_traits_ptr_toIPNSt8__detail10_Hash_nodeIiLb0EEES2_Lb0EE10pointer_toERS2_, symObjAddr: 0x498C, symBinAddr: 0x100005B24, symSize: 0x1C }
  - { offsetInCU: 0xE327, offset: 0xE327, size: 0x8, addend: 0x0, symName: __ZSt9addressofIPNSt8__detail15_Hash_node_baseEEPT_RS3_, symObjAddr: 0x49A8, symBinAddr: 0x100005B40, symSize: 0x1C }
  - { offsetInCU: 0xE386, offset: 0xE386, size: 0x8, addend: 0x0, symName: __ZN9__gnu_cxx16__aligned_bufferIiE6_M_ptrEv, symObjAddr: 0x4970, symBinAddr: 0x100005B08, symSize: 0x1C }
  - { offsetInCU: 0xE38E, offset: 0xE38E, size: 0x8, addend: 0x0, symName: __ZNSt19__ptr_traits_ptr_toIPNSt8__detail10_Hash_nodeIiLb0EEES2_Lb0EE10pointer_toERS2_, symObjAddr: 0x498C, symBinAddr: 0x100005B24, symSize: 0x1C }
  - { offsetInCU: 0xE3B5, offset: 0xE3B5, size: 0x8, addend: 0x0, symName: __ZNSt8__detail21_Hashtable_ebo_helperILi0ESaINS_10_Hash_nodeIiLb0EEEELb1EE6_M_getEv, symObjAddr: 0x495C, symBinAddr: 0x100005AF4, symSize: 0x14 }
  - { offsetInCU: 0xE3BD, offset: 0xE3BD, size: 0x8, addend: 0x0, symName: __ZN9__gnu_cxx16__aligned_bufferIiE6_M_ptrEv, symObjAddr: 0x4970, symBinAddr: 0x100005B08, symSize: 0x1C }
  - { offsetInCU: 0xE3E4, offset: 0xE3E4, size: 0x8, addend: 0x0, symName: __ZNSt10_HashtableIiiSaIiENSt8__detail9_IdentityESt8equal_toIiESt4hashIiENS1_18_Mod_range_hashingENS1_20_Default_ranged_hashENS1_20_Prime_rehash_policyENS1_17_Hashtable_traitsILb0ELb1ELb1EEEE16_M_insert_uniqueIRKiSF_NS1_10_AllocNodeISaINS1_10_Hash_nodeIiLb0EEEEEEEESt4pairINS1_14_Node_iteratorIiLb1ELb0EEEbEOT_OT0_RKT1_, symObjAddr: 0x4750, symBinAddr: 0x1000058E8, symSize: 0x20C }
  - { offsetInCU: 0xE3EC, offset: 0xE3EC, size: 0x8, addend: 0x0, symName: __ZNSt8__detail21_Hashtable_ebo_helperILi0ESaINS_10_Hash_nodeIiLb0EEEELb1EE6_M_getEv, symObjAddr: 0x495C, symBinAddr: 0x100005AF4, symSize: 0x14 }
  - { offsetInCU: 0xE519, offset: 0xE519, size: 0x8, addend: 0x0, symName: __ZNSt10_HashtableIiiSaIiENSt8__detail9_IdentityESt8equal_toIiESt4hashIiENS1_18_Mod_range_hashingENS1_20_Default_ranged_hashENS1_20_Prime_rehash_policyENS1_17_Hashtable_traitsILb0ELb1ELb1EEEE14_S_forward_keyERKi, symObjAddr: 0x473C, symBinAddr: 0x1000058D4, symSize: 0x14 }
  - { offsetInCU: 0xE521, offset: 0xE521, size: 0x8, addend: 0x0, symName: __ZNSt10_HashtableIiiSaIiENSt8__detail9_IdentityESt8equal_toIiESt4hashIiENS1_18_Mod_range_hashingENS1_20_Default_ranged_hashENS1_20_Prime_rehash_policyENS1_17_Hashtable_traitsILb0ELb1ELb1EEEE16_M_insert_uniqueIRKiSF_NS1_10_AllocNodeISaINS1_10_Hash_nodeIiLb0EEEEEEEESt4pairINS1_14_Node_iteratorIiLb1ELb0EEEbEOT_OT0_RKT1_, symObjAddr: 0x4750, symBinAddr: 0x1000058E8, symSize: 0x20C }
  - { offsetInCU: 0xE54B, offset: 0xE54B, size: 0x8, addend: 0x0, symName: __ZNKSt7greaterIiEclERKiS2_, symObjAddr: 0x4708, symBinAddr: 0x1000058A0, symSize: 0x34 }
  - { offsetInCU: 0xE553, offset: 0xE553, size: 0x8, addend: 0x0, symName: __ZNSt10_HashtableIiiSaIiENSt8__detail9_IdentityESt8equal_toIiESt4hashIiENS1_18_Mod_range_hashingENS1_20_Default_ranged_hashENS1_20_Prime_rehash_policyENS1_17_Hashtable_traitsILb0ELb1ELb1EEEE14_S_forward_keyERKi, symObjAddr: 0x473C, symBinAddr: 0x1000058D4, symSize: 0x14 }
  - { offsetInCU: 0xE5A2, offset: 0xE5A2, size: 0x8, addend: 0x0, symName: __ZNKSt4lessIiEclERKiS2_, symObjAddr: 0x46D4, symBinAddr: 0x10000586C, symSize: 0x34 }
  - { offsetInCU: 0xE5AA, offset: 0xE5AA, size: 0x8, addend: 0x0, symName: __ZNKSt7greaterIiEclERKiS2_, symObjAddr: 0x4708, symBinAddr: 0x1000058A0, symSize: 0x34 }
  - { offsetInCU: 0xE6FA, offset: 0xE6FA, size: 0x8, addend: 0x0, symName: __ZSt25__unguarded_linear_insertIN9__gnu_cxx17__normal_iteratorIPiSt6vectorIiSaIiEEEENS0_5__ops14_Val_less_iterEEvT_T0_, symObjAddr: 0x4624, symBinAddr: 0x1000057BC, symSize: 0xB0 }
  - { offsetInCU: 0xE702, offset: 0xE702, size: 0x8, addend: 0x0, symName: __ZNKSt4lessIiEclERKiS2_, symObjAddr: 0x46D4, symBinAddr: 0x10000586C, symSize: 0x34 }
  - { offsetInCU: 0xE78C, offset: 0xE78C, size: 0x8, addend: 0x0, symName: __ZSt13move_backwardIN9__gnu_cxx17__normal_iteratorIPiSt6vectorIiSaIiEEEES6_ET0_T_S8_S7_, symObjAddr: 0x45DC, symBinAddr: 0x100005774, symSize: 0x48 }
  - { offsetInCU: 0xE794, offset: 0xE794, size: 0x8, addend: 0x0, symName: __ZSt25__unguarded_linear_insertIN9__gnu_cxx17__normal_iteratorIPiSt6vectorIiSaIiEEEENS0_5__ops14_Val_less_iterEEvT_T0_, symObjAddr: 0x4624, symBinAddr: 0x1000057BC, symSize: 0xB0 }
  - { offsetInCU: 0xE71A, offset: 0xE71A, size: 0x8, addend: 0x0, symName: __ZNK9__gnu_cxx5__ops15_Iter_less_iterclINS_17__normal_iteratorIPiSt6vectorIiSaIiEEEES8_EEbT_T0_, symObjAddr: 0x4594, symBinAddr: 0x10000572C, symSize: 0x48 }
  - { offsetInCU: 0xE722, offset: 0xE722, size: 0x8, addend: 0x0, symName: __ZSt13move_backwardIN9__gnu_cxx17__normal_iteratorIPiSt6vectorIiSaIiEEEES6_ET0_T_S8_S7_, symObjAddr: 0x45DC, symBinAddr: 0x100005774, symSize: 0x48 }
  - { offsetInCU: 0xE812, offset: 0xE812, size: 0x8, addend: 0x0, symName: __ZN9__gnu_cxxeqIPiSt6vectorIiSaIiEEEEbRKNS_17__normal_iteratorIT_T0_EESA_, symObjAddr: 0x4550, symBinAddr: 0x1000056E8, symSize: 0x44 }
  - { offsetInCU: 0xE81A, offset: 0xE81A, size: 0x8, addend: 0x0, symName: __ZNK9__gnu_cxx5__ops15_Iter_less_iterclINS_17__normal_iteratorIPiSt6vectorIiSaIiEEEES8_EEbT_T0_, symObjAddr: 0x4594, symBinAddr: 0x10000572C, symSize: 0x48 }
  - { offsetInCU: 0xE8FD, offset: 0xE8FD, size: 0x8, addend: 0x0, symName: __ZSt21__unguarded_partitionIN9__gnu_cxx17__normal_iteratorIPiSt6vectorIiSaIiEEEENS0_5__ops15_Iter_less_iterEET_S9_S9_S9_T0_, symObjAddr: 0x448C, symBinAddr: 0x100005624, symSize: 0xC4 }
  - { offsetInCU: 0xE905, offset: 0xE905, size: 0x8, addend: 0x0, symName: __ZN9__gnu_cxxeqIPiSt6vectorIiSaIiEEEEbRKNS_17__normal_iteratorIT_T0_EESA_, symObjAddr: 0x4550, symBinAddr: 0x1000056E8, symSize: 0x44 }
  - { offsetInCU: 0xE990, offset: 0xE990, size: 0x8, addend: 0x0, symName: __ZSt22__move_median_to_firstIN9__gnu_cxx17__normal_iteratorIPiSt6vectorIiSaIiEEEENS0_5__ops15_Iter_less_iterEEvT_S9_S9_S9_T0_, symObjAddr: 0x4368, symBinAddr: 0x100005500, symSize: 0x124 }
  - { offsetInCU: 0xE998, offset: 0xE998, size: 0x8, addend: 0x0, symName: __ZSt21__unguarded_partitionIN9__gnu_cxx17__normal_iteratorIPiSt6vectorIiSaIiEEEENS0_5__ops15_Iter_less_iterEET_S9_S9_S9_T0_, symObjAddr: 0x448C, symBinAddr: 0x100005624, symSize: 0xC4 }
  - { offsetInCU: 0xEA11, offset: 0xEA11, size: 0x8, addend: 0x0, symName: __ZSt11__sort_heapIN9__gnu_cxx17__normal_iteratorIPiSt6vectorIiSaIiEEEENS0_5__ops15_Iter_less_iterEEvT_S9_RT0_, symObjAddr: 0x4300, symBinAddr: 0x100005498, symSize: 0x68 }
  - { offsetInCU: 0xEA19, offset: 0xEA19, size: 0x8, addend: 0x0, symName: __ZSt22__move_median_to_firstIN9__gnu_cxx17__normal_iteratorIPiSt6vectorIiSaIiEEEENS0_5__ops15_Iter_less_iterEEvT_S9_S9_S9_T0_, symObjAddr: 0x4368, symBinAddr: 0x100005500, symSize: 0x124 }
  - { offsetInCU: 0xEA90, offset: 0xEA90, size: 0x8, addend: 0x0, symName: __ZSt13__heap_selectIN9__gnu_cxx17__normal_iteratorIPiSt6vectorIiSaIiEEEENS0_5__ops15_Iter_less_iterEEvT_S9_S9_T0_, symObjAddr: 0x425C, symBinAddr: 0x1000053F4, symSize: 0xA4 }
  - { offsetInCU: 0xEA98, offset: 0xEA98, size: 0x8, addend: 0x0, symName: __ZSt11__sort_heapIN9__gnu_cxx17__normal_iteratorIPiSt6vectorIiSaIiEEEENS0_5__ops15_Iter_less_iterEEvT_S9_RT0_, symObjAddr: 0x4300, symBinAddr: 0x100005498, symSize: 0x68 }
  - { offsetInCU: 0xEA91, offset: 0xEA91, size: 0x8, addend: 0x0, symName: __ZSt13__countl_zeroImEiT_, symObjAddr: 0x4208, symBinAddr: 0x1000053A0, symSize: 0x54 }
  - { offsetInCU: 0xEA99, offset: 0xEA99, size: 0x8, addend: 0x0, symName: __ZSt13__heap_selectIN9__gnu_cxx17__normal_iteratorIPiSt6vectorIiSaIiEEEENS0_5__ops15_Iter_less_iterEEvT_S9_S9_T0_, symObjAddr: 0x425C, symBinAddr: 0x1000053F4, symSize: 0xA4 }
  - { offsetInCU: 0xEB0D, offset: 0xEB0D, size: 0x8, addend: 0x0, symName: __ZNSt20__uninitialized_copyILb1EE13__uninit_copyIN9__gnu_cxx17__normal_iteratorIPiSt6vectorIiSaIiEEEES4_EET0_T_SA_S9_, symObjAddr: 0x41DC, symBinAddr: 0x100005374, symSize: 0x2C }
  - { offsetInCU: 0xEB15, offset: 0xEB15, size: 0x8, addend: 0x0, symName: __ZSt13__countl_zeroImEiT_, symObjAddr: 0x4208, symBinAddr: 0x1000053A0, symSize: 0x54 }
  - { offsetInCU: 0xEC3C, offset: 0xEC3C, size: 0x8, addend: 0x0, symName: __ZSt14__relocate_a_1IiiENSt9enable_ifIXsrSt24__is_bitwise_relocatableIT_vE5valueEPS2_E4typeES4_S4_S4_RSaIT0_E, symObjAddr: 0x4174, symBinAddr: 0x10000530C, symSize: 0x68 }
  - { offsetInCU: 0xEC44, offset: 0xEC44, size: 0x8, addend: 0x0, symName: __ZNSt20__uninitialized_copyILb1EE13__uninit_copyIN9__gnu_cxx17__normal_iteratorIPiSt6vectorIiSaIiEEEES4_EET0_T_SA_S9_, symObjAddr: 0x41DC, symBinAddr: 0x100005374, symSize: 0x2C }
  - { offsetInCU: 0xEC8D, offset: 0xEC8D, size: 0x8, addend: 0x0, symName: __ZSt12__niter_baseIPiET_S1_, symObjAddr: 0x4160, symBinAddr: 0x1000052F8, symSize: 0x14 }
  - { offsetInCU: 0xEC95, offset: 0xEC95, size: 0x8, addend: 0x0, symName: __ZSt14__relocate_a_1IiiENSt9enable_ifIXsrSt24__is_bitwise_relocatableIT_vE5valueEPS2_E4typeES4_S4_S4_RSaIT0_E, symObjAddr: 0x4174, symBinAddr: 0x10000530C, symSize: 0x68 }
  - { offsetInCU: 0xECA5, offset: 0xECA5, size: 0x8, addend: 0x0, symName: __ZNSt15__new_allocatorIiE8allocateEmPKv, symObjAddr: 0x40E4, symBinAddr: 0x10000527C, symSize: 0x7C }
  - { offsetInCU: 0xECAD, offset: 0xECAD, size: 0x8, addend: 0x0, symName: __ZSt12__niter_baseIPiET_S1_, symObjAddr: 0x4160, symBinAddr: 0x1000052F8, symSize: 0x14 }
  - { offsetInCU: 0xED2B, offset: 0xED2B, size: 0x8, addend: 0x0, symName: __ZNSt27__uninitialized_default_n_1ILb1EE18__uninit_default_nIPimEET_S3_T0_, symObjAddr: 0x4080, symBinAddr: 0x100005218, symSize: 0x64 }
  - { offsetInCU: 0xED33, offset: 0xED33, size: 0x8, addend: 0x0, symName: __ZNSt15__new_allocatorIiE8allocateEmPKv, symObjAddr: 0x40E4, symBinAddr: 0x10000527C, symSize: 0x7C }
  - { offsetInCU: 0xEE52, offset: 0xEE52, size: 0x8, addend: 0x0, symName: __ZN9__gnu_cxx5__ops14_Iter_comp_valISt7greaterIiEEC1EONS0_15_Iter_comp_iterIS3_EE, symObjAddr: 0x405C, symBinAddr: 0x1000051F4, symSize: 0x24 }
  - { offsetInCU: 0xEE5A, offset: 0xEE5A, size: 0x8, addend: 0x0, symName: __ZNSt27__uninitialized_default_n_1ILb1EE18__uninit_default_nIPimEET_S3_T0_, symObjAddr: 0x4080, symBinAddr: 0x100005218, symSize: 0x64 }
  - { offsetInCU: 0xEEDE, offset: 0xEEDE, size: 0x8, addend: 0x0, symName: __ZSt4moveIRN9__gnu_cxx5__ops15_Iter_comp_iterISt7greaterIiEEEEONSt16remove_referenceIT_E4typeEOS8_, symObjAddr: 0x4048, symBinAddr: 0x1000051E0, symSize: 0x14 }
  - { offsetInCU: 0xEEE6, offset: 0xEEE6, size: 0x8, addend: 0x0, symName: __ZN9__gnu_cxx5__ops14_Iter_comp_valISt7greaterIiEEC1EONS0_15_Iter_comp_iterIS3_EE, symObjAddr: 0x405C, symBinAddr: 0x1000051F4, symSize: 0x24 }
  - { offsetInCU: 0xEE98, offset: 0xEE98, size: 0x8, addend: 0x0, symName: __ZN9__gnu_cxx5__ops15_Iter_comp_iterISt7greaterIiEEclINS_17__normal_iteratorIPiSt6vectorIiSaIiEEEESB_EEbT_T0_, symObjAddr: 0x3FF8, symBinAddr: 0x100005190, symSize: 0x50 }
  - { offsetInCU: 0xEEA0, offset: 0xEEA0, size: 0x8, addend: 0x0, symName: __ZSt4moveIRN9__gnu_cxx5__ops15_Iter_comp_iterISt7greaterIiEEEEONSt16remove_referenceIT_E4typeEOS8_, symObjAddr: 0x4048, symBinAddr: 0x1000051E0, symSize: 0x14 }
  - { offsetInCU: 0xEF7F, offset: 0xEF7F, size: 0x8, addend: 0x0, symName: __ZN9__gnu_cxx5__ops14_Iter_comp_valISt4lessIiEEC1EONS0_15_Iter_comp_iterIS3_EE, symObjAddr: 0x3FD4, symBinAddr: 0x10000516C, symSize: 0x24 }
  - { offsetInCU: 0xEF87, offset: 0xEF87, size: 0x8, addend: 0x0, symName: __ZN9__gnu_cxx5__ops15_Iter_comp_iterISt7greaterIiEEclINS_17__normal_iteratorIPiSt6vectorIiSaIiEEEESB_EEbT_T0_, symObjAddr: 0x3FF8, symBinAddr: 0x100005190, symSize: 0x50 }
  - { offsetInCU: 0xF008, offset: 0xF008, size: 0x8, addend: 0x0, symName: __ZSt4moveIRN9__gnu_cxx5__ops15_Iter_comp_iterISt4lessIiEEEEONSt16remove_referenceIT_E4typeEOS8_, symObjAddr: 0x3FC0, symBinAddr: 0x100005158, symSize: 0x14 }
  - { offsetInCU: 0xF010, offset: 0xF010, size: 0x8, addend: 0x0, symName: __ZN9__gnu_cxx5__ops14_Iter_comp_valISt4lessIiEEC1EONS0_15_Iter_comp_iterIS3_EE, symObjAddr: 0x3FD4, symBinAddr: 0x10000516C, symSize: 0x24 }
  - { offsetInCU: 0xEFC8, offset: 0xEFC8, size: 0x8, addend: 0x0, symName: __ZN9__gnu_cxx5__ops15_Iter_comp_iterISt4lessIiEEclINS_17__normal_iteratorIPiSt6vectorIiSaIiEEEESB_EEbT_T0_, symObjAddr: 0x3F70, symBinAddr: 0x100005108, symSize: 0x50 }
  - { offsetInCU: 0xEFD0, offset: 0xEFD0, size: 0x8, addend: 0x0, symName: __ZSt4moveIRN9__gnu_cxx5__ops15_Iter_comp_iterISt4lessIiEEEEONSt16remove_referenceIT_E4typeEOS8_, symObjAddr: 0x3FC0, symBinAddr: 0x100005158, symSize: 0x14 }
  - { offsetInCU: 0xF037, offset: 0xF037, size: 0x8, addend: 0x0, symName: __ZNSt10_HashtableIiiSaIiENSt8__detail9_IdentityESt8equal_toIiESt4hashIiENS1_18_Mod_range_hashingENS1_20_Default_ranged_hashENS1_20_Prime_rehash_policyENS1_17_Hashtable_traitsILb0ELb1ELb1EEEE22_M_remove_bucket_beginEmPNS1_10_Hash_nodeIiLb0EEEm, symObjAddr: 0x3EAC, symBinAddr: 0x100005044, symSize: 0xC4 }
  - { offsetInCU: 0xF03F, offset: 0xF03F, size: 0x8, addend: 0x0, symName: __ZN9__gnu_cxx5__ops15_Iter_comp_iterISt4lessIiEEclINS_17__normal_iteratorIPiSt6vectorIiSaIiEEEESB_EEbT_T0_, symObjAddr: 0x3F70, symBinAddr: 0x100005108, symSize: 0x50 }
  - { offsetInCU: 0xF0A2, offset: 0xF0A2, size: 0x8, addend: 0x0, symName: __ZNKSt8__detail15_Hash_code_baseIiiNS_9_IdentityESt4hashIiENS_18_Mod_range_hashingENS_20_Default_ranged_hashELb0EE15_M_bucket_indexERKNS_16_Hash_node_valueIiLb0EEEm, symObjAddr: 0x3E60, symBinAddr: 0x100004FF8, symSize: 0x4C }
  - { offsetInCU: 0xF0AA, offset: 0xF0AA, size: 0x8, addend: 0x0, symName: __ZNSt10_HashtableIiiSaIiENSt8__detail9_IdentityESt8equal_toIiESt4hashIiENS1_18_Mod_range_hashingENS1_20_Default_ranged_hashENS1_20_Prime_rehash_policyENS1_17_Hashtable_traitsILb0ELb1ELb1EEEE22_M_remove_bucket_beginEmPNS1_10_Hash_nodeIiLb0EEEm, symObjAddr: 0x3EAC, symBinAddr: 0x100005044, symSize: 0xC4 }
  - { offsetInCU: 0xF0F9, offset: 0xF0F9, size: 0x8, addend: 0x0, symName: __ZNKSt8__detail15_Hashtable_baseIiiNS_9_IdentityESt8equal_toIiESt4hashIiENS_18_Mod_range_hashingENS_20_Default_ranged_hashENS_17_Hashtable_traitsILb0ELb1ELb1EEEE9_M_equalsERKimRKNS_16_Hash_node_valueIiLb0EEE, symObjAddr: 0x3DF8, symBinAddr: 0x100004F90, symSize: 0x68 }
  - { offsetInCU: 0xF101, offset: 0xF101, size: 0x8, addend: 0x0, symName: __ZNKSt8__detail15_Hash_code_baseIiiNS_9_IdentityESt4hashIiENS_18_Mod_range_hashingENS_20_Default_ranged_hashELb0EE15_M_bucket_indexERKNS_16_Hash_node_valueIiLb0EEEm, symObjAddr: 0x3E60, symBinAddr: 0x100004FF8, symSize: 0x4C }
  - { offsetInCU: 0xF164, offset: 0xF164, size: 0x8, addend: 0x0, symName: __ZNKSt8__detail21_Hashtable_ebo_helperILi1ESt4hashIiELb1EE7_M_cgetEv, symObjAddr: 0x3DE4, symBinAddr: 0x100004F7C, symSize: 0x14 }
  - { offsetInCU: 0xF16C, offset: 0xF16C, size: 0x8, addend: 0x0, symName: __ZNKSt8__detail15_Hashtable_baseIiiNS_9_IdentityESt8equal_toIiESt4hashIiENS_18_Mod_range_hashingENS_20_Default_ranged_hashENS_17_Hashtable_traitsILb0ELb1ELb1EEEE9_M_equalsERKimRKNS_16_Hash_node_valueIiLb0EEE, symObjAddr: 0x3DF8, symBinAddr: 0x100004F90, symSize: 0x68 }
  - { offsetInCU: 0xF193, offset: 0xF193, size: 0x8, addend: 0x0, symName: __ZNKSt8__detail21_Hash_node_value_baseIiE9_M_valptrEv, symObjAddr: 0x3DC8, symBinAddr: 0x100004F60, symSize: 0x1C }
  - { offsetInCU: 0xF19B, offset: 0xF19B, size: 0x8, addend: 0x0, symName: __ZNKSt8__detail21_Hashtable_ebo_helperILi1ESt4hashIiELb1EE7_M_cgetEv, symObjAddr: 0x3DE4, symBinAddr: 0x100004F7C, symSize: 0x14 }
  - { offsetInCU: 0xF1C2, offset: 0xF1C2, size: 0x8, addend: 0x0, symName: __ZNKSt8__detail21_Hashtable_ebo_helperILi0ESt8equal_toIiELb1EE7_M_cgetEv, symObjAddr: 0x3DB4, symBinAddr: 0x100004F4C, symSize: 0x14 }
  - { offsetInCU: 0xF1CA, offset: 0xF1CA, size: 0x8, addend: 0x0, symName: __ZNKSt8__detail21_Hash_node_value_baseIiE9_M_valptrEv, symObjAddr: 0x3DC8, symBinAddr: 0x100004F60, symSize: 0x1C }
  - { offsetInCU: 0xF285, offset: 0xF285, size: 0x8, addend: 0x0, symName: __ZNSt19__ptr_traits_ptr_toIPPNSt8__detail15_Hash_node_baseES2_Lb0EE10pointer_toERS2_, symObjAddr: 0x3D98, symBinAddr: 0x100004F30, symSize: 0x1C }
  - { offsetInCU: 0xF28D, offset: 0xF28D, size: 0x8, addend: 0x0, symName: __ZNKSt8__detail21_Hashtable_ebo_helperILi0ESt8equal_toIiELb1EE7_M_cgetEv, symObjAddr: 0x3DB4, symBinAddr: 0x100004F4C, symSize: 0x14 }
  - { offsetInCU: 0xF2B6, offset: 0xF2B6, size: 0x8, addend: 0x0, symName: __ZNSt8__detail16_Hashtable_allocISaINS_10_Hash_nodeIiLb0EEEEE22_M_deallocate_node_ptrEPS2_, symObjAddr: 0x3D40, symBinAddr: 0x100004ED8, symSize: 0x58 }
  - { offsetInCU: 0xF2BE, offset: 0xF2BE, size: 0x8, addend: 0x0, symName: __ZNSt19__ptr_traits_ptr_toIPPNSt8__detail15_Hash_node_baseES2_Lb0EE10pointer_toERS2_, symObjAddr: 0x3D98, symBinAddr: 0x100004F30, symSize: 0x1C }
  - { offsetInCU: 0xF385, offset: 0xF385, size: 0x8, addend: 0x0, symName: __ZNSt8__detail21_Hash_node_value_baseIiE9_M_valptrEv, symObjAddr: 0x3D24, symBinAddr: 0x100004EBC, symSize: 0x1C }
  - { offsetInCU: 0xF38D, offset: 0xF38D, size: 0x8, addend: 0x0, symName: __ZNSt8__detail16_Hashtable_allocISaINS_10_Hash_nodeIiLb0EEEEE22_M_deallocate_node_ptrEPS2_, symObjAddr: 0x3D40, symBinAddr: 0x100004ED8, symSize: 0x58 }
  - { offsetInCU: 0xF3B4, offset: 0xF3B4, size: 0x8, addend: 0x0, symName: __ZNSt8__detail16_Hashtable_allocISaINS_10_Hash_nodeIiLb0EEEEE17_M_node_allocatorEv, symObjAddr: 0x3D08, symBinAddr: 0x100004EA0, symSize: 0x1C }
  - { offsetInCU: 0xF3BC, offset: 0xF3BC, size: 0x8, addend: 0x0, symName: __ZNSt8__detail21_Hash_node_value_baseIiE9_M_valptrEv, symObjAddr: 0x3D24, symBinAddr: 0x100004EBC, symSize: 0x1C }
  - { offsetInCU: 0xF3E3, offset: 0xF3E3, size: 0x8, addend: 0x0, symName: __ZNK9__gnu_cxx17__normal_iteratorIPKiSt6vectorIiSaIiEEE4baseEv, symObjAddr: 0x3CF4, symBinAddr: 0x100004E8C, symSize: 0x14 }
  - { offsetInCU: 0xF3EB, offset: 0xF3EB, size: 0x8, addend: 0x0, symName: __ZNSt8__detail16_Hashtable_allocISaINS_10_Hash_nodeIiLb0EEEEE17_M_node_allocatorEv, symObjAddr: 0x3D08, symBinAddr: 0x100004EA0, symSize: 0x1C }
  - { offsetInCU: 0xF412, offset: 0xF412, size: 0x8, addend: 0x0, symName: __ZNSt10_HashtableIiiSaIiENSt8__detail9_IdentityESt8equal_toIiESt4hashIiENS1_18_Mod_range_hashingENS1_20_Default_ranged_hashENS1_20_Prime_rehash_policyENS1_17_Hashtable_traitsILb0ELb1ELb1EEEE20_M_insert_unique_auxIRKiNS1_10_AllocNodeISaINS1_10_Hash_nodeIiLb0EEEEEEEESt4pairINS1_14_Node_iteratorIiLb1ELb0EEEbEOT_RKT0_, symObjAddr: 0x3C98, symBinAddr: 0x100004E30, symSize: 0x5C }
  - { offsetInCU: 0xF41A, offset: 0xF41A, size: 0x8, addend: 0x0, symName: __ZNK9__gnu_cxx17__normal_iteratorIPKiSt6vectorIiSaIiEEE4baseEv, symObjAddr: 0x3CF4, symBinAddr: 0x100004E8C, symSize: 0x14 }
  - { offsetInCU: 0xF496, offset: 0xF496, size: 0x8, addend: 0x0, symName: __ZNKSt8__detail19_ConvertToValueTypeINS_9_IdentityEiEclIRKiEEOT_S7_, symObjAddr: 0x3C78, symBinAddr: 0x100004E10, symSize: 0x20 }
  - { offsetInCU: 0xF49E, offset: 0xF49E, size: 0x8, addend: 0x0, symName: __ZNSt10_HashtableIiiSaIiENSt8__detail9_IdentityESt8equal_toIiESt4hashIiENS1_18_Mod_range_hashingENS1_20_Default_ranged_hashENS1_20_Prime_rehash_policyENS1_17_Hashtable_traitsILb0ELb1ELb1EEEE20_M_insert_unique_auxIRKiNS1_10_AllocNodeISaINS1_10_Hash_nodeIiLb0EEEEEEEESt4pairINS1_14_Node_iteratorIiLb1ELb0EEEbEOT_RKT0_, symObjAddr: 0x3C98, symBinAddr: 0x100004E30, symSize: 0x5C }
  - { offsetInCU: 0xF4E5, offset: 0xF4E5, size: 0x8, addend: 0x0, symName: __ZN9__gnu_cxx5__ops14_Iter_comp_valISt7greaterIiEEclINS_17__normal_iteratorIPiSt6vectorIiSaIiEEEEiEEbT_RT0_, symObjAddr: 0x3C34, symBinAddr: 0x100004DCC, symSize: 0x44 }
  - { offsetInCU: 0xF4ED, offset: 0xF4ED, size: 0x8, addend: 0x0, symName: __ZNKSt8__detail19_ConvertToValueTypeINS_9_IdentityEiEclIRKiEEOT_S7_, symObjAddr: 0x3C78, symBinAddr: 0x100004E10, symSize: 0x20 }
  - { offsetInCU: 0xF554, offset: 0xF554, size: 0x8, addend: 0x0, symName: __ZN9__gnu_cxx5__ops14_Iter_comp_valISt4lessIiEEclINS_17__normal_iteratorIPiSt6vectorIiSaIiEEEEiEEbT_RT0_, symObjAddr: 0x3BF0, symBinAddr: 0x100004D88, symSize: 0x44 }
  - { offsetInCU: 0xF55C, offset: 0xF55C, size: 0x8, addend: 0x0, symName: __ZN9__gnu_cxx5__ops14_Iter_comp_valISt7greaterIiEEclINS_17__normal_iteratorIPiSt6vectorIiSaIiEEEEiEEbT_RT0_, symObjAddr: 0x3C34, symBinAddr: 0x100004DCC, symSize: 0x44 }
  - { offsetInCU: 0xF664, offset: 0xF664, size: 0x8, addend: 0x0, symName: __ZSt7forwardIRKiEOT_RNSt16remove_referenceIS2_E4typeE, symObjAddr: 0x3BDC, symBinAddr: 0x100004D74, symSize: 0x14 }
  - { offsetInCU: 0xF66C, offset: 0xF66C, size: 0x8, addend: 0x0, symName: __ZN9__gnu_cxx5__ops14_Iter_comp_valISt4lessIiEEclINS_17__normal_iteratorIPiSt6vectorIiSaIiEEEEiEEbT_RT0_, symObjAddr: 0x3BF0, symBinAddr: 0x100004D88, symSize: 0x44 }
  - { offsetInCU: 0xF772, offset: 0xF772, size: 0x8, addend: 0x0, symName: __ZSt26__unguarded_insertion_sortIN9__gnu_cxx17__normal_iteratorIPiSt6vectorIiSaIiEEEENS0_5__ops15_Iter_less_iterEEvT_S9_T0_, symObjAddr: 0x3B6C, symBinAddr: 0x100004D04, symSize: 0x70 }
  - { offsetInCU: 0xF77A, offset: 0xF77A, size: 0x8, addend: 0x0, symName: __ZSt7forwardIRKiEOT_RNSt16remove_referenceIS2_E4typeE, symObjAddr: 0x3BDC, symBinAddr: 0x100004D74, symSize: 0x14 }
  - { offsetInCU: 0xF7FD, offset: 0xF7FD, size: 0x8, addend: 0x0, symName: __ZSt16__insertion_sortIN9__gnu_cxx17__normal_iteratorIPiSt6vectorIiSaIiEEEENS0_5__ops15_Iter_less_iterEEvT_S9_T0_, symObjAddr: 0x3A64, symBinAddr: 0x100004BFC, symSize: 0x108 }
  - { offsetInCU: 0xF805, offset: 0xF805, size: 0x8, addend: 0x0, symName: __ZSt26__unguarded_insertion_sortIN9__gnu_cxx17__normal_iteratorIPiSt6vectorIiSaIiEEEENS0_5__ops15_Iter_less_iterEEvT_S9_T0_, symObjAddr: 0x3B6C, symBinAddr: 0x100004D04, symSize: 0x70 }
  - { offsetInCU: 0xF8DE, offset: 0xF8DE, size: 0x8, addend: 0x0, symName: __ZSt27__unguarded_partition_pivotIN9__gnu_cxx17__normal_iteratorIPiSt6vectorIiSaIiEEEENS0_5__ops15_Iter_less_iterEET_S9_S9_T0_, symObjAddr: 0x39C0, symBinAddr: 0x100004B58, symSize: 0xA4 }
  - { offsetInCU: 0xF8E6, offset: 0xF8E6, size: 0x8, addend: 0x0, symName: __ZSt16__insertion_sortIN9__gnu_cxx17__normal_iteratorIPiSt6vectorIiSaIiEEEENS0_5__ops15_Iter_less_iterEEvT_S9_T0_, symObjAddr: 0x3A64, symBinAddr: 0x100004BFC, symSize: 0x108 }
  - { offsetInCU: 0xF956, offset: 0xF956, size: 0x8, addend: 0x0, symName: __ZSt14__partial_sortIN9__gnu_cxx17__normal_iteratorIPiSt6vectorIiSaIiEEEENS0_5__ops15_Iter_less_iterEEvT_S9_S9_T0_, symObjAddr: 0x3974, symBinAddr: 0x100004B0C, symSize: 0x4C }
  - { offsetInCU: 0xF95E, offset: 0xF95E, size: 0x8, addend: 0x0, symName: __ZSt27__unguarded_partition_pivotIN9__gnu_cxx17__normal_iteratorIPiSt6vectorIiSaIiEEEENS0_5__ops15_Iter_less_iterEET_S9_S9_T0_, symObjAddr: 0x39C0, symBinAddr: 0x100004B58, symSize: 0xA4 }
  - { offsetInCU: 0xF92C, offset: 0xF92C, size: 0x8, addend: 0x0, symName: __ZSt11__bit_widthImEiT_, symObjAddr: 0x3944, symBinAddr: 0x100004ADC, symSize: 0x30 }
  - { offsetInCU: 0xF934, offset: 0xF934, size: 0x8, addend: 0x0, symName: __ZSt14__partial_sortIN9__gnu_cxx17__normal_iteratorIPiSt6vectorIiSaIiEEEENS0_5__ops15_Iter_less_iterEEvT_S9_S9_T0_, symObjAddr: 0x3974, symBinAddr: 0x100004B0C, symSize: 0x4C }
  - { offsetInCU: 0xF950, offset: 0xF950, size: 0x8, addend: 0x0, symName: __ZNSt12_Destroy_auxILb1EE9__destroyIPiEEvT_S3_, symObjAddr: 0x392C, symBinAddr: 0x100004AC4, symSize: 0x18 }
  - { offsetInCU: 0xF958, offset: 0xF958, size: 0x8, addend: 0x0, symName: __ZSt11__bit_widthImEiT_, symObjAddr: 0x3944, symBinAddr: 0x100004ADC, symSize: 0x30 }
  - { offsetInCU: 0xFA5A, offset: 0xFA5A, size: 0x8, addend: 0x0, symName: __ZSt18uninitialized_copyIN9__gnu_cxx17__normal_iteratorIPiSt6vectorIiSaIiEEEES2_ET0_T_S8_S7_, symObjAddr: 0x38F0, symBinAddr: 0x100004A88, symSize: 0x3C }
  - { offsetInCU: 0xFA62, offset: 0xFA62, size: 0x8, addend: 0x0, symName: __ZNSt12_Destroy_auxILb1EE9__destroyIPiEEvT_S3_, symObjAddr: 0x392C, symBinAddr: 0x100004AC4, symSize: 0x18 }
  - { offsetInCU: 0xFAC1, offset: 0xFAC1, size: 0x8, addend: 0x0, symName: __ZSt12__relocate_aIPiS0_SaIiEET0_T_S3_S2_RT1_, symObjAddr: 0x3894, symBinAddr: 0x100004A2C, symSize: 0x5C }
  - { offsetInCU: 0xFAC9, offset: 0xFAC9, size: 0x8, addend: 0x0, symName: __ZSt18uninitialized_copyIN9__gnu_cxx17__normal_iteratorIPiSt6vectorIiSaIiEEEES2_ET0_T_S8_S7_, symObjAddr: 0x38F0, symBinAddr: 0x100004A88, symSize: 0x3C }
  - { offsetInCU: 0xFB93, offset: 0xFB93, size: 0x8, addend: 0x0, symName: __ZSt25__uninitialized_default_nIPimET_S1_T0_, symObjAddr: 0x3868, symBinAddr: 0x100004A00, symSize: 0x2C }
  - { offsetInCU: 0xFB9B, offset: 0xFB9B, size: 0x8, addend: 0x0, symName: __ZSt12__relocate_aIPiS0_SaIiEET0_T_S3_S2_RT1_, symObjAddr: 0x3894, symBinAddr: 0x100004A2C, symSize: 0x5C }
  - { offsetInCU: 0xFBAF, offset: 0xFBAF, size: 0x8, addend: 0x0, symName: __ZNKSt12_Vector_baseIiSaIiEE19_M_get_Tp_allocatorEv, symObjAddr: 0x3854, symBinAddr: 0x1000049EC, symSize: 0x14 }
  - { offsetInCU: 0xFBB7, offset: 0xFBB7, size: 0x8, addend: 0x0, symName: __ZSt25__uninitialized_default_nIPimET_S1_T0_, symObjAddr: 0x3868, symBinAddr: 0x100004A00, symSize: 0x2C }
  - { offsetInCU: 0xFBDE, offset: 0xFBDE, size: 0x8, addend: 0x0, symName: __ZNSt6vectorIiSaIiEE11_S_max_sizeERKS0_, symObjAddr: 0x3800, symBinAddr: 0x100004998, symSize: 0x54 }
  - { offsetInCU: 0xFBE6, offset: 0xFBE6, size: 0x8, addend: 0x0, symName: __ZNKSt12_Vector_baseIiSaIiEE19_M_get_Tp_allocatorEv, symObjAddr: 0x3854, symBinAddr: 0x1000049EC, symSize: 0x14 }
  - { offsetInCU: 0xFDD2, offset: 0xFDD2, size: 0x8, addend: 0x0, symName: __ZSt13__adjust_heapIN9__gnu_cxx17__normal_iteratorIPiSt6vectorIiSaIiEEEEliNS0_5__ops15_Iter_comp_iterISt7greaterIiEEEEvT_T0_SD_T1_T2_, symObjAddr: 0x3628, symBinAddr: 0x1000047C0, symSize: 0x1D8 }
  - { offsetInCU: 0xFDDA, offset: 0xFDDA, size: 0x8, addend: 0x0, symName: __ZNSt6vectorIiSaIiEE11_S_max_sizeERKS0_, symObjAddr: 0x3800, symBinAddr: 0x100004998, symSize: 0x54 }
  - { offsetInCU: 0xFEF5, offset: 0xFEF5, size: 0x8, addend: 0x0, symName: __ZSt13__adjust_heapIN9__gnu_cxx17__normal_iteratorIPiSt6vectorIiSaIiEEEEliNS0_5__ops15_Iter_comp_iterISt4lessIiEEEEvT_T0_SD_T1_T2_, symObjAddr: 0x3450, symBinAddr: 0x1000045E8, symSize: 0x1D8 }
  - { offsetInCU: 0xFEFD, offset: 0xFEFD, size: 0x8, addend: 0x0, symName: __ZSt13__adjust_heapIN9__gnu_cxx17__normal_iteratorIPiSt6vectorIiSaIiEEEEliNS0_5__ops15_Iter_comp_iterISt7greaterIiEEEEvT_T0_SD_T1_T2_, symObjAddr: 0x3628, symBinAddr: 0x1000047C0, symSize: 0x1D8 }
  - { offsetInCU: 0xFEC6, offset: 0xFEC6, size: 0x8, addend: 0x0, symName: __ZNSt10_HashtableIiiSaIiENSt8__detail9_IdentityESt8equal_toIiESt4hashIiENS1_18_Mod_range_hashingENS1_20_Default_ranged_hashENS1_20_Prime_rehash_policyENS1_17_Hashtable_traitsILb0ELb1ELb1EEEE8_M_eraseEmPNS1_15_Hash_node_baseEPNS1_10_Hash_nodeIiLb0EEE, symObjAddr: 0x3310, symBinAddr: 0x1000044A8, symSize: 0x140 }
  - { offsetInCU: 0xFECE, offset: 0xFECE, size: 0x8, addend: 0x0, symName: __ZSt13__adjust_heapIN9__gnu_cxx17__normal_iteratorIPiSt6vectorIiSaIiEEEEliNS0_5__ops15_Iter_comp_iterISt4lessIiEEEEvT_T0_SD_T1_T2_, symObjAddr: 0x3450, symBinAddr: 0x1000045E8, symSize: 0x1D8 }
  - { offsetInCU: 0xFF6B, offset: 0xFF6B, size: 0x8, addend: 0x0, symName: __ZNSt10_HashtableIiiSaIiENSt8__detail9_IdentityESt8equal_toIiESt4hashIiENS1_18_Mod_range_hashingENS1_20_Default_ranged_hashENS1_20_Prime_rehash_policyENS1_17_Hashtable_traitsILb0ELb1ELb1EEEE20_M_get_previous_nodeEmPNS1_10_Hash_nodeIiLb0EEE, symObjAddr: 0x32B4, symBinAddr: 0x10000444C, symSize: 0x5C }
  - { offsetInCU: 0xFF73, offset: 0xFF73, size: 0x8, addend: 0x0, symName: __ZNSt10_HashtableIiiSaIiENSt8__detail9_IdentityESt8equal_toIiESt4hashIiENS1_18_Mod_range_hashingENS1_20_Default_ranged_hashENS1_20_Prime_rehash_policyENS1_17_Hashtable_traitsILb0ELb1ELb1EEEE8_M_eraseEmPNS1_15_Hash_node_baseEPNS1_10_Hash_nodeIiLb0EEE, symObjAddr: 0x3310, symBinAddr: 0x1000044A8, symSize: 0x140 }
  - { offsetInCU: 0xFFD6, offset: 0xFFD6, size: 0x8, addend: 0x0, symName: __ZNKSt10_HashtableIiiSaIiENSt8__detail9_IdentityESt8equal_toIiESt4hashIiENS1_18_Mod_range_hashingENS1_20_Default_ranged_hashENS1_20_Prime_rehash_policyENS1_17_Hashtable_traitsILb0ELb1ELb1EEEE15_M_bucket_indexERKNS1_16_Hash_node_valueIiLb0EEE, symObjAddr: 0x3284, symBinAddr: 0x10000441C, symSize: 0x30 }
  - { offsetInCU: 0xFFDE, offset: 0xFFDE, size: 0x8, addend: 0x0, symName: __ZNSt10_HashtableIiiSaIiENSt8__detail9_IdentityESt8equal_toIiESt4hashIiENS1_18_Mod_range_hashingENS1_20_Default_ranged_hashENS1_20_Prime_rehash_policyENS1_17_Hashtable_traitsILb0ELb1ELb1EEEE20_M_get_previous_nodeEmPNS1_10_Hash_nodeIiLb0EEE, symObjAddr: 0x32B4, symBinAddr: 0x10000444C, symSize: 0x5C }
  - { offsetInCU: 0x10089, offset: 0x10089, size: 0x8, addend: 0x0, symName: __ZNSt8__detail19_Node_iterator_baseIiLb0EEC2EPNS_10_Hash_nodeIiLb0EEE, symObjAddr: 0x3260, symBinAddr: 0x1000043F8, symSize: 0x24 }
  - { offsetInCU: 0x10091, offset: 0x10091, size: 0x8, addend: 0x0, symName: __ZNKSt10_HashtableIiiSaIiENSt8__detail9_IdentityESt8equal_toIiESt4hashIiENS1_18_Mod_range_hashingENS1_20_Default_ranged_hashENS1_20_Prime_rehash_policyENS1_17_Hashtable_traitsILb0ELb1ELb1EEEE15_M_bucket_indexERKNS1_16_Hash_node_valueIiLb0EEE, symObjAddr: 0x3284, symBinAddr: 0x10000441C, symSize: 0x30 }
  - { offsetInCU: 0x1007D, offset: 0x1007D, size: 0x8, addend: 0x0, symName: __ZNKSt10_HashtableIiiSaIiENSt8__detail9_IdentityESt8equal_toIiESt4hashIiENS1_18_Mod_range_hashingENS1_20_Default_ranged_hashENS1_20_Prime_rehash_policyENS1_17_Hashtable_traitsILb0ELb1ELb1EEEE19_M_find_before_nodeEmRKim, symObjAddr: 0x3160, symBinAddr: 0x1000042F8, symSize: 0x100 }
  - { offsetInCU: 0x10085, offset: 0x10085, size: 0x8, addend: 0x0, symName: __ZNSt8__detail19_Node_iterator_baseIiLb0EEC2EPNS_10_Hash_nodeIiLb0EEE, symObjAddr: 0x3260, symBinAddr: 0x1000043F8, symSize: 0x24 }
  - { offsetInCU: 0x10122, offset: 0x10122, size: 0x8, addend: 0x0, symName: __ZNKSt8__detail15_Hash_code_baseIiiNS_9_IdentityESt4hashIiENS_18_Mod_range_hashingENS_20_Default_ranged_hashELb0EE15_M_bucket_indexEmm, symObjAddr: 0x3134, symBinAddr: 0x1000042CC, symSize: 0x2C }
  - { offsetInCU: 0x1012A, offset: 0x1012A, size: 0x8, addend: 0x0, symName: __ZNKSt10_HashtableIiiSaIiENSt8__detail9_IdentityESt8equal_toIiESt4hashIiENS1_18_Mod_range_hashingENS1_20_Default_ranged_hashENS1_20_Prime_rehash_policyENS1_17_Hashtable_traitsILb0ELb1ELb1EEEE19_M_find_before_nodeEmRKim, symObjAddr: 0x3160, symBinAddr: 0x1000042F8, symSize: 0x100 }
  - { offsetInCU: 0x10179, offset: 0x10179, size: 0x8, addend: 0x0, symName: __ZNKSt8__detail15_Hash_code_baseIiiNS_9_IdentityESt4hashIiENS_18_Mod_range_hashingENS_20_Default_ranged_hashELb0EE7_M_hashEv, symObjAddr: 0x3118, symBinAddr: 0x1000042B0, symSize: 0x1C }
  - { offsetInCU: 0x10181, offset: 0x10181, size: 0x8, addend: 0x0, symName: __ZNKSt8__detail15_Hash_code_baseIiiNS_9_IdentityESt4hashIiENS_18_Mod_range_hashingENS_20_Default_ranged_hashELb0EE15_M_bucket_indexEmm, symObjAddr: 0x3134, symBinAddr: 0x1000042CC, symSize: 0x2C }
  - { offsetInCU: 0x101A8, offset: 0x101A8, size: 0x8, addend: 0x0, symName: __ZNKSt8equal_toIiEclERKiS2_, symObjAddr: 0x30E4, symBinAddr: 0x10000427C, symSize: 0x34 }
  - { offsetInCU: 0x101B0, offset: 0x101B0, size: 0x8, addend: 0x0, symName: __ZNKSt8__detail15_Hash_code_baseIiiNS_9_IdentityESt4hashIiENS_18_Mod_range_hashingENS_20_Default_ranged_hashELb0EE7_M_hashEv, symObjAddr: 0x3118, symBinAddr: 0x1000042B0, symSize: 0x1C }
  - { offsetInCU: 0x10212, offset: 0x10212, size: 0x8, addend: 0x0, symName: __ZNKSt8__detail9_IdentityclIRKiEEOT_S5_, symObjAddr: 0x30C4, symBinAddr: 0x10000425C, symSize: 0x20 }
  - { offsetInCU: 0x1021A, offset: 0x1021A, size: 0x8, addend: 0x0, symName: __ZNKSt8equal_toIiEclERKiS2_, symObjAddr: 0x30E4, symBinAddr: 0x10000427C, symSize: 0x34 }
  - { offsetInCU: 0x10261, offset: 0x10261, size: 0x8, addend: 0x0, symName: __ZNKSt8__detail21_Hash_node_value_baseIiE4_M_vEv, symObjAddr: 0x30A8, symBinAddr: 0x100004240, symSize: 0x1C }
  - { offsetInCU: 0x10269, offset: 0x10269, size: 0x8, addend: 0x0, symName: __ZNKSt8__detail9_IdentityclIRKiEEOT_S5_, symObjAddr: 0x30C4, symBinAddr: 0x10000425C, symSize: 0x20 }
  - { offsetInCU: 0x10290, offset: 0x10290, size: 0x8, addend: 0x0, symName: __ZNKSt8__detail15_Hashtable_baseIiiNS_9_IdentityESt8equal_toIiESt4hashIiENS_18_Mod_range_hashingENS_20_Default_ranged_hashENS_17_Hashtable_traitsILb0ELb1ELb1EEEE5_M_eqEv, symObjAddr: 0x308C, symBinAddr: 0x100004224, symSize: 0x1C }
  - { offsetInCU: 0x10298, offset: 0x10298, size: 0x8, addend: 0x0, symName: __ZNKSt8__detail21_Hash_node_value_baseIiE4_M_vEv, symObjAddr: 0x30A8, symBinAddr: 0x100004240, symSize: 0x1C }
  - { offsetInCU: 0x102BF, offset: 0x102BF, size: 0x8, addend: 0x0, symName: __ZNSt8__detail19_Node_iterator_baseIiLb0EE7_M_incrEv, symObjAddr: 0x305C, symBinAddr: 0x1000041F4, symSize: 0x30 }
  - { offsetInCU: 0x102C7, offset: 0x102C7, size: 0x8, addend: 0x0, symName: __ZNKSt8__detail15_Hashtable_baseIiiNS_9_IdentityESt8equal_toIiESt4hashIiENS_18_Mod_range_hashingENS_20_Default_ranged_hashENS_17_Hashtable_traitsILb0ELb1ELb1EEEE5_M_eqEv, symObjAddr: 0x308C, symBinAddr: 0x100004224, symSize: 0x1C }
  - { offsetInCU: 0x102EF, offset: 0x102EF, size: 0x8, addend: 0x0, symName: __ZNSt8__detail22_Hashtable_hash_traitsISt4hashIiEE22__small_size_thresholdEv, symObjAddr: 0x3054, symBinAddr: 0x1000041EC, symSize: 0x8 }
  - { offsetInCU: 0x102F7, offset: 0x102F7, size: 0x8, addend: 0x0, symName: __ZNSt8__detail19_Node_iterator_baseIiLb0EE7_M_incrEv, symObjAddr: 0x305C, symBinAddr: 0x1000041F4, symSize: 0x30 }
  - { offsetInCU: 0x10373, offset: 0x10373, size: 0x8, addend: 0x0, symName: __ZN9__gnu_cxx17__normal_iteratorIPKiSt6vectorIiSaIiEEEC1ERKS2_, symObjAddr: 0x302C, symBinAddr: 0x1000041C4, symSize: 0x28 }
  - { offsetInCU: 0x1037B, offset: 0x1037B, size: 0x8, addend: 0x0, symName: __ZNSt8__detail22_Hashtable_hash_traitsISt4hashIiEE22__small_size_thresholdEv, symObjAddr: 0x3054, symBinAddr: 0x1000041EC, symSize: 0x8 }
  - { offsetInCU: 0x1036E, offset: 0x1036E, size: 0x8, addend: 0x0, symName: __ZNSt15__new_allocatorIiE10deallocateEPim, symObjAddr: 0x2FFC, symBinAddr: 0x100004194, symSize: 0x30 }
  - { offsetInCU: 0x10376, offset: 0x10376, size: 0x8, addend: 0x0, symName: __ZN9__gnu_cxx17__normal_iteratorIPKiSt6vectorIiSaIiEEEC1ERKS2_, symObjAddr: 0x302C, symBinAddr: 0x1000041C4, symSize: 0x28 }
  - { offsetInCU: 0x103C3, offset: 0x103C3, size: 0x8, addend: 0x0, symName: __ZNSt8__detail16_Hashtable_allocISaINS_10_Hash_nodeIiLb0EEEEE21_M_deallocate_bucketsEPPNS_15_Hash_node_baseEm, symObjAddr: 0x2F84, symBinAddr: 0x10000411C, symSize: 0x78 }
  - { offsetInCU: 0x103CB, offset: 0x103CB, size: 0x8, addend: 0x0, symName: __ZNSt15__new_allocatorIiE10deallocateEPim, symObjAddr: 0x2FFC, symBinAddr: 0x100004194, symSize: 0x30 }
  - { offsetInCU: 0x104F6, offset: 0x104F6, size: 0x8, addend: 0x0, symName: __ZNKSt10_HashtableIiiSaIiENSt8__detail9_IdentityESt8equal_toIiESt4hashIiENS1_18_Mod_range_hashingENS1_20_Default_ranged_hashENS1_20_Prime_rehash_policyENS1_17_Hashtable_traitsILb0ELb1ELb1EEEE21_M_uses_single_bucketEPPNS1_15_Hash_node_baseE, symObjAddr: 0x2F48, symBinAddr: 0x1000040E0, symSize: 0x3C }
  - { offsetInCU: 0x104FE, offset: 0x104FE, size: 0x8, addend: 0x0, symName: __ZNSt8__detail16_Hashtable_allocISaINS_10_Hash_nodeIiLb0EEEEE21_M_deallocate_bucketsEPPNS_15_Hash_node_baseEm, symObjAddr: 0x2F84, symBinAddr: 0x10000411C, symSize: 0x78 }
  - { offsetInCU: 0x10539, offset: 0x10539, size: 0x8, addend: 0x0, symName: __ZNSt8__detail16_Hashtable_allocISaINS_10_Hash_nodeIiLb0EEEEE18_M_deallocate_nodeEPS2_, symObjAddr: 0x2EE0, symBinAddr: 0x100004078, symSize: 0x68 }
  - { offsetInCU: 0x10541, offset: 0x10541, size: 0x8, addend: 0x0, symName: __ZNKSt10_HashtableIiiSaIiENSt8__detail9_IdentityESt8equal_toIiESt4hashIiENS1_18_Mod_range_hashingENS1_20_Default_ranged_hashENS1_20_Prime_rehash_policyENS1_17_Hashtable_traitsILb0ELb1ELb1EEEE21_M_uses_single_bucketEPPNS1_15_Hash_node_baseE, symObjAddr: 0x2F48, symBinAddr: 0x1000040E0, symSize: 0x3C }
  - { offsetInCU: 0x105E0, offset: 0x105E0, size: 0x8, addend: 0x0, symName: __ZNKSt8__detail10_Hash_nodeIiLb0EE7_M_nextEv, symObjAddr: 0x2EC8, symBinAddr: 0x100004060, symSize: 0x18 }
  - { offsetInCU: 0x105E8, offset: 0x105E8, size: 0x8, addend: 0x0, symName: __ZNSt8__detail16_Hashtable_allocISaINS_10_Hash_nodeIiLb0EEEEE18_M_deallocate_nodeEPS2_, symObjAddr: 0x2EE0, symBinAddr: 0x100004078, symSize: 0x68 }
  - { offsetInCU: 0x1069F, offset: 0x1069F, size: 0x8, addend: 0x0, symName: __ZN9__gnu_cxxeqIPKiSt6vectorIiSaIiEEEEbRKNS_17__normal_iteratorIT_T0_EESB_, symObjAddr: 0x2E84, symBinAddr: 0x10000401C, symSize: 0x44 }
  - { offsetInCU: 0x106A7, offset: 0x106A7, size: 0x8, addend: 0x0, symName: __ZNKSt8__detail10_Hash_nodeIiLb0EE7_M_nextEv, symObjAddr: 0x2EC8, symBinAddr: 0x100004060, symSize: 0x18 }
  - { offsetInCU: 0x10686, offset: 0x10686, size: 0x8, addend: 0x0, symName: __ZNKSt6vectorIiSaIiEE3endEv, symObjAddr: 0x2E5C, symBinAddr: 0x100003FF4, symSize: 0x28 }
  - { offsetInCU: 0x1068E, offset: 0x1068E, size: 0x8, addend: 0x0, symName: __ZN9__gnu_cxxeqIPKiSt6vectorIiSaIiEEEEbRKNS_17__normal_iteratorIT_T0_EESB_, symObjAddr: 0x2E84, symBinAddr: 0x10000401C, symSize: 0x44 }
  - { offsetInCU: 0x106B5, offset: 0x106B5, size: 0x8, addend: 0x0, symName: __ZNSt10_HashtableIiiSaIiENSt8__detail9_IdentityESt8equal_toIiESt4hashIiENS1_18_Mod_range_hashingENS1_20_Default_ranged_hashENS1_20_Prime_rehash_policyENS1_17_Hashtable_traitsILb0ELb1ELb1EEEE9_M_insertIRKiNS1_10_AllocNodeISaINS1_10_Hash_nodeIiLb0EEEEEEEESt4pairINS1_14_Node_iteratorIiLb1ELb0EEEbEOT_RKT0_St17integral_constantIbLb1EE, symObjAddr: 0x2E18, symBinAddr: 0x100003FB0, symSize: 0x44 }
  - { offsetInCU: 0x106BD, offset: 0x106BD, size: 0x8, addend: 0x0, symName: __ZNKSt6vectorIiSaIiEE3endEv, symObjAddr: 0x2E5C, symBinAddr: 0x100003FF4, symSize: 0x28 }
  - { offsetInCU: 0x107B2, offset: 0x107B2, size: 0x8, addend: 0x0, symName: __ZNSt8__detail10_AllocNodeISaINS_10_Hash_nodeIiLb0EEEEEC1ERNS_16_Hashtable_allocIS3_EE, symObjAddr: 0x2DF4, symBinAddr: 0x100003F8C, symSize: 0x24 }
  - { offsetInCU: 0x107BA, offset: 0x107BA, size: 0x8, addend: 0x0, symName: __ZNSt10_HashtableIiiSaIiENSt8__detail9_IdentityESt8equal_toIiESt4hashIiENS1_18_Mod_range_hashingENS1_20_Default_ranged_hashENS1_20_Prime_rehash_policyENS1_17_Hashtable_traitsILb0ELb1ELb1EEEE9_M_insertIRKiNS1_10_AllocNodeISaINS1_10_Hash_nodeIiLb0EEEEEEEESt4pairINS1_14_Node_iteratorIiLb1ELb0EEEbEOT_RKT0_St17integral_constantIbLb1EE, symObjAddr: 0x2E18, symBinAddr: 0x100003FB0, symSize: 0x44 }
  - { offsetInCU: 0x10795, offset: 0x10795, size: 0x8, addend: 0x0, symName: __ZNSt8__detail12_Insert_baseIiiSaIiENS_9_IdentityESt8equal_toIiESt4hashIiENS_18_Mod_range_hashingENS_20_Default_ranged_hashENS_20_Prime_rehash_policyENS_17_Hashtable_traitsILb0ELb1ELb1EEEE20_M_conjure_hashtableEv, symObjAddr: 0x2DE0, symBinAddr: 0x100003F78, symSize: 0x14 }
  - { offsetInCU: 0x1079D, offset: 0x1079D, size: 0x8, addend: 0x0, symName: __ZNSt8__detail10_AllocNodeISaINS_10_Hash_nodeIiLb0EEEEEC1ERNS_16_Hashtable_allocIS3_EE, symObjAddr: 0x2DF4, symBinAddr: 0x100003F8C, symSize: 0x24 }
  - { offsetInCU: 0x108E7, offset: 0x108E7, size: 0x8, addend: 0x0, symName: __ZSt11__push_heapIN9__gnu_cxx17__normal_iteratorIPiSt6vectorIiSaIiEEEEliNS0_5__ops14_Iter_comp_valISt7greaterIiEEEEvT_T0_SD_T1_RT2_, symObjAddr: 0x2CB8, symBinAddr: 0x100003E50, symSize: 0x128 }
  - { offsetInCU: 0x108EF, offset: 0x108EF, size: 0x8, addend: 0x0, symName: __ZNSt8__detail12_Insert_baseIiiSaIiENS_9_IdentityESt8equal_toIiESt4hashIiENS_18_Mod_range_hashingENS_20_Default_ranged_hashENS_20_Prime_rehash_policyENS_17_Hashtable_traitsILb0ELb1ELb1EEEE20_M_conjure_hashtableEv, symObjAddr: 0x2DE0, symBinAddr: 0x100003F78, symSize: 0x14 }
  - { offsetInCU: 0x108F9, offset: 0x108F9, size: 0x8, addend: 0x0, symName: __ZN9__gnu_cxx5__ops14_Iter_comp_valISt7greaterIiEEC1ES3_, symObjAddr: 0x2C94, symBinAddr: 0x100003E2C, symSize: 0x24 }
  - { offsetInCU: 0x10901, offset: 0x10901, size: 0x8, addend: 0x0, symName: __ZSt11__push_heapIN9__gnu_cxx17__normal_iteratorIPiSt6vectorIiSaIiEEEEliNS0_5__ops14_Iter_comp_valISt7greaterIiEEEEvT_T0_SD_T1_RT2_, symObjAddr: 0x2CB8, symBinAddr: 0x100003E50, symSize: 0x128 }
  - { offsetInCU: 0x10A17, offset: 0x10A17, size: 0x8, addend: 0x0, symName: __ZSt11__push_heapIN9__gnu_cxx17__normal_iteratorIPiSt6vectorIiSaIiEEEEliNS0_5__ops14_Iter_comp_valISt4lessIiEEEEvT_T0_SD_T1_RT2_, symObjAddr: 0x2B6C, symBinAddr: 0x100003D04, symSize: 0x128 }
  - { offsetInCU: 0x10A1F, offset: 0x10A1F, size: 0x8, addend: 0x0, symName: __ZN9__gnu_cxx5__ops14_Iter_comp_valISt7greaterIiEEC1ES3_, symObjAddr: 0x2C94, symBinAddr: 0x100003E2C, symSize: 0x24 }
  - { offsetInCU: 0x10A0E, offset: 0x10A0E, size: 0x8, addend: 0x0, symName: __ZSt4moveIRiEONSt16remove_referenceIT_E4typeEOS2_, symObjAddr: 0x2B58, symBinAddr: 0x100003CF0, symSize: 0x14 }
  - { offsetInCU: 0x10A16, offset: 0x10A16, size: 0x8, addend: 0x0, symName: __ZSt11__push_heapIN9__gnu_cxx17__normal_iteratorIPiSt6vectorIiSaIiEEEEliNS0_5__ops14_Iter_comp_valISt4lessIiEEEEvT_T0_SD_T1_RT2_, symObjAddr: 0x2B6C, symBinAddr: 0x100003D04, symSize: 0x128 }
  - { offsetInCU: 0x10A21, offset: 0x10A21, size: 0x8, addend: 0x0, symName: __ZNK9__gnu_cxx17__normal_iteratorIPiSt6vectorIiSaIiEEEmiEl, symObjAddr: 0x2B14, symBinAddr: 0x100003CAC, symSize: 0x44 }
  - { offsetInCU: 0x10A29, offset: 0x10A29, size: 0x8, addend: 0x0, symName: __ZSt4moveIRiEONSt16remove_referenceIT_E4typeEOS2_, symObjAddr: 0x2B58, symBinAddr: 0x100003CF0, symSize: 0x14 }
  - { offsetInCU: 0x10AC3, offset: 0x10AC3, size: 0x8, addend: 0x0, symName: __ZN9__gnu_cxx5__ops14_Iter_comp_valISt4lessIiEEC1ES3_, symObjAddr: 0x2AF0, symBinAddr: 0x100003C88, symSize: 0x24 }
  - { offsetInCU: 0x10ACB, offset: 0x10ACB, size: 0x8, addend: 0x0, symName: __ZNK9__gnu_cxx17__normal_iteratorIPiSt6vectorIiSaIiEEEmiEl, symObjAddr: 0x2B14, symBinAddr: 0x100003CAC, symSize: 0x44 }
  - { offsetInCU: 0x10AC7, offset: 0x10AC7, size: 0x8, addend: 0x0, symName: __ZNSt6vectorIiSaIiEE17_M_realloc_insertIJRKiEEEvN9__gnu_cxx17__normal_iteratorIPiS1_EEDpOT_, symObjAddr: 0x2930, symBinAddr: 0x100003AC8, symSize: 0x1C0 }
  - { offsetInCU: 0x10ACF, offset: 0x10ACF, size: 0x8, addend: 0x0, symName: __ZN9__gnu_cxx5__ops14_Iter_comp_valISt4lessIiEEC1ES3_, symObjAddr: 0x2AF0, symBinAddr: 0x100003C88, symSize: 0x24 }
  - { offsetInCU: 0x10D7E, offset: 0x10D7E, size: 0x8, addend: 0x0, symName: __ZSt22__final_insertion_sortIN9__gnu_cxx17__normal_iteratorIPiSt6vectorIiSaIiEEEENS0_5__ops15_Iter_less_iterEEvT_S9_T0_, symObjAddr: 0x2894, symBinAddr: 0x100003A2C, symSize: 0x9C }
  - { offsetInCU: 0x10D86, offset: 0x10D86, size: 0x8, addend: 0x0, symName: __ZNSt6vectorIiSaIiEE17_M_realloc_insertIJRKiEEEvN9__gnu_cxx17__normal_iteratorIPiS1_EEDpOT_, symObjAddr: 0x2930, symBinAddr: 0x100003AC8, symSize: 0x1C0 }
  - { offsetInCU: 0x10DF9, offset: 0x10DF9, size: 0x8, addend: 0x0, symName: __ZSt16__introsort_loopIN9__gnu_cxx17__normal_iteratorIPiSt6vectorIiSaIiEEEElNS0_5__ops15_Iter_less_iterEEvT_S9_T0_T1_, symObjAddr: 0x27DC, symBinAddr: 0x100003974, symSize: 0xB8 }
  - { offsetInCU: 0x10E01, offset: 0x10E01, size: 0x8, addend: 0x0, symName: __ZSt22__final_insertion_sortIN9__gnu_cxx17__normal_iteratorIPiSt6vectorIiSaIiEEEENS0_5__ops15_Iter_less_iterEEvT_S9_T0_, symObjAddr: 0x2894, symBinAddr: 0x100003A2C, symSize: 0x9C }
  - { offsetInCU: 0x10DDD, offset: 0x10DDD, size: 0x8, addend: 0x0, symName: __ZSt4__lgIlET_S0_, symObjAddr: 0x27B8, symBinAddr: 0x100003950, symSize: 0x24 }
  - { offsetInCU: 0x10DE5, offset: 0x10DE5, size: 0x8, addend: 0x0, symName: __ZSt16__introsort_loopIN9__gnu_cxx17__normal_iteratorIPiSt6vectorIiSaIiEEEElNS0_5__ops15_Iter_less_iterEEvT_S9_T0_T1_, symObjAddr: 0x27DC, symBinAddr: 0x100003974, symSize: 0xB8 }
  - { offsetInCU: 0x10E2A, offset: 0x10E2A, size: 0x8, addend: 0x0, symName: __ZSt8_DestroyIPiEvT_S1_, symObjAddr: 0x2790, symBinAddr: 0x100003928, symSize: 0x28 }
  - { offsetInCU: 0x10E32, offset: 0x10E32, size: 0x8, addend: 0x0, symName: __ZSt4__lgIlET_S0_, symObjAddr: 0x27B8, symBinAddr: 0x100003950, symSize: 0x24 }
  - { offsetInCU: 0x10F36, offset: 0x10F36, size: 0x8, addend: 0x0, symName: __ZSt22__uninitialized_copy_aIN9__gnu_cxx17__normal_iteratorIPiSt6vectorIiSaIiEEEES2_iET0_T_S8_S7_RSaIT1_E, symObjAddr: 0x2760, symBinAddr: 0x1000038F8, symSize: 0x30 }
  - { offsetInCU: 0x10F3E, offset: 0x10F3E, size: 0x8, addend: 0x0, symName: __ZSt8_DestroyIPiEvT_S1_, symObjAddr: 0x2790, symBinAddr: 0x100003928, symSize: 0x28 }
  - { offsetInCU: 0x10EF2, offset: 0x10EF2, size: 0x8, addend: 0x0, symName: __ZNSt6vectorIiSaIiEE17_S_check_init_lenEmRKS0_, symObjAddr: 0x26DC, symBinAddr: 0x100003874, symSize: 0x84 }
  - { offsetInCU: 0x10EFA, offset: 0x10EFA, size: 0x8, addend: 0x0, symName: __ZSt22__uninitialized_copy_aIN9__gnu_cxx17__normal_iteratorIPiSt6vectorIiSaIiEEEES2_iET0_T_S8_S7_RSaIT1_E, symObjAddr: 0x2760, symBinAddr: 0x1000038F8, symSize: 0x30 }
  - { offsetInCU: 0x11064, offset: 0x11064, size: 0x8, addend: 0x0, symName: __ZNSt12_Vector_baseIiSaIiEE12_Vector_implC1ERKS0_, symObjAddr: 0x2690, symBinAddr: 0x100003828, symSize: 0x4C }
  - { offsetInCU: 0x1106C, offset: 0x1106C, size: 0x8, addend: 0x0, symName: __ZNSt6vectorIiSaIiEE17_S_check_init_lenEmRKS0_, symObjAddr: 0x26DC, symBinAddr: 0x100003874, symSize: 0x84 }
  - { offsetInCU: 0x110D0, offset: 0x110D0, size: 0x8, addend: 0x0, symName: __ZNSt6vectorIiSaIiEE11_S_relocateEPiS2_S2_RS0_, symObjAddr: 0x265C, symBinAddr: 0x1000037F4, symSize: 0x34 }
  - { offsetInCU: 0x110D8, offset: 0x110D8, size: 0x8, addend: 0x0, symName: __ZNSt12_Vector_baseIiSaIiEE12_Vector_implC1ERKS0_, symObjAddr: 0x2690, symBinAddr: 0x100003828, symSize: 0x4C }
  - { offsetInCU: 0x1113E, offset: 0x1113E, size: 0x8, addend: 0x0, symName: __ZNSt12_Vector_baseIiSaIiEE11_M_allocateEm, symObjAddr: 0x260C, symBinAddr: 0x1000037A4, symSize: 0x50 }
  - { offsetInCU: 0x11146, offset: 0x11146, size: 0x8, addend: 0x0, symName: __ZNSt6vectorIiSaIiEE11_S_relocateEPiS2_S2_RS0_, symObjAddr: 0x265C, symBinAddr: 0x1000037F4, symSize: 0x34 }
  - { offsetInCU: 0x111B3, offset: 0x111B3, size: 0x8, addend: 0x0, symName: __ZNKSt6vectorIiSaIiEE12_M_check_lenEmPKc, symObjAddr: 0x253C, symBinAddr: 0x1000036D4, symSize: 0xD0 }
  - { offsetInCU: 0x111BB, offset: 0x111BB, size: 0x8, addend: 0x0, symName: __ZNSt12_Vector_baseIiSaIiEE11_M_allocateEm, symObjAddr: 0x260C, symBinAddr: 0x1000037A4, symSize: 0x50 }
  - { offsetInCU: 0x11295, offset: 0x11295, size: 0x8, addend: 0x0, symName: __ZSt27__uninitialized_default_n_aIPimiET_S1_T0_RSaIT1_E, symObjAddr: 0x2514, symBinAddr: 0x1000036AC, symSize: 0x28 }
  - { offsetInCU: 0x1129D, offset: 0x1129D, size: 0x8, addend: 0x0, symName: __ZNKSt6vectorIiSaIiEE12_M_check_lenEmPKc, symObjAddr: 0x253C, symBinAddr: 0x1000036D4, symSize: 0xD0 }
  - { offsetInCU: 0x112A4, offset: 0x112A4, size: 0x8, addend: 0x0, symName: __ZNKSt6vectorIiSaIiEE8max_sizeEv, symObjAddr: 0x24F4, symBinAddr: 0x10000368C, symSize: 0x20 }
  - { offsetInCU: 0x112AC, offset: 0x112AC, size: 0x8, addend: 0x0, symName: __ZSt27__uninitialized_default_n_aIPimiET_S1_T0_RSaIT1_E, symObjAddr: 0x2514, symBinAddr: 0x1000036AC, symSize: 0x28 }
  - { offsetInCU: 0x113E2, offset: 0x113E2, size: 0x8, addend: 0x0, symName: __ZSt10__pop_heapIN9__gnu_cxx17__normal_iteratorIPiSt6vectorIiSaIiEEEENS0_5__ops15_Iter_comp_iterISt7greaterIiEEEEvT_SC_SC_RT0_, symObjAddr: 0x2460, symBinAddr: 0x1000035F8, symSize: 0x94 }
  - { offsetInCU: 0x113EA, offset: 0x113EA, size: 0x8, addend: 0x0, symName: __ZNKSt6vectorIiSaIiEE8max_sizeEv, symObjAddr: 0x24F4, symBinAddr: 0x10000368C, symSize: 0x20 }
  - { offsetInCU: 0x114D4, offset: 0x114D4, size: 0x8, addend: 0x0, symName: __ZSt10__pop_heapIN9__gnu_cxx17__normal_iteratorIPiSt6vectorIiSaIiEEEENS0_5__ops15_Iter_comp_iterISt4lessIiEEEEvT_SC_SC_RT0_, symObjAddr: 0x23CC, symBinAddr: 0x100003564, symSize: 0x94 }
  - { offsetInCU: 0x114DC, offset: 0x114DC, size: 0x8, addend: 0x0, symName: __ZSt10__pop_heapIN9__gnu_cxx17__normal_iteratorIPiSt6vectorIiSaIiEEEENS0_5__ops15_Iter_comp_iterISt7greaterIiEEEEvT_SC_SC_RT0_, symObjAddr: 0x2460, symBinAddr: 0x1000035F8, symSize: 0x94 }
  - { offsetInCU: 0x11489, offset: 0x11489, size: 0x8, addend: 0x0, symName: __ZN9__gnu_cxx17__normal_iteratorIPiSt6vectorIiSaIiEEEmmEv, symObjAddr: 0x23A4, symBinAddr: 0x10000353C, symSize: 0x28 }
  - { offsetInCU: 0x11491, offset: 0x11491, size: 0x8, addend: 0x0, symName: __ZSt10__pop_heapIN9__gnu_cxx17__normal_iteratorIPiSt6vectorIiSaIiEEEENS0_5__ops15_Iter_comp_iterISt4lessIiEEEEvT_SC_SC_RT0_, symObjAddr: 0x23CC, symBinAddr: 0x100003564, symSize: 0x94 }
  - { offsetInCU: 0x11553, offset: 0x11553, size: 0x8, addend: 0x0, symName: __ZN9__gnu_cxxmiIPiSt6vectorIiSaIiEEEENS_17__normal_iteratorIT_T0_E15difference_typeERKS8_SB_, symObjAddr: 0x2364, symBinAddr: 0x1000034FC, symSize: 0x40 }
  - { offsetInCU: 0x1155B, offset: 0x1155B, size: 0x8, addend: 0x0, symName: __ZN9__gnu_cxx17__normal_iteratorIPiSt6vectorIiSaIiEEEmmEv, symObjAddr: 0x23A4, symBinAddr: 0x10000353C, symSize: 0x28 }
  - { offsetInCU: 0x11525, offset: 0x11525, size: 0x8, addend: 0x0, symName: __ZNSt10_HashtableIiiSaIiENSt8__detail9_IdentityESt8equal_toIiESt4hashIiENS1_18_Mod_range_hashingENS1_20_Default_ranged_hashENS1_20_Prime_rehash_policyENS1_17_Hashtable_traitsILb0ELb1ELb1EEEE5eraseENS1_20_Node_const_iteratorIiLb1ELb0EEE, symObjAddr: 0x2304, symBinAddr: 0x10000349C, symSize: 0x60 }
  - { offsetInCU: 0x1152D, offset: 0x1152D, size: 0x8, addend: 0x0, symName: __ZN9__gnu_cxxmiIPiSt6vectorIiSaIiEEEENS_17__normal_iteratorIT_T0_E15difference_typeERKS8_SB_, symObjAddr: 0x2364, symBinAddr: 0x1000034FC, symSize: 0x40 }
  - { offsetInCU: 0x11622, offset: 0x11622, size: 0x8, addend: 0x0, symName: __ZNSt8__detail20_Node_const_iteratorIiLb1ELb0EEC1ERKNS_14_Node_iteratorIiLb1ELb0EEE, symObjAddr: 0x22D0, symBinAddr: 0x100003468, symSize: 0x34 }
  - { offsetInCU: 0x1162A, offset: 0x1162A, size: 0x8, addend: 0x0, symName: __ZNSt10_HashtableIiiSaIiENSt8__detail9_IdentityESt8equal_toIiESt4hashIiENS1_18_Mod_range_hashingENS1_20_Default_ranged_hashENS1_20_Prime_rehash_policyENS1_17_Hashtable_traitsILb0ELb1ELb1EEEE5eraseENS1_20_Node_const_iteratorIiLb1ELb0EEE, symObjAddr: 0x2304, symBinAddr: 0x10000349C, symSize: 0x60 }
  - { offsetInCU: 0x11677, offset: 0x11677, size: 0x8, addend: 0x0, symName: __ZNSt8__detail14_Node_iteratorIiLb1ELb0EEC1EPNS_10_Hash_nodeIiLb0EEE, symObjAddr: 0x22A8, symBinAddr: 0x100003440, symSize: 0x28 }
  - { offsetInCU: 0x1167F, offset: 0x1167F, size: 0x8, addend: 0x0, symName: __ZNSt8__detail20_Node_const_iteratorIiLb1ELb0EEC1ERKNS_14_Node_iteratorIiLb1ELb0EEE, symObjAddr: 0x22D0, symBinAddr: 0x100003468, symSize: 0x34 }
  - { offsetInCU: 0x1166C, offset: 0x1166C, size: 0x8, addend: 0x0, symName: __ZNKSt10_HashtableIiiSaIiENSt8__detail9_IdentityESt8equal_toIiESt4hashIiENS1_18_Mod_range_hashingENS1_20_Default_ranged_hashENS1_20_Prime_rehash_policyENS1_17_Hashtable_traitsILb0ELb1ELb1EEEE12_M_find_nodeEmRKim, symObjAddr: 0x2254, symBinAddr: 0x1000033EC, symSize: 0x54 }
  - { offsetInCU: 0x11674, offset: 0x11674, size: 0x8, addend: 0x0, symName: __ZNSt8__detail14_Node_iteratorIiLb1ELb0EEC1EPNS_10_Hash_nodeIiLb0EEE, symObjAddr: 0x22A8, symBinAddr: 0x100003440, symSize: 0x28 }
  - { offsetInCU: 0x116EB, offset: 0x116EB, size: 0x8, addend: 0x0, symName: __ZNKSt10_HashtableIiiSaIiENSt8__detail9_IdentityESt8equal_toIiESt4hashIiENS1_18_Mod_range_hashingENS1_20_Default_ranged_hashENS1_20_Prime_rehash_policyENS1_17_Hashtable_traitsILb0ELb1ELb1EEEE15_M_bucket_indexEm, symObjAddr: 0x2224, symBinAddr: 0x1000033BC, symSize: 0x30 }
  - { offsetInCU: 0x116F3, offset: 0x116F3, size: 0x8, addend: 0x0, symName: __ZNKSt10_HashtableIiiSaIiENSt8__detail9_IdentityESt8equal_toIiESt4hashIiENS1_18_Mod_range_hashingENS1_20_Default_ranged_hashENS1_20_Prime_rehash_policyENS1_17_Hashtable_traitsILb0ELb1ELb1EEEE12_M_find_nodeEmRKim, symObjAddr: 0x2254, symBinAddr: 0x1000033EC, symSize: 0x54 }
  - { offsetInCU: 0x1172E, offset: 0x1172E, size: 0x8, addend: 0x0, symName: __ZNKSt8__detail15_Hash_code_baseIiiNS_9_IdentityESt4hashIiENS_18_Mod_range_hashingENS_20_Default_ranged_hashELb0EE12_M_hash_codeERKi, symObjAddr: 0x21EC, symBinAddr: 0x100003384, symSize: 0x38 }
  - { offsetInCU: 0x11736, offset: 0x11736, size: 0x8, addend: 0x0, symName: __ZNKSt10_HashtableIiiSaIiENSt8__detail9_IdentityESt8equal_toIiESt4hashIiENS1_18_Mod_range_hashingENS1_20_Default_ranged_hashENS1_20_Prime_rehash_policyENS1_17_Hashtable_traitsILb0ELb1ELb1EEEE15_M_bucket_indexEm, symObjAddr: 0x2224, symBinAddr: 0x1000033BC, symSize: 0x30 }
  - { offsetInCU: 0x11771, offset: 0x11771, size: 0x8, addend: 0x0, symName: __ZNKSt8__detail15_Hashtable_baseIiiNS_9_IdentityESt8equal_toIiESt4hashIiENS_18_Mod_range_hashingENS_20_Default_ranged_hashENS_17_Hashtable_traitsILb0ELb1ELb1EEEE13_M_key_equalsERKiRKNS_16_Hash_node_valueIiLb0EEE, symObjAddr: 0x2194, symBinAddr: 0x10000332C, symSize: 0x58 }
  - { offsetInCU: 0x11779, offset: 0x11779, size: 0x8, addend: 0x0, symName: __ZNKSt8__detail15_Hash_code_baseIiiNS_9_IdentityESt4hashIiENS_18_Mod_range_hashingENS_20_Default_ranged_hashELb0EE12_M_hash_codeERKi, symObjAddr: 0x21EC, symBinAddr: 0x100003384, symSize: 0x38 }
  - { offsetInCU: 0x117C8, offset: 0x117C8, size: 0x8, addend: 0x0, symName: __ZNSt8__detail14_Node_iteratorIiLb1ELb0EEppEv, symObjAddr: 0x2174, symBinAddr: 0x10000330C, symSize: 0x20 }
  - { offsetInCU: 0x117D0, offset: 0x117D0, size: 0x8, addend: 0x0, symName: __ZNKSt8__detail15_Hashtable_baseIiiNS_9_IdentityESt8equal_toIiESt4hashIiENS_18_Mod_range_hashingENS_20_Default_ranged_hashENS_17_Hashtable_traitsILb0ELb1ELb1EEEE13_M_key_equalsERKiRKNS_16_Hash_node_valueIiLb0EEE, symObjAddr: 0x2194, symBinAddr: 0x10000332C, symSize: 0x58 }
  - { offsetInCU: 0x117F7, offset: 0x117F7, size: 0x8, addend: 0x0, symName: __ZNSt10_HashtableIiiSaIiENSt8__detail9_IdentityESt8equal_toIiESt4hashIiENS1_18_Mod_range_hashingENS1_20_Default_ranged_hashENS1_20_Prime_rehash_policyENS1_17_Hashtable_traitsILb0ELb1ELb1EEEE5beginEv, symObjAddr: 0x2148, symBinAddr: 0x1000032E0, symSize: 0x2C }
  - { offsetInCU: 0x117FF, offset: 0x117FF, size: 0x8, addend: 0x0, symName: __ZNSt8__detail14_Node_iteratorIiLb1ELb0EEppEv, symObjAddr: 0x2174, symBinAddr: 0x10000330C, symSize: 0x20 }
  - { offsetInCU: 0x11827, offset: 0x11827, size: 0x8, addend: 0x0, symName: __ZNSt10_HashtableIiiSaIiENSt8__detail9_IdentityESt8equal_toIiESt4hashIiENS1_18_Mod_range_hashingENS1_20_Default_ranged_hashENS1_20_Prime_rehash_policyENS1_17_Hashtable_traitsILb0ELb1ELb1EEEE22__small_size_thresholdEv, symObjAddr: 0x2134, symBinAddr: 0x1000032CC, symSize: 0x14 }
  - { offsetInCU: 0x1182F, offset: 0x1182F, size: 0x8, addend: 0x0, symName: __ZNSt10_HashtableIiiSaIiENSt8__detail9_IdentityESt8equal_toIiESt4hashIiENS1_18_Mod_range_hashingENS1_20_Default_ranged_hashENS1_20_Prime_rehash_policyENS1_17_Hashtable_traitsILb0ELb1ELb1EEEE5beginEv, symObjAddr: 0x2148, symBinAddr: 0x1000032E0, symSize: 0x2C }
  - { offsetInCU: 0x11843, offset: 0x11843, size: 0x8, addend: 0x0, symName: __ZNK9__gnu_cxx17__normal_iteratorIPKiSt6vectorIiSaIiEEEdeEv, symObjAddr: 0x211C, symBinAddr: 0x1000032B4, symSize: 0x18 }
  - { offsetInCU: 0x1184B, offset: 0x1184B, size: 0x8, addend: 0x0, symName: __ZNSt10_HashtableIiiSaIiENSt8__detail9_IdentityESt8equal_toIiESt4hashIiENS1_18_Mod_range_hashingENS1_20_Default_ranged_hashENS1_20_Prime_rehash_policyENS1_17_Hashtable_traitsILb0ELb1ELb1EEEE22__small_size_thresholdEv, symObjAddr: 0x2134, symBinAddr: 0x1000032CC, symSize: 0x14 }
  - { offsetInCU: 0x11872, offset: 0x11872, size: 0x8, addend: 0x0, symName: __ZNKSt6vectorIiSaIiEE5beginEv, symObjAddr: 0x20F8, symBinAddr: 0x100003290, symSize: 0x24 }
  - { offsetInCU: 0x1187A, offset: 0x1187A, size: 0x8, addend: 0x0, symName: __ZNK9__gnu_cxx17__normal_iteratorIPKiSt6vectorIiSaIiEEEdeEv, symObjAddr: 0x211C, symBinAddr: 0x1000032B4, symSize: 0x18 }
  - { offsetInCU: 0x118DF, offset: 0x118DF, size: 0x8, addend: 0x0, symName: __ZNSt10_HashtableIiiSaIiENSt8__detail9_IdentityESt8equal_toIiESt4hashIiENS1_18_Mod_range_hashingENS1_20_Default_ranged_hashENS1_20_Prime_rehash_policyENS1_17_Hashtable_traitsILb0ELb1ELb1EEEE21_M_deallocate_bucketsEPPNS1_15_Hash_node_baseEm, symObjAddr: 0x20A8, symBinAddr: 0x100003240, symSize: 0x50 }
  - { offsetInCU: 0x118E7, offset: 0x118E7, size: 0x8, addend: 0x0, symName: __ZNKSt6vectorIiSaIiEE5beginEv, symObjAddr: 0x20F8, symBinAddr: 0x100003290, symSize: 0x24 }
  - { offsetInCU: 0x11936, offset: 0x11936, size: 0x8, addend: 0x0, symName: __ZNSt8__detail16_Hashtable_allocISaINS_10_Hash_nodeIiLb0EEEEE19_M_deallocate_nodesEPS2_, symObjAddr: 0x2058, symBinAddr: 0x1000031F0, symSize: 0x50 }
  - { offsetInCU: 0x1193E, offset: 0x1193E, size: 0x8, addend: 0x0, symName: __ZNSt10_HashtableIiiSaIiENSt8__detail9_IdentityESt8equal_toIiESt4hashIiENS1_18_Mod_range_hashingENS1_20_Default_ranged_hashENS1_20_Prime_rehash_policyENS1_17_Hashtable_traitsILb0ELb1ELb1EEEE21_M_deallocate_bucketsEPPNS1_15_Hash_node_baseEm, symObjAddr: 0x20A8, symBinAddr: 0x100003240, symSize: 0x50 }
  - { offsetInCU: 0x1199F, offset: 0x1199F, size: 0x8, addend: 0x0, symName: __ZNKSt10_HashtableIiiSaIiENSt8__detail9_IdentityESt8equal_toIiESt4hashIiENS1_18_Mod_range_hashingENS1_20_Default_ranged_hashENS1_20_Prime_rehash_policyENS1_17_Hashtable_traitsILb0ELb1ELb1EEEE8_M_beginEv, symObjAddr: 0x2040, symBinAddr: 0x1000031D8, symSize: 0x18 }
  - { offsetInCU: 0x119A7, offset: 0x119A7, size: 0x8, addend: 0x0, symName: __ZNSt8__detail16_Hashtable_allocISaINS_10_Hash_nodeIiLb0EEEEE19_M_deallocate_nodesEPS2_, symObjAddr: 0x2058, symBinAddr: 0x1000031F0, symSize: 0x50 }
  - { offsetInCU: 0x119E7, offset: 0x119E7, size: 0x8, addend: 0x0, symName: __ZNKSt10_HashtableIiiSaIiENSt8__detail9_IdentityESt8equal_toIiESt4hashIiENS1_18_Mod_range_hashingENS1_20_Default_ranged_hashENS1_20_Prime_rehash_policyENS1_17_Hashtable_traitsILb0ELb1ELb1EEEE4sizeEv, symObjAddr: 0x2028, symBinAddr: 0x1000031C0, symSize: 0x18 }
  - { offsetInCU: 0x119EF, offset: 0x119EF, size: 0x8, addend: 0x0, symName: __ZNKSt10_HashtableIiiSaIiENSt8__detail9_IdentityESt8equal_toIiESt4hashIiENS1_18_Mod_range_hashingENS1_20_Default_ranged_hashENS1_20_Prime_rehash_policyENS1_17_Hashtable_traitsILb0ELb1ELb1EEEE8_M_beginEv, symObjAddr: 0x2040, symBinAddr: 0x1000031D8, symSize: 0x18 }
  - { offsetInCU: 0x11A16, offset: 0x11A16, size: 0x8, addend: 0x0, symName: __ZNKSt6vectorIiSaIiEE5emptyEv, symObjAddr: 0x1FEC, symBinAddr: 0x100003184, symSize: 0x3C }
  - { offsetInCU: 0x11A1E, offset: 0x11A1E, size: 0x8, addend: 0x0, symName: __ZNKSt10_HashtableIiiSaIiENSt8__detail9_IdentityESt8equal_toIiESt4hashIiENS1_18_Mod_range_hashingENS1_20_Default_ranged_hashENS1_20_Prime_rehash_policyENS1_17_Hashtable_traitsILb0ELb1ELb1EEEE4sizeEv, symObjAddr: 0x2028, symBinAddr: 0x1000031C0, symSize: 0x18 }
  - { offsetInCU: 0x11A45, offset: 0x11A45, size: 0x8, addend: 0x0, symName: __ZNSt8__detail12_Insert_baseIiiSaIiENS_9_IdentityESt8equal_toIiESt4hashIiENS_18_Mod_range_hashingENS_20_Default_ranged_hashENS_20_Prime_rehash_policyENS_17_Hashtable_traitsILb0ELb1ELb1EEEE6insertERKi, symObjAddr: 0x1F9C, symBinAddr: 0x100003134, symSize: 0x50 }
  - { offsetInCU: 0x11A4D, offset: 0x11A4D, size: 0x8, addend: 0x0, symName: __ZNKSt6vectorIiSaIiEE5emptyEv, symObjAddr: 0x1FEC, symBinAddr: 0x100003184, symSize: 0x3C }
  - { offsetInCU: 0x11B76, offset: 0x11B76, size: 0x8, addend: 0x0, symName: __ZSt9push_heapIN9__gnu_cxx17__normal_iteratorIPiSt6vectorIiSaIiEEEESt7greaterIiEEvT_S9_T0_, symObjAddr: 0x1F04, symBinAddr: 0x10000309C, symSize: 0x98 }
  - { offsetInCU: 0x11B7E, offset: 0x11B7E, size: 0x8, addend: 0x0, symName: __ZNSt8__detail12_Insert_baseIiiSaIiENS_9_IdentityESt8equal_toIiESt4hashIiENS_18_Mod_range_hashingENS_20_Default_ranged_hashENS_20_Prime_rehash_policyENS_17_Hashtable_traitsILb0ELb1ELb1EEEE6insertERKi, symObjAddr: 0x1F9C, symBinAddr: 0x100003134, symSize: 0x50 }
  - { offsetInCU: 0x11C2B, offset: 0x11C2B, size: 0x8, addend: 0x0, symName: __ZSt9push_heapIN9__gnu_cxx17__normal_iteratorIPiSt6vectorIiSaIiEEEESt4lessIiEEvT_S9_T0_, symObjAddr: 0x1E6C, symBinAddr: 0x100003004, symSize: 0x98 }
  - { offsetInCU: 0x11C33, offset: 0x11C33, size: 0x8, addend: 0x0, symName: __ZSt9push_heapIN9__gnu_cxx17__normal_iteratorIPiSt6vectorIiSaIiEEEESt7greaterIiEEvT_S9_T0_, symObjAddr: 0x1F04, symBinAddr: 0x10000309C, symSize: 0x98 }
  - { offsetInCU: 0x11C26, offset: 0x11C26, size: 0x8, addend: 0x0, symName: __ZNSt6vectorIiSaIiEE9push_backERKi, symObjAddr: 0x1D98, symBinAddr: 0x100002F30, symSize: 0xD4 }
  - { offsetInCU: 0x11C2E, offset: 0x11C2E, size: 0x8, addend: 0x0, symName: __ZSt9push_heapIN9__gnu_cxx17__normal_iteratorIPiSt6vectorIiSaIiEEEESt4lessIiEEvT_S9_T0_, symObjAddr: 0x1E6C, symBinAddr: 0x100003004, symSize: 0x98 }
  - { offsetInCU: 0x11DC4, offset: 0x11DC4, size: 0x8, addend: 0x0, symName: __ZSt6__sortIN9__gnu_cxx17__normal_iteratorIPiSt6vectorIiSaIiEEEENS0_5__ops15_Iter_less_iterEEvT_S9_T0_, symObjAddr: 0x1D1C, symBinAddr: 0x100002EB4, symSize: 0x7C }
  - { offsetInCU: 0x11DCC, offset: 0x11DCC, size: 0x8, addend: 0x0, symName: __ZNSt6vectorIiSaIiEE9push_backERKi, symObjAddr: 0x1D98, symBinAddr: 0x100002F30, symSize: 0xD4 }
  - { offsetInCU: 0x11DB3, offset: 0x11DB3, size: 0x8, addend: 0x0, symName: __ZNSt12_Vector_baseIiSaIiEE19_M_get_Tp_allocatorEv, symObjAddr: 0x1D08, symBinAddr: 0x100002EA0, symSize: 0x14 }
  - { offsetInCU: 0x11DBB, offset: 0x11DBB, size: 0x8, addend: 0x0, symName: __ZSt6__sortIN9__gnu_cxx17__normal_iteratorIPiSt6vectorIiSaIiEEEENS0_5__ops15_Iter_less_iterEEvT_S9_T0_, symObjAddr: 0x1D1C, symBinAddr: 0x100002EB4, symSize: 0x7C }
  - { offsetInCU: 0x11DE2, offset: 0x11DE2, size: 0x8, addend: 0x0, symName: __ZNSt6vectorIiSaIiEE19_M_range_initializeIN9__gnu_cxx17__normal_iteratorIPiS1_EEEEvT_S7_St20forward_iterator_tag, symObjAddr: 0x1C24, symBinAddr: 0x100002DBC, symSize: 0xE4 }
  - { offsetInCU: 0x11DEA, offset: 0x11DEA, size: 0x8, addend: 0x0, symName: __ZNSt12_Vector_baseIiSaIiEE19_M_get_Tp_allocatorEv, symObjAddr: 0x1D08, symBinAddr: 0x100002EA0, symSize: 0x14 }
  - { offsetInCU: 0x11FBA, offset: 0x11FBA, size: 0x8, addend: 0x0, symName: __ZNSt12_Vector_baseIiSaIiEEC2ERKS0_, symObjAddr: 0x1BFC, symBinAddr: 0x100002D94, symSize: 0x28 }
  - { offsetInCU: 0x11FC2, offset: 0x11FC2, size: 0x8, addend: 0x0, symName: __ZNSt6vectorIiSaIiEE19_M_range_initializeIN9__gnu_cxx17__normal_iteratorIPiS1_EEEEvT_S7_St20forward_iterator_tag, symObjAddr: 0x1C24, symBinAddr: 0x100002DBC, symSize: 0xE4 }
  - { offsetInCU: 0x11FE9, offset: 0x11FE9, size: 0x8, addend: 0x0, symName: __ZNK9__gnu_cxx17__normal_iteratorIPiSt6vectorIiSaIiEEE4baseEv, symObjAddr: 0x1BE8, symBinAddr: 0x100002D80, symSize: 0x14 }
  - { offsetInCU: 0x11FF1, offset: 0x11FF1, size: 0x8, addend: 0x0, symName: __ZNSt12_Vector_baseIiSaIiEEC2ERKS0_, symObjAddr: 0x1BFC, symBinAddr: 0x100002D94, symSize: 0x28 }
  - { offsetInCU: 0x12080, offset: 0x12080, size: 0x8, addend: 0x0, symName: __ZN9__gnu_cxx17__normal_iteratorIPiSt6vectorIiSaIiEEEC1ERKS1_, symObjAddr: 0x1BC0, symBinAddr: 0x100002D58, symSize: 0x28 }
  - { offsetInCU: 0x12088, offset: 0x12088, size: 0x8, addend: 0x0, symName: __ZNK9__gnu_cxx17__normal_iteratorIPiSt6vectorIiSaIiEEE4baseEv, symObjAddr: 0x1BE8, symBinAddr: 0x100002D80, symSize: 0x14 }
  - { offsetInCU: 0x1207C, offset: 0x1207C, size: 0x8, addend: 0x0, symName: __ZNSt6vectorIiSaIiEE15_M_erase_at_endEPi, symObjAddr: 0x1B38, symBinAddr: 0x100002CD0, symSize: 0x88 }
  - { offsetInCU: 0x12084, offset: 0x12084, size: 0x8, addend: 0x0, symName: __ZN9__gnu_cxx17__normal_iteratorIPiSt6vectorIiSaIiEEEC1ERKS1_, symObjAddr: 0x1BC0, symBinAddr: 0x100002D58, symSize: 0x28 }
  - { offsetInCU: 0x12123, offset: 0x12123, size: 0x8, addend: 0x0, symName: __ZNSt6vectorIiSaIiEE17_M_default_appendEm, symObjAddr: 0x1938, symBinAddr: 0x100002AD0, symSize: 0x200 }
  - { offsetInCU: 0x1212B, offset: 0x1212B, size: 0x8, addend: 0x0, symName: __ZNSt6vectorIiSaIiEE15_M_erase_at_endEPi, symObjAddr: 0x1B38, symBinAddr: 0x100002CD0, symSize: 0x88 }
  - { offsetInCU: 0x12202, offset: 0x12202, size: 0x8, addend: 0x0, symName: __ZNKSt6vectorIiSaIiEE4sizeEv, symObjAddr: 0x1910, symBinAddr: 0x100002AA8, symSize: 0x28 }
  - { offsetInCU: 0x1220A, offset: 0x1220A, size: 0x8, addend: 0x0, symName: __ZNSt6vectorIiSaIiEE17_M_default_appendEm, symObjAddr: 0x1938, symBinAddr: 0x100002AD0, symSize: 0x200 }
  - { offsetInCU: 0x122F6, offset: 0x122F6, size: 0x8, addend: 0x0, symName: __ZSt8pop_heapIN9__gnu_cxx17__normal_iteratorIPiSt6vectorIiSaIiEEEESt7greaterIiEEvT_S9_T0_, symObjAddr: 0x18AC, symBinAddr: 0x100002A44, symSize: 0x64 }
  - { offsetInCU: 0x122FE, offset: 0x122FE, size: 0x8, addend: 0x0, symName: __ZNKSt6vectorIiSaIiEE4sizeEv, symObjAddr: 0x1910, symBinAddr: 0x100002AA8, symSize: 0x28 }
  - { offsetInCU: 0x1232B, offset: 0x1232B, size: 0x8, addend: 0x0, symName: __ZSt4moveIRSt7greaterIiEEONSt16remove_referenceIT_E4typeEOS4_, symObjAddr: 0x1898, symBinAddr: 0x100002A30, symSize: 0x14 }
  - { offsetInCU: 0x12333, offset: 0x12333, size: 0x8, addend: 0x0, symName: __ZSt8pop_heapIN9__gnu_cxx17__normal_iteratorIPiSt6vectorIiSaIiEEEESt7greaterIiEEvT_S9_T0_, symObjAddr: 0x18AC, symBinAddr: 0x100002A44, symSize: 0x64 }
  - { offsetInCU: 0x1232E, offset: 0x1232E, size: 0x8, addend: 0x0, symName: __ZNSt6vectorIiSaIiEE8pop_backEv, symObjAddr: 0x1844, symBinAddr: 0x1000029DC, symSize: 0x54 }
  - { offsetInCU: 0x12336, offset: 0x12336, size: 0x8, addend: 0x0, symName: __ZSt4moveIRSt7greaterIiEEONSt16remove_referenceIT_E4typeEOS4_, symObjAddr: 0x1898, symBinAddr: 0x100002A30, symSize: 0x14 }
  - { offsetInCU: 0x12480, offset: 0x12480, size: 0x8, addend: 0x0, symName: __ZSt8pop_heapIN9__gnu_cxx17__normal_iteratorIPiSt6vectorIiSaIiEEEESt4lessIiEEvT_S9_T0_, symObjAddr: 0x17E0, symBinAddr: 0x100002978, symSize: 0x64 }
  - { offsetInCU: 0x12488, offset: 0x12488, size: 0x8, addend: 0x0, symName: __ZNSt6vectorIiSaIiEE8pop_backEv, symObjAddr: 0x1844, symBinAddr: 0x1000029DC, symSize: 0x54 }
  - { offsetInCU: 0x124B5, offset: 0x124B5, size: 0x8, addend: 0x0, symName: __ZSt4moveIRSt4lessIiEEONSt16remove_referenceIT_E4typeEOS4_, symObjAddr: 0x17CC, symBinAddr: 0x100002964, symSize: 0x14 }
  - { offsetInCU: 0x124BD, offset: 0x124BD, size: 0x8, addend: 0x0, symName: __ZSt8pop_heapIN9__gnu_cxx17__normal_iteratorIPiSt6vectorIiSaIiEEEESt4lessIiEEvT_S9_T0_, symObjAddr: 0x17E0, symBinAddr: 0x100002978, symSize: 0x64 }
  - { offsetInCU: 0x124BE, offset: 0x124BE, size: 0x8, addend: 0x0, symName: __ZNSt10_HashtableIiiSaIiENSt8__detail9_IdentityESt8equal_toIiESt4hashIiENS1_18_Mod_range_hashingENS1_20_Default_ranged_hashENS1_20_Prime_rehash_policyENS1_17_Hashtable_traitsILb0ELb1ELb1EEEE5eraseENS1_14_Node_iteratorIiLb1ELb0EEE, symObjAddr: 0x179C, symBinAddr: 0x100002934, symSize: 0x30 }
  - { offsetInCU: 0x124C6, offset: 0x124C6, size: 0x8, addend: 0x0, symName: __ZSt4moveIRSt4lessIiEEONSt16remove_referenceIT_E4typeEOS4_, symObjAddr: 0x17CC, symBinAddr: 0x100002964, symSize: 0x14 }
  - { offsetInCU: 0x12501, offset: 0x12501, size: 0x8, addend: 0x0, symName: __ZNSt10_HashtableIiiSaIiENSt8__detail9_IdentityESt8equal_toIiESt4hashIiENS1_18_Mod_range_hashingENS1_20_Default_ranged_hashENS1_20_Prime_rehash_policyENS1_17_Hashtable_traitsILb0ELb1ELb1EEEE3endEv, symObjAddr: 0x1778, symBinAddr: 0x100002910, symSize: 0x24 }
  - { offsetInCU: 0x12509, offset: 0x12509, size: 0x8, addend: 0x0, symName: __ZNSt10_HashtableIiiSaIiENSt8__detail9_IdentityESt8equal_toIiESt4hashIiENS1_18_Mod_range_hashingENS1_20_Default_ranged_hashENS1_20_Prime_rehash_policyENS1_17_Hashtable_traitsILb0ELb1ELb1EEEE5eraseENS1_14_Node_iteratorIiLb1ELb0EEE, symObjAddr: 0x179C, symBinAddr: 0x100002934, symSize: 0x30 }
  - { offsetInCU: 0x12530, offset: 0x12530, size: 0x8, addend: 0x0, symName: __ZNSt10_HashtableIiiSaIiENSt8__detail9_IdentityESt8equal_toIiESt4hashIiENS1_18_Mod_range_hashingENS1_20_Default_ranged_hashENS1_20_Prime_rehash_policyENS1_17_Hashtable_traitsILb0ELb1ELb1EEEE4findERKi, symObjAddr: 0x1670, symBinAddr: 0x100002808, symSize: 0x108 }
  - { offsetInCU: 0x12538, offset: 0x12538, size: 0x8, addend: 0x0, symName: __ZNSt10_HashtableIiiSaIiENSt8__detail9_IdentityESt8equal_toIiESt4hashIiENS1_18_Mod_range_hashingENS1_20_Default_ranged_hashENS1_20_Prime_rehash_policyENS1_17_Hashtable_traitsILb0ELb1ELb1EEEE3endEv, symObjAddr: 0x1778, symBinAddr: 0x100002910, symSize: 0x24 }
  - { offsetInCU: 0x125C1, offset: 0x125C1, size: 0x8, addend: 0x0, symName: __ZNKSt6vectorIiSaIiEE5frontEv, symObjAddr: 0x1648, symBinAddr: 0x1000027E0, symSize: 0x28 }
  - { offsetInCU: 0x125C9, offset: 0x125C9, size: 0x8, addend: 0x0, symName: __ZNSt10_HashtableIiiSaIiENSt8__detail9_IdentityESt8equal_toIiESt4hashIiENS1_18_Mod_range_hashingENS1_20_Default_ranged_hashENS1_20_Prime_rehash_policyENS1_17_Hashtable_traitsILb0ELb1ELb1EEEE4findERKi, symObjAddr: 0x1670, symBinAddr: 0x100002808, symSize: 0x108 }
  - { offsetInCU: 0x125F0, offset: 0x125F0, size: 0x8, addend: 0x0, symName: __ZNSt12_Vector_baseIiSaIiEE13_M_deallocateEPim, symObjAddr: 0x15F0, symBinAddr: 0x100002788, symSize: 0x58 }
  - { offsetInCU: 0x125F8, offset: 0x125F8, size: 0x8, addend: 0x0, symName: __ZNKSt6vectorIiSaIiEE5frontEv, symObjAddr: 0x1648, symBinAddr: 0x1000027E0, symSize: 0x28 }
  - { offsetInCU: 0x126CA, offset: 0x126CA, size: 0x8, addend: 0x0, symName: __ZNSt15__new_allocatorIiED2Ev, symObjAddr: 0x15DC, symBinAddr: 0x100002774, symSize: 0x14 }
  - { offsetInCU: 0x126D2, offset: 0x126D2, size: 0x8, addend: 0x0, symName: __ZNSt12_Vector_baseIiSaIiEE13_M_deallocateEPim, symObjAddr: 0x15F0, symBinAddr: 0x100002788, symSize: 0x58 }
  - { offsetInCU: 0x12726, offset: 0x12726, size: 0x8, addend: 0x0, symName: __ZNSt12_Vector_baseIiSaIiEE17_Vector_impl_dataC2Ev, symObjAddr: 0x15B0, symBinAddr: 0x100002748, symSize: 0x2C }
  - { offsetInCU: 0x1272E, offset: 0x1272E, size: 0x8, addend: 0x0, symName: __ZNSt15__new_allocatorIiED2Ev, symObjAddr: 0x15DC, symBinAddr: 0x100002774, symSize: 0x14 }
  - { offsetInCU: 0x12721, offset: 0x12721, size: 0x8, addend: 0x0, symName: __ZNSt10_HashtableIiiSaIiENSt8__detail9_IdentityESt8equal_toIiESt4hashIiENS1_18_Mod_range_hashingENS1_20_Default_ranged_hashENS1_20_Prime_rehash_policyENS1_17_Hashtable_traitsILb0ELb1ELb1EEEE21_M_deallocate_bucketsEv, symObjAddr: 0x157C, symBinAddr: 0x100002714, symSize: 0x34 }
  - { offsetInCU: 0x12729, offset: 0x12729, size: 0x8, addend: 0x0, symName: __ZNSt12_Vector_baseIiSaIiEE17_Vector_impl_dataC2Ev, symObjAddr: 0x15B0, symBinAddr: 0x100002748, symSize: 0x2C }
  - { offsetInCU: 0x12750, offset: 0x12750, size: 0x8, addend: 0x0, symName: __ZNSt10_HashtableIiiSaIiENSt8__detail9_IdentityESt8equal_toIiESt4hashIiENS1_18_Mod_range_hashingENS1_20_Default_ranged_hashENS1_20_Prime_rehash_policyENS1_17_Hashtable_traitsILb0ELb1ELb1EEEE5clearEv, symObjAddr: 0x1518, symBinAddr: 0x1000026B0, symSize: 0x64 }
  - { offsetInCU: 0x12758, offset: 0x12758, size: 0x8, addend: 0x0, symName: __ZNSt10_HashtableIiiSaIiENSt8__detail9_IdentityESt8equal_toIiESt4hashIiENS1_18_Mod_range_hashingENS1_20_Default_ranged_hashENS1_20_Prime_rehash_policyENS1_17_Hashtable_traitsILb0ELb1ELb1EEEE21_M_deallocate_bucketsEv, symObjAddr: 0x157C, symBinAddr: 0x100002714, symSize: 0x34 }
  - { offsetInCU: 0x127E3, offset: 0x127E3, size: 0x8, addend: 0x0, symName: __ZNSt15__new_allocatorINSt8__detail10_Hash_nodeIiLb0EEEED2Ev, symObjAddr: 0x1504, symBinAddr: 0x10000269C, symSize: 0x14 }
  - { offsetInCU: 0x127EB, offset: 0x127EB, size: 0x8, addend: 0x0, symName: __ZNSt10_HashtableIiiSaIiENSt8__detail9_IdentityESt8equal_toIiESt4hashIiENS1_18_Mod_range_hashingENS1_20_Default_ranged_hashENS1_20_Prime_rehash_policyENS1_17_Hashtable_traitsILb0ELb1ELb1EEEE5clearEv, symObjAddr: 0x1518, symBinAddr: 0x1000026B0, symSize: 0x64 }
  - { offsetInCU: 0x12833, offset: 0x12833, size: 0x8, addend: 0x0, symName: __ZSt7forwardIbEOT_RNSt16remove_referenceIS0_E4typeE, symObjAddr: 0x14F0, symBinAddr: 0x100002688, symSize: 0x14 }
  - { offsetInCU: 0x1283B, offset: 0x1283B, size: 0x8, addend: 0x0, symName: __ZNSt15__new_allocatorINSt8__detail10_Hash_nodeIiLb0EEEED2Ev, symObjAddr: 0x1504, symBinAddr: 0x10000269C, symSize: 0x14 }
  - { offsetInCU: 0x12841, offset: 0x12841, size: 0x8, addend: 0x0, symName: __ZNKSt13unordered_setIiSt4hashIiESt8equal_toIiESaIiEE4sizeEv, symObjAddr: 0x14D4, symBinAddr: 0x10000266C, symSize: 0x1C }
  - { offsetInCU: 0x12849, offset: 0x12849, size: 0x8, addend: 0x0, symName: __ZSt7forwardIbEOT_RNSt16remove_referenceIS0_E4typeE, symObjAddr: 0x14F0, symBinAddr: 0x100002688, symSize: 0x14 }
  - { offsetInCU: 0x12870, offset: 0x12870, size: 0x8, addend: 0x0, symName: __ZNKSt14priority_queueIiSt6vectorIiSaIiEESt7greaterIiEE4sizeEv, symObjAddr: 0x14B8, symBinAddr: 0x100002650, symSize: 0x1C }
  - { offsetInCU: 0x12878, offset: 0x12878, size: 0x8, addend: 0x0, symName: __ZNKSt13unordered_setIiSt4hashIiESt8equal_toIiESaIiEE4sizeEv, symObjAddr: 0x14D4, symBinAddr: 0x10000266C, symSize: 0x1C }
  - { offsetInCU: 0x1289F, offset: 0x1289F, size: 0x8, addend: 0x0, symName: __ZNKSt14priority_queueIiSt6vectorIiSaIiEESt4lessIiEE5emptyEv, symObjAddr: 0x1498, symBinAddr: 0x100002630, symSize: 0x20 }
  - { offsetInCU: 0x128A7, offset: 0x128A7, size: 0x8, addend: 0x0, symName: __ZNKSt14priority_queueIiSt6vectorIiSaIiEESt7greaterIiEE4sizeEv, symObjAddr: 0x14B8, symBinAddr: 0x100002650, symSize: 0x1C }
  - { offsetInCU: 0x128CE, offset: 0x128CE, size: 0x8, addend: 0x0, symName: __ZNSt13unordered_setIiSt4hashIiESt8equal_toIiESaIiEE6insertERKi, symObjAddr: 0x1474, symBinAddr: 0x10000260C, symSize: 0x24 }
  - { offsetInCU: 0x128D6, offset: 0x128D6, size: 0x8, addend: 0x0, symName: __ZNKSt14priority_queueIiSt6vectorIiSaIiEESt4lessIiEE5emptyEv, symObjAddr: 0x1498, symBinAddr: 0x100002630, symSize: 0x20 }
  - { offsetInCU: 0x12911, offset: 0x12911, size: 0x8, addend: 0x0, symName: __ZNSt6vectorIiSaIiEEixEm, symObjAddr: 0x144C, symBinAddr: 0x1000025E4, symSize: 0x28 }
  - { offsetInCU: 0x12919, offset: 0x12919, size: 0x8, addend: 0x0, symName: __ZNSt13unordered_setIiSt4hashIiESt8equal_toIiESaIiEE6insertERKi, symObjAddr: 0x1474, symBinAddr: 0x10000260C, symSize: 0x24 }
  - { offsetInCU: 0x12954, offset: 0x12954, size: 0x8, addend: 0x0, symName: __ZNSt14priority_queueIiSt6vectorIiSaIiEESt7greaterIiEE4pushERKi, symObjAddr: 0x13F8, symBinAddr: 0x100002590, symSize: 0x54 }
  - { offsetInCU: 0x1295C, offset: 0x1295C, size: 0x8, addend: 0x0, symName: __ZNSt6vectorIiSaIiEEixEm, symObjAddr: 0x144C, symBinAddr: 0x1000025E4, symSize: 0x28 }
  - { offsetInCU: 0x12997, offset: 0x12997, size: 0x8, addend: 0x0, symName: __ZNSt14priority_queueIiSt6vectorIiSaIiEESt4lessIiEE4pushERKi, symObjAddr: 0x13A4, symBinAddr: 0x10000253C, symSize: 0x54 }
  - { offsetInCU: 0x1299F, offset: 0x1299F, size: 0x8, addend: 0x0, symName: __ZNSt14priority_queueIiSt6vectorIiSaIiEESt7greaterIiEE4pushERKi, symObjAddr: 0x13F8, symBinAddr: 0x100002590, symSize: 0x54 }
  - { offsetInCU: 0x12A74, offset: 0x12A74, size: 0x8, addend: 0x0, symName: __ZSt4sortIN9__gnu_cxx17__normal_iteratorIPiSt6vectorIiSaIiEEEEEvT_S7_, symObjAddr: 0x136C, symBinAddr: 0x100002504, symSize: 0x38 }
  - { offsetInCU: 0x12A7C, offset: 0x12A7C, size: 0x8, addend: 0x0, symName: __ZNSt14priority_queueIiSt6vectorIiSaIiEESt4lessIiEE4pushERKi, symObjAddr: 0x13A4, symBinAddr: 0x10000253C, symSize: 0x54 }
  - { offsetInCU: 0x12A72, offset: 0x12A72, size: 0x8, addend: 0x0, symName: __ZNSt6vectorIiSaIiEED1Ev, symObjAddr: 0x1310, symBinAddr: 0x1000024A8, symSize: 0x5C }
  - { offsetInCU: 0x12A7A, offset: 0x12A7A, size: 0x8, addend: 0x0, symName: __ZSt4sortIN9__gnu_cxx17__normal_iteratorIPiSt6vectorIiSaIiEEEEEvT_S7_, symObjAddr: 0x136C, symBinAddr: 0x100002504, symSize: 0x38 }
  - { offsetInCU: 0x12B69, offset: 0x12B69, size: 0x8, addend: 0x0, symName: __ZNSt6vectorIiSaIiEEC1IN9__gnu_cxx17__normal_iteratorIPiS1_EEvEET_S7_RKS0_, symObjAddr: 0x12AC, symBinAddr: 0x100002444, symSize: 0x64 }
  - { offsetInCU: 0x12B71, offset: 0x12B71, size: 0x8, addend: 0x0, symName: __ZNSt6vectorIiSaIiEED1Ev, symObjAddr: 0x1310, symBinAddr: 0x1000024A8, symSize: 0x5C }
  - { offsetInCU: 0x12BB9, offset: 0x12BB9, size: 0x8, addend: 0x0, symName: __ZNK9__gnu_cxx17__normal_iteratorIPiSt6vectorIiSaIiEEEplEl, symObjAddr: 0x126C, symBinAddr: 0x100002404, symSize: 0x40 }
  - { offsetInCU: 0x12BC1, offset: 0x12BC1, size: 0x8, addend: 0x0, symName: __ZNSt6vectorIiSaIiEEC1IN9__gnu_cxx17__normal_iteratorIPiS1_EEvEET_S7_RKS0_, symObjAddr: 0x12AC, symBinAddr: 0x100002444, symSize: 0x64 }
  - { offsetInCU: 0x12BFC, offset: 0x12BFC, size: 0x8, addend: 0x0, symName: __ZNK9__gnu_cxx17__normal_iteratorIPiSt6vectorIiSaIiEEEdeEv, symObjAddr: 0x1254, symBinAddr: 0x1000023EC, symSize: 0x18 }
  - { offsetInCU: 0x12C04, offset: 0x12C04, size: 0x8, addend: 0x0, symName: __ZNK9__gnu_cxx17__normal_iteratorIPiSt6vectorIiSaIiEEEplEl, symObjAddr: 0x126C, symBinAddr: 0x100002404, symSize: 0x40 }
  - { offsetInCU: 0x12C2B, offset: 0x12C2B, size: 0x8, addend: 0x0, symName: __ZN9__gnu_cxx17__normal_iteratorIPiSt6vectorIiSaIiEEEppEv, symObjAddr: 0x122C, symBinAddr: 0x1000023C4, symSize: 0x28 }
  - { offsetInCU: 0x12C33, offset: 0x12C33, size: 0x8, addend: 0x0, symName: __ZNK9__gnu_cxx17__normal_iteratorIPiSt6vectorIiSaIiEEEdeEv, symObjAddr: 0x1254, symBinAddr: 0x1000023EC, symSize: 0x18 }
  - { offsetInCU: 0x12CE3, offset: 0x12CE3, size: 0x8, addend: 0x0, symName: __ZN9__gnu_cxxneIPiSt6vectorIiSaIiEEEEbRKNS_17__normal_iteratorIT_T0_EESA_, symObjAddr: 0x11E8, symBinAddr: 0x100002380, symSize: 0x44 }
  - { offsetInCU: 0x12CEB, offset: 0x12CEB, size: 0x8, addend: 0x0, symName: __ZN9__gnu_cxx17__normal_iteratorIPiSt6vectorIiSaIiEEEppEv, symObjAddr: 0x122C, symBinAddr: 0x1000023C4, symSize: 0x28 }
  - { offsetInCU: 0x12CC7, offset: 0x12CC7, size: 0x8, addend: 0x0, symName: __ZNSt6vectorIiSaIiEE3endEv, symObjAddr: 0x11C0, symBinAddr: 0x100002358, symSize: 0x28 }
  - { offsetInCU: 0x12CCF, offset: 0x12CCF, size: 0x8, addend: 0x0, symName: __ZN9__gnu_cxxneIPiSt6vectorIiSaIiEEEEbRKNS_17__normal_iteratorIT_T0_EESA_, symObjAddr: 0x11E8, symBinAddr: 0x100002380, symSize: 0x44 }
  - { offsetInCU: 0x12CF6, offset: 0x12CF6, size: 0x8, addend: 0x0, symName: __ZNSt6vectorIiSaIiEE5beginEv, symObjAddr: 0x119C, symBinAddr: 0x100002334, symSize: 0x24 }
  - { offsetInCU: 0x12CFE, offset: 0x12CFE, size: 0x8, addend: 0x0, symName: __ZNSt6vectorIiSaIiEE3endEv, symObjAddr: 0x11C0, symBinAddr: 0x100002358, symSize: 0x28 }
  - { offsetInCU: 0x12D25, offset: 0x12D25, size: 0x8, addend: 0x0, symName: __ZNSt6vectorIiSaIiEE6resizeEm, symObjAddr: 0x10EC, symBinAddr: 0x100002284, symSize: 0xB0 }
  - { offsetInCU: 0x12D2D, offset: 0x12D2D, size: 0x8, addend: 0x0, symName: __ZNSt6vectorIiSaIiEE5beginEv, symObjAddr: 0x119C, symBinAddr: 0x100002334, symSize: 0x24 }
  - { offsetInCU: 0x12D68, offset: 0x12D68, size: 0x8, addend: 0x0, symName: __ZNSt14priority_queueIiSt6vectorIiSaIiEESt7greaterIiEE3popEv, symObjAddr: 0x10A0, symBinAddr: 0x100002238, symSize: 0x4C }
  - { offsetInCU: 0x12D70, offset: 0x12D70, size: 0x8, addend: 0x0, symName: __ZNSt6vectorIiSaIiEE6resizeEm, symObjAddr: 0x10EC, symBinAddr: 0x100002284, symSize: 0xB0 }
  - { offsetInCU: 0x12D97, offset: 0x12D97, size: 0x8, addend: 0x0, symName: __ZNKSt14priority_queueIiSt6vectorIiSaIiEESt7greaterIiEE3topEv, symObjAddr: 0x1084, symBinAddr: 0x10000221C, symSize: 0x1C }
  - { offsetInCU: 0x12D9F, offset: 0x12D9F, size: 0x8, addend: 0x0, symName: __ZNSt14priority_queueIiSt6vectorIiSaIiEESt7greaterIiEE3popEv, symObjAddr: 0x10A0, symBinAddr: 0x100002238, symSize: 0x4C }
  - { offsetInCU: 0x12DC6, offset: 0x12DC6, size: 0x8, addend: 0x0, symName: __ZNSt14priority_queueIiSt6vectorIiSaIiEESt4lessIiEE3popEv, symObjAddr: 0x1038, symBinAddr: 0x1000021D0, symSize: 0x4C }
  - { offsetInCU: 0x12DCE, offset: 0x12DCE, size: 0x8, addend: 0x0, symName: __ZNKSt14priority_queueIiSt6vectorIiSaIiEESt7greaterIiEE3topEv, symObjAddr: 0x1084, symBinAddr: 0x10000221C, symSize: 0x1C }
  - { offsetInCU: 0x12DF5, offset: 0x12DF5, size: 0x8, addend: 0x0, symName: __ZNSt13unordered_setIiSt4hashIiESt8equal_toIiESaIiEE5eraseENSt8__detail14_Node_iteratorIiLb1ELb0EEE, symObjAddr: 0x1014, symBinAddr: 0x1000021AC, symSize: 0x24 }
  - { offsetInCU: 0x12DFD, offset: 0x12DFD, size: 0x8, addend: 0x0, symName: __ZNSt14priority_queueIiSt6vectorIiSaIiEESt4lessIiEE3popEv, symObjAddr: 0x1038, symBinAddr: 0x1000021D0, symSize: 0x4C }
  - { offsetInCU: 0x12E7F, offset: 0x12E7F, size: 0x8, addend: 0x0, symName: __ZNSt8__detailneERKNS_19_Node_iterator_baseIiLb0EEES3_, symObjAddr: 0xFE4, symBinAddr: 0x10000217C, symSize: 0x30 }
  - { offsetInCU: 0x12E87, offset: 0x12E87, size: 0x8, addend: 0x0, symName: __ZNSt13unordered_setIiSt4hashIiESt8equal_toIiESaIiEE5eraseENSt8__detail14_Node_iteratorIiLb1ELb0EEE, symObjAddr: 0x1014, symBinAddr: 0x1000021AC, symSize: 0x24 }
  - { offsetInCU: 0x12E95, offset: 0x12E95, size: 0x8, addend: 0x0, symName: __ZNSt13unordered_setIiSt4hashIiESt8equal_toIiESaIiEE3endEv, symObjAddr: 0xFC8, symBinAddr: 0x100002160, symSize: 0x1C }
  - { offsetInCU: 0x12E9D, offset: 0x12E9D, size: 0x8, addend: 0x0, symName: __ZNSt8__detailneERKNS_19_Node_iterator_baseIiLb0EEES3_, symObjAddr: 0xFE4, symBinAddr: 0x10000217C, symSize: 0x30 }
  - { offsetInCU: 0x12EC4, offset: 0x12EC4, size: 0x8, addend: 0x0, symName: __ZNSt13unordered_setIiSt4hashIiESt8equal_toIiESaIiEE4findERKi, symObjAddr: 0xFA4, symBinAddr: 0x10000213C, symSize: 0x24 }
  - { offsetInCU: 0x12ECC, offset: 0x12ECC, size: 0x8, addend: 0x0, symName: __ZNSt13unordered_setIiSt4hashIiESt8equal_toIiESaIiEE3endEv, symObjAddr: 0xFC8, symBinAddr: 0x100002160, symSize: 0x1C }
  - { offsetInCU: 0x12F07, offset: 0x12F07, size: 0x8, addend: 0x0, symName: __ZNKSt14priority_queueIiSt6vectorIiSaIiEESt4lessIiEE3topEv, symObjAddr: 0xF88, symBinAddr: 0x100002120, symSize: 0x1C }
  - { offsetInCU: 0x12F0F, offset: 0x12F0F, size: 0x8, addend: 0x0, symName: __ZNSt13unordered_setIiSt4hashIiESt8equal_toIiESaIiEE4findERKi, symObjAddr: 0xFA4, symBinAddr: 0x10000213C, symSize: 0x24 }
  - { offsetInCU: 0x12F7D, offset: 0x12F7D, size: 0x8, addend: 0x0, symName: __ZNSt12_Vector_baseIiSaIiEED2Ev, symObjAddr: 0xF38, symBinAddr: 0x1000020D0, symSize: 0x50 }
  - { offsetInCU: 0x12F85, offset: 0x12F85, size: 0x8, addend: 0x0, symName: __ZNKSt14priority_queueIiSt6vectorIiSaIiEESt4lessIiEE3topEv, symObjAddr: 0xF88, symBinAddr: 0x100002120, symSize: 0x1C }
  - { offsetInCU: 0x12FF9, offset: 0x12FF9, size: 0x8, addend: 0x0, symName: __ZNSt12_Vector_baseIiSaIiEE12_Vector_implC1Ev, symObjAddr: 0xF00, symBinAddr: 0x100002098, symSize: 0x38 }
  - { offsetInCU: 0x13001, offset: 0x13001, size: 0x8, addend: 0x0, symName: __ZNSt12_Vector_baseIiSaIiEED2Ev, symObjAddr: 0xF38, symBinAddr: 0x1000020D0, symSize: 0x50 }
  - { offsetInCU: 0x130B3, offset: 0x130B3, size: 0x8, addend: 0x0, symName: __ZNSt14priority_queueIiSt6vectorIiSaIiEESt7greaterIiEEC1IS2_vEEv, symObjAddr: 0xED4, symBinAddr: 0x10000206C, symSize: 0x2C }
  - { offsetInCU: 0x130BB, offset: 0x130BB, size: 0x8, addend: 0x0, symName: __ZNSt12_Vector_baseIiSaIiEE12_Vector_implC1Ev, symObjAddr: 0xF00, symBinAddr: 0x100002098, symSize: 0x38 }
  - { offsetInCU: 0x1311F, offset: 0x1311F, size: 0x8, addend: 0x0, symName: __ZNSt14priority_queueIiSt6vectorIiSaIiEESt4lessIiEEC1IS2_vEEv, symObjAddr: 0xEA8, symBinAddr: 0x100002040, symSize: 0x2C }
  - { offsetInCU: 0x13127, offset: 0x13127, size: 0x8, addend: 0x0, symName: __ZNSt14priority_queueIiSt6vectorIiSaIiEESt7greaterIiEEC1IS2_vEEv, symObjAddr: 0xED4, symBinAddr: 0x10000206C, symSize: 0x2C }
  - { offsetInCU: 0x1320D, offset: 0x1320D, size: 0x8, addend: 0x0, symName: __ZNSt10_HashtableIiiSaIiENSt8__detail9_IdentityESt8equal_toIiESt4hashIiENS1_18_Mod_range_hashingENS1_20_Default_ranged_hashENS1_20_Prime_rehash_policyENS1_17_Hashtable_traitsILb0ELb1ELb1EEEED1Ev, symObjAddr: 0xE78, symBinAddr: 0x100002010, symSize: 0x30 }
  - { offsetInCU: 0x13215, offset: 0x13215, size: 0x8, addend: 0x0, symName: __ZNSt14priority_queueIiSt6vectorIiSaIiEESt4lessIiEEC1IS2_vEEv, symObjAddr: 0xEA8, symBinAddr: 0x100002040, symSize: 0x2C }
  - { offsetInCU: 0x13207, offset: 0x13207, size: 0x8, addend: 0x0, symName: __ZNSt8__detail21_Hashtable_ebo_helperILi0ESaINS_10_Hash_nodeIiLb0EEEELb1EEC2Ev, symObjAddr: 0xE4C, symBinAddr: 0x100001FE4, symSize: 0x2C }
  - { offsetInCU: 0x1320F, offset: 0x1320F, size: 0x8, addend: 0x0, symName: __ZNSt10_HashtableIiiSaIiENSt8__detail9_IdentityESt8equal_toIiESt4hashIiENS1_18_Mod_range_hashingENS1_20_Default_ranged_hashENS1_20_Prime_rehash_policyENS1_17_Hashtable_traitsILb0ELb1ELb1EEEED1Ev, symObjAddr: 0xE78, symBinAddr: 0x100002010, symSize: 0x30 }
  - { offsetInCU: 0x1328D, offset: 0x1328D, size: 0x8, addend: 0x0, symName: __ZNSt8__detail21_Hashtable_ebo_helperILi0ESt8equal_toIiELb1EEC2Ev, symObjAddr: 0xE38, symBinAddr: 0x100001FD0, symSize: 0x14 }
  - { offsetInCU: 0x13295, offset: 0x13295, size: 0x8, addend: 0x0, symName: __ZNSt8__detail21_Hashtable_ebo_helperILi0ESaINS_10_Hash_nodeIiLb0EEEELb1EEC2Ev, symObjAddr: 0xE4C, symBinAddr: 0x100001FE4, symSize: 0x2C }
  - { offsetInCU: 0x132D0, offset: 0x132D0, size: 0x8, addend: 0x0, symName: __ZNSt8__detail21_Hashtable_ebo_helperILi1ESt4hashIiELb1EEC2Ev, symObjAddr: 0xE24, symBinAddr: 0x100001FBC, symSize: 0x14 }
  - { offsetInCU: 0x132D8, offset: 0x132D8, size: 0x8, addend: 0x0, symName: __ZNSt8__detail21_Hashtable_ebo_helperILi0ESt8equal_toIiELb1EEC2Ev, symObjAddr: 0xE38, symBinAddr: 0x100001FD0, symSize: 0x14 }
  - { offsetInCU: 0x132F2, offset: 0x132F2, size: 0x8, addend: 0x0, symName: __ZSt3maxImERKT_S2_S2_, symObjAddr: 0xDEC, symBinAddr: 0x100001F84, symSize: 0x38 }
  - { offsetInCU: 0x132FA, offset: 0x132FA, size: 0x8, addend: 0x0, symName: __ZNSt8__detail21_Hashtable_ebo_helperILi1ESt4hashIiELb1EEC2Ev, symObjAddr: 0xE24, symBinAddr: 0x100001FBC, symSize: 0x14 }
  - { offsetInCU: 0x1332A, offset: 0x1332A, size: 0x8, addend: 0x0, symName: _main, symObjAddr: 0x454, symBinAddr: 0x1000015EC, symSize: 0x998 }
  - { offsetInCU: 0x13332, offset: 0x13332, size: 0x8, addend: 0x0, symName: __ZSt3maxImERKT_S2_S2_, symObjAddr: 0xDEC, symBinAddr: 0x100001F84, symSize: 0x38 }
  - { offsetInCU: 0x1363D, offset: 0x1363D, size: 0x8, addend: 0x0, symName: __Z10eraseLargeRSt14priority_queueIiSt6vectorIiSaIiEESt7greaterIiEERSt13unordered_setIiSt4hashIiESt8equal_toIiES1_E, symObjAddr: 0x3C4, symBinAddr: 0x10000155C, symSize: 0x90 }
  - { offsetInCU: 0x13645, offset: 0x13645, size: 0x8, addend: 0x0, symName: _main, symObjAddr: 0x454, symBinAddr: 0x1000015EC, symSize: 0x998 }
  - { offsetInCU: 0x13695, offset: 0x13695, size: 0x8, addend: 0x0, symName: __Z10eraseSmallRSt14priority_queueIiSt6vectorIiSaIiEESt4lessIiEERSt13unordered_setIiSt4hashIiESt8equal_toIiES1_E, symObjAddr: 0x334, symBinAddr: 0x1000014CC, symSize: 0x90 }
  - { offsetInCU: 0x1369D, offset: 0x1369D, size: 0x8, addend: 0x0, symName: __Z10eraseLargeRSt14priority_queueIiSt6vectorIiSaIiEESt7greaterIiEERSt13unordered_setIiSt4hashIiESt8equal_toIiES1_E, symObjAddr: 0x3C4, symBinAddr: 0x10000155C, symSize: 0x90 }
  - { offsetInCU: 0x136A7, offset: 0x136A7, size: 0x8, addend: 0x0, symName: __ZNSt6vectorIiSaIiEEC1Ev, symObjAddr: 0x314, symBinAddr: 0x1000014AC, symSize: 0x20 }
  - { offsetInCU: 0x136AF, offset: 0x136AF, size: 0x8, addend: 0x0, symName: __Z10eraseSmallRSt14priority_queueIiSt6vectorIiSaIiEESt4lessIiEERSt13unordered_setIiSt4hashIiESt8equal_toIiES1_E, symObjAddr: 0x334, symBinAddr: 0x1000014CC, symSize: 0x90 }
  - { offsetInCU: 0x136F5, offset: 0x136F5, size: 0x8, addend: 0x0, symName: __ZNSt12_Vector_baseIiSaIiEEC2Ev, symObjAddr: 0x2F4, symBinAddr: 0x10000148C, symSize: 0x20 }
  - { offsetInCU: 0x136FD, offset: 0x136FD, size: 0x8, addend: 0x0, symName: __ZNSt6vectorIiSaIiEEC1Ev, symObjAddr: 0x314, symBinAddr: 0x1000014AC, symSize: 0x20 }
  - { offsetInCU: 0x1375B, offset: 0x1375B, size: 0x8, addend: 0x0, symName: __ZNSt12_Vector_baseIiSaIiEE12_Vector_implD1Ev, symObjAddr: 0x2C8, symBinAddr: 0x100001460, symSize: 0x2C }
  - { offsetInCU: 0x13763, offset: 0x13763, size: 0x8, addend: 0x0, symName: __ZNSt12_Vector_baseIiSaIiEEC2Ev, symObjAddr: 0x2F4, symBinAddr: 0x10000148C, symSize: 0x20 }
  - { offsetInCU: 0x137D3, offset: 0x137D3, size: 0x8, addend: 0x0, symName: __ZNSt13unordered_setIiSt4hashIiESt8equal_toIiESaIiEEC1Ev, symObjAddr: 0x2A8, symBinAddr: 0x100001440, symSize: 0x20 }
  - { offsetInCU: 0x137DB, offset: 0x137DB, size: 0x8, addend: 0x0, symName: __ZNSt12_Vector_baseIiSaIiEE12_Vector_implD1Ev, symObjAddr: 0x2C8, symBinAddr: 0x100001460, symSize: 0x2C }
  - { offsetInCU: 0x138A4, offset: 0x138A4, size: 0x8, addend: 0x0, symName: __ZNSt10_HashtableIiiSaIiENSt8__detail9_IdentityESt8equal_toIiESt4hashIiENS1_18_Mod_range_hashingENS1_20_Default_ranged_hashENS1_20_Prime_rehash_policyENS1_17_Hashtable_traitsILb0ELb1ELb1EEEEC1Ev, symObjAddr: 0x238, symBinAddr: 0x1000013D0, symSize: 0x70 }
  - { offsetInCU: 0x138AC, offset: 0x138AC, size: 0x8, addend: 0x0, symName: __ZNSt13unordered_setIiSt4hashIiESt8equal_toIiESaIiEEC1Ev, symObjAddr: 0x2A8, symBinAddr: 0x100001440, symSize: 0x20 }
  - { offsetInCU: 0x1387C, offset: 0x1387C, size: 0x8, addend: 0x0, symName: __ZNSt8__detail16_Hashtable_allocISaINS_10_Hash_nodeIiLb0EEEEED2Ev, symObjAddr: 0x218, symBinAddr: 0x1000013B0, symSize: 0x20 }
  - { offsetInCU: 0x13884, offset: 0x13884, size: 0x8, addend: 0x0, symName: __ZNSt10_HashtableIiiSaIiENSt8__detail9_IdentityESt8equal_toIiESt4hashIiENS1_18_Mod_range_hashingENS1_20_Default_ranged_hashENS1_20_Prime_rehash_policyENS1_17_Hashtable_traitsILb0ELb1ELb1EEEEC1Ev, symObjAddr: 0x238, symBinAddr: 0x1000013D0, symSize: 0x70 }
  - { offsetInCU: 0x138C3, offset: 0x138C3, size: 0x8, addend: 0x0, symName: __ZNSt8__detail16_Hashtable_allocISaINS_10_Hash_nodeIiLb0EEEEEC2Ev, symObjAddr: 0x1F8, symBinAddr: 0x100001390, symSize: 0x20 }
  - { offsetInCU: 0x138CB, offset: 0x138CB, size: 0x8, addend: 0x0, symName: __ZNSt8__detail16_Hashtable_allocISaINS_10_Hash_nodeIiLb0EEEEED2Ev, symObjAddr: 0x218, symBinAddr: 0x1000013B0, symSize: 0x20 }
  - { offsetInCU: 0x13929, offset: 0x13929, size: 0x8, addend: 0x0, symName: __ZNSt8__detail21_Hashtable_ebo_helperILi0ESaINS_10_Hash_nodeIiLb0EEEELb1EED2Ev, symObjAddr: 0x1CC, symBinAddr: 0x100001364, symSize: 0x2C }
  - { offsetInCU: 0x13931, offset: 0x13931, size: 0x8, addend: 0x0, symName: __ZNSt8__detail16_Hashtable_allocISaINS_10_Hash_nodeIiLb0EEEEEC2Ev, symObjAddr: 0x1F8, symBinAddr: 0x100001390, symSize: 0x20 }
  - { offsetInCU: 0x139EC, offset: 0x139EC, size: 0x8, addend: 0x0, symName: __ZNSt8__detail15_Hashtable_baseIiiNS_9_IdentityESt8equal_toIiESt4hashIiENS_18_Mod_range_hashingENS_20_Default_ranged_hashENS_17_Hashtable_traitsILb0ELb1ELb1EEEEC2Ev, symObjAddr: 0x1A4, symBinAddr: 0x10000133C, symSize: 0x28 }
  - { offsetInCU: 0x139F4, offset: 0x139F4, size: 0x8, addend: 0x0, symName: __ZNSt8__detail21_Hashtable_ebo_helperILi0ESaINS_10_Hash_nodeIiLb0EEEELb1EED2Ev, symObjAddr: 0x1CC, symBinAddr: 0x100001364, symSize: 0x2C }
  - { offsetInCU: 0x13A04, offset: 0x13A04, size: 0x8, addend: 0x0, symName: __ZNSt8__detail15_Hash_code_baseIiiNS_9_IdentityESt4hashIiENS_18_Mod_range_hashingENS_20_Default_ranged_hashELb0EEC2Ev, symObjAddr: 0x184, symBinAddr: 0x10000131C, symSize: 0x20 }
  - { offsetInCU: 0x13A0C, offset: 0x13A0C, size: 0x8, addend: 0x0, symName: __ZNSt8__detail15_Hashtable_baseIiiNS_9_IdentityESt8equal_toIiESt4hashIiENS_18_Mod_range_hashingENS_20_Default_ranged_hashENS_17_Hashtable_traitsILb0ELb1ELb1EEEEC2Ev, symObjAddr: 0x1A4, symBinAddr: 0x10000133C, symSize: 0x28 }
  - { offsetInCU: 0x139ED, offset: 0x139ED, size: 0x8, addend: 0x0, symName: __ZSt3minImERKT_S2_S2_, symObjAddr: 0x14C, symBinAddr: 0x1000012E4, symSize: 0x38 }
  - { offsetInCU: 0x139F5, offset: 0x139F5, size: 0x8, addend: 0x0, symName: __ZNSt8__detail15_Hash_code_baseIiiNS_9_IdentityESt4hashIiENS_18_Mod_range_hashingENS_20_Default_ranged_hashELb0EEC2Ev, symObjAddr: 0x184, symBinAddr: 0x10000131C, symSize: 0x20 }
  - { offsetInCU: 0x13A19, offset: 0x13A19, size: 0x8, addend: 0x0, symName: __ZNSt8__detail20_Prime_rehash_policy8_M_resetEm, symObjAddr: 0x128, symBinAddr: 0x1000012C0, symSize: 0x24 }
  - { offsetInCU: 0x13A21, offset: 0x13A21, size: 0x8, addend: 0x0, symName: __ZSt3minImERKT_S2_S2_, symObjAddr: 0x14C, symBinAddr: 0x1000012E4, symSize: 0x38 }
  - { offsetInCU: 0x13A5C, offset: 0x13A5C, size: 0x8, addend: 0x0, symName: __ZNKSt8__detail20_Prime_rehash_policy8_M_stateEv, symObjAddr: 0x110, symBinAddr: 0x1000012A8, symSize: 0x18 }
  - { offsetInCU: 0x13A64, offset: 0x13A64, size: 0x8, addend: 0x0, symName: __ZNSt8__detail20_Prime_rehash_policy8_M_resetEm, symObjAddr: 0x128, symBinAddr: 0x1000012C0, symSize: 0x24 }
  - { offsetInCU: 0x13ADE, offset: 0x13ADE, size: 0x8, addend: 0x0, symName: __ZNSt8__detail20_Prime_rehash_policyC1Ef, symObjAddr: 0xE4, symBinAddr: 0x10000127C, symSize: 0x2C }
  - { offsetInCU: 0x13AE6, offset: 0x13AE6, size: 0x8, addend: 0x0, symName: __ZNKSt8__detail20_Prime_rehash_policy8_M_stateEv, symObjAddr: 0x110, symBinAddr: 0x1000012A8, symSize: 0x18 }
  - { offsetInCU: 0x13AEF, offset: 0x13AEF, size: 0x8, addend: 0x0, symName: __ZNKSt8__detail18_Mod_range_hashingclEmm, symObjAddr: 0xB4, symBinAddr: 0x10000124C, symSize: 0x30 }
  - { offsetInCU: 0x13AF7, offset: 0x13AF7, size: 0x8, addend: 0x0, symName: __ZNSt8__detail20_Prime_rehash_policyC1Ef, symObjAddr: 0xE4, symBinAddr: 0x10000127C, symSize: 0x2C }
  - { offsetInCU: 0x13B83, offset: 0x13B83, size: 0x8, addend: 0x0, symName: __ZNSt8__detail15_Hash_node_baseC1Ev, symObjAddr: 0x98, symBinAddr: 0x100001230, symSize: 0x1C }
  - { offsetInCU: 0x13B8B, offset: 0x13B8B, size: 0x8, addend: 0x0, symName: __ZNKSt8__detail18_Mod_range_hashingclEmm, symObjAddr: 0xB4, symBinAddr: 0x10000124C, symSize: 0x30 }
  - { offsetInCU: 0x13BB1, offset: 0x13BB1, size: 0x8, addend: 0x0, symName: __ZNSt8__detail15_Hash_node_baseC2Ev, symObjAddr: 0x7C, symBinAddr: 0x100001214, symSize: 0x1C }
  - { offsetInCU: 0x13BB9, offset: 0x13BB9, size: 0x8, addend: 0x0, symName: __ZNSt8__detail15_Hash_node_baseC1Ev, symObjAddr: 0x98, symBinAddr: 0x100001230, symSize: 0x1C }
  - { offsetInCU: 0x13BBB, offset: 0x13BBB, size: 0x8, addend: 0x0, symName: __ZNKSt4hashIiEclEi, symObjAddr: 0x64, symBinAddr: 0x1000011FC, symSize: 0x18 }
  - { offsetInCU: 0x13BC3, offset: 0x13BC3, size: 0x8, addend: 0x0, symName: __ZNSt8__detail15_Hash_node_baseC2Ev, symObjAddr: 0x7C, symBinAddr: 0x100001214, symSize: 0x1C }
  - { offsetInCU: 0x13C0E, offset: 0x13C0E, size: 0x8, addend: 0x0, symName: __ZnwmPv, symObjAddr: 0x4C, symBinAddr: 0x1000011E4, symSize: 0x18 }
  - { offsetInCU: 0x13C16, offset: 0x13C16, size: 0x8, addend: 0x0, symName: __ZNKSt4hashIiEclEi, symObjAddr: 0x64, symBinAddr: 0x1000011FC, symSize: 0x18 }
  - { offsetInCU: 0x13C76, offset: 0x13C76, size: 0x8, addend: 0x0, symName: __ZSt17__size_to_integerm, symObjAddr: 0x38, symBinAddr: 0x1000011D0, symSize: 0x14 }
  - { offsetInCU: 0x13C7E, offset: 0x13C7E, size: 0x8, addend: 0x0, symName: __ZnwmPv, symObjAddr: 0x4C, symBinAddr: 0x1000011E4, symSize: 0x18 }
  - { offsetInCU: 0x13CD5, offset: 0x13CD5, size: 0x8, addend: 0x0, symName: __ZN9__gnu_cxx5__ops15__val_comp_iterENS0_15_Iter_less_iterE, symObjAddr: 0x20, symBinAddr: 0x1000011B8, symSize: 0x18 }
  - { offsetInCU: 0x13CDD, offset: 0x13CDD, size: 0x8, addend: 0x0, symName: __ZSt17__size_to_integerm, symObjAddr: 0x38, symBinAddr: 0x1000011D0, symSize: 0x14 }
  - { offsetInCU: 0x13D1A, offset: 0x13D1A, size: 0x8, addend: 0x0, symName: __ZN9__gnu_cxx5__ops14_Iter_less_valC1ENS0_15_Iter_less_iterE, symObjAddr: 0x8, symBinAddr: 0x1000011A0, symSize: 0x18 }
  - { offsetInCU: 0x13D22, offset: 0x13D22, size: 0x8, addend: 0x0, symName: __ZN9__gnu_cxx5__ops15__val_comp_iterENS0_15_Iter_less_iterE, symObjAddr: 0x20, symBinAddr: 0x1000011B8, symSize: 0x18 }
  - { offsetInCU: 0x13D55, offset: 0x13D55, size: 0x8, addend: 0x0, symName: __ZN9__gnu_cxx5__ops16__iter_less_iterEv, symObjAddr: 0x0, symBinAddr: 0x100001198, symSize: 0x8 }
  - { offsetInCU: 0x13D5D, offset: 0x13D5D, size: 0x8, addend: 0x0, symName: __ZN9__gnu_cxx5__ops14_Iter_less_valC1ENS0_15_Iter_less_iterE, symObjAddr: 0x8, symBinAddr: 0x1000011A0, symSize: 0x18 }
...
