---
triple:          'arm64-apple-darwin'
binary-path:     '/Users/dingkai/Code/IOI2024/NZOI/2021-2-4.gout'
relocations:
  - { offsetInCU: 0xBB, offset: 0xBB, size: 0x8, addend: 0x0, symName: __ZSt23__is_constant_evaluatedv, symObjAddr: 0x0, symBinAddr: 0x1000036E0, symSize: 0x8 }
  - { offsetInCU: 0x85FE, offset: 0x85FE, size: 0x8, addend: 0x0, symName: __ZStL8__ioinit, symObjAddr: 0x39678, symBinAddr: 0x10000C118, symSize: 0x0 }
  - { offsetInCU: 0x869B, offset: 0x869B, size: 0x8, addend: 0x0, symName: __Z4strWB5cxx11, symObjAddr: 0x39680, symBinAddr: 0x10000C120, symSize: 0x0 }
  - { offsetInCU: 0x86A5, offset: 0x86A5, size: 0x8, addend: 0x0, symName: _ans, symObjAddr: 0x396A0, symBinAddr: 0x10000C140, symSize: 0x0 }
  - { offsetInCU: 0x86B9, offset: 0x86B9, size: 0x8, addend: 0x0, symName: _l, symObjAddr: 0x396A8, symBinAddr: 0x10000C148, symSize: 0x0 }
  - { offsetInCU: 0x8874, offset: 0x8874, size: 0x8, addend: 0x0, symName: __Z5mpAnsB5cxx11, symObjAddr: 0x396B0, symBinAddr: 0x10000C150, symSize: 0x0 }
  - { offsetInCU: 0x8AE6, offset: 0x8AE6, size: 0x8, addend: 0x0, symName: __GLOBAL__sub_I_2021_2_4.cpp, symObjAddr: 0x2A28, symBinAddr: 0x100006108, symSize: 0x14 }
  - { offsetInCU: 0x8B0B, offset: 0x8B0B, size: 0x8, addend: 0x0, symName: __Z41__static_initialization_and_destruction_0v, symObjAddr: 0x299C, symBinAddr: 0x10000607C, symSize: 0x8C }
  - { offsetInCU: 0x8B7F, offset: 0x8B7F, size: 0x8, addend: 0x0, symName: __ZNSt3mapINSt7__cxx1112basic_stringIcSt11char_traitsIcESaIcEEExSt4lessIS5_ESaISt4pairIKS5_xEEED1Ev, symObjAddr: 0x297C, symBinAddr: 0x10000605C, symSize: 0x20 }
  - { offsetInCU: 0x8B40, offset: 0x8B40, size: 0x8, addend: 0x0, symName: __ZNSt10_Head_baseILm0EONSt7__cxx1112basic_stringIcSt11char_traitsIcESaIcEEELb0EE7_M_headERS7_, symObjAddr: 0x2964, symBinAddr: 0x100006044, symSize: 0x18 }
  - { offsetInCU: 0x8B67, offset: 0x8B67, size: 0x8, addend: 0x0, symName: __ZNSt11_Tuple_implILm0EJONSt7__cxx1112basic_stringIcSt11char_traitsIcESaIcEEEEE7_M_headERS7_, symObjAddr: 0x2948, symBinAddr: 0x100006028, symSize: 0x1C }
  - { offsetInCU: 0x8B8F, offset: 0x8B8F, size: 0x8, addend: 0x0, symName: __ZSt12__get_helperILm0EONSt7__cxx1112basic_stringIcSt11char_traitsIcESaIcEEEJEERT0_RSt11_Tuple_implIXT_EJS7_DpT1_EE, symObjAddr: 0x292C, symBinAddr: 0x10000600C, symSize: 0x1C }
  - { offsetInCU: 0x8BD5, offset: 0x8BD5, size: 0x8, addend: 0x0, symName: __ZSt7forwardIONSt7__cxx1112basic_stringIcSt11char_traitsIcESaIcEEEEOT_RNSt16remove_referenceIS7_E4typeE, symObjAddr: 0x2918, symBinAddr: 0x100005FF8, symSize: 0x14 }
  - { offsetInCU: 0x8C05, offset: 0x8C05, size: 0x8, addend: 0x0, symName: __ZSt3getILm0EJONSt7__cxx1112basic_stringIcSt11char_traitsIcESaIcEEEEERNSt13tuple_elementIXT_ESt5tupleIJDpT0_EEE4typeERSB_, symObjAddr: 0x28FC, symBinAddr: 0x100005FDC, symSize: 0x1C }
  - { offsetInCU: 0x8D44, offset: 0x8D44, size: 0x8, addend: 0x0, symName: __ZNSt4pairIKNSt7__cxx1112basic_stringIcSt11char_traitsIcESaIcEEExEC1IJOS5_EJLm0EEJEJEEERSt5tupleIJDpT_EERSA_IJDpT1_EESt12_Index_tupleIJXspT0_EEESJ_IJXspT2_EEE, symObjAddr: 0x28A8, symBinAddr: 0x100005F88, symSize: 0x54 }
  - { offsetInCU: 0x8DDC, offset: 0x8DDC, size: 0x8, addend: 0x0, symName: __ZNSt4pairIKNSt7__cxx1112basic_stringIcSt11char_traitsIcESaIcEEExEC1IJOS5_EJEEESt21piecewise_construct_tSt5tupleIJDpT_EESB_IJDpT0_EE, symObjAddr: 0x286C, symBinAddr: 0x100005F4C, symSize: 0x3C }
  - { offsetInCU: 0x8E20, offset: 0x8E20, size: 0x8, addend: 0x0, symName: __ZNSt11_Tuple_implILm0EJONSt7__cxx1112basic_stringIcSt11char_traitsIcESaIcEEEEEC2EOS7_, symObjAddr: 0x2844, symBinAddr: 0x100005F24, symSize: 0x28 }
  - { offsetInCU: 0x8E12, offset: 0x8E12, size: 0x8, addend: 0x0, symName: __ZNK9__gnu_cxx16__aligned_membufISt4pairIKNSt7__cxx1112basic_stringIcSt11char_traitsIcESaIcEEExEE7_M_addrEv, symObjAddr: 0x2830, symBinAddr: 0x100005F10, symSize: 0x14 }
  - { offsetInCU: 0x8EFC, offset: 0x8EFC, size: 0x8, addend: 0x0, symName: __ZNSt5tupleIJONSt7__cxx1112basic_stringIcSt11char_traitsIcESaIcEEEEEC1EOS7_, symObjAddr: 0x2808, symBinAddr: 0x100005EE8, symSize: 0x28 }
  - { offsetInCU: 0x8EE0, offset: 0x8EE0, size: 0x8, addend: 0x0, symName: __ZNSt15__new_allocatorISt13_Rb_tree_nodeISt4pairIKNSt7__cxx1112basic_stringIcSt11char_traitsIcESaIcEEExEEE8allocateEmPKv, symObjAddr: 0x2768, symBinAddr: 0x100005E48, symSize: 0xA0 }
  - { offsetInCU: 0x8F51, offset: 0x8F51, size: 0x8, addend: 0x0, symName: __ZNK9__gnu_cxx16__aligned_membufISt4pairIKNSt7__cxx1112basic_stringIcSt11char_traitsIcESaIcEEExEE6_M_ptrEv, symObjAddr: 0x274C, symBinAddr: 0x100005E2C, symSize: 0x1C }
  - { offsetInCU: 0x8F81, offset: 0x8F81, size: 0x8, addend: 0x0, symName: __ZSt7forwardIRPSt13_Rb_tree_nodeISt4pairIKNSt7__cxx1112basic_stringIcSt11char_traitsIcESaIcEEExEEEOT_RNSt16remove_referenceISD_E4typeE, symObjAddr: 0x2738, symBinAddr: 0x100005E18, symSize: 0x14 }
  - { offsetInCU: 0x902D, offset: 0x902D, size: 0x8, addend: 0x0, symName: __ZNSt15__new_allocatorISt13_Rb_tree_nodeISt4pairIKNSt7__cxx1112basic_stringIcSt11char_traitsIcESaIcEEExEEE10deallocateEPSA_m, symObjAddr: 0x26FC, symBinAddr: 0x100005DDC, symSize: 0x3C }
  - { offsetInCU: 0x909C, offset: 0x909C, size: 0x8, addend: 0x0, symName: __ZNKSt10_Select1stISt4pairIKNSt7__cxx1112basic_stringIcSt11char_traitsIcESaIcEEExEEclERKS8_, symObjAddr: 0x26E4, symBinAddr: 0x100005DC4, symSize: 0x18 }
  - { offsetInCU: 0x90D4, offset: 0x90D4, size: 0x8, addend: 0x0, symName: __ZNKSt13_Rb_tree_nodeISt4pairIKNSt7__cxx1112basic_stringIcSt11char_traitsIcESaIcEEExEE9_M_valptrEv, symObjAddr: 0x26C4, symBinAddr: 0x100005DA4, symSize: 0x20 }
  - { offsetInCU: 0x90FE, offset: 0x90FE, size: 0x8, addend: 0x0, symName: __ZSt7forwardIRPSt18_Rb_tree_node_baseEOT_RNSt16remove_referenceIS3_E4typeE, symObjAddr: 0x26B0, symBinAddr: 0x100005D90, symSize: 0x14 }
  - { offsetInCU: 0x91FC, offset: 0x91FC, size: 0x8, addend: 0x0, symName: __ZNSt4pairIPSt18_Rb_tree_node_baseS1_EC1IRPSt13_Rb_tree_nodeIS_IKNSt7__cxx1112basic_stringIcSt11char_traitsIcESaIcEEExEERS1_Lb1EEEOT_OT0_, symObjAddr: 0x2668, symBinAddr: 0x100005D48, symSize: 0x48 }
  - { offsetInCU: 0x91BC, offset: 0x91BC, size: 0x8, addend: 0x0, symName: __ZNSt8_Rb_treeINSt7__cxx1112basic_stringIcSt11char_traitsIcESaIcEEESt4pairIKS5_xESt10_Select1stIS8_ESt4lessIS5_ESaIS8_EE17_M_construct_nodeIJRKSt21piecewise_construct_tSt5tupleIJOS5_EESJ_IJEEEEEvPSt13_Rb_tree_nodeIS8_EDpOT_, symObjAddr: 0x24EC, symBinAddr: 0x100005BCC, symSize: 0x17C }
  - { offsetInCU: 0x92AD, offset: 0x92AD, size: 0x8, addend: 0x0, symName: __ZNSt8_Rb_treeINSt7__cxx1112basic_stringIcSt11char_traitsIcESaIcEEESt4pairIKS5_xESt10_Select1stIS8_ESt4lessIS5_ESaIS8_EE11_M_get_nodeEv, symObjAddr: 0x24B0, symBinAddr: 0x100005B90, symSize: 0x3C }
  - { offsetInCU: 0x9385, offset: 0x9385, size: 0x8, addend: 0x0, symName: __ZNSt10_Head_baseILm0EONSt7__cxx1112basic_stringIcSt11char_traitsIcESaIcEEELb0EEC2IS5_EEOT_, symObjAddr: 0x2480, symBinAddr: 0x100005B60, symSize: 0x30 }
  - { offsetInCU: 0x93BC, offset: 0x93BC, size: 0x8, addend: 0x0, symName: __ZNSt8_Rb_treeINSt7__cxx1112basic_stringIcSt11char_traitsIcESaIcEEESt4pairIKS5_xESt10_Select1stIS8_ESt4lessIS5_ESaIS8_EE21_M_get_Node_allocatorEv, symObjAddr: 0x246C, symBinAddr: 0x100005B4C, symSize: 0x14 }
  - { offsetInCU: 0x93E9, offset: 0x93E9, size: 0x8, addend: 0x0, symName: __ZN9__gnu_cxx16__aligned_membufISt4pairIKNSt7__cxx1112basic_stringIcSt11char_traitsIcESaIcEEExEE7_M_addrEv, symObjAddr: 0x2458, symBinAddr: 0x100005B38, symSize: 0x14 }
  - { offsetInCU: 0x9410, offset: 0x9410, size: 0x8, addend: 0x0, symName: __ZNSt8_Rb_treeINSt7__cxx1112basic_stringIcSt11char_traitsIcESaIcEEESt4pairIKS5_xESt10_Select1stIS8_ESt4lessIS5_ESaIS8_EE14_M_insert_nodeEPSt18_Rb_tree_node_baseSG_PSt13_Rb_tree_nodeIS8_E, symObjAddr: 0x2384, symBinAddr: 0x100005A64, symSize: 0xD4 }
  - { offsetInCU: 0x9475, offset: 0x9475, size: 0x8, addend: 0x0, symName: __ZNSt8_Rb_treeINSt7__cxx1112basic_stringIcSt11char_traitsIcESaIcEEESt4pairIKS5_xESt10_Select1stIS8_ESt4lessIS5_ESaIS8_EE6_S_keyEPKSt13_Rb_tree_nodeIS8_E, symObjAddr: 0x235C, symBinAddr: 0x100005A3C, symSize: 0x28 }
  - { offsetInCU: 0x94A1, offset: 0x94A1, size: 0x8, addend: 0x0, symName: __ZNSt17_Rb_tree_iteratorISt4pairIKNSt7__cxx1112basic_stringIcSt11char_traitsIcESaIcEEExEEmmEv, symObjAddr: 0x232C, symBinAddr: 0x100005A0C, symSize: 0x30 }
  - { offsetInCU: 0x9547, offset: 0x9547, size: 0x8, addend: 0x0, symName: __ZNSt4pairIPSt18_Rb_tree_node_baseS1_EC1IRS1_S4_Lb1EEEOT_OT0_, symObjAddr: 0x22E4, symBinAddr: 0x1000059C4, symSize: 0x48 }
  - { offsetInCU: 0x9553, offset: 0x9553, size: 0x8, addend: 0x0, symName: __ZNSt8_Rb_treeINSt7__cxx1112basic_stringIcSt11char_traitsIcESaIcEEESt4pairIKS5_xESt10_Select1stIS8_ESt4lessIS5_ESaIS8_EE11_M_leftmostEv, symObjAddr: 0x22CC, symBinAddr: 0x1000059AC, symSize: 0x18 }
  - { offsetInCU: 0x957B, offset: 0x957B, size: 0x8, addend: 0x0, symName: __ZNSt8_Rb_treeINSt7__cxx1112basic_stringIcSt11char_traitsIcESaIcEEESt4pairIKS5_xESt10_Select1stIS8_ESt4lessIS5_ESaIS8_EE24_M_get_insert_unique_posERS7_, symObjAddr: 0x216C, symBinAddr: 0x10000584C, symSize: 0x160 }
  - { offsetInCU: 0x967A, offset: 0x967A, size: 0x8, addend: 0x0, symName: __ZNSt4pairIPSt18_Rb_tree_node_baseS1_EC1IS1_S1_Lb1EEERKS1_S5_, symObjAddr: 0x2130, symBinAddr: 0x100005810, symSize: 0x3C }
  - { offsetInCU: 0x9682, offset: 0x9682, size: 0x8, addend: 0x0, symName: __ZNSt8_Rb_treeINSt7__cxx1112basic_stringIcSt11char_traitsIcESaIcEEESt4pairIKS5_xESt10_Select1stIS8_ESt4lessIS5_ESaIS8_EE6_S_keyEPKSt18_Rb_tree_node_base, symObjAddr: 0x2114, symBinAddr: 0x1000057F4, symSize: 0x1C }
  - { offsetInCU: 0x96AE, offset: 0x96AE, size: 0x8, addend: 0x0, symName: __ZNSt8_Rb_treeINSt7__cxx1112basic_stringIcSt11char_traitsIcESaIcEEESt4pairIKS5_xESt10_Select1stIS8_ESt4lessIS5_ESaIS8_EE12_M_rightmostEv, symObjAddr: 0x20FC, symBinAddr: 0x1000057DC, symSize: 0x18 }
  - { offsetInCU: 0x96D6, offset: 0x96D6, size: 0x8, addend: 0x0, symName: __ZNKSt8_Rb_treeINSt7__cxx1112basic_stringIcSt11char_traitsIcESaIcEEESt4pairIKS5_xESt10_Select1stIS8_ESt4lessIS5_ESaIS8_EE4sizeEv, symObjAddr: 0x20E4, symBinAddr: 0x1000057C4, symSize: 0x18 }
  - { offsetInCU: 0x96FE, offset: 0x96FE, size: 0x8, addend: 0x0, symName: __ZNKSt23_Rb_tree_const_iteratorISt4pairIKNSt7__cxx1112basic_stringIcSt11char_traitsIcESaIcEEExEE13_M_const_castEv, symObjAddr: 0x20BC, symBinAddr: 0x10000579C, symSize: 0x28 }
  - { offsetInCU: 0x9726, offset: 0x9726, size: 0x8, addend: 0x0, symName: __ZNSt8_Rb_treeINSt7__cxx1112basic_stringIcSt11char_traitsIcESaIcEEESt4pairIKS5_xESt10_Select1stIS8_ESt4lessIS5_ESaIS8_EE14_M_create_nodeIJRKSt21piecewise_construct_tSt5tupleIJOS5_EESJ_IJEEEEEPSt13_Rb_tree_nodeIS8_EDpOT_, symObjAddr: 0x204C, symBinAddr: 0x10000572C, symSize: 0x70 }
  - { offsetInCU: 0x9818, offset: 0x9818, size: 0x8, addend: 0x0, symName: __ZNSt11_Tuple_implILm0EJONSt7__cxx1112basic_stringIcSt11char_traitsIcESaIcEEEEEC2IS5_EEOT_, symObjAddr: 0x2010, symBinAddr: 0x1000056F0, symSize: 0x3C }
  - { offsetInCU: 0x97F6, offset: 0x97F6, size: 0x8, addend: 0x0, symName: __ZNSt8_Rb_treeINSt7__cxx1112basic_stringIcSt11char_traitsIcESaIcEEESt4pairIKS5_xESt10_Select1stIS8_ESt4lessIS5_ESaIS8_EE14_M_lower_boundEPSt13_Rb_tree_nodeIS8_EPSt18_Rb_tree_node_baseRS7_, symObjAddr: 0x1F70, symBinAddr: 0x100005650, symSize: 0xA0 }
  - { offsetInCU: 0x984E, offset: 0x984E, size: 0x8, addend: 0x0, symName: __ZNSt8_Rb_treeINSt7__cxx1112basic_stringIcSt11char_traitsIcESaIcEEESt4pairIKS5_xESt10_Select1stIS8_ESt4lessIS5_ESaIS8_EE6_M_endEv, symObjAddr: 0x1F58, symBinAddr: 0x100005638, symSize: 0x18 }
  - { offsetInCU: 0x9876, offset: 0x9876, size: 0x8, addend: 0x0, symName: __ZNSt8_Rb_treeINSt7__cxx1112basic_stringIcSt11char_traitsIcESaIcEEESt4pairIKS5_xESt10_Select1stIS8_ESt4lessIS5_ESaIS8_EE11_M_put_nodeEPSt13_Rb_tree_nodeIS8_E, symObjAddr: 0x1F0C, symBinAddr: 0x1000055EC, symSize: 0x4C }
  - { offsetInCU: 0x98E1, offset: 0x98E1, size: 0x8, addend: 0x0, symName: __ZNSt8_Rb_treeINSt7__cxx1112basic_stringIcSt11char_traitsIcESaIcEEESt4pairIKS5_xESt10_Select1stIS8_ESt4lessIS5_ESaIS8_EE15_M_destroy_nodeEPSt13_Rb_tree_nodeIS8_E, symObjAddr: 0x1EAC, symBinAddr: 0x10000558C, symSize: 0x60 }
  - { offsetInCU: 0x99B3, offset: 0x99B3, size: 0x8, addend: 0x0, symName: __ZN9__gnu_cxx16__aligned_membufISt4pairIKNSt7__cxx1112basic_stringIcSt11char_traitsIcESaIcEEExEE6_M_ptrEv, symObjAddr: 0x1E90, symBinAddr: 0x100005570, symSize: 0x1C }
  - { offsetInCU: 0x9A70, offset: 0x9A70, size: 0x8, addend: 0x0, symName: __ZNSt17_Rb_tree_iteratorISt4pairIKNSt7__cxx1112basic_stringIcSt11char_traitsIcESaIcEEExEEC1EPSt18_Rb_tree_node_base, symObjAddr: 0x1E6C, symBinAddr: 0x10000554C, symSize: 0x24 }
  - { offsetInCU: 0x9A2C, offset: 0x9A2C, size: 0x8, addend: 0x0, symName: __ZNSt8_Rb_treeINSt7__cxx1112basic_stringIcSt11char_traitsIcESaIcEEESt4pairIKS5_xESt10_Select1stIS8_ESt4lessIS5_ESaIS8_EE10_Auto_node9_M_insertES6_IPSt18_Rb_tree_node_baseSH_E, symObjAddr: 0x1E20, symBinAddr: 0x100005500, symSize: 0x4C }
  - { offsetInCU: 0x9A75, offset: 0x9A75, size: 0x8, addend: 0x0, symName: __ZNKSt8_Rb_treeINSt7__cxx1112basic_stringIcSt11char_traitsIcESaIcEEESt4pairIKS5_xESt10_Select1stIS8_ESt4lessIS5_ESaIS8_EE10_Auto_node6_M_keyEv, symObjAddr: 0x1E00, symBinAddr: 0x1000054E0, symSize: 0x20 }
  - { offsetInCU: 0x9A9D, offset: 0x9A9D, size: 0x8, addend: 0x0, symName: __ZNSt8_Rb_treeINSt7__cxx1112basic_stringIcSt11char_traitsIcESaIcEEESt4pairIKS5_xESt10_Select1stIS8_ESt4lessIS5_ESaIS8_EE29_M_get_insert_hint_unique_posESt23_Rb_tree_const_iteratorIS8_ERS7_, symObjAddr: 0x1AC8, symBinAddr: 0x1000051A8, symSize: 0x338 }
  - { offsetInCU: 0x9BEA, offset: 0x9BEA, size: 0x8, addend: 0x0, symName: __ZNSt8_Rb_treeINSt7__cxx1112basic_stringIcSt11char_traitsIcESaIcEEESt4pairIKS5_xESt10_Select1stIS8_ESt4lessIS5_ESaIS8_EE10_Auto_nodeD1Ev, symObjAddr: 0x1A84, symBinAddr: 0x100005164, symSize: 0x44 }
  - { offsetInCU: 0x9C9C, offset: 0x9C9C, size: 0x8, addend: 0x0, symName: __ZNSt8_Rb_treeINSt7__cxx1112basic_stringIcSt11char_traitsIcESaIcEEESt4pairIKS5_xESt10_Select1stIS8_ESt4lessIS5_ESaIS8_EE10_Auto_nodeC1IJRKSt21piecewise_construct_tSt5tupleIJOS5_EESK_IJEEEEERSE_DpOT_, symObjAddr: 0x1A08, symBinAddr: 0x1000050E8, symSize: 0x7C }
  - { offsetInCU: 0x9C3B, offset: 0x9C3B, size: 0x8, addend: 0x0, symName: __ZSt7forwardISt5tupleIJEEEOT_RNSt16remove_referenceIS2_E4typeE, symObjAddr: 0x19F4, symBinAddr: 0x1000050D4, symSize: 0x14 }
  - { offsetInCU: 0x9C71, offset: 0x9C71, size: 0x8, addend: 0x0, symName: __ZSt7forwardISt5tupleIJONSt7__cxx1112basic_stringIcSt11char_traitsIcESaIcEEEEEEOT_RNSt16remove_referenceIS9_E4typeE, symObjAddr: 0x19E0, symBinAddr: 0x1000050C0, symSize: 0x14 }
  - { offsetInCU: 0x9CA7, offset: 0x9CA7, size: 0x8, addend: 0x0, symName: __ZSt7forwardIRKSt21piecewise_construct_tEOT_RNSt16remove_referenceIS3_E4typeE, symObjAddr: 0x19CC, symBinAddr: 0x1000050AC, symSize: 0x14 }
  - { offsetInCU: 0x9D6C, offset: 0x9D6C, size: 0x8, addend: 0x0, symName: __ZNSt5tupleIJONSt7__cxx1112basic_stringIcSt11char_traitsIcESaIcEEEEEC1IJS5_ELb1ELb1EEEDpOT_, symObjAddr: 0x1990, symBinAddr: 0x100005070, symSize: 0x3C }
  - { offsetInCU: 0x9D5E, offset: 0x9D5E, size: 0x8, addend: 0x0, symName: __ZSt7forwardINSt7__cxx1112basic_stringIcSt11char_traitsIcESaIcEEEEOT_RNSt16remove_referenceIS6_E4typeE, symObjAddr: 0x197C, symBinAddr: 0x10000505C, symSize: 0x14 }
  - { offsetInCU: 0x9D8E, offset: 0x9D8E, size: 0x8, addend: 0x0, symName: __ZStltIcSt11char_traitsIcESaIcEEbRKNSt7__cxx1112basic_stringIT_T0_T1_EESA_, symObjAddr: 0x1950, symBinAddr: 0x100005030, symSize: 0x2C }
  - { offsetInCU: 0x9DE5, offset: 0x9DE5, size: 0x8, addend: 0x0, symName: __ZNKSt8_Rb_treeINSt7__cxx1112basic_stringIcSt11char_traitsIcESaIcEEESt4pairIKS5_xESt10_Select1stIS8_ESt4lessIS5_ESaIS8_EE8key_compEv, symObjAddr: 0x1938, symBinAddr: 0x100005018, symSize: 0x18 }
  - { offsetInCU: 0x9E0D, offset: 0x9E0D, size: 0x8, addend: 0x0, symName: __ZNSt8_Rb_treeINSt7__cxx1112basic_stringIcSt11char_traitsIcESaIcEEESt4pairIKS5_xESt10_Select1stIS8_ESt4lessIS5_ESaIS8_EE11lower_boundERS7_, symObjAddr: 0x18F0, symBinAddr: 0x100004FD0, symSize: 0x48 }
  - { offsetInCU: 0x9E45, offset: 0x9E45, size: 0x8, addend: 0x0, symName: __ZNKSt8_Rb_treeINSt7__cxx1112basic_stringIcSt11char_traitsIcESaIcEEESt4pairIKS5_xESt10_Select1stIS8_ESt4lessIS5_ESaIS8_EE9_M_mbeginEv, symObjAddr: 0x18D8, symBinAddr: 0x100004FB8, symSize: 0x18 }
  - { offsetInCU: 0x9E6D, offset: 0x9E6D, size: 0x8, addend: 0x0, symName: __ZNSt8_Rb_treeINSt7__cxx1112basic_stringIcSt11char_traitsIcESaIcEEESt4pairIKS5_xESt10_Select1stIS8_ESt4lessIS5_ESaIS8_EE12_M_drop_nodeEPSt13_Rb_tree_nodeIS8_E, symObjAddr: 0x18A4, symBinAddr: 0x100004F84, symSize: 0x34 }
  - { offsetInCU: 0x9EA1, offset: 0x9EA1, size: 0x8, addend: 0x0, symName: __ZNSt8_Rb_treeINSt7__cxx1112basic_stringIcSt11char_traitsIcESaIcEEESt4pairIKS5_xESt10_Select1stIS8_ESt4lessIS5_ESaIS8_EE7_S_leftEPSt18_Rb_tree_node_base, symObjAddr: 0x188C, symBinAddr: 0x100004F6C, symSize: 0x18 }
  - { offsetInCU: 0x9EC9, offset: 0x9EC9, size: 0x8, addend: 0x0, symName: __ZNSt8_Rb_treeINSt7__cxx1112basic_stringIcSt11char_traitsIcESaIcEEESt4pairIKS5_xESt10_Select1stIS8_ESt4lessIS5_ESaIS8_EE8_S_rightEPSt18_Rb_tree_node_base, symObjAddr: 0x1874, symBinAddr: 0x100004F54, symSize: 0x18 }
  - { offsetInCU: 0x9F32, offset: 0x9F32, size: 0x8, addend: 0x0, symName: __ZNSt13_Rb_tree_nodeISt4pairIKNSt7__cxx1112basic_stringIcSt11char_traitsIcESaIcEEExEE9_M_valptrEv, symObjAddr: 0x1854, symBinAddr: 0x100004F34, symSize: 0x20 }
  - { offsetInCU: 0x9F5A, offset: 0x9F5A, size: 0x8, addend: 0x0, symName: __ZNSt8_Rb_treeINSt7__cxx1112basic_stringIcSt11char_traitsIcESaIcEEESt4pairIKS5_xESt10_Select1stIS8_ESt4lessIS5_ESaIS8_EE3endEv, symObjAddr: 0x182C, symBinAddr: 0x100004F0C, symSize: 0x28 }
  - { offsetInCU: 0x9F82, offset: 0x9F82, size: 0x8, addend: 0x0, symName: __ZNSt8_Rb_treeINSt7__cxx1112basic_stringIcSt11char_traitsIcESaIcEEESt4pairIKS5_xESt10_Select1stIS8_ESt4lessIS5_ESaIS8_EE5beginEv, symObjAddr: 0x1804, symBinAddr: 0x100004EE4, symSize: 0x28 }
  - { offsetInCU: 0x9FAA, offset: 0x9FAA, size: 0x8, addend: 0x0, symName: __ZNSt8_Rb_treeINSt7__cxx1112basic_stringIcSt11char_traitsIcESaIcEEESt4pairIKS5_xESt10_Select1stIS8_ESt4lessIS5_ESaIS8_EE22_M_emplace_hint_uniqueIJRKSt21piecewise_construct_tSt5tupleIJOS5_EESJ_IJEEEEESt17_Rb_tree_iteratorIS8_ESt23_Rb_tree_const_iteratorIS8_EDpOT_, symObjAddr: 0x172C, symBinAddr: 0x100004E0C, symSize: 0xD8 }
  - { offsetInCU: 0xA0DB, offset: 0xA0DB, size: 0x8, addend: 0x0, symName: __ZNSt23_Rb_tree_const_iteratorISt4pairIKNSt7__cxx1112basic_stringIcSt11char_traitsIcESaIcEEExEEC1ERKSt17_Rb_tree_iteratorIS8_E, symObjAddr: 0x1704, symBinAddr: 0x100004DE4, symSize: 0x28 }
  - { offsetInCU: 0xA088, offset: 0xA088, size: 0x8, addend: 0x0, symName: __ZSt16forward_as_tupleIJNSt7__cxx1112basic_stringIcSt11char_traitsIcESaIcEEEEESt5tupleIJDpOT_EES9_, symObjAddr: 0x16CC, symBinAddr: 0x100004DAC, symSize: 0x38 }
  - { offsetInCU: 0xA0BE, offset: 0xA0BE, size: 0x8, addend: 0x0, symName: __ZNKSt4lessINSt7__cxx1112basic_stringIcSt11char_traitsIcESaIcEEEEclERKS5_S8_, symObjAddr: 0x16A0, symBinAddr: 0x100004D80, symSize: 0x2C }
  - { offsetInCU: 0xA106, offset: 0xA106, size: 0x8, addend: 0x0, symName: __ZNKSt3mapINSt7__cxx1112basic_stringIcSt11char_traitsIcESaIcEEExSt4lessIS5_ESaISt4pairIKS5_xEEE8key_compEv, symObjAddr: 0x1674, symBinAddr: 0x100004D54, symSize: 0x2C }
  - { offsetInCU: 0xA130, offset: 0xA130, size: 0x8, addend: 0x0, symName: __ZSteqRKSt17_Rb_tree_iteratorISt4pairIKNSt7__cxx1112basic_stringIcSt11char_traitsIcESaIcEEExEESB_, symObjAddr: 0x1644, symBinAddr: 0x100004D24, symSize: 0x30 }
  - { offsetInCU: 0xA16C, offset: 0xA16C, size: 0x8, addend: 0x0, symName: __ZNSt3mapINSt7__cxx1112basic_stringIcSt11char_traitsIcESaIcEEExSt4lessIS5_ESaISt4pairIKS5_xEEE11lower_boundERS9_, symObjAddr: 0x1620, symBinAddr: 0x100004D00, symSize: 0x24 }
  - { offsetInCU: 0xA1A4, offset: 0xA1A4, size: 0x8, addend: 0x0, symName: __ZNSt8_Rb_treeINSt7__cxx1112basic_stringIcSt11char_traitsIcESaIcEEESt4pairIKS5_xESt10_Select1stIS8_ESt4lessIS5_ESaIS8_EE8_M_beginEv, symObjAddr: 0x1604, symBinAddr: 0x100004CE4, symSize: 0x1C }
  - { offsetInCU: 0xA1CC, offset: 0xA1CC, size: 0x8, addend: 0x0, symName: __ZNSt8_Rb_treeINSt7__cxx1112basic_stringIcSt11char_traitsIcESaIcEEESt4pairIKS5_xESt10_Select1stIS8_ESt4lessIS5_ESaIS8_EE8_M_eraseEPSt13_Rb_tree_nodeIS8_E, symObjAddr: 0x15A0, symBinAddr: 0x100004C80, symSize: 0x64 }
  - { offsetInCU: 0xA2B4, offset: 0xA2B4, size: 0x8, addend: 0x0, symName: __ZNSt15__new_allocatorISt13_Rb_tree_nodeISt4pairIKNSt7__cxx1112basic_stringIcSt11char_traitsIcESaIcEEExEEED2Ev, symObjAddr: 0x158C, symBinAddr: 0x100004C6C, symSize: 0x14 }
  - { offsetInCU: 0xA2E0, offset: 0xA2E0, size: 0x8, addend: 0x0, symName: __ZNSt20_Rb_tree_key_compareISt4lessINSt7__cxx1112basic_stringIcSt11char_traitsIcESaIcEEEEEC2Ev, symObjAddr: 0x1578, symBinAddr: 0x100004C58, symSize: 0x14 }
  - { offsetInCU: 0xA2D3, offset: 0xA2D3, size: 0x8, addend: 0x0, symName: __ZSt4moveIRNSt7__cxx1112basic_stringIcSt11char_traitsIcESaIcEEEEONSt16remove_referenceIT_E4typeEOS8_, symObjAddr: 0x1564, symBinAddr: 0x100004C44, symSize: 0x14 }
  - { offsetInCU: 0xA307, offset: 0xA307, size: 0x8, addend: 0x0, symName: __ZNSt7__cxx1112basic_stringIcSt11char_traitsIcESaIcEE12_M_constructIPKcEEvT_S8_St20forward_iterator_tag, symObjAddr: 0x147C, symBinAddr: 0x100004B5C, symSize: 0xE8 }
  - { offsetInCU: 0xA47B, offset: 0xA47B, size: 0x8, addend: 0x0, symName: __ZZNSt7__cxx1112basic_stringIcSt11char_traitsIcESaIcEE12_M_constructIPKcEEvT_S8_St20forward_iterator_tagEN6_GuardC1EPS4_, symObjAddr: 0x1424, symBinAddr: 0x100004B04, symSize: 0x24 }
  - { offsetInCU: 0xA4A9, offset: 0xA4A9, size: 0x8, addend: 0x0, symName: __ZZNSt7__cxx1112basic_stringIcSt11char_traitsIcESaIcEE12_M_constructIPKcEEvT_S8_St20forward_iterator_tagEN6_GuardD1Ev, symObjAddr: 0x1448, symBinAddr: 0x100004B28, symSize: 0x34 }
  - { offsetInCU: 0xA545, offset: 0xA545, size: 0x8, addend: 0x0, symName: __ZNSt15__new_allocatorIcED2Ev, symObjAddr: 0x1410, symBinAddr: 0x100004AF0, symSize: 0x14 }
  - { offsetInCU: 0xA55F, offset: 0xA55F, size: 0x8, addend: 0x0, symName: __ZN9__gnu_cxx11char_traitsIcE2eqERKcS3_, symObjAddr: 0x13E0, symBinAddr: 0x100004AC0, symSize: 0x30 }
  - { offsetInCU: 0xA599, offset: 0xA599, size: 0x8, addend: 0x0, symName: __ZNKSt17_Rb_tree_iteratorISt4pairIKNSt7__cxx1112basic_stringIcSt11char_traitsIcESaIcEEExEEdeEv, symObjAddr: 0x13C0, symBinAddr: 0x100004AA0, symSize: 0x20 }
  - { offsetInCU: 0xA5C1, offset: 0xA5C1, size: 0x8, addend: 0x0, symName: __ZNSt17_Rb_tree_iteratorISt4pairIKNSt7__cxx1112basic_stringIcSt11char_traitsIcESaIcEEExEEppEv, symObjAddr: 0x1390, symBinAddr: 0x100004A70, symSize: 0x30 }
  - { offsetInCU: 0xA5E5, offset: 0xA5E5, size: 0x8, addend: 0x0, symName: __ZStneRKSt17_Rb_tree_iteratorISt4pairIKNSt7__cxx1112basic_stringIcSt11char_traitsIcESaIcEEExEESB_, symObjAddr: 0x1360, symBinAddr: 0x100004A40, symSize: 0x30 }
  - { offsetInCU: 0xA621, offset: 0xA621, size: 0x8, addend: 0x0, symName: __ZNSt3mapINSt7__cxx1112basic_stringIcSt11char_traitsIcESaIcEEExSt4lessIS5_ESaISt4pairIKS5_xEEE3endEv, symObjAddr: 0x1344, symBinAddr: 0x100004A24, symSize: 0x1C }
  - { offsetInCU: 0xA649, offset: 0xA649, size: 0x8, addend: 0x0, symName: __ZNSt3mapINSt7__cxx1112basic_stringIcSt11char_traitsIcESaIcEEExSt4lessIS5_ESaISt4pairIKS5_xEEE5beginEv, symObjAddr: 0x1328, symBinAddr: 0x100004A08, symSize: 0x1C }
  - { offsetInCU: 0xA671, offset: 0xA671, size: 0x8, addend: 0x0, symName: __ZNSt3mapINSt7__cxx1112basic_stringIcSt11char_traitsIcESaIcEEExSt4lessIS5_ESaISt4pairIKS5_xEEEixEOS5_, symObjAddr: 0x1224, symBinAddr: 0x100004904, symSize: 0x104 }
  - { offsetInCU: 0xA73F, offset: 0xA73F, size: 0x8, addend: 0x0, symName: __ZNSt7__cxx1112basic_stringIcSt11char_traitsIcESaIcEEC1IS3_EEPKcRKS3_, symObjAddr: 0x1188, symBinAddr: 0x100004868, symSize: 0x9C }
  - { offsetInCU: 0xA75A, offset: 0xA75A, size: 0x8, addend: 0x0, symName: __ZSteqIcSt11char_traitsIcESaIcEEbRKNSt7__cxx1112basic_stringIT_T0_T1_EEPKS5_, symObjAddr: 0x1114, symBinAddr: 0x1000047F4, symSize: 0x74 }
  - { offsetInCU: 0xA84B, offset: 0xA84B, size: 0x8, addend: 0x0, symName: __ZNSt8_Rb_treeINSt7__cxx1112basic_stringIcSt11char_traitsIcESaIcEEESt4pairIKS5_xESt10_Select1stIS8_ESt4lessIS5_ESaIS8_EED1Ev, symObjAddr: 0x10E0, symBinAddr: 0x1000047C0, symSize: 0x34 }
  - { offsetInCU: 0xA8BC, offset: 0xA8BC, size: 0x8, addend: 0x0, symName: __ZNSt8_Rb_treeINSt7__cxx1112basic_stringIcSt11char_traitsIcESaIcEEESt4pairIKS5_xESt10_Select1stIS8_ESt4lessIS5_ESaIS8_EE13_Rb_tree_implISC_Lb1EEC1Ev, symObjAddr: 0x109C, symBinAddr: 0x10000477C, symSize: 0x44 }
  - { offsetInCU: 0xA8FD, offset: 0xA8FD, size: 0x8, addend: 0x0, symName: __ZNSt7__cxx1112basic_stringIcSt11char_traitsIcESaIcEE12_Alloc_hiderD1Ev, symObjAddr: 0x1070, symBinAddr: 0x100004750, symSize: 0x2C }
  - { offsetInCU: 0xA92C, offset: 0xA92C, size: 0x8, addend: 0x0, symName: __ZN9__gnu_cxx11char_traitsIcE6lengthEPKc, symObjAddr: 0x1014, symBinAddr: 0x1000046F4, symSize: 0x5C }
  - { offsetInCU: 0xA96C, offset: 0xA96C, size: 0x8, addend: 0x0, symName: _main, symObjAddr: 0xF94, symBinAddr: 0x100004674, symSize: 0x80 }
  - { offsetInCU: 0xA998, offset: 0xA998, size: 0x8, addend: 0x0, symName: __Z6decodev, symObjAddr: 0x32C, symBinAddr: 0x100003A0C, symSize: 0xC68 }
  - { offsetInCU: 0xB0AF, offset: 0xB0AF, size: 0x8, addend: 0x0, symName: __ZNSt4pairIKNSt7__cxx1112basic_stringIcSt11char_traitsIcESaIcEEExED1Ev, symObjAddr: 0x30C, symBinAddr: 0x1000039EC, symSize: 0x20 }
  - { offsetInCU: 0xB0F4, offset: 0xB0F4, size: 0x8, addend: 0x0, symName: __ZNSt4pairIKNSt7__cxx1112basic_stringIcSt11char_traitsIcESaIcEEExEC1ERKS7_, symObjAddr: 0x2D4, symBinAddr: 0x1000039B4, symSize: 0x38 }
  - { offsetInCU: 0xB0E9, offset: 0xB0E9, size: 0x8, addend: 0x0, symName: __Z5vowelc, symObjAddr: 0x27C, symBinAddr: 0x10000395C, symSize: 0x58 }
  - { offsetInCU: 0xB183, offset: 0xB183, size: 0x8, addend: 0x0, symName: __ZNSt3mapINSt7__cxx1112basic_stringIcSt11char_traitsIcESaIcEEExSt4lessIS5_ESaISt4pairIKS5_xEEEC1Ev, symObjAddr: 0x25C, symBinAddr: 0x10000393C, symSize: 0x20 }
  - { offsetInCU: 0xB1D9, offset: 0xB1D9, size: 0x8, addend: 0x0, symName: __ZNSt8_Rb_treeINSt7__cxx1112basic_stringIcSt11char_traitsIcESaIcEEESt4pairIKS5_xESt10_Select1stIS8_ESt4lessIS5_ESaIS8_EEC1Ev, symObjAddr: 0x23C, symBinAddr: 0x10000391C, symSize: 0x20 }
  - { offsetInCU: 0xB23B, offset: 0xB23B, size: 0x8, addend: 0x0, symName: __ZNSt8_Rb_treeINSt7__cxx1112basic_stringIcSt11char_traitsIcESaIcEEESt4pairIKS5_xESt10_Select1stIS8_ESt4lessIS5_ESaIS8_EE13_Rb_tree_implISC_Lb1EED1Ev, symObjAddr: 0x210, symBinAddr: 0x1000038F0, symSize: 0x2C }
  - { offsetInCU: 0xB1F1, offset: 0xB1F1, size: 0x8, addend: 0x0, symName: __ZNSt15_Rb_tree_header8_M_resetEv, symObjAddr: 0x1D4, symBinAddr: 0x1000038B4, symSize: 0x3C }
  - { offsetInCU: 0xB248, offset: 0xB248, size: 0x8, addend: 0x0, symName: __ZNSt15_Rb_tree_headerC2Ev, symObjAddr: 0x1AC, symBinAddr: 0x10000388C, symSize: 0x28 }
  - { offsetInCU: 0xB251, offset: 0xB251, size: 0x8, addend: 0x0, symName: __ZNSt11char_traitsIcE6lengthEPKc, symObjAddr: 0x16C, symBinAddr: 0x10000384C, symSize: 0x40 }
  - { offsetInCU: 0xB279, offset: 0xB279, size: 0x8, addend: 0x0, symName: __ZNSt11char_traitsIcE7compareEPKcS2_m, symObjAddr: 0x70, symBinAddr: 0x100003750, symSize: 0xFC }
  - { offsetInCU: 0xB2E5, offset: 0xB2E5, size: 0x8, addend: 0x0, symName: __ZNSt11char_traitsIcE2ltERKcS2_, symObjAddr: 0x38, symBinAddr: 0x100003718, symSize: 0x38 }
  - { offsetInCU: 0xB32A, offset: 0xB32A, size: 0x8, addend: 0x0, symName: __ZdlPvS_, symObjAddr: 0x20, symBinAddr: 0x100003700, symSize: 0x18 }
  - { offsetInCU: 0xB35D, offset: 0xB35D, size: 0x8, addend: 0x0, symName: __ZnwmPv, symObjAddr: 0x8, symBinAddr: 0x1000036E8, symSize: 0x18 }
  - { offsetInCU: 0xB389, offset: 0xB389, size: 0x8, addend: 0x0, symName: __ZSt23__is_constant_evaluatedv, symObjAddr: 0x0, symBinAddr: 0x1000036E0, symSize: 0x8 }
...
