---
triple:          'arm64-apple-darwin'
binary-path:     '/Users/dingkai/Code/IOI2024/NZOI/2023-2-4.gout'
relocations:
  - { offsetInCU: 0xBB, offset: 0xBB, size: 0x8, addend: 0x0, symName: __ZnwmPv, symObjAddr: 0x0, symBinAddr: 0x100001D00, symSize: 0x18 }
  - { offsetInCU: 0xC9E2, offset: 0xC9E2, size: 0x8, addend: 0x0, symName: __ZStL8__ioinit, symObjAddr: 0x58C00, symBinAddr: 0x100010090, symSize: 0x0 }
  - { offsetInCU: 0xCA6C, offset: 0xCA6C, size: 0x8, addend: 0x0, symName: _n, symObjAddr: 0x58C08, symBinAddr: 0x100010098, symSize: 0x0 }
  - { offsetInCU: 0xCC29, offset: 0xCC29, size: 0x8, addend: 0x0, symName: _setFriendedNum, symObjAddr: 0x58C10, symBinAddr: 0x1000100A0, symSize: 0x0 }
  - { offsetInCU: 0xCDB8, offset: 0xCDB8, size: 0x8, addend: 0x0, symName: _setAandB, symObjAddr: 0x58C40, symBinAddr: 0x1000100D0, symSize: 0x0 }
  - { offsetInCU: 0xCDD1, offset: 0xCDD1, size: 0x8, addend: 0x0, symName: _setTmpAandB, symObjAddr: 0x58C70, symBinAddr: 0x100010100, symSize: 0x0 }
  - { offsetInCU: 0xCF4C, offset: 0xCF4C, size: 0x8, addend: 0x0, symName: _mapBtoA, symObjAddr: 0x58CA0, symBinAddr: 0x100010130, symSize: 0x0 }
  - { offsetInCU: 0xD006, offset: 0xD006, size: 0x8, addend: 0x0, symName: _ans, symObjAddr: 0x58CD0, symBinAddr: 0x100010160, symSize: 0x0 }
  - { offsetInCU: 0xD548, offset: 0xD548, size: 0x8, addend: 0x0, symName: __GLOBAL__sub_I_2023_2_4.cpp, symObjAddr: 0x5384, symBinAddr: 0x100007084, symSize: 0x14 }
  - { offsetInCU: 0xD580, offset: 0xD580, size: 0x8, addend: 0x0, symName: __ZNSt6vectorIxSaIxEED1Ev, symObjAddr: 0x5328, symBinAddr: 0x100007028, symSize: 0x5C }
  - { offsetInCU: 0xD5E4, offset: 0xD5E4, size: 0x8, addend: 0x0, symName: __Z41__static_initialization_and_destruction_0v, symObjAddr: 0x5224, symBinAddr: 0x100006F24, symSize: 0x104 }
  - { offsetInCU: 0xD621, offset: 0xD621, size: 0x8, addend: 0x0, symName: __ZNSt3mapIxxSt4lessIxESaISt4pairIKxxEEED1Ev, symObjAddr: 0x5204, symBinAddr: 0x100006F04, symSize: 0x20 }
  - { offsetInCU: 0xD668, offset: 0xD668, size: 0x8, addend: 0x0, symName: __ZNSt3setISt4pairIxxESt4lessIS1_ESaIS1_EED1Ev, symObjAddr: 0x51E4, symBinAddr: 0x100006EE4, symSize: 0x20 }
  - { offsetInCU: 0xD69F, offset: 0xD69F, size: 0x8, addend: 0x0, symName: __ZNSt3setIxSt4lessIxESaIxEED1Ev, symObjAddr: 0x51C4, symBinAddr: 0x100006EC4, symSize: 0x20 }
  - { offsetInCU: 0xD6A3, offset: 0xD6A3, size: 0x8, addend: 0x0, symName: __ZNSt10_Head_baseILm0ERKxLb0EE7_M_headERS2_, symObjAddr: 0x51AC, symBinAddr: 0x100006EAC, symSize: 0x18 }
  - { offsetInCU: 0xD6CA, offset: 0xD6CA, size: 0x8, addend: 0x0, symName: __ZNSt11_Tuple_implILm0EJRKxEE7_M_headERS2_, symObjAddr: 0x5190, symBinAddr: 0x100006E90, symSize: 0x1C }
  - { offsetInCU: 0xD6F2, offset: 0xD6F2, size: 0x8, addend: 0x0, symName: __ZSt12__get_helperILm0ERKxJEERT0_RSt11_Tuple_implIXT_EJS2_DpT1_EE, symObjAddr: 0x5174, symBinAddr: 0x100006E74, symSize: 0x1C }
  - { offsetInCU: 0xD732, offset: 0xD732, size: 0x8, addend: 0x0, symName: __ZSt3getILm0EJRKxEERNSt13tuple_elementIXT_ESt5tupleIJDpT0_EEE4typeERS6_, symObjAddr: 0x5158, symBinAddr: 0x100006E58, symSize: 0x1C }
  - { offsetInCU: 0xD866, offset: 0xD866, size: 0x8, addend: 0x0, symName: __ZNSt4pairIKxxEC1IJRS0_EJLm0EEJEJEEERSt5tupleIJDpT_EERS4_IJDpT1_EESt12_Index_tupleIJXspT0_EEESD_IJXspT2_EEE, symObjAddr: 0x5110, symBinAddr: 0x100006E10, symSize: 0x48 }
  - { offsetInCU: 0xD8E5, offset: 0xD8E5, size: 0x8, addend: 0x0, symName: __ZNSt15__new_allocatorISt13_Rb_tree_nodeISt4pairIxxEEE8allocateEmPKv, symObjAddr: 0x5080, symBinAddr: 0x100006D80, symSize: 0x90 }
  - { offsetInCU: 0xD992, offset: 0xD992, size: 0x8, addend: 0x0, symName: __ZNSt15__new_allocatorISt13_Rb_tree_nodeIxEE8allocateEmPKv, symObjAddr: 0x4FF0, symBinAddr: 0x100006CF0, symSize: 0x90 }
  - { offsetInCU: 0xDA96, offset: 0xDA96, size: 0x8, addend: 0x0, symName: __ZNSt4pairIKxxEC1IJRS0_EJEEESt21piecewise_construct_tSt5tupleIJDpT_EES5_IJDpT0_EE, symObjAddr: 0x4FB4, symBinAddr: 0x100006CB4, symSize: 0x3C }
  - { offsetInCU: 0xDADB, offset: 0xDADB, size: 0x8, addend: 0x0, symName: __ZNSt11_Tuple_implILm0EJRKxEEC2EOS2_, symObjAddr: 0x4F8C, symBinAddr: 0x100006C8C, symSize: 0x28 }
  - { offsetInCU: 0xDC1C, offset: 0xDC1C, size: 0x8, addend: 0x0, symName: __ZNK9__gnu_cxx16__aligned_membufIxE7_M_addrEv, symObjAddr: 0x4F78, symBinAddr: 0x100006C78, symSize: 0x14 }
  - { offsetInCU: 0xDCD6, offset: 0xDCD6, size: 0x8, addend: 0x0, symName: __ZNSt5tupleIJRKxEEC1EOS2_, symObjAddr: 0x4F50, symBinAddr: 0x100006C50, symSize: 0x28 }
  - { offsetInCU: 0xDCEC, offset: 0xDCEC, size: 0x8, addend: 0x0, symName: __ZNSt15__new_allocatorISt13_Rb_tree_nodeISt4pairIKxxEEE8allocateEmPKv, symObjAddr: 0x4EC0, symBinAddr: 0x100006BC0, symSize: 0x90 }
  - { offsetInCU: 0xDD5F, offset: 0xDD5F, size: 0x8, addend: 0x0, symName: __ZNK9__gnu_cxx16__aligned_membufISt4pairIKxxEE7_M_addrEv, symObjAddr: 0x4EAC, symBinAddr: 0x100006BAC, symSize: 0x14 }
  - { offsetInCU: 0xDD8C, offset: 0xDD8C, size: 0x8, addend: 0x0, symName: __ZN9__gnu_cxx16__aligned_membufISt4pairIxxEE7_M_addrEv, symObjAddr: 0x4E98, symBinAddr: 0x100006B98, symSize: 0x14 }
  - { offsetInCU: 0xDDB9, offset: 0xDDB9, size: 0x8, addend: 0x0, symName: __ZN9__gnu_cxx16__aligned_membufIxE7_M_addrEv, symObjAddr: 0x4E84, symBinAddr: 0x100006B84, symSize: 0x14 }
  - { offsetInCU: 0xDDE2, offset: 0xDDE2, size: 0x8, addend: 0x0, symName: __ZNSt8_Rb_treeISt4pairIxxES1_St9_IdentityIS1_ESt4lessIS1_ESaIS1_EE14_M_create_nodeIJRKS1_EEEPSt13_Rb_tree_nodeIS1_EDpOT_, symObjAddr: 0x4E44, symBinAddr: 0x100006B44, symSize: 0x40 }
  - { offsetInCU: 0xDE35, offset: 0xDE35, size: 0x8, addend: 0x0, symName: __ZNSt8_Rb_treeISt4pairIxxES1_St9_IdentityIS1_ESt4lessIS1_ESaIS1_EE17_M_construct_nodeIJRKS1_EEEvPSt13_Rb_tree_nodeIS1_EDpOT_, symObjAddr: 0x4D94, symBinAddr: 0x100006A94, symSize: 0xB0 }
  - { offsetInCU: 0xDEEC, offset: 0xDEEC, size: 0x8, addend: 0x0, symName: __ZNSt8_Rb_treeISt4pairIxxES1_St9_IdentityIS1_ESt4lessIS1_ESaIS1_EE20_Reuse_or_alloc_node10_M_extractEv, symObjAddr: 0x4C78, symBinAddr: 0x100006978, symSize: 0x11C }
  - { offsetInCU: 0xDF25, offset: 0xDF25, size: 0x8, addend: 0x0, symName: __ZNSt8_Rb_treeISt4pairIxxES1_St9_IdentityIS1_ESt4lessIS1_ESaIS1_EE17_M_construct_nodeIJS1_EEEvPSt13_Rb_tree_nodeIS1_EDpOT_, symObjAddr: 0x4BC8, symBinAddr: 0x1000068C8, symSize: 0xB0 }
  - { offsetInCU: 0xDFDC, offset: 0xDFDC, size: 0x8, addend: 0x0, symName: __ZNSt8_Rb_treeISt4pairIxxES1_St9_IdentityIS1_ESt4lessIS1_ESaIS1_EE11_M_get_nodeEv, symObjAddr: 0x4B8C, symBinAddr: 0x10000688C, symSize: 0x3C }
  - { offsetInCU: 0xE02E, offset: 0xE02E, size: 0x8, addend: 0x0, symName: __ZNSt8_Rb_treeIxxSt9_IdentityIxESt4lessIxESaIxEE17_M_construct_nodeIJRKxEEEvPSt13_Rb_tree_nodeIxEDpOT_, symObjAddr: 0x4ADC, symBinAddr: 0x1000067DC, symSize: 0xB0 }
  - { offsetInCU: 0xE0E5, offset: 0xE0E5, size: 0x8, addend: 0x0, symName: __ZNSt8_Rb_treeIxxSt9_IdentityIxESt4lessIxESaIxEE11_M_get_nodeEv, symObjAddr: 0x4AA0, symBinAddr: 0x1000067A0, symSize: 0x3C }
  - { offsetInCU: 0xE14D, offset: 0xE14D, size: 0x8, addend: 0x0, symName: __ZSt3minImERKT_S2_S2_, symObjAddr: 0x4A68, symBinAddr: 0x100006768, symSize: 0x38 }
  - { offsetInCU: 0xE1A5, offset: 0xE1A5, size: 0x8, addend: 0x0, symName: __ZNK9__gnu_cxx16__aligned_membufIxE6_M_ptrEv, symObjAddr: 0x4A4C, symBinAddr: 0x10000674C, symSize: 0x1C }
  - { offsetInCU: 0xE1D5, offset: 0xE1D5, size: 0x8, addend: 0x0, symName: __ZSt7forwardIRPSt13_Rb_tree_nodeISt4pairIKxxEEEOT_RNSt16remove_referenceIS7_E4typeE, symObjAddr: 0x4A38, symBinAddr: 0x100006738, symSize: 0x14 }
  - { offsetInCU: 0xE281, offset: 0xE281, size: 0x8, addend: 0x0, symName: __ZNK9__gnu_cxx16__aligned_membufISt4pairIKxxEE6_M_ptrEv, symObjAddr: 0x4A1C, symBinAddr: 0x10000671C, symSize: 0x1C }
  - { offsetInCU: 0xE2A9, offset: 0xE2A9, size: 0x8, addend: 0x0, symName: __ZNSt15__new_allocatorISt13_Rb_tree_nodeISt4pairIKxxEEE10deallocateEPS4_m, symObjAddr: 0x49E0, symBinAddr: 0x1000066E0, symSize: 0x3C }
  - { offsetInCU: 0xE318, offset: 0xE318, size: 0x8, addend: 0x0, symName: __ZNSt15__new_allocatorISt13_Rb_tree_nodeISt4pairIxxEEE10deallocateEPS3_m, symObjAddr: 0x49A4, symBinAddr: 0x1000066A4, symSize: 0x3C }
  - { offsetInCU: 0xE387, offset: 0xE387, size: 0x8, addend: 0x0, symName: __ZN9__gnu_cxx16__aligned_membufISt4pairIxxEE6_M_ptrEv, symObjAddr: 0x4988, symBinAddr: 0x100006688, symSize: 0x1C }
  - { offsetInCU: 0xE3AF, offset: 0xE3AF, size: 0x8, addend: 0x0, symName: __ZNSt15__new_allocatorISt13_Rb_tree_nodeIxEE10deallocateEPS1_m, symObjAddr: 0x494C, symBinAddr: 0x10000664C, symSize: 0x3C }
  - { offsetInCU: 0xE41E, offset: 0xE41E, size: 0x8, addend: 0x0, symName: __ZN9__gnu_cxx16__aligned_membufIxE6_M_ptrEv, symObjAddr: 0x4930, symBinAddr: 0x100006630, symSize: 0x1C }
  - { offsetInCU: 0xE446, offset: 0xE446, size: 0x8, addend: 0x0, symName: __ZNSt8_Rb_treeISt4pairIxxES1_St9_IdentityIS1_ESt4lessIS1_ESaIS1_EE20_Reuse_or_alloc_nodeclIRKS1_EEPSt13_Rb_tree_nodeIS1_EOT_, symObjAddr: 0x48A0, symBinAddr: 0x1000065A0, symSize: 0x90 }
  - { offsetInCU: 0xE49A, offset: 0xE49A, size: 0x8, addend: 0x0, symName: __ZSt7forwardIRKSt4pairIxxEEOT_RNSt16remove_referenceIS4_E4typeE, symObjAddr: 0x488C, symBinAddr: 0x10000658C, symSize: 0x14 }
  - { offsetInCU: 0xE4CE, offset: 0xE4CE, size: 0x8, addend: 0x0, symName: __ZNSt8_Rb_treeISt4pairIxxES1_St9_IdentityIS1_ESt4lessIS1_ESaIS1_EE14_M_create_nodeIJS1_EEEPSt13_Rb_tree_nodeIS1_EDpOT_, symObjAddr: 0x484C, symBinAddr: 0x10000654C, symSize: 0x40 }
  - { offsetInCU: 0xE529, offset: 0xE529, size: 0x8, addend: 0x0, symName: __ZSt7forwardIRPSt13_Rb_tree_nodeISt4pairIxxEEEOT_RNSt16remove_referenceIS6_E4typeE, symObjAddr: 0x4838, symBinAddr: 0x100006538, symSize: 0x14 }
  - { offsetInCU: 0xE559, offset: 0xE559, size: 0x8, addend: 0x0, symName: __ZStltIxxEbRKSt4pairIT_T0_ES5_, symObjAddr: 0x47D0, symBinAddr: 0x1000064D0, symSize: 0x68 }
  - { offsetInCU: 0xE5A7, offset: 0xE5A7, size: 0x8, addend: 0x0, symName: __ZNKSt9_IdentityISt4pairIxxEEclERKS1_, symObjAddr: 0x47B8, symBinAddr: 0x1000064B8, symSize: 0x18 }
  - { offsetInCU: 0xE5DF, offset: 0xE5DF, size: 0x8, addend: 0x0, symName: __ZNSt8_Rb_treeIxxSt9_IdentityIxESt4lessIxESaIxEE14_M_create_nodeIJRKxEEEPSt13_Rb_tree_nodeIxEDpOT_, symObjAddr: 0x4778, symBinAddr: 0x100006478, symSize: 0x40 }
  - { offsetInCU: 0xE63A, offset: 0xE63A, size: 0x8, addend: 0x0, symName: __ZSt7forwardIRPSt13_Rb_tree_nodeIxEEOT_RNSt16remove_referenceIS4_E4typeE, symObjAddr: 0x4764, symBinAddr: 0x100006464, symSize: 0x14 }
  - { offsetInCU: 0xE66A, offset: 0xE66A, size: 0x8, addend: 0x0, symName: __ZNSt12_Destroy_auxILb1EE9__destroyIPxEEvT_S3_, symObjAddr: 0x474C, symBinAddr: 0x10000644C, symSize: 0x18 }
  - { offsetInCU: 0xE69B, offset: 0xE69B, size: 0x8, addend: 0x0, symName: __ZSt14__relocate_a_1IxxENSt9enable_ifIXsrSt24__is_bitwise_relocatableIT_vE5valueEPS2_E4typeES4_S4_S4_RSaIT0_E, symObjAddr: 0x46E4, symBinAddr: 0x1000063E4, symSize: 0x68 }
  - { offsetInCU: 0xE716, offset: 0xE716, size: 0x8, addend: 0x0, symName: __ZSt12__niter_baseIPxET_S1_, symObjAddr: 0x46D0, symBinAddr: 0x1000063D0, symSize: 0x14 }
  - { offsetInCU: 0xE74B, offset: 0xE74B, size: 0x8, addend: 0x0, symName: __ZNSt15__new_allocatorIxE8allocateEmPKv, symObjAddr: 0x4654, symBinAddr: 0x100006354, symSize: 0x7C }
  - { offsetInCU: 0xE7BA, offset: 0xE7BA, size: 0x8, addend: 0x0, symName: __ZNKSt12_Vector_baseIxSaIxEE19_M_get_Tp_allocatorEv, symObjAddr: 0x4640, symBinAddr: 0x100006340, symSize: 0x14 }
  - { offsetInCU: 0xE7DE, offset: 0xE7DE, size: 0x8, addend: 0x0, symName: __ZNSt6vectorIxSaIxEE11_S_max_sizeERKS0_, symObjAddr: 0x45EC, symBinAddr: 0x1000062EC, symSize: 0x54 }
  - { offsetInCU: 0xE892, offset: 0xE892, size: 0x8, addend: 0x0, symName: __ZNKSt13_Rb_tree_nodeIxE9_M_valptrEv, symObjAddr: 0x45CC, symBinAddr: 0x1000062CC, symSize: 0x20 }
  - { offsetInCU: 0xE8BC, offset: 0xE8BC, size: 0x8, addend: 0x0, symName: __ZSt7forwardIRPSt18_Rb_tree_node_baseEOT_RNSt16remove_referenceIS3_E4typeE, symObjAddr: 0x45B8, symBinAddr: 0x1000062B8, symSize: 0x14 }
  - { offsetInCU: 0xE987, offset: 0xE987, size: 0x8, addend: 0x0, symName: __ZNSt4pairIPSt18_Rb_tree_node_baseS1_EC1IRPSt13_Rb_tree_nodeIS_IKxxEERS1_Lb1EEEOT_OT0_, symObjAddr: 0x4570, symBinAddr: 0x100006270, symSize: 0x48 }
  - { offsetInCU: 0xE97A, offset: 0xE97A, size: 0x8, addend: 0x0, symName: __ZNSt8_Rb_treeIxSt4pairIKxxESt10_Select1stIS2_ESt4lessIxESaIS2_EE5beginEv, symObjAddr: 0x4548, symBinAddr: 0x100006248, symSize: 0x28 }
  - { offsetInCU: 0xE9A2, offset: 0xE9A2, size: 0x8, addend: 0x0, symName: __ZNSt8_Rb_treeIxSt4pairIKxxESt10_Select1stIS2_ESt4lessIxESaIS2_EE17_M_construct_nodeIJRKSt21piecewise_construct_tSt5tupleIJRS1_EESD_IJEEEEEvPSt13_Rb_tree_nodeIS2_EDpOT_, symObjAddr: 0x43CC, symBinAddr: 0x1000060CC, symSize: 0x17C }
  - { offsetInCU: 0xEA93, offset: 0xEA93, size: 0x8, addend: 0x0, symName: __ZNSt8_Rb_treeIxSt4pairIKxxESt10_Select1stIS2_ESt4lessIxESaIS2_EE11_M_get_nodeEv, symObjAddr: 0x4390, symBinAddr: 0x100006090, symSize: 0x3C }
  - { offsetInCU: 0xEAE9, offset: 0xEAE9, size: 0x8, addend: 0x0, symName: __ZN9__gnu_cxx16__aligned_membufISt4pairIKxxEE7_M_addrEv, symObjAddr: 0x437C, symBinAddr: 0x10000607C, symSize: 0x14 }
  - { offsetInCU: 0xEB12, offset: 0xEB12, size: 0x8, addend: 0x0, symName: __ZNKSt10_Select1stISt4pairIKxxEEclERKS2_, symObjAddr: 0x4364, symBinAddr: 0x100006064, symSize: 0x18 }
  - { offsetInCU: 0xEB4A, offset: 0xEB4A, size: 0x8, addend: 0x0, symName: __ZNKSt13_Rb_tree_nodeISt4pairIKxxEE9_M_valptrEv, symObjAddr: 0x4344, symBinAddr: 0x100006044, symSize: 0x20 }
  - { offsetInCU: 0xEBCC, offset: 0xEBCC, size: 0x8, addend: 0x0, symName: __ZNSt8_Rb_treeIxSt4pairIKxxESt10_Select1stIS2_ESt4lessIxESaIS2_EE21_M_get_Node_allocatorEv, symObjAddr: 0x4330, symBinAddr: 0x100006030, symSize: 0x14 }
  - { offsetInCU: 0xEC4E, offset: 0xEC4E, size: 0x8, addend: 0x0, symName: __ZNSt13_Rb_tree_nodeISt4pairIxxEE9_M_valptrEv, symObjAddr: 0x4310, symBinAddr: 0x100006010, symSize: 0x20 }
  - { offsetInCU: 0xECD0, offset: 0xECD0, size: 0x8, addend: 0x0, symName: __ZNSt13_Rb_tree_nodeIxE9_M_valptrEv, symObjAddr: 0x42F0, symBinAddr: 0x100005FF0, symSize: 0x20 }
  - { offsetInCU: 0xECF8, offset: 0xECF8, size: 0x8, addend: 0x0, symName: __ZNSt8_Rb_treeIxxSt9_IdentityIxESt4lessIxESaIxEE21_M_get_Node_allocatorEv, symObjAddr: 0x42DC, symBinAddr: 0x100005FDC, symSize: 0x14 }
  - { offsetInCU: 0xED26, offset: 0xED26, size: 0x8, addend: 0x0, symName: __ZNSt8_Rb_treeISt4pairIxxES1_St9_IdentityIS1_ESt4lessIS1_ESaIS1_EE13_M_clone_nodeILb0ENS7_20_Reuse_or_alloc_nodeEEEPSt13_Rb_tree_nodeIS1_ESC_RT0_, symObjAddr: 0x4280, symBinAddr: 0x100005F80, symSize: 0x5C }
  - { offsetInCU: 0xED94, offset: 0xED94, size: 0x8, addend: 0x0, symName: __ZSt7forwardISt17_Rb_tree_iteratorISt4pairIxxEEEOT_RNSt16remove_referenceIS4_E4typeE, symObjAddr: 0x426C, symBinAddr: 0x100005F6C, symSize: 0x14 }
  - { offsetInCU: 0xEDD3, offset: 0xEDD3, size: 0x8, addend: 0x0, symName: __ZNKSt8_Rb_treeISt4pairIxxES1_St9_IdentityIS1_ESt4lessIS1_ESaIS1_EE11_Alloc_nodeclIS1_EEPSt13_Rb_tree_nodeIS1_EOT_, symObjAddr: 0x4230, symBinAddr: 0x100005F30, symSize: 0x3C }
  - { offsetInCU: 0xEE10, offset: 0xEE10, size: 0x8, addend: 0x0, symName: __ZNSt8_Rb_treeISt4pairIxxES1_St9_IdentityIS1_ESt4lessIS1_ESaIS1_EE6_S_keyEPKSt18_Rb_tree_node_base, symObjAddr: 0x4214, symBinAddr: 0x100005F14, symSize: 0x1C }
  - { offsetInCU: 0xEE3C, offset: 0xEE3C, size: 0x8, addend: 0x0, symName: __ZNSt17_Rb_tree_iteratorISt4pairIxxEEmmEv, symObjAddr: 0x41E4, symBinAddr: 0x100005EE4, symSize: 0x30 }
  - { offsetInCU: 0xEEFA, offset: 0xEEFA, size: 0x8, addend: 0x0, symName: __ZNSt4pairIPSt18_Rb_tree_node_baseS1_EC1IRPSt13_Rb_tree_nodeIS_IxxEERS1_Lb1EEEOT_OT0_, symObjAddr: 0x419C, symBinAddr: 0x100005E9C, symSize: 0x48 }
  - { offsetInCU: 0xEEF0, offset: 0xEEF0, size: 0x8, addend: 0x0, symName: __ZSteqRKSt17_Rb_tree_iteratorISt4pairIxxEES4_, symObjAddr: 0x416C, symBinAddr: 0x100005E6C, symSize: 0x30 }
  - { offsetInCU: 0xEF30, offset: 0xEF30, size: 0x8, addend: 0x0, symName: __ZNK9__gnu_cxx16__aligned_membufISt4pairIxxEE7_M_addrEv, symObjAddr: 0x4158, symBinAddr: 0x100005E58, symSize: 0x14 }
  - { offsetInCU: 0xEF59, offset: 0xEF59, size: 0x8, addend: 0x0, symName: __ZNSt8_Rb_treeISt4pairIxxES1_St9_IdentityIS1_ESt4lessIS1_ESaIS1_EE12_M_erase_auxESt23_Rb_tree_const_iteratorIS1_E, symObjAddr: 0x4100, symBinAddr: 0x100005E00, symSize: 0x58 }
  - { offsetInCU: 0xEFA2, offset: 0xEFA2, size: 0x8, addend: 0x0, symName: __ZNSt8_Rb_treeISt4pairIxxES1_St9_IdentityIS1_ESt4lessIS1_ESaIS1_EE3endEv, symObjAddr: 0x40D8, symBinAddr: 0x100005DD8, symSize: 0x28 }
  - { offsetInCU: 0xEFCC, offset: 0xEFCC, size: 0x8, addend: 0x0, symName: __ZSteqRKSt23_Rb_tree_const_iteratorISt4pairIxxEES4_, symObjAddr: 0x40A8, symBinAddr: 0x100005DA8, symSize: 0x30 }
  - { offsetInCU: 0xF008, offset: 0xF008, size: 0x8, addend: 0x0, symName: __ZNSt8_Rb_treeISt4pairIxxES1_St9_IdentityIS1_ESt4lessIS1_ESaIS1_EE5beginEv, symObjAddr: 0x4080, symBinAddr: 0x100005D80, symSize: 0x28 }
  - { offsetInCU: 0xF0B3, offset: 0xF0B3, size: 0x8, addend: 0x0, symName: __ZNSt4pairISt17_Rb_tree_iteratorIS_IxxEES2_EC1IS2_S2_Lb1EEEOT_OT0_, symObjAddr: 0x4030, symBinAddr: 0x100005D30, symSize: 0x50 }
  - { offsetInCU: 0xF0BA, offset: 0xF0BA, size: 0x8, addend: 0x0, symName: __ZNSt8_Rb_treeISt4pairIxxES1_St9_IdentityIS1_ESt4lessIS1_ESaIS1_EE14_M_upper_boundEPSt13_Rb_tree_nodeIS1_EPSt18_Rb_tree_node_baseRKS1_, symObjAddr: 0x3F98, symBinAddr: 0x100005C98, symSize: 0x98 }
  - { offsetInCU: 0xF112, offset: 0xF112, size: 0x8, addend: 0x0, symName: __ZNKSt4lessISt4pairIxxEEclERKS1_S4_, symObjAddr: 0x3F6C, symBinAddr: 0x100005C6C, symSize: 0x2C }
  - { offsetInCU: 0xF156, offset: 0xF156, size: 0x8, addend: 0x0, symName: __ZNSt8_Rb_treeISt4pairIxxES1_St9_IdentityIS1_ESt4lessIS1_ESaIS1_EE6_S_keyEPKSt13_Rb_tree_nodeIS1_E, symObjAddr: 0x3F44, symBinAddr: 0x100005C44, symSize: 0x28 }
  - { offsetInCU: 0xF184, offset: 0xF184, size: 0x8, addend: 0x0, symName: __ZSt7forwardIbEOT_RNSt16remove_referenceIS0_E4typeE, symObjAddr: 0x3F30, symBinAddr: 0x100005C30, symSize: 0x14 }
  - { offsetInCU: 0xF1BA, offset: 0xF1BA, size: 0x8, addend: 0x0, symName: __ZSt7forwardISt17_Rb_tree_iteratorIxEEOT_RNSt16remove_referenceIS2_E4typeE, symObjAddr: 0x3F1C, symBinAddr: 0x100005C1C, symSize: 0x14 }
  - { offsetInCU: 0xF1F9, offset: 0xF1F9, size: 0x8, addend: 0x0, symName: __ZNKSt8_Rb_treeIxxSt9_IdentityIxESt4lessIxESaIxEE11_Alloc_nodeclIRKxEEPSt13_Rb_tree_nodeIxEOT_, symObjAddr: 0x3EE0, symBinAddr: 0x100005BE0, symSize: 0x3C }
  - { offsetInCU: 0xF23A, offset: 0xF23A, size: 0x8, addend: 0x0, symName: __ZNSt17_Rb_tree_iteratorIxEmmEv, symObjAddr: 0x3EB0, symBinAddr: 0x100005BB0, symSize: 0x30 }
  - { offsetInCU: 0xF2F3, offset: 0xF2F3, size: 0x8, addend: 0x0, symName: __ZNSt4pairIPSt18_Rb_tree_node_baseS1_EC1IRPSt13_Rb_tree_nodeIxERS1_Lb1EEEOT_OT0_, symObjAddr: 0x3E68, symBinAddr: 0x100005B68, symSize: 0x48 }
  - { offsetInCU: 0xF2EE, offset: 0xF2EE, size: 0x8, addend: 0x0, symName: __ZSteqRKSt17_Rb_tree_iteratorIxES2_, symObjAddr: 0x3E38, symBinAddr: 0x100005B38, symSize: 0x30 }
  - { offsetInCU: 0xF32A, offset: 0xF32A, size: 0x8, addend: 0x0, symName: __ZNSt8_Rb_treeIxxSt9_IdentityIxESt4lessIxESaIxEE5beginEv, symObjAddr: 0x3E10, symBinAddr: 0x100005B10, symSize: 0x28 }
  - { offsetInCU: 0xF352, offset: 0xF352, size: 0x8, addend: 0x0, symName: __ZNSt8_Rb_treeIxxSt9_IdentityIxESt4lessIxESaIxEE6_M_endEv, symObjAddr: 0x3DF8, symBinAddr: 0x100005AF8, symSize: 0x18 }
  - { offsetInCU: 0xF376, offset: 0xF376, size: 0x8, addend: 0x0, symName: __ZSt8_DestroyIPxEvT_S1_, symObjAddr: 0x3DD0, symBinAddr: 0x100005AD0, symSize: 0x28 }
  - { offsetInCU: 0xF3B5, offset: 0xF3B5, size: 0x8, addend: 0x0, symName: __ZSt12__relocate_aIPxS0_SaIxEET0_T_S3_S2_RT1_, symObjAddr: 0x3D74, symBinAddr: 0x100005A74, symSize: 0x5C }
  - { offsetInCU: 0xF44A, offset: 0xF44A, size: 0x8, addend: 0x0, symName: __ZSt3maxImERKT_S2_S2_, symObjAddr: 0x3D3C, symBinAddr: 0x100005A3C, symSize: 0x38 }
  - { offsetInCU: 0xF48F, offset: 0xF48F, size: 0x8, addend: 0x0, symName: __ZNKSt6vectorIxSaIxEE4sizeEv, symObjAddr: 0x3D14, symBinAddr: 0x100005A14, symSize: 0x28 }
  - { offsetInCU: 0xF4B7, offset: 0xF4B7, size: 0x8, addend: 0x0, symName: __ZNKSt6vectorIxSaIxEE8max_sizeEv, symObjAddr: 0x3CF4, symBinAddr: 0x1000059F4, symSize: 0x20 }
  - { offsetInCU: 0xF4DB, offset: 0xF4DB, size: 0x8, addend: 0x0, symName: __ZNSt8_Rb_treeIxxSt9_IdentityIxESt4lessIxESaIxEE8_S_rightEPKSt18_Rb_tree_node_base, symObjAddr: 0x3CDC, symBinAddr: 0x1000059DC, symSize: 0x18 }
  - { offsetInCU: 0xF503, offset: 0xF503, size: 0x8, addend: 0x0, symName: __ZNSt8_Rb_treeIxxSt9_IdentityIxESt4lessIxESaIxEE7_S_leftEPKSt18_Rb_tree_node_base, symObjAddr: 0x3CC4, symBinAddr: 0x1000059C4, symSize: 0x18 }
  - { offsetInCU: 0xF52B, offset: 0xF52B, size: 0x8, addend: 0x0, symName: __ZNSt8_Rb_treeIxxSt9_IdentityIxESt4lessIxESaIxEE6_S_keyEPKSt13_Rb_tree_nodeIxE, symObjAddr: 0x3C9C, symBinAddr: 0x10000599C, symSize: 0x28 }
  - { offsetInCU: 0xF557, offset: 0xF557, size: 0x8, addend: 0x0, symName: __ZNSt8_Rb_treeIxSt4pairIKxxESt10_Select1stIS2_ESt4lessIxESaIS2_EE14_M_insert_nodeEPSt18_Rb_tree_node_baseSA_PSt13_Rb_tree_nodeIS2_E, symObjAddr: 0x3BC8, symBinAddr: 0x1000058C8, symSize: 0xD4 }
  - { offsetInCU: 0xF5C0, offset: 0xF5C0, size: 0x8, addend: 0x0, symName: __ZNSt17_Rb_tree_iteratorISt4pairIKxxEEppEv, symObjAddr: 0x3B98, symBinAddr: 0x100005898, symSize: 0x30 }
  - { offsetInCU: 0xF5E8, offset: 0xF5E8, size: 0x8, addend: 0x0, symName: __ZNSt17_Rb_tree_iteratorISt4pairIKxxEEmmEv, symObjAddr: 0x3B68, symBinAddr: 0x100005868, symSize: 0x30 }
  - { offsetInCU: 0xF68E, offset: 0xF68E, size: 0x8, addend: 0x0, symName: __ZNSt4pairIPSt18_Rb_tree_node_baseS1_EC1IRS1_S4_Lb1EEEOT_OT0_, symObjAddr: 0x3B20, symBinAddr: 0x100005820, symSize: 0x48 }
  - { offsetInCU: 0xF69A, offset: 0xF69A, size: 0x8, addend: 0x0, symName: __ZNSt8_Rb_treeIxSt4pairIKxxESt10_Select1stIS2_ESt4lessIxESaIS2_EE11_M_leftmostEv, symObjAddr: 0x3B08, symBinAddr: 0x100005808, symSize: 0x18 }
  - { offsetInCU: 0xF6C2, offset: 0xF6C2, size: 0x8, addend: 0x0, symName: __ZNSt8_Rb_treeIxSt4pairIKxxESt10_Select1stIS2_ESt4lessIxESaIS2_EE24_M_get_insert_unique_posERS1_, symObjAddr: 0x39A8, symBinAddr: 0x1000056A8, symSize: 0x160 }
  - { offsetInCU: 0xF7C1, offset: 0xF7C1, size: 0x8, addend: 0x0, symName: __ZNSt4pairIPSt18_Rb_tree_node_baseS1_EC1IS1_S1_Lb1EEERKS1_S5_, symObjAddr: 0x396C, symBinAddr: 0x10000566C, symSize: 0x3C }
  - { offsetInCU: 0xF7CD, offset: 0xF7CD, size: 0x8, addend: 0x0, symName: __ZNSt8_Rb_treeIxSt4pairIKxxESt10_Select1stIS2_ESt4lessIxESaIS2_EE12_M_rightmostEv, symObjAddr: 0x3954, symBinAddr: 0x100005654, symSize: 0x18 }
  - { offsetInCU: 0xF7F5, offset: 0xF7F5, size: 0x8, addend: 0x0, symName: __ZNKSt8_Rb_treeIxSt4pairIKxxESt10_Select1stIS2_ESt4lessIxESaIS2_EE4sizeEv, symObjAddr: 0x393C, symBinAddr: 0x10000563C, symSize: 0x18 }
  - { offsetInCU: 0xF81D, offset: 0xF81D, size: 0x8, addend: 0x0, symName: __ZNKSt23_Rb_tree_const_iteratorISt4pairIKxxEE13_M_const_castEv, symObjAddr: 0x3914, symBinAddr: 0x100005614, symSize: 0x28 }
  - { offsetInCU: 0xF845, offset: 0xF845, size: 0x8, addend: 0x0, symName: __ZNSt8_Rb_treeIxSt4pairIKxxESt10_Select1stIS2_ESt4lessIxESaIS2_EE14_M_create_nodeIJRKSt21piecewise_construct_tSt5tupleIJRS1_EESD_IJEEEEEPSt13_Rb_tree_nodeIS2_EDpOT_, symObjAddr: 0x38A4, symBinAddr: 0x1000055A4, symSize: 0x70 }
  - { offsetInCU: 0xF8F7, offset: 0xF8F7, size: 0x8, addend: 0x0, symName: __ZNSt10_Head_baseILm0ERKxLb0EEC2ES1_, symObjAddr: 0x3880, symBinAddr: 0x100005580, symSize: 0x24 }
  - { offsetInCU: 0xF902, offset: 0xF902, size: 0x8, addend: 0x0, symName: __ZN9__gnu_cxx16__aligned_membufISt4pairIKxxEE6_M_ptrEv, symObjAddr: 0x3864, symBinAddr: 0x100005564, symSize: 0x1C }
  - { offsetInCU: 0xF92A, offset: 0xF92A, size: 0x8, addend: 0x0, symName: __ZNSt8_Rb_treeIxSt4pairIKxxESt10_Select1stIS2_ESt4lessIxESaIS2_EE14_M_lower_boundEPSt13_Rb_tree_nodeIS2_EPSt18_Rb_tree_node_baseRS1_, symObjAddr: 0x37C4, symBinAddr: 0x1000054C4, symSize: 0xA0 }
  - { offsetInCU: 0xF982, offset: 0xF982, size: 0x8, addend: 0x0, symName: __ZNSt8_Rb_treeIxSt4pairIKxxESt10_Select1stIS2_ESt4lessIxESaIS2_EE6_M_endEv, symObjAddr: 0x37AC, symBinAddr: 0x1000054AC, symSize: 0x18 }
  - { offsetInCU: 0xF9A6, offset: 0xF9A6, size: 0x8, addend: 0x0, symName: __ZNSt8_Rb_treeIxSt4pairIKxxESt10_Select1stIS2_ESt4lessIxESaIS2_EE8_S_rightEPKSt18_Rb_tree_node_base, symObjAddr: 0x3794, symBinAddr: 0x100005494, symSize: 0x18 }
  - { offsetInCU: 0xF9CE, offset: 0xF9CE, size: 0x8, addend: 0x0, symName: __ZNSt8_Rb_treeIxSt4pairIKxxESt10_Select1stIS2_ESt4lessIxESaIS2_EE7_S_leftEPKSt18_Rb_tree_node_base, symObjAddr: 0x377C, symBinAddr: 0x10000547C, symSize: 0x18 }
  - { offsetInCU: 0xF9F6, offset: 0xF9F6, size: 0x8, addend: 0x0, symName: __ZNSt8_Rb_treeIxSt4pairIKxxESt10_Select1stIS2_ESt4lessIxESaIS2_EE6_S_keyEPKSt13_Rb_tree_nodeIS2_E, symObjAddr: 0x3754, symBinAddr: 0x100005454, symSize: 0x28 }
  - { offsetInCU: 0xFA22, offset: 0xFA22, size: 0x8, addend: 0x0, symName: __ZNSt15__new_allocatorIxE10deallocateEPxm, symObjAddr: 0x3724, symBinAddr: 0x100005424, symSize: 0x30 }
  - { offsetInCU: 0xFA68, offset: 0xFA68, size: 0x8, addend: 0x0, symName: __ZNSt8_Rb_treeIxSt4pairIKxxESt10_Select1stIS2_ESt4lessIxESaIS2_EE11_M_put_nodeEPSt13_Rb_tree_nodeIS2_E, symObjAddr: 0x36D8, symBinAddr: 0x1000053D8, symSize: 0x4C }
  - { offsetInCU: 0xFAD2, offset: 0xFAD2, size: 0x8, addend: 0x0, symName: __ZNSt8_Rb_treeIxSt4pairIKxxESt10_Select1stIS2_ESt4lessIxESaIS2_EE15_M_destroy_nodeEPSt13_Rb_tree_nodeIS2_E, symObjAddr: 0x3680, symBinAddr: 0x100005380, symSize: 0x58 }
  - { offsetInCU: 0xFB5E, offset: 0xFB5E, size: 0x8, addend: 0x0, symName: __ZNSt8_Rb_treeISt4pairIxxES1_St9_IdentityIS1_ESt4lessIS1_ESaIS1_EE11_M_put_nodeEPSt13_Rb_tree_nodeIS1_E, symObjAddr: 0x3634, symBinAddr: 0x100005334, symSize: 0x4C }
  - { offsetInCU: 0xFBC8, offset: 0xFBC8, size: 0x8, addend: 0x0, symName: __ZNSt8_Rb_treeISt4pairIxxES1_St9_IdentityIS1_ESt4lessIS1_ESaIS1_EE15_M_destroy_nodeEPSt13_Rb_tree_nodeIS1_E, symObjAddr: 0x35DC, symBinAddr: 0x1000052DC, symSize: 0x58 }
  - { offsetInCU: 0xFC54, offset: 0xFC54, size: 0x8, addend: 0x0, symName: __ZNSt8_Rb_treeIxxSt9_IdentityIxESt4lessIxESaIxEE11_M_put_nodeEPSt13_Rb_tree_nodeIxE, symObjAddr: 0x3590, symBinAddr: 0x100005290, symSize: 0x4C }
  - { offsetInCU: 0xFCBE, offset: 0xFCBE, size: 0x8, addend: 0x0, symName: __ZNSt8_Rb_treeIxxSt9_IdentityIxESt4lessIxESaIxEE15_M_destroy_nodeEPSt13_Rb_tree_nodeIxE, symObjAddr: 0x3538, symBinAddr: 0x100005238, symSize: 0x58 }
  - { offsetInCU: 0xFDB2, offset: 0xFDB2, size: 0x8, addend: 0x0, symName: __ZNSt23_Rb_tree_const_iteratorISt4pairIxxEEC1EPKSt18_Rb_tree_node_base, symObjAddr: 0x3514, symBinAddr: 0x100005214, symSize: 0x24 }
  - { offsetInCU: 0xFD97, offset: 0xFD97, size: 0x8, addend: 0x0, symName: __ZNSt8_Rb_treeISt4pairIxxES1_St9_IdentityIS1_ESt4lessIS1_ESaIS1_EE10_S_maximumEPSt18_Rb_tree_node_base, symObjAddr: 0x34F8, symBinAddr: 0x1000051F8, symSize: 0x1C }
  - { offsetInCU: 0xFDBF, offset: 0xFDBF, size: 0x8, addend: 0x0, symName: __ZNSt8_Rb_treeISt4pairIxxES1_St9_IdentityIS1_ESt4lessIS1_ESaIS1_EE10_S_minimumEPSt18_Rb_tree_node_base, symObjAddr: 0x34DC, symBinAddr: 0x1000051DC, symSize: 0x1C }
  - { offsetInCU: 0xFDEB, offset: 0xFDEB, size: 0x8, addend: 0x0, symName: __ZNSt8_Rb_treeISt4pairIxxES1_St9_IdentityIS1_ESt4lessIS1_ESaIS1_EE11_M_leftmostEv, symObjAddr: 0x34C4, symBinAddr: 0x1000051C4, symSize: 0x18 }
  - { offsetInCU: 0xFE13, offset: 0xFE13, size: 0x8, addend: 0x0, symName: __ZNSt8_Rb_treeISt4pairIxxES1_St9_IdentityIS1_ESt4lessIS1_ESaIS1_EE7_M_copyILb0ENS7_20_Reuse_or_alloc_nodeEEEPSt13_Rb_tree_nodeIS1_ESC_PSt18_Rb_tree_node_baseRT0_, symObjAddr: 0x337C, symBinAddr: 0x10000507C, symSize: 0x148 }
  - { offsetInCU: 0xFEB3, offset: 0xFEB3, size: 0x8, addend: 0x0, symName: __ZNSt8_Rb_treeISt4pairIxxES1_St9_IdentityIS1_ESt4lessIS1_ESaIS1_EE12_M_rightmostEv, symObjAddr: 0x3364, symBinAddr: 0x100005064, symSize: 0x18 }
  - { offsetInCU: 0xFEDD, offset: 0xFEDD, size: 0x8, addend: 0x0, symName: __ZSt7forwardIRSt17_Rb_tree_iteratorISt4pairIxxEEEOT_RNSt16remove_referenceIS5_E4typeE, symObjAddr: 0x3350, symBinAddr: 0x100005050, symSize: 0x14 }
  - { offsetInCU: 0xFF72, offset: 0xFF72, size: 0x8, addend: 0x0, symName: __ZNSt17_Rb_tree_iteratorISt4pairIxxEEC1EPSt18_Rb_tree_node_base, symObjAddr: 0x332C, symBinAddr: 0x10000502C, symSize: 0x24 }
  - { offsetInCU: 0xFFE1, offset: 0xFFE1, size: 0x8, addend: 0x0, symName: __ZNSt4pairISt17_Rb_tree_iteratorIS_IxxEEbEC1IS2_bLb1EEEOT_OT0_, symObjAddr: 0x32E0, symBinAddr: 0x100004FE0, symSize: 0x4C }
  - { offsetInCU: 0xFFF2, offset: 0xFFF2, size: 0x8, addend: 0x0, symName: __ZNSt8_Rb_treeISt4pairIxxES1_St9_IdentityIS1_ESt4lessIS1_ESaIS1_EE10_M_insert_IS1_NS7_11_Alloc_nodeEEESt17_Rb_tree_iteratorIS1_EPSt18_Rb_tree_node_baseSD_OT_RT0_, symObjAddr: 0x31EC, symBinAddr: 0x100004EEC, symSize: 0xF4 }
  - { offsetInCU: 0x10091, offset: 0x10091, size: 0x8, addend: 0x0, symName: __ZSt7forwardISt4pairIxxEEOT_RNSt16remove_referenceIS2_E4typeE, symObjAddr: 0x31D8, symBinAddr: 0x100004ED8, symSize: 0x14 }
  - { offsetInCU: 0x1013D, offset: 0x1013D, size: 0x8, addend: 0x0, symName: __ZNSt8_Rb_treeISt4pairIxxES1_St9_IdentityIS1_ESt4lessIS1_ESaIS1_EE11_Alloc_nodeC1ERS7_, symObjAddr: 0x31B4, symBinAddr: 0x100004EB4, symSize: 0x24 }
  - { offsetInCU: 0x10116, offset: 0x10116, size: 0x8, addend: 0x0, symName: __ZNKSt9_IdentityISt4pairIxxEEclERS1_, symObjAddr: 0x319C, symBinAddr: 0x100004E9C, symSize: 0x18 }
  - { offsetInCU: 0x1014E, offset: 0x1014E, size: 0x8, addend: 0x0, symName: __ZNSt8_Rb_treeISt4pairIxxES1_St9_IdentityIS1_ESt4lessIS1_ESaIS1_EE24_M_get_insert_unique_posERKS1_, symObjAddr: 0x3038, symBinAddr: 0x100004D38, symSize: 0x164 }
  - { offsetInCU: 0x101CF, offset: 0x101CF, size: 0x8, addend: 0x0, symName: __ZNK9__gnu_cxx16__aligned_membufISt4pairIxxEE6_M_ptrEv, symObjAddr: 0x301C, symBinAddr: 0x100004D1C, symSize: 0x1C }
  - { offsetInCU: 0x101F7, offset: 0x101F7, size: 0x8, addend: 0x0, symName: __ZNSt8_Rb_treeISt4pairIxxES1_St9_IdentityIS1_ESt4lessIS1_ESaIS1_EE14_M_lower_boundEPSt13_Rb_tree_nodeIS1_EPSt18_Rb_tree_node_baseRKS1_, symObjAddr: 0x2F7C, symBinAddr: 0x100004C7C, symSize: 0xA0 }
  - { offsetInCU: 0x1024F, offset: 0x1024F, size: 0x8, addend: 0x0, symName: __ZNSt8_Rb_treeISt4pairIxxES1_St9_IdentityIS1_ESt4lessIS1_ESaIS1_EE6_M_endEv, symObjAddr: 0x2F64, symBinAddr: 0x100004C64, symSize: 0x18 }
  - { offsetInCU: 0x10277, offset: 0x10277, size: 0x8, addend: 0x0, symName: __ZNSt8_Rb_treeISt4pairIxxES1_St9_IdentityIS1_ESt4lessIS1_ESaIS1_EE12_M_erase_auxESt23_Rb_tree_const_iteratorIS1_ES9_, symObjAddr: 0x2E84, symBinAddr: 0x100004B84, symSize: 0xE0 }
  - { offsetInCU: 0x102BF, offset: 0x102BF, size: 0x8, addend: 0x0, symName: __ZNKSt8_Rb_treeISt4pairIxxES1_St9_IdentityIS1_ESt4lessIS1_ESaIS1_EE4sizeEv, symObjAddr: 0x2E6C, symBinAddr: 0x100004B6C, symSize: 0x18 }
  - { offsetInCU: 0x102E7, offset: 0x102E7, size: 0x8, addend: 0x0, symName: __ZNSt8_Rb_treeISt4pairIxxES1_St9_IdentityIS1_ESt4lessIS1_ESaIS1_EE11equal_rangeERKS1_, symObjAddr: 0x2D00, symBinAddr: 0x100004A00, symSize: 0x16C }
  - { offsetInCU: 0x103D8, offset: 0x103D8, size: 0x8, addend: 0x0, symName: __ZNSt23_Rb_tree_const_iteratorIxEC1ERKSt17_Rb_tree_iteratorIxE, symObjAddr: 0x2CD8, symBinAddr: 0x1000049D8, symSize: 0x28 }
  - { offsetInCU: 0x103CB, offset: 0x103CB, size: 0x8, addend: 0x0, symName: __ZSt7forwardIRbEOT_RNSt16remove_referenceIS1_E4typeE, symObjAddr: 0x2CC4, symBinAddr: 0x1000049C4, symSize: 0x14 }
  - { offsetInCU: 0x10401, offset: 0x10401, size: 0x8, addend: 0x0, symName: __ZSt7forwardIRSt17_Rb_tree_iteratorIxEEOT_RNSt16remove_referenceIS3_E4typeE, symObjAddr: 0x2CB0, symBinAddr: 0x1000049B0, symSize: 0x14 }
  - { offsetInCU: 0x1048C, offset: 0x1048C, size: 0x8, addend: 0x0, symName: __ZNSt17_Rb_tree_iteratorIxEC1EPSt18_Rb_tree_node_base, symObjAddr: 0x2C8C, symBinAddr: 0x10000498C, symSize: 0x24 }
  - { offsetInCU: 0x10500, offset: 0x10500, size: 0x8, addend: 0x0, symName: __ZNSt4pairISt17_Rb_tree_iteratorIxEbEC1IS1_bLb1EEEOT_OT0_, symObjAddr: 0x2C40, symBinAddr: 0x100004940, symSize: 0x4C }
  - { offsetInCU: 0x10516, offset: 0x10516, size: 0x8, addend: 0x0, symName: __ZNSt8_Rb_treeIxxSt9_IdentityIxESt4lessIxESaIxEE10_M_insert_IRKxNS5_11_Alloc_nodeEEESt17_Rb_tree_iteratorIxEPSt18_Rb_tree_node_baseSD_OT_RT0_, symObjAddr: 0x2B4C, symBinAddr: 0x10000484C, symSize: 0xF4 }
  - { offsetInCU: 0x10619, offset: 0x10619, size: 0x8, addend: 0x0, symName: __ZNSt8_Rb_treeIxxSt9_IdentityIxESt4lessIxESaIxEE11_Alloc_nodeC1ERS5_, symObjAddr: 0x2B28, symBinAddr: 0x100004828, symSize: 0x24 }
  - { offsetInCU: 0x10604, offset: 0x10604, size: 0x8, addend: 0x0, symName: __ZNKSt9_IdentityIxEclERKx, symObjAddr: 0x2B10, symBinAddr: 0x100004810, symSize: 0x18 }
  - { offsetInCU: 0x1063C, offset: 0x1063C, size: 0x8, addend: 0x0, symName: __ZNSt8_Rb_treeIxxSt9_IdentityIxESt4lessIxESaIxEE24_M_get_insert_unique_posERKx, symObjAddr: 0x29B0, symBinAddr: 0x1000046B0, symSize: 0x160 }
  - { offsetInCU: 0x106F6, offset: 0x106F6, size: 0x8, addend: 0x0, symName: __ZNSt12_Vector_baseIxSaIxEE19_M_get_Tp_allocatorEv, symObjAddr: 0x299C, symBinAddr: 0x10000469C, symSize: 0x14 }
  - { offsetInCU: 0x1071A, offset: 0x1071A, size: 0x8, addend: 0x0, symName: __ZNSt6vectorIxSaIxEE11_S_relocateEPxS2_S2_RS0_, symObjAddr: 0x2968, symBinAddr: 0x100004668, symSize: 0x34 }
  - { offsetInCU: 0x10776, offset: 0x10776, size: 0x8, addend: 0x0, symName: __ZNSt12_Vector_baseIxSaIxEE11_M_allocateEm, symObjAddr: 0x2918, symBinAddr: 0x100004618, symSize: 0x50 }
  - { offsetInCU: 0x107DA, offset: 0x107DA, size: 0x8, addend: 0x0, symName: __ZN9__gnu_cxxmiIPxSt6vectorIxSaIxEEEENS_17__normal_iteratorIT_T0_E15difference_typeERKS8_SB_, symObjAddr: 0x28D8, symBinAddr: 0x1000045D8, symSize: 0x40 }
  - { offsetInCU: 0x10828, offset: 0x10828, size: 0x8, addend: 0x0, symName: __ZNKSt6vectorIxSaIxEE12_M_check_lenEmPKc, symObjAddr: 0x2808, symBinAddr: 0x100004508, symSize: 0xD0 }
  - { offsetInCU: 0x108C1, offset: 0x108C1, size: 0x8, addend: 0x0, symName: __ZSt7forwardIRKxEOT_RNSt16remove_referenceIS2_E4typeE, symObjAddr: 0x27F4, symBinAddr: 0x1000044F4, symSize: 0x14 }
  - { offsetInCU: 0x10953, offset: 0x10953, size: 0x8, addend: 0x0, symName: __ZNSt23_Rb_tree_const_iteratorIxEC1EPKSt18_Rb_tree_node_base, symObjAddr: 0x27D0, symBinAddr: 0x1000044D0, symSize: 0x24 }
  - { offsetInCU: 0x10942, offset: 0x10942, size: 0x8, addend: 0x0, symName: __ZNSt8_Rb_treeIxxSt9_IdentityIxESt4lessIxESaIxEE6_S_keyEPKSt18_Rb_tree_node_base, symObjAddr: 0x27B4, symBinAddr: 0x1000044B4, symSize: 0x1C }
  - { offsetInCU: 0x1096E, offset: 0x1096E, size: 0x8, addend: 0x0, symName: __ZNKSt8_Rb_treeIxxSt9_IdentityIxESt4lessIxESaIxEE14_M_lower_boundEPKSt13_Rb_tree_nodeIxEPKSt18_Rb_tree_node_baseRKx, symObjAddr: 0x2714, symBinAddr: 0x100004414, symSize: 0xA0 }
  - { offsetInCU: 0x109C6, offset: 0x109C6, size: 0x8, addend: 0x0, symName: __ZNKSt8_Rb_treeIxxSt9_IdentityIxESt4lessIxESaIxEE6_M_endEv, symObjAddr: 0x26FC, symBinAddr: 0x1000043FC, symSize: 0x18 }
  - { offsetInCU: 0x109EE, offset: 0x109EE, size: 0x8, addend: 0x0, symName: __ZNKSt8_Rb_treeIxxSt9_IdentityIxESt4lessIxESaIxEE8_M_beginEv, symObjAddr: 0x26E4, symBinAddr: 0x1000043E4, symSize: 0x18 }
  - { offsetInCU: 0x10A78, offset: 0x10A78, size: 0x8, addend: 0x0, symName: __ZNSt17_Rb_tree_iteratorISt4pairIKxxEEC1EPSt18_Rb_tree_node_base, symObjAddr: 0x26C0, symBinAddr: 0x1000043C0, symSize: 0x24 }
  - { offsetInCU: 0x10A67, offset: 0x10A67, size: 0x8, addend: 0x0, symName: __ZNSt8_Rb_treeIxSt4pairIKxxESt10_Select1stIS2_ESt4lessIxESaIS2_EE10_Auto_node9_M_insertES0_IPSt18_Rb_tree_node_baseSB_E, symObjAddr: 0x2674, symBinAddr: 0x100004374, symSize: 0x4C }
  - { offsetInCU: 0x10AB0, offset: 0x10AB0, size: 0x8, addend: 0x0, symName: __ZNKSt8_Rb_treeIxSt4pairIKxxESt10_Select1stIS2_ESt4lessIxESaIS2_EE10_Auto_node6_M_keyEv, symObjAddr: 0x2654, symBinAddr: 0x100004354, symSize: 0x20 }
  - { offsetInCU: 0x10AD8, offset: 0x10AD8, size: 0x8, addend: 0x0, symName: __ZNSt8_Rb_treeIxSt4pairIKxxESt10_Select1stIS2_ESt4lessIxESaIS2_EE29_M_get_insert_hint_unique_posESt23_Rb_tree_const_iteratorIS2_ERS1_, symObjAddr: 0x231C, symBinAddr: 0x10000401C, symSize: 0x338 }
  - { offsetInCU: 0x10BEE, offset: 0x10BEE, size: 0x8, addend: 0x0, symName: __ZNSt8_Rb_treeIxSt4pairIKxxESt10_Select1stIS2_ESt4lessIxESaIS2_EE10_Auto_nodeD1Ev, symObjAddr: 0x22D8, symBinAddr: 0x100003FD8, symSize: 0x44 }
  - { offsetInCU: 0x10CA0, offset: 0x10CA0, size: 0x8, addend: 0x0, symName: __ZNSt8_Rb_treeIxSt4pairIKxxESt10_Select1stIS2_ESt4lessIxESaIS2_EE10_Auto_nodeC1IJRKSt21piecewise_construct_tSt5tupleIJRS1_EESE_IJEEEEERS8_DpOT_, symObjAddr: 0x225C, symBinAddr: 0x100003F5C, symSize: 0x7C }
  - { offsetInCU: 0x10C76, offset: 0x10C76, size: 0x8, addend: 0x0, symName: __ZSt7forwardISt5tupleIJEEEOT_RNSt16remove_referenceIS2_E4typeE, symObjAddr: 0x2248, symBinAddr: 0x100003F48, symSize: 0x14 }
  - { offsetInCU: 0x10CAC, offset: 0x10CAC, size: 0x8, addend: 0x0, symName: __ZSt7forwardISt5tupleIJRKxEEEOT_RNSt16remove_referenceIS4_E4typeE, symObjAddr: 0x2234, symBinAddr: 0x100003F34, symSize: 0x14 }
  - { offsetInCU: 0x10CE2, offset: 0x10CE2, size: 0x8, addend: 0x0, symName: __ZSt7forwardIRKSt21piecewise_construct_tEOT_RNSt16remove_referenceIS3_E4typeE, symObjAddr: 0x2220, symBinAddr: 0x100003F20, symSize: 0x14 }
  - { offsetInCU: 0x10D5B, offset: 0x10D5B, size: 0x8, addend: 0x0, symName: __ZNSt11_Tuple_implILm0EJRKxEEC2ES1_, symObjAddr: 0x21F8, symBinAddr: 0x100003EF8, symSize: 0x28 }
  - { offsetInCU: 0x10D67, offset: 0x10D67, size: 0x8, addend: 0x0, symName: __ZNSt13_Rb_tree_nodeISt4pairIKxxEE9_M_valptrEv, symObjAddr: 0x21D8, symBinAddr: 0x100003ED8, symSize: 0x20 }
  - { offsetInCU: 0x10D8F, offset: 0x10D8F, size: 0x8, addend: 0x0, symName: __ZNKSt8_Rb_treeIxSt4pairIKxxESt10_Select1stIS2_ESt4lessIxESaIS2_EE8key_compEv, symObjAddr: 0x21C0, symBinAddr: 0x100003EC0, symSize: 0x18 }
  - { offsetInCU: 0x10DB7, offset: 0x10DB7, size: 0x8, addend: 0x0, symName: __ZNSt8_Rb_treeIxSt4pairIKxxESt10_Select1stIS2_ESt4lessIxESaIS2_EE3endEv, symObjAddr: 0x2198, symBinAddr: 0x100003E98, symSize: 0x28 }
  - { offsetInCU: 0x10DDF, offset: 0x10DDF, size: 0x8, addend: 0x0, symName: __ZNSt8_Rb_treeIxSt4pairIKxxESt10_Select1stIS2_ESt4lessIxESaIS2_EE11lower_boundERS1_, symObjAddr: 0x2150, symBinAddr: 0x100003E50, symSize: 0x48 }
  - { offsetInCU: 0x10E80, offset: 0x10E80, size: 0x8, addend: 0x0, symName: __ZNSt23_Rb_tree_const_iteratorISt4pairIKxxEEC1EPKSt18_Rb_tree_node_base, symObjAddr: 0x212C, symBinAddr: 0x100003E2C, symSize: 0x24 }
  - { offsetInCU: 0x10E64, offset: 0x10E64, size: 0x8, addend: 0x0, symName: __ZNSt8_Rb_treeIxSt4pairIKxxESt10_Select1stIS2_ESt4lessIxESaIS2_EE6_S_keyEPKSt18_Rb_tree_node_base, symObjAddr: 0x2110, symBinAddr: 0x100003E10, symSize: 0x1C }
  - { offsetInCU: 0x10E90, offset: 0x10E90, size: 0x8, addend: 0x0, symName: __ZNKSt8_Rb_treeIxSt4pairIKxxESt10_Select1stIS2_ESt4lessIxESaIS2_EE14_M_lower_boundEPKSt13_Rb_tree_nodeIS2_EPKSt18_Rb_tree_node_baseRS1_, symObjAddr: 0x2070, symBinAddr: 0x100003D70, symSize: 0xA0 }
  - { offsetInCU: 0x10EE8, offset: 0x10EE8, size: 0x8, addend: 0x0, symName: __ZNKSt8_Rb_treeIxSt4pairIKxxESt10_Select1stIS2_ESt4lessIxESaIS2_EE6_M_endEv, symObjAddr: 0x2058, symBinAddr: 0x100003D58, symSize: 0x18 }
  - { offsetInCU: 0x10F10, offset: 0x10F10, size: 0x8, addend: 0x0, symName: __ZNKSt8_Rb_treeIxSt4pairIKxxESt10_Select1stIS2_ESt4lessIxESaIS2_EE8_M_beginEv, symObjAddr: 0x2040, symBinAddr: 0x100003D40, symSize: 0x18 }
  - { offsetInCU: 0x10F7B, offset: 0x10F7B, size: 0x8, addend: 0x0, symName: __ZNKSt8_Rb_treeIxSt4pairIKxxESt10_Select1stIS2_ESt4lessIxESaIS2_EE9_M_mbeginEv, symObjAddr: 0x2028, symBinAddr: 0x100003D28, symSize: 0x18 }
  - { offsetInCU: 0x10FA3, offset: 0x10FA3, size: 0x8, addend: 0x0, symName: __ZNSt8_Rb_treeIxSt4pairIKxxESt10_Select1stIS2_ESt4lessIxESaIS2_EE12_M_drop_nodeEPSt13_Rb_tree_nodeIS2_E, symObjAddr: 0x1FF4, symBinAddr: 0x100003CF4, symSize: 0x34 }
  - { offsetInCU: 0x10FD7, offset: 0x10FD7, size: 0x8, addend: 0x0, symName: __ZNSt8_Rb_treeIxSt4pairIKxxESt10_Select1stIS2_ESt4lessIxESaIS2_EE7_S_leftEPSt18_Rb_tree_node_base, symObjAddr: 0x1FDC, symBinAddr: 0x100003CDC, symSize: 0x18 }
  - { offsetInCU: 0x10FFF, offset: 0x10FFF, size: 0x8, addend: 0x0, symName: __ZNSt8_Rb_treeIxSt4pairIKxxESt10_Select1stIS2_ESt4lessIxESaIS2_EE8_S_rightEPSt18_Rb_tree_node_base, symObjAddr: 0x1FC4, symBinAddr: 0x100003CC4, symSize: 0x18 }
  - { offsetInCU: 0x1103F, offset: 0x1103F, size: 0x8, addend: 0x0, symName: __ZNKSt8_Rb_treeISt4pairIxxES1_St9_IdentityIS1_ESt4lessIS1_ESaIS1_EE9_M_mbeginEv, symObjAddr: 0x1FAC, symBinAddr: 0x100003CAC, symSize: 0x18 }
  - { offsetInCU: 0x11067, offset: 0x11067, size: 0x8, addend: 0x0, symName: __ZNSt8_Rb_treeISt4pairIxxES1_St9_IdentityIS1_ESt4lessIS1_ESaIS1_EE12_M_drop_nodeEPSt13_Rb_tree_nodeIS1_E, symObjAddr: 0x1F78, symBinAddr: 0x100003C78, symSize: 0x34 }
  - { offsetInCU: 0x1109B, offset: 0x1109B, size: 0x8, addend: 0x0, symName: __ZNSt8_Rb_treeISt4pairIxxES1_St9_IdentityIS1_ESt4lessIS1_ESaIS1_EE7_S_leftEPSt18_Rb_tree_node_base, symObjAddr: 0x1F60, symBinAddr: 0x100003C60, symSize: 0x18 }
  - { offsetInCU: 0x110C3, offset: 0x110C3, size: 0x8, addend: 0x0, symName: __ZNSt8_Rb_treeISt4pairIxxES1_St9_IdentityIS1_ESt4lessIS1_ESaIS1_EE8_S_rightEPSt18_Rb_tree_node_base, symObjAddr: 0x1F48, symBinAddr: 0x100003C48, symSize: 0x18 }
  - { offsetInCU: 0x11103, offset: 0x11103, size: 0x8, addend: 0x0, symName: __ZNKSt8_Rb_treeIxxSt9_IdentityIxESt4lessIxESaIxEE9_M_mbeginEv, symObjAddr: 0x1F30, symBinAddr: 0x100003C30, symSize: 0x18 }
  - { offsetInCU: 0x1112B, offset: 0x1112B, size: 0x8, addend: 0x0, symName: __ZNSt8_Rb_treeIxxSt9_IdentityIxESt4lessIxESaIxEE12_M_drop_nodeEPSt13_Rb_tree_nodeIxE, symObjAddr: 0x1EFC, symBinAddr: 0x100003BFC, symSize: 0x34 }
  - { offsetInCU: 0x1115F, offset: 0x1115F, size: 0x8, addend: 0x0, symName: __ZNSt8_Rb_treeIxxSt9_IdentityIxESt4lessIxESaIxEE7_S_leftEPSt18_Rb_tree_node_base, symObjAddr: 0x1EE4, symBinAddr: 0x100003BE4, symSize: 0x18 }
  - { offsetInCU: 0x11187, offset: 0x11187, size: 0x8, addend: 0x0, symName: __ZNSt8_Rb_treeIxxSt9_IdentityIxESt4lessIxESaIxEE8_S_rightEPSt18_Rb_tree_node_base, symObjAddr: 0x1ECC, symBinAddr: 0x100003BCC, symSize: 0x18 }
  - { offsetInCU: 0x111C7, offset: 0x111C7, size: 0x8, addend: 0x0, symName: __ZNK9__gnu_cxx17__normal_iteratorIPxSt6vectorIxSaIxEEE4baseEv, symObjAddr: 0x1EB8, symBinAddr: 0x100003BB8, symSize: 0x14 }
  - { offsetInCU: 0x1124E, offset: 0x1124E, size: 0x8, addend: 0x0, symName: __ZN9__gnu_cxx17__normal_iteratorIPxSt6vectorIxSaIxEEEC1ERKS1_, symObjAddr: 0x1E90, symBinAddr: 0x100003B90, symSize: 0x28 }
  - { offsetInCU: 0x11240, offset: 0x11240, size: 0x8, addend: 0x0, symName: __ZNKSt8_Rb_treeISt4pairIxxES1_St9_IdentityIS1_ESt4lessIS1_ESaIS1_EE3endEv, symObjAddr: 0x1E68, symBinAddr: 0x100003B68, symSize: 0x28 }
  - { offsetInCU: 0x11268, offset: 0x11268, size: 0x8, addend: 0x0, symName: __ZNKSt8_Rb_treeISt4pairIxxES1_St9_IdentityIS1_ESt4lessIS1_ESaIS1_EE5beginEv, symObjAddr: 0x1E40, symBinAddr: 0x100003B40, symSize: 0x28 }
  - { offsetInCU: 0x11290, offset: 0x11290, size: 0x8, addend: 0x0, symName: __ZNSt8_Rb_treeISt4pairIxxES1_St9_IdentityIS1_ESt4lessIS1_ESaIS1_EE7_M_copyILb0ENS7_20_Reuse_or_alloc_nodeEEEPSt13_Rb_tree_nodeIS1_ERKS7_RT0_, symObjAddr: 0x1DAC, symBinAddr: 0x100003AAC, symSize: 0x94 }
  - { offsetInCU: 0x112FC, offset: 0x112FC, size: 0x8, addend: 0x0, symName: __ZNSt8_Rb_treeISt4pairIxxES1_St9_IdentityIS1_ESt4lessIS1_ESaIS1_EE7_M_rootEv, symObjAddr: 0x1D94, symBinAddr: 0x100003A94, symSize: 0x18 }
  - { offsetInCU: 0x11324, offset: 0x11324, size: 0x8, addend: 0x0, symName: __ZNKSt8_Rb_treeISt4pairIxxES1_St9_IdentityIS1_ESt4lessIS1_ESaIS1_EE7_M_rootEv, symObjAddr: 0x1D7C, symBinAddr: 0x100003A7C, symSize: 0x18 }
  - { offsetInCU: 0x113C6, offset: 0x113C6, size: 0x8, addend: 0x0, symName: __ZNSt8_Rb_treeISt4pairIxxES1_St9_IdentityIS1_ESt4lessIS1_ESaIS1_EE20_Reuse_or_alloc_nodeD1Ev, symObjAddr: 0x1D48, symBinAddr: 0x100003A48, symSize: 0x34 }
  - { offsetInCU: 0x11412, offset: 0x11412, size: 0x8, addend: 0x0, symName: __ZNSt8_Rb_treeISt4pairIxxES1_St9_IdentityIS1_ESt4lessIS1_ESaIS1_EE20_Reuse_or_alloc_nodeC1ERS7_, symObjAddr: 0x1CA8, symBinAddr: 0x1000039A8, symSize: 0xA0 }
  - { offsetInCU: 0x1140D, offset: 0x1140D, size: 0x8, addend: 0x0, symName: __ZNSt8_Rb_treeISt4pairIxxES1_St9_IdentityIS1_ESt4lessIS1_ESaIS1_EE5clearEv, symObjAddr: 0x1C70, symBinAddr: 0x100003970, symSize: 0x38 }
  - { offsetInCU: 0x11447, offset: 0x11447, size: 0x8, addend: 0x0, symName: __ZNKSt8_Rb_treeISt4pairIxxES1_St9_IdentityIS1_ESt4lessIS1_ESaIS1_EE21_M_get_Node_allocatorEv, symObjAddr: 0x1C5C, symBinAddr: 0x10000395C, symSize: 0x14 }
  - { offsetInCU: 0x1146F, offset: 0x1146F, size: 0x8, addend: 0x0, symName: __ZNSt8_Rb_treeISt4pairIxxES1_St9_IdentityIS1_ESt4lessIS1_ESaIS1_EE21_M_get_Node_allocatorEv, symObjAddr: 0x1C48, symBinAddr: 0x100003948, symSize: 0x14 }
  - { offsetInCU: 0x11493, offset: 0x11493, size: 0x8, addend: 0x0, symName: __ZSt11__addressofIKSt8_Rb_treeISt4pairIxxES2_St9_IdentityIS2_ESt4lessIS2_ESaIS2_EEEPT_RSA_, symObjAddr: 0x1C34, symBinAddr: 0x100003934, symSize: 0x14 }
  - { offsetInCU: 0x11565, offset: 0x11565, size: 0x8, addend: 0x0, symName: __ZNSt4pairISt23_Rb_tree_const_iteratorIS_IxxEEbEC1IRSt17_Rb_tree_iteratorIS1_ERbLb1EEEOT_OT0_, symObjAddr: 0x1BE0, symBinAddr: 0x1000038E0, symSize: 0x54 }
  - { offsetInCU: 0x11551, offset: 0x11551, size: 0x8, addend: 0x0, symName: __ZNSt8_Rb_treeISt4pairIxxES1_St9_IdentityIS1_ESt4lessIS1_ESaIS1_EE16_M_insert_uniqueIS1_EES0_ISt17_Rb_tree_iteratorIS1_EbEOT_, symObjAddr: 0x1B14, symBinAddr: 0x100003814, symSize: 0xCC }
  - { offsetInCU: 0x115CB, offset: 0x115CB, size: 0x8, addend: 0x0, symName: __ZNKSt13_Rb_tree_nodeISt4pairIxxEE9_M_valptrEv, symObjAddr: 0x1AF4, symBinAddr: 0x1000037F4, symSize: 0x20 }
  - { offsetInCU: 0x1165F, offset: 0x1165F, size: 0x8, addend: 0x0, symName: __ZNSt23_Rb_tree_const_iteratorISt4pairIxxEEC1ERKSt17_Rb_tree_iteratorIS1_E, symObjAddr: 0x1ACC, symBinAddr: 0x1000037CC, symSize: 0x28 }
  - { offsetInCU: 0x11644, offset: 0x11644, size: 0x8, addend: 0x0, symName: __ZNSt8_Rb_treeISt4pairIxxES1_St9_IdentityIS1_ESt4lessIS1_ESaIS1_EE11lower_boundERKS1_, symObjAddr: 0x1A84, symBinAddr: 0x100003784, symSize: 0x48 }
  - { offsetInCU: 0x11684, offset: 0x11684, size: 0x8, addend: 0x0, symName: __ZSt7forwardIiEOT_RNSt16remove_referenceIS0_E4typeE, symObjAddr: 0x1A70, symBinAddr: 0x100003770, symSize: 0x14 }
  - { offsetInCU: 0x116B8, offset: 0x116B8, size: 0x8, addend: 0x0, symName: __ZNSt8_Rb_treeISt4pairIxxES1_St9_IdentityIS1_ESt4lessIS1_ESaIS1_EE5eraseERKS1_, symObjAddr: 0x19FC, symBinAddr: 0x1000036FC, symSize: 0x74 }
  - { offsetInCU: 0x11714, offset: 0x11714, size: 0x8, addend: 0x0, symName: __ZSt7forwardIRxEOT_RNSt16remove_referenceIS1_E4typeE, symObjAddr: 0x19E8, symBinAddr: 0x1000036E8, symSize: 0x14 }
  - { offsetInCU: 0x117DF, offset: 0x117DF, size: 0x8, addend: 0x0, symName: __ZNSt4pairISt23_Rb_tree_const_iteratorIxEbEC1IRSt17_Rb_tree_iteratorIxERbLb1EEEOT_OT0_, symObjAddr: 0x1994, symBinAddr: 0x100003694, symSize: 0x54 }
  - { offsetInCU: 0x117D2, offset: 0x117D2, size: 0x8, addend: 0x0, symName: __ZNSt8_Rb_treeIxxSt9_IdentityIxESt4lessIxESaIxEE16_M_insert_uniqueIRKxEESt4pairISt17_Rb_tree_iteratorIxEbEOT_, symObjAddr: 0x18C8, symBinAddr: 0x1000035C8, symSize: 0xCC }
  - { offsetInCU: 0x1184C, offset: 0x1184C, size: 0x8, addend: 0x0, symName: __ZNSt6vectorIxSaIxEE17_M_realloc_insertIJRKxEEEvN9__gnu_cxx17__normal_iteratorIPxS1_EEDpOT_, symObjAddr: 0x1708, symBinAddr: 0x100003408, symSize: 0x1C0 }
  - { offsetInCU: 0x119B3, offset: 0x119B3, size: 0x8, addend: 0x0, symName: __ZSteqRKSt23_Rb_tree_const_iteratorIxES2_, symObjAddr: 0x16D8, symBinAddr: 0x1000033D8, symSize: 0x30 }
  - { offsetInCU: 0x119EF, offset: 0x119EF, size: 0x8, addend: 0x0, symName: __ZNKSt8_Rb_treeIxxSt9_IdentityIxESt4lessIxESaIxEE3endEv, symObjAddr: 0x16B0, symBinAddr: 0x1000033B0, symSize: 0x28 }
  - { offsetInCU: 0x11A17, offset: 0x11A17, size: 0x8, addend: 0x0, symName: __ZNKSt8_Rb_treeIxxSt9_IdentityIxESt4lessIxESaIxEE4findERKx, symObjAddr: 0x1600, symBinAddr: 0x100003300, symSize: 0xB0 }
  - { offsetInCU: 0x11A60, offset: 0x11A60, size: 0x8, addend: 0x0, symName: __ZNSt8_Rb_treeIxSt4pairIKxxESt10_Select1stIS2_ESt4lessIxESaIS2_EE22_M_emplace_hint_uniqueIJRKSt21piecewise_construct_tSt5tupleIJRS1_EESD_IJEEEEESt17_Rb_tree_iteratorIS2_ESt23_Rb_tree_const_iteratorIS2_EDpOT_, symObjAddr: 0x1528, symBinAddr: 0x100003228, symSize: 0xD8 }
  - { offsetInCU: 0x11B5E, offset: 0x11B5E, size: 0x8, addend: 0x0, symName: __ZNSt23_Rb_tree_const_iteratorISt4pairIKxxEEC1ERKSt17_Rb_tree_iteratorIS2_E, symObjAddr: 0x1500, symBinAddr: 0x100003200, symSize: 0x28 }
  - { offsetInCU: 0x11B90, offset: 0x11B90, size: 0x8, addend: 0x0, symName: __ZNSt5tupleIJRKxEEC1ILb1ELb1EEES1_, symObjAddr: 0x14D8, symBinAddr: 0x1000031D8, symSize: 0x28 }
  - { offsetInCU: 0x11BA7, offset: 0x11BA7, size: 0x8, addend: 0x0, symName: __ZNKSt4lessIxEclERKxS2_, symObjAddr: 0x14A4, symBinAddr: 0x1000031A4, symSize: 0x34 }
  - { offsetInCU: 0x11BEF, offset: 0x11BEF, size: 0x8, addend: 0x0, symName: __ZNKSt17_Rb_tree_iteratorISt4pairIKxxEEdeEv, symObjAddr: 0x1484, symBinAddr: 0x100003184, symSize: 0x20 }
  - { offsetInCU: 0x11C17, offset: 0x11C17, size: 0x8, addend: 0x0, symName: __ZNKSt3mapIxxSt4lessIxESaISt4pairIKxxEEE8key_compEv, symObjAddr: 0x1458, symBinAddr: 0x100003158, symSize: 0x2C }
  - { offsetInCU: 0x11C41, offset: 0x11C41, size: 0x8, addend: 0x0, symName: __ZSteqRKSt17_Rb_tree_iteratorISt4pairIKxxEES5_, symObjAddr: 0x1428, symBinAddr: 0x100003128, symSize: 0x30 }
  - { offsetInCU: 0x11C7D, offset: 0x11C7D, size: 0x8, addend: 0x0, symName: __ZNSt3mapIxxSt4lessIxESaISt4pairIKxxEEE3endEv, symObjAddr: 0x140C, symBinAddr: 0x10000310C, symSize: 0x1C }
  - { offsetInCU: 0x11CA5, offset: 0x11CA5, size: 0x8, addend: 0x0, symName: __ZNSt3mapIxxSt4lessIxESaISt4pairIKxxEEE11lower_boundERS3_, symObjAddr: 0x13E8, symBinAddr: 0x1000030E8, symSize: 0x24 }
  - { offsetInCU: 0x11CDF, offset: 0x11CDF, size: 0x8, addend: 0x0, symName: __ZSteqRKSt23_Rb_tree_const_iteratorISt4pairIKxxEES5_, symObjAddr: 0x13B8, symBinAddr: 0x1000030B8, symSize: 0x30 }
  - { offsetInCU: 0x11D1B, offset: 0x11D1B, size: 0x8, addend: 0x0, symName: __ZNKSt8_Rb_treeIxSt4pairIKxxESt10_Select1stIS2_ESt4lessIxESaIS2_EE3endEv, symObjAddr: 0x1390, symBinAddr: 0x100003090, symSize: 0x28 }
  - { offsetInCU: 0x11D43, offset: 0x11D43, size: 0x8, addend: 0x0, symName: __ZNKSt8_Rb_treeIxSt4pairIKxxESt10_Select1stIS2_ESt4lessIxESaIS2_EE4findERS1_, symObjAddr: 0x12E0, symBinAddr: 0x100002FE0, symSize: 0xB0 }
  - { offsetInCU: 0x11D8C, offset: 0x11D8C, size: 0x8, addend: 0x0, symName: __ZNSt12_Vector_baseIxSaIxEE13_M_deallocateEPxm, symObjAddr: 0x1288, symBinAddr: 0x100002F88, symSize: 0x58 }
  - { offsetInCU: 0x11E41, offset: 0x11E41, size: 0x8, addend: 0x0, symName: __ZNSt15__new_allocatorIxED2Ev, symObjAddr: 0x1274, symBinAddr: 0x100002F74, symSize: 0x14 }
  - { offsetInCU: 0x11E92, offset: 0x11E92, size: 0x8, addend: 0x0, symName: __ZNSt12_Vector_baseIxSaIxEE17_Vector_impl_dataC2Ev, symObjAddr: 0x1248, symBinAddr: 0x100002F48, symSize: 0x2C }
  - { offsetInCU: 0x11E9B, offset: 0x11E9B, size: 0x8, addend: 0x0, symName: __ZNSt8_Rb_treeIxSt4pairIKxxESt10_Select1stIS2_ESt4lessIxESaIS2_EE8_M_beginEv, symObjAddr: 0x122C, symBinAddr: 0x100002F2C, symSize: 0x1C }
  - { offsetInCU: 0x11EC3, offset: 0x11EC3, size: 0x8, addend: 0x0, symName: __ZNSt8_Rb_treeIxSt4pairIKxxESt10_Select1stIS2_ESt4lessIxESaIS2_EE8_M_eraseEPSt13_Rb_tree_nodeIS2_E, symObjAddr: 0x11C8, symBinAddr: 0x100002EC8, symSize: 0x64 }
  - { offsetInCU: 0x11F78, offset: 0x11F78, size: 0x8, addend: 0x0, symName: __ZNSt15__new_allocatorISt13_Rb_tree_nodeISt4pairIKxxEEED2Ev, symObjAddr: 0x11B4, symBinAddr: 0x100002EB4, symSize: 0x14 }
  - { offsetInCU: 0x11F78, offset: 0x11F78, size: 0x8, addend: 0x0, symName: __ZNSt8_Rb_treeISt4pairIxxES1_St9_IdentityIS1_ESt4lessIS1_ESaIS1_EE8_M_beginEv, symObjAddr: 0x1198, symBinAddr: 0x100002E98, symSize: 0x1C }
  - { offsetInCU: 0x11FA0, offset: 0x11FA0, size: 0x8, addend: 0x0, symName: __ZNSt8_Rb_treeISt4pairIxxES1_St9_IdentityIS1_ESt4lessIS1_ESaIS1_EE8_M_eraseEPSt13_Rb_tree_nodeIS1_E, symObjAddr: 0x1134, symBinAddr: 0x100002E34, symSize: 0x64 }
  - { offsetInCU: 0x12054, offset: 0x12054, size: 0x8, addend: 0x0, symName: __ZNSt15__new_allocatorISt13_Rb_tree_nodeISt4pairIxxEEED2Ev, symObjAddr: 0x1120, symBinAddr: 0x100002E20, symSize: 0x14 }
  - { offsetInCU: 0x1208B, offset: 0x1208B, size: 0x8, addend: 0x0, symName: __ZNSt20_Rb_tree_key_compareISt4lessISt4pairIxxEEEC2Ev, symObjAddr: 0x110C, symBinAddr: 0x100002E0C, symSize: 0x14 }
  - { offsetInCU: 0x12091, offset: 0x12091, size: 0x8, addend: 0x0, symName: __ZNSt8_Rb_treeIxxSt9_IdentityIxESt4lessIxESaIxEE8_M_beginEv, symObjAddr: 0x10F0, symBinAddr: 0x100002DF0, symSize: 0x1C }
  - { offsetInCU: 0x120B9, offset: 0x120B9, size: 0x8, addend: 0x0, symName: __ZNSt8_Rb_treeIxxSt9_IdentityIxESt4lessIxESaIxEE8_M_eraseEPSt13_Rb_tree_nodeIxE, symObjAddr: 0x108C, symBinAddr: 0x100002D8C, symSize: 0x64 }
  - { offsetInCU: 0x12163, offset: 0x12163, size: 0x8, addend: 0x0, symName: __ZNSt15__new_allocatorISt13_Rb_tree_nodeIxEED2Ev, symObjAddr: 0x1078, symBinAddr: 0x100002D78, symSize: 0x14 }
  - { offsetInCU: 0x1219A, offset: 0x1219A, size: 0x8, addend: 0x0, symName: __ZNSt20_Rb_tree_key_compareISt4lessIxEEC2Ev, symObjAddr: 0x1064, symBinAddr: 0x100002D64, symSize: 0x14 }
  - { offsetInCU: 0x121AA, offset: 0x121AA, size: 0x8, addend: 0x0, symName: __ZNK9__gnu_cxx17__normal_iteratorIPxSt6vectorIxSaIxEEEdeEv, symObjAddr: 0x104C, symBinAddr: 0x100002D4C, symSize: 0x18 }
  - { offsetInCU: 0x121D2, offset: 0x121D2, size: 0x8, addend: 0x0, symName: __ZN9__gnu_cxx17__normal_iteratorIPxSt6vectorIxSaIxEEEppEv, symObjAddr: 0x1024, symBinAddr: 0x100002D24, symSize: 0x28 }
  - { offsetInCU: 0x121F6, offset: 0x121F6, size: 0x8, addend: 0x0, symName: __ZN9__gnu_cxxneIPxSt6vectorIxSaIxEEEEbRKNS_17__normal_iteratorIT_T0_EESA_, symObjAddr: 0xFE0, symBinAddr: 0x100002CE0, symSize: 0x44 }
  - { offsetInCU: 0x12244, offset: 0x12244, size: 0x8, addend: 0x0, symName: __ZNSt6vectorIxSaIxEE3endEv, symObjAddr: 0xFB8, symBinAddr: 0x100002CB8, symSize: 0x28 }
  - { offsetInCU: 0x1226C, offset: 0x1226C, size: 0x8, addend: 0x0, symName: __ZNSt6vectorIxSaIxEE5beginEv, symObjAddr: 0xF94, symBinAddr: 0x100002C94, symSize: 0x24 }
  - { offsetInCU: 0x12294, offset: 0x12294, size: 0x8, addend: 0x0, symName: __ZNKSt23_Rb_tree_const_iteratorISt4pairIxxEEdeEv, symObjAddr: 0xF74, symBinAddr: 0x100002C74, symSize: 0x20 }
  - { offsetInCU: 0x122BC, offset: 0x122BC, size: 0x8, addend: 0x0, symName: __ZNSt23_Rb_tree_const_iteratorISt4pairIxxEEppEi, symObjAddr: 0xF34, symBinAddr: 0x100002C34, symSize: 0x40 }
  - { offsetInCU: 0x122F9, offset: 0x122F9, size: 0x8, addend: 0x0, symName: __ZStneRKSt23_Rb_tree_const_iteratorISt4pairIxxEES4_, symObjAddr: 0xF04, symBinAddr: 0x100002C04, symSize: 0x30 }
  - { offsetInCU: 0x12335, offset: 0x12335, size: 0x8, addend: 0x0, symName: __ZNKSt3setISt4pairIxxESt4lessIS1_ESaIS1_EE3endEv, symObjAddr: 0xEE8, symBinAddr: 0x100002BE8, symSize: 0x1C }
  - { offsetInCU: 0x1235D, offset: 0x1235D, size: 0x8, addend: 0x0, symName: __ZNKSt3setISt4pairIxxESt4lessIS1_ESaIS1_EE5beginEv, symObjAddr: 0xECC, symBinAddr: 0x100002BCC, symSize: 0x1C }
  - { offsetInCU: 0x12385, offset: 0x12385, size: 0x8, addend: 0x0, symName: __ZNSt8_Rb_treeISt4pairIxxES1_St9_IdentityIS1_ESt4lessIS1_ESaIS1_EEaSERKS7_, symObjAddr: 0xD70, symBinAddr: 0x100002A70, symSize: 0x15C }
  - { offsetInCU: 0x124A3, offset: 0x124A3, size: 0x8, addend: 0x0, symName: __ZNSt3setISt4pairIxxESt4lessIS1_ESaIS1_EE6insertEOS1_, symObjAddr: 0xD1C, symBinAddr: 0x100002A1C, symSize: 0x54 }
  - { offsetInCU: 0x124EC, offset: 0x124EC, size: 0x8, addend: 0x0, symName: __ZNKSt23_Rb_tree_const_iteratorISt4pairIxxEEptEv, symObjAddr: 0xCFC, symBinAddr: 0x1000029FC, symSize: 0x20 }
  - { offsetInCU: 0x12514, offset: 0x12514, size: 0x8, addend: 0x0, symName: __ZNSt3setISt4pairIxxESt4lessIS1_ESaIS1_EE11lower_boundERKS1_, symObjAddr: 0xCC4, symBinAddr: 0x1000029C4, symSize: 0x38 }
  - { offsetInCU: 0x125AE, offset: 0x125AE, size: 0x8, addend: 0x0, symName: __ZNSt4pairIxxEC1IRxiLb1EEEOT_OT0_, symObjAddr: 0xC78, symBinAddr: 0x100002978, symSize: 0x4C }
  - { offsetInCU: 0x125D6, offset: 0x125D6, size: 0x8, addend: 0x0, symName: __ZNSt3setISt4pairIxxESt4lessIS1_ESaIS1_EE5eraseERKS1_, symObjAddr: 0xC54, symBinAddr: 0x100002954, symSize: 0x24 }
  - { offsetInCU: 0x12672, offset: 0x12672, size: 0x8, addend: 0x0, symName: __ZNSt4pairIxxEC1IRxS2_Lb1EEEOT_OT0_, symObjAddr: 0xC0C, symBinAddr: 0x10000290C, symSize: 0x48 }
  - { offsetInCU: 0x12698, offset: 0x12698, size: 0x8, addend: 0x0, symName: __ZNSt3setIxSt4lessIxESaIxEE6insertERKx, symObjAddr: 0xBCC, symBinAddr: 0x1000028CC, symSize: 0x40 }
  - { offsetInCU: 0x126E1, offset: 0x126E1, size: 0x8, addend: 0x0, symName: __ZNSt6vectorIxSaIxEE9push_backERKx, symObjAddr: 0xAF8, symBinAddr: 0x1000027F8, symSize: 0xD4 }
  - { offsetInCU: 0x1277D, offset: 0x1277D, size: 0x8, addend: 0x0, symName: __ZNKSt3setIxSt4lessIxESaIxEE5countERKx, symObjAddr: 0xA9C, symBinAddr: 0x10000279C, symSize: 0x5C }
  - { offsetInCU: 0x127B5, offset: 0x127B5, size: 0x8, addend: 0x0, symName: __ZNSt3mapIxxSt4lessIxESaISt4pairIKxxEEEixERS3_, symObjAddr: 0x9A8, symBinAddr: 0x1000026A8, symSize: 0xF4 }
  - { offsetInCU: 0x127FE, offset: 0x127FE, size: 0x8, addend: 0x0, symName: __ZNKSt3mapIxxSt4lessIxESaISt4pairIKxxEEE5countERS3_, symObjAddr: 0x94C, symBinAddr: 0x10000264C, symSize: 0x5C }
  - { offsetInCU: 0x12873, offset: 0x12873, size: 0x8, addend: 0x0, symName: __ZNSt12_Vector_baseIxSaIxEED2Ev, symObjAddr: 0x8FC, symBinAddr: 0x1000025FC, symSize: 0x50 }
  - { offsetInCU: 0x128DA, offset: 0x128DA, size: 0x8, addend: 0x0, symName: __ZNSt12_Vector_baseIxSaIxEE12_Vector_implC1Ev, symObjAddr: 0x8C4, symBinAddr: 0x1000025C4, symSize: 0x38 }
  - { offsetInCU: 0x1297B, offset: 0x1297B, size: 0x8, addend: 0x0, symName: __ZNSt8_Rb_treeIxSt4pairIKxxESt10_Select1stIS2_ESt4lessIxESaIS2_EED1Ev, symObjAddr: 0x890, symBinAddr: 0x100002590, symSize: 0x34 }
  - { offsetInCU: 0x129EC, offset: 0x129EC, size: 0x8, addend: 0x0, symName: __ZNSt8_Rb_treeIxSt4pairIKxxESt10_Select1stIS2_ESt4lessIxESaIS2_EE13_Rb_tree_implIS6_Lb1EEC1Ev, symObjAddr: 0x84C, symBinAddr: 0x10000254C, symSize: 0x44 }
  - { offsetInCU: 0x12A5E, offset: 0x12A5E, size: 0x8, addend: 0x0, symName: __ZNSt8_Rb_treeISt4pairIxxES1_St9_IdentityIS1_ESt4lessIS1_ESaIS1_EED1Ev, symObjAddr: 0x818, symBinAddr: 0x100002518, symSize: 0x34 }
  - { offsetInCU: 0x12ACF, offset: 0x12ACF, size: 0x8, addend: 0x0, symName: __ZNSt8_Rb_treeISt4pairIxxES1_St9_IdentityIS1_ESt4lessIS1_ESaIS1_EE13_Rb_tree_implIS5_Lb1EEC1Ev, symObjAddr: 0x7D4, symBinAddr: 0x1000024D4, symSize: 0x44 }
  - { offsetInCU: 0x12B2E, offset: 0x12B2E, size: 0x8, addend: 0x0, symName: __ZNSt8_Rb_treeIxxSt9_IdentityIxESt4lessIxESaIxEED1Ev, symObjAddr: 0x7A0, symBinAddr: 0x1000024A0, symSize: 0x34 }
  - { offsetInCU: 0x12B9F, offset: 0x12B9F, size: 0x8, addend: 0x0, symName: __ZNSt8_Rb_treeIxxSt9_IdentityIxESt4lessIxESaIxEE13_Rb_tree_implIS3_Lb1EEC1Ev, symObjAddr: 0x75C, symBinAddr: 0x10000245C, symSize: 0x44 }
  - { offsetInCU: 0x12BC3, offset: 0x12BC3, size: 0x8, addend: 0x0, symName: _main, symObjAddr: 0x52C, symBinAddr: 0x10000222C, symSize: 0x230 }
  - { offsetInCU: 0x12CEB, offset: 0x12CEB, size: 0x8, addend: 0x0, symName: __ZNSt10__pair_getILm1EE10__move_getIxxEEOT0_OSt4pairIT_S2_E, symObjAddr: 0x50C, symBinAddr: 0x10000220C, symSize: 0x20 }
  - { offsetInCU: 0x12D25, offset: 0x12D25, size: 0x8, addend: 0x0, symName: __ZSt3getILm1ExxEONSt13tuple_elementIXT_ESt4pairIT0_T1_EE4typeEOS4_, symObjAddr: 0x4EC, symBinAddr: 0x1000021EC, symSize: 0x20 }
  - { offsetInCU: 0x12D6F, offset: 0x12D6F, size: 0x8, addend: 0x0, symName: __ZSt7forwardIxEOT_RNSt16remove_referenceIS0_E4typeE, symObjAddr: 0x4D8, symBinAddr: 0x1000021D8, symSize: 0x14 }
  - { offsetInCU: 0x12D9F, offset: 0x12D9F, size: 0x8, addend: 0x0, symName: __ZNSt10__pair_getILm0EE10__move_getIxxEEOT_OSt4pairIS2_T0_E, symObjAddr: 0x4BC, symBinAddr: 0x1000021BC, symSize: 0x1C }
  - { offsetInCU: 0x12DDF, offset: 0x12DDF, size: 0x8, addend: 0x0, symName: __ZSt4moveIRSt4pairIxxEEONSt16remove_referenceIT_E4typeEOS4_, symObjAddr: 0x4A8, symBinAddr: 0x1000021A8, symSize: 0x14 }
  - { offsetInCU: 0x12E0F, offset: 0x12E0F, size: 0x8, addend: 0x0, symName: __ZSt3getILm0ExxEONSt13tuple_elementIXT_ESt4pairIT0_T1_EE4typeEOS4_, symObjAddr: 0x488, symBinAddr: 0x100002188, symSize: 0x20 }
  - { offsetInCU: 0x12E57, offset: 0x12E57, size: 0x8, addend: 0x0, symName: __ZNSt3setISt4pairIxxESt4lessIS1_ESaIS1_EEaSERKS5_, symObjAddr: 0x460, symBinAddr: 0x100002160, symSize: 0x28 }
  - { offsetInCU: 0x12E99, offset: 0x12E99, size: 0x8, addend: 0x0, symName: __Z8friendItx, symObjAddr: 0x2AC, symBinAddr: 0x100001FAC, symSize: 0x1B4 }
  - { offsetInCU: 0x12F4E, offset: 0x12F4E, size: 0x8, addend: 0x0, symName: __ZNSt6vectorIxSaIxEEC1Ev, symObjAddr: 0x28C, symBinAddr: 0x100001F8C, symSize: 0x20 }
  - { offsetInCU: 0x12F91, offset: 0x12F91, size: 0x8, addend: 0x0, symName: __ZNSt12_Vector_baseIxSaIxEEC2Ev, symObjAddr: 0x26C, symBinAddr: 0x100001F6C, symSize: 0x20 }
  - { offsetInCU: 0x12FE8, offset: 0x12FE8, size: 0x8, addend: 0x0, symName: __ZNSt12_Vector_baseIxSaIxEE12_Vector_implD1Ev, symObjAddr: 0x240, symBinAddr: 0x100001F40, symSize: 0x2C }
  - { offsetInCU: 0x13044, offset: 0x13044, size: 0x8, addend: 0x0, symName: __ZNSt3mapIxxSt4lessIxESaISt4pairIKxxEEEC1Ev, symObjAddr: 0x220, symBinAddr: 0x100001F20, symSize: 0x20 }
  - { offsetInCU: 0x1309A, offset: 0x1309A, size: 0x8, addend: 0x0, symName: __ZNSt8_Rb_treeIxSt4pairIKxxESt10_Select1stIS2_ESt4lessIxESaIS2_EEC1Ev, symObjAddr: 0x200, symBinAddr: 0x100001F00, symSize: 0x20 }
  - { offsetInCU: 0x130FC, offset: 0x130FC, size: 0x8, addend: 0x0, symName: __ZNSt8_Rb_treeIxSt4pairIKxxESt10_Select1stIS2_ESt4lessIxESaIS2_EE13_Rb_tree_implIS6_Lb1EED1Ev, symObjAddr: 0x1D4, symBinAddr: 0x100001ED4, symSize: 0x2C }
  - { offsetInCU: 0x1312A, offset: 0x1312A, size: 0x8, addend: 0x0, symName: __ZNSt3setISt4pairIxxESt4lessIS1_ESaIS1_EEC1Ev, symObjAddr: 0x1B4, symBinAddr: 0x100001EB4, symSize: 0x20 }
  - { offsetInCU: 0x1317F, offset: 0x1317F, size: 0x8, addend: 0x0, symName: __ZNSt8_Rb_treeISt4pairIxxES1_St9_IdentityIS1_ESt4lessIS1_ESaIS1_EEC1Ev, symObjAddr: 0x194, symBinAddr: 0x100001E94, symSize: 0x20 }
  - { offsetInCU: 0x131E1, offset: 0x131E1, size: 0x8, addend: 0x0, symName: __ZNSt8_Rb_treeISt4pairIxxES1_St9_IdentityIS1_ESt4lessIS1_ESaIS1_EE13_Rb_tree_implIS5_Lb1EED1Ev, symObjAddr: 0x168, symBinAddr: 0x100001E68, symSize: 0x2C }
  - { offsetInCU: 0x13200, offset: 0x13200, size: 0x8, addend: 0x0, symName: __ZNSt3setIxSt4lessIxESaIxEEC1Ev, symObjAddr: 0x148, symBinAddr: 0x100001E48, symSize: 0x20 }
  - { offsetInCU: 0x13251, offset: 0x13251, size: 0x8, addend: 0x0, symName: __ZNSt8_Rb_treeIxxSt9_IdentityIxESt4lessIxESaIxEEC1Ev, symObjAddr: 0x128, symBinAddr: 0x100001E28, symSize: 0x20 }
  - { offsetInCU: 0x132B3, offset: 0x132B3, size: 0x8, addend: 0x0, symName: __ZNSt8_Rb_treeIxxSt9_IdentityIxESt4lessIxESaIxEE13_Rb_tree_implIS3_Lb1EED1Ev, symObjAddr: 0xFC, symBinAddr: 0x100001DFC, symSize: 0x2C }
  - { offsetInCU: 0x132B0, offset: 0x132B0, size: 0x8, addend: 0x0, symName: __ZNSt15_Rb_tree_header8_M_resetEv, symObjAddr: 0xC0, symBinAddr: 0x100001DC0, symSize: 0x3C }
  - { offsetInCU: 0x13307, offset: 0x13307, size: 0x8, addend: 0x0, symName: __ZNSt15_Rb_tree_headerC2Ev, symObjAddr: 0x98, symBinAddr: 0x100001D98, symSize: 0x28 }
  - { offsetInCU: 0x13310, offset: 0x13310, size: 0x8, addend: 0x0, symName: __ZNSt18_Rb_tree_node_base10_S_maximumEPS_, symObjAddr: 0x64, symBinAddr: 0x100001D64, symSize: 0x34 }
  - { offsetInCU: 0x13337, offset: 0x13337, size: 0x8, addend: 0x0, symName: __ZNSt18_Rb_tree_node_base10_S_minimumEPS_, symObjAddr: 0x30, symBinAddr: 0x100001D30, symSize: 0x34 }
  - { offsetInCU: 0x1336B, offset: 0x1336B, size: 0x8, addend: 0x0, symName: __ZdlPvS_, symObjAddr: 0x18, symBinAddr: 0x100001D18, symSize: 0x18 }
  - { offsetInCU: 0x1339E, offset: 0x1339E, size: 0x8, addend: 0x0, symName: __ZnwmPv, symObjAddr: 0x0, symBinAddr: 0x100001D00, symSize: 0x18 }
...
