---
triple:          'arm64-apple-darwin'
binary-path:     '/Users/dingkai/Code/IOI2024/cses/SortingAndSearch/Room Allocation.gout'
relocations:
  - { offsetInCU: 0xC4, offset: 0xC4, size: 0x8, addend: 0x0, symName: __ZN9__gnu_cxx5__ops16__iter_less_iterEv, symObjAddr: 0x0, symBinAddr: 0x100003C50, symSize: 0x8 }
  - { offsetInCU: 0xCC, offset: 0xCC, size: 0x8, addend: 0x0, symName: __ZL7ARRIVAL, symObjAddr: 0x46F4, symBinAddr: 0x100008E70, symSize: 0x0 }
  - { offsetInCU: 0x3811, offset: 0x3811, size: 0x8, addend: 0x0, symName: __ZStL8__ioinit, symObjAddr: 0x3B9D8, symBinAddr: 0x100010070, symSize: 0x0 }
  - { offsetInCU: 0x38CB, offset: 0x38CB, size: 0x8, addend: 0x0, symName: __ZL7ARRIVAL, symObjAddr: 0x46F4, symBinAddr: 0x100008E70, symSize: 0x0 }
  - { offsetInCU: 0x38E7, offset: 0x38E7, size: 0x8, addend: 0x0, symName: __ZL9DEPARTURE, symObjAddr: 0x46F8, symBinAddr: 0x100008E74, symSize: 0x0 }
  - { offsetInCU: 0x38FD, offset: 0x38FD, size: 0x8, addend: 0x0, symName: __ZL5INDEX, symObjAddr: 0x46FC, symBinAddr: 0x100008E78, symSize: 0x0 }
  - { offsetInCU: 0x5350, offset: 0x5350, size: 0x8, addend: 0x0, symName: _customerPlan, symObjAddr: 0x3B9E0, symBinAddr: 0x100010078, symSize: 0x0 }
  - { offsetInCU: 0x6D7A, offset: 0x6D7A, size: 0x8, addend: 0x0, symName: _customerRoom, symObjAddr: 0x3B9F8, symBinAddr: 0x100010090, symSize: 0x0 }
  - { offsetInCU: 0x8C46, offset: 0x8C46, size: 0x8, addend: 0x0, symName: _prRoom, symObjAddr: 0x3BA10, symBinAddr: 0x1000100A8, symSize: 0x0 }
  - { offsetInCU: 0xA762, offset: 0xA762, size: 0x8, addend: 0x0, symName: __ZNSt8__detail30__integer_to_chars_is_unsignedIjEE, symObjAddr: 0x4700, symBinAddr: 0x100008E7C, symSize: 0x0 }
  - { offsetInCU: 0xA77C, offset: 0xA77C, size: 0x8, addend: 0x0, symName: __ZNSt8__detail30__integer_to_chars_is_unsignedImEE, symObjAddr: 0x4701, symBinAddr: 0x100008E7D, symSize: 0x0 }
  - { offsetInCU: 0xA796, offset: 0xA796, size: 0x8, addend: 0x0, symName: __ZNSt8__detail30__integer_to_chars_is_unsignedIyEE, symObjAddr: 0x4702, symBinAddr: 0x100008E7E, symSize: 0x0 }
  - { offsetInCU: 0xA7C7, offset: 0xA7C7, size: 0x8, addend: 0x0, symName: __GLOBAL__sub_I_Room_Allocation.cpp, symObjAddr: 0x46E0, symBinAddr: 0x100008330, symSize: 0x14 }
  - { offsetInCU: 0xA7CF, offset: 0xA7CF, size: 0x8, addend: 0x0, symName: __ZL7ARRIVAL, symObjAddr: 0x46F4, symBinAddr: 0x100008E70, symSize: 0x0 }
  - { offsetInCU: 0xA801, offset: 0xA801, size: 0x8, addend: 0x0, symName: __ZNSt6vectorIiSaIiEED1Ev, symObjAddr: 0x4684, symBinAddr: 0x1000082D4, symSize: 0x5C }
  - { offsetInCU: 0xA809, offset: 0xA809, size: 0x8, addend: 0x0, symName: __GLOBAL__sub_I_Room_Allocation.cpp, symObjAddr: 0x46E0, symBinAddr: 0x100008330, symSize: 0x14 }
  - { offsetInCU: 0xA8A4, offset: 0xA8A4, size: 0x8, addend: 0x0, symName: __ZNSt6vectorISt5arrayIiLm4EESaIS1_EED1Ev, symObjAddr: 0x4628, symBinAddr: 0x100008278, symSize: 0x5C }
  - { offsetInCU: 0xA8AC, offset: 0xA8AC, size: 0x8, addend: 0x0, symName: __ZNSt6vectorIiSaIiEED1Ev, symObjAddr: 0x4684, symBinAddr: 0x1000082D4, symSize: 0x5C }
  - { offsetInCU: 0xA90E, offset: 0xA90E, size: 0x8, addend: 0x0, symName: __Z41__static_initialization_and_destruction_0v, symObjAddr: 0x4574, symBinAddr: 0x1000081C4, symSize: 0xB4 }
  - { offsetInCU: 0xA916, offset: 0xA916, size: 0x8, addend: 0x0, symName: __ZNSt6vectorISt5arrayIiLm4EESaIS1_EED1Ev, symObjAddr: 0x4628, symBinAddr: 0x100008278, symSize: 0x5C }
  - { offsetInCU: 0xA977, offset: 0xA977, size: 0x8, addend: 0x0, symName: __ZNSt14priority_queueISt4pairIiiESt6vectorIS1_SaIS1_EESt7greaterIS1_EED1Ev, symObjAddr: 0x4554, symBinAddr: 0x1000081A4, symSize: 0x20 }
  - { offsetInCU: 0xA97F, offset: 0xA97F, size: 0x8, addend: 0x0, symName: __Z41__static_initialization_and_destruction_0v, symObjAddr: 0x4574, symBinAddr: 0x1000081C4, symSize: 0xB4 }
  - { offsetInCU: 0xA96D, offset: 0xA96D, size: 0x8, addend: 0x0, symName: __ZNK9__gnu_cxx5__ops15_Iter_less_iterclIPKiS4_EEbT_T0_, symObjAddr: 0x4520, symBinAddr: 0x100008170, symSize: 0x34 }
  - { offsetInCU: 0xA975, offset: 0xA975, size: 0x8, addend: 0x0, symName: __ZNSt14priority_queueISt4pairIiiESt6vectorIS1_SaIS1_EESt7greaterIS1_EED1Ev, symObjAddr: 0x4554, symBinAddr: 0x1000081A4, symSize: 0x20 }
  - { offsetInCU: 0xA9DC, offset: 0xA9DC, size: 0x8, addend: 0x0, symName: __ZNSt8__lc_raiISt26random_access_iterator_tagS0_E6__cnd2IPKiEEbT_S5_, symObjAddr: 0x4508, symBinAddr: 0x100008158, symSize: 0x18 }
  - { offsetInCU: 0xA9E4, offset: 0xA9E4, size: 0x8, addend: 0x0, symName: __ZNK9__gnu_cxx5__ops15_Iter_less_iterclIPKiS4_EEbT_T0_, symObjAddr: 0x4520, symBinAddr: 0x100008170, symSize: 0x34 }
  - { offsetInCU: 0xAA1F, offset: 0xAA1F, size: 0x8, addend: 0x0, symName: __ZNSt8__lc_raiISt26random_access_iterator_tagS0_E10__newlast1IPKiS4_EET_S5_S5_T0_S6_, symObjAddr: 0x449C, symBinAddr: 0x1000080EC, symSize: 0x6C }
  - { offsetInCU: 0xAA27, offset: 0xAA27, size: 0x8, addend: 0x0, symName: __ZNSt8__lc_raiISt26random_access_iterator_tagS0_E6__cnd2IPKiEEbT_S5_, symObjAddr: 0x4508, symBinAddr: 0x100008158, symSize: 0x18 }
  - { offsetInCU: 0xAB10, offset: 0xAB10, size: 0x8, addend: 0x0, symName: __ZSt4moveIRiEONSt16remove_referenceIT_E4typeEOS2_, symObjAddr: 0x4488, symBinAddr: 0x1000080D8, symSize: 0x14 }
  - { offsetInCU: 0xAB18, offset: 0xAB18, size: 0x8, addend: 0x0, symName: __ZNSt8__lc_raiISt26random_access_iterator_tagS0_E10__newlast1IPKiS4_EET_S5_S5_T0_S6_, symObjAddr: 0x449C, symBinAddr: 0x1000080EC, symSize: 0x6C }
  - { offsetInCU: 0xABE1, offset: 0xABE1, size: 0x8, addend: 0x0, symName: __ZSt30__lexicographical_compare_implIPKiS1_N9__gnu_cxx5__ops15_Iter_less_iterEEbT_S5_T0_S6_T1_, symObjAddr: 0x436C, symBinAddr: 0x100007FBC, symSize: 0x11C }
  - { offsetInCU: 0xABE9, offset: 0xABE9, size: 0x8, addend: 0x0, symName: __ZSt4moveIRiEONSt16remove_referenceIT_E4typeEOS2_, symObjAddr: 0x4488, symBinAddr: 0x1000080D8, symSize: 0x14 }
  - { offsetInCU: 0xAC7F, offset: 0xAC7F, size: 0x8, addend: 0x0, symName: __ZSt4swapIiENSt9enable_ifIXsrSt6__and_IJSt6__not_ISt15__is_tuple_likeIT_EESt21is_move_constructibleIS4_ESt18is_move_assignableIS4_EEE5valueEvE4typeERS4_SE_, symObjAddr: 0x4318, symBinAddr: 0x100007F68, symSize: 0x54 }
  - { offsetInCU: 0xAC87, offset: 0xAC87, size: 0x8, addend: 0x0, symName: __ZSt30__lexicographical_compare_implIPKiS1_N9__gnu_cxx5__ops15_Iter_less_iterEEbT_S5_T0_S6_T1_, symObjAddr: 0x436C, symBinAddr: 0x100007FBC, symSize: 0x11C }
  - { offsetInCU: 0xAC41, offset: 0xAC41, size: 0x8, addend: 0x0, symName: __ZNSt11__copy_moveILb1ELb0ESt26random_access_iterator_tagE12__assign_oneISt5arrayIiLm4EES4_EEvPT_PT0_, symObjAddr: 0x42E8, symBinAddr: 0x100007F38, symSize: 0x30 }
  - { offsetInCU: 0xAC49, offset: 0xAC49, size: 0x8, addend: 0x0, symName: __ZSt4swapIiENSt9enable_ifIXsrSt6__and_IJSt6__not_ISt15__is_tuple_likeIT_EESt21is_move_constructibleIS4_ESt18is_move_assignableIS4_EEE5valueEvE4typeERS4_SE_, symObjAddr: 0x4318, symBinAddr: 0x100007F68, symSize: 0x54 }
  - { offsetInCU: 0xACA1, offset: 0xACA1, size: 0x8, addend: 0x0, symName: __ZNSt25__lexicographical_compareILb0EE4__lcIPKiS3_EEbT_S4_T0_S5_, symObjAddr: 0x42A0, symBinAddr: 0x100007EF0, symSize: 0x48 }
  - { offsetInCU: 0xACA9, offset: 0xACA9, size: 0x8, addend: 0x0, symName: __ZNSt11__copy_moveILb1ELb0ESt26random_access_iterator_tagE12__assign_oneISt5arrayIiLm4EES4_EEvPT_PT0_, symObjAddr: 0x42E8, symBinAddr: 0x100007F38, symSize: 0x30 }
  - { offsetInCU: 0xAD5B, offset: 0xAD5B, size: 0x8, addend: 0x0, symName: __ZSt9iter_swapIPiS0_EvT_T0_, symObjAddr: 0x4278, symBinAddr: 0x100007EC8, symSize: 0x28 }
  - { offsetInCU: 0xAD63, offset: 0xAD63, size: 0x8, addend: 0x0, symName: __ZNSt25__lexicographical_compareILb0EE4__lcIPKiS3_EEbT_S4_T0_S5_, symObjAddr: 0x42A0, symBinAddr: 0x100007EF0, symSize: 0x48 }
  - { offsetInCU: 0xADBD, offset: 0xADBD, size: 0x8, addend: 0x0, symName: __ZNSt20__copy_move_backwardILb1ELb1ESt26random_access_iterator_tagE13__copy_move_bISt5arrayIiLm4EES4_EEPT0_PT_S8_S6_, symObjAddr: 0x41CC, symBinAddr: 0x100007E1C, symSize: 0xAC }
  - { offsetInCU: 0xADC5, offset: 0xADC5, size: 0x8, addend: 0x0, symName: __ZSt9iter_swapIPiS0_EvT_T0_, symObjAddr: 0x4278, symBinAddr: 0x100007EC8, symSize: 0x28 }
  - { offsetInCU: 0xAEBA, offset: 0xAEBA, size: 0x8, addend: 0x0, symName: __ZSt30__lexicographical_compare_aux1IPKiS1_EbT_S2_T0_S3_, symObjAddr: 0x4190, symBinAddr: 0x100007DE0, symSize: 0x3C }
  - { offsetInCU: 0xAEC2, offset: 0xAEC2, size: 0x8, addend: 0x0, symName: __ZNSt20__copy_move_backwardILb1ELb1ESt26random_access_iterator_tagE13__copy_move_bISt5arrayIiLm4EES4_EEPT0_PT_S8_S6_, symObjAddr: 0x41CC, symBinAddr: 0x100007E1C, symSize: 0xAC }
  - { offsetInCU: 0xAF29, offset: 0xAF29, size: 0x8, addend: 0x0, symName: __ZSt12__niter_baseIPKiET_S2_, symObjAddr: 0x417C, symBinAddr: 0x100007DCC, symSize: 0x14 }
  - { offsetInCU: 0xAF31, offset: 0xAF31, size: 0x8, addend: 0x0, symName: __ZSt30__lexicographical_compare_aux1IPKiS1_EbT_S2_T0_S3_, symObjAddr: 0x4190, symBinAddr: 0x100007DE0, symSize: 0x3C }
  - { offsetInCU: 0xAF7A, offset: 0xAF7A, size: 0x8, addend: 0x0, symName: __ZSt11swap_rangesIPiS0_ET0_T_S2_S1_, symObjAddr: 0x4124, symBinAddr: 0x100007D74, symSize: 0x58 }
  - { offsetInCU: 0xAF82, offset: 0xAF82, size: 0x8, addend: 0x0, symName: __ZSt12__niter_baseIPKiET_S2_, symObjAddr: 0x417C, symBinAddr: 0x100007DCC, symSize: 0x14 }
  - { offsetInCU: 0xAFB7, offset: 0xAFB7, size: 0x8, addend: 0x0, symName: __ZNSt5arrayIiLm4EE3endEv, symObjAddr: 0x4104, symBinAddr: 0x100007D54, symSize: 0x20 }
  - { offsetInCU: 0xAFBF, offset: 0xAFBF, size: 0x8, addend: 0x0, symName: __ZSt11swap_rangesIPiS0_ET0_T_S2_S1_, symObjAddr: 0x4124, symBinAddr: 0x100007D74, symSize: 0x58 }
  - { offsetInCU: 0xB00C, offset: 0xB00C, size: 0x8, addend: 0x0, symName: __ZNSt5arrayIiLm4EE5beginEv, symObjAddr: 0x40E8, symBinAddr: 0x100007D38, symSize: 0x1C }
  - { offsetInCU: 0xB014, offset: 0xB014, size: 0x8, addend: 0x0, symName: __ZNSt5arrayIiLm4EE3endEv, symObjAddr: 0x4104, symBinAddr: 0x100007D54, symSize: 0x20 }
  - { offsetInCU: 0xB074, offset: 0xB074, size: 0x8, addend: 0x0, symName: __ZNK9__gnu_cxx5__ops14_Iter_less_valclINS_17__normal_iteratorIPSt5arrayIiLm4EESt6vectorIS5_SaIS5_EEEES5_EEbT_RT0_, symObjAddr: 0x40B8, symBinAddr: 0x100007D08, symSize: 0x30 }
  - { offsetInCU: 0xB07C, offset: 0xB07C, size: 0x8, addend: 0x0, symName: __ZNSt5arrayIiLm4EE5beginEv, symObjAddr: 0x40E8, symBinAddr: 0x100007D38, symSize: 0x1C }
  - { offsetInCU: 0xB15A, offset: 0xB15A, size: 0x8, addend: 0x0, symName: __ZSt9__fill_a1IPiiEN9__gnu_cxx11__enable_ifIXsrSt11__is_scalarIT0_E7__valueEvE6__typeET_S8_RKS4_, symObjAddr: 0x4060, symBinAddr: 0x100007CB0, symSize: 0x58 }
  - { offsetInCU: 0xB162, offset: 0xB162, size: 0x8, addend: 0x0, symName: __ZNK9__gnu_cxx5__ops14_Iter_less_valclINS_17__normal_iteratorIPSt5arrayIiLm4EESt6vectorIS5_SaIS5_EEEES5_EEbT_RT0_, symObjAddr: 0x40B8, symBinAddr: 0x100007D08, symSize: 0x30 }
  - { offsetInCU: 0xB218, offset: 0xB218, size: 0x8, addend: 0x0, symName: __ZSt9__fill_a1IPSt5arrayIiLm4EES1_EN9__gnu_cxx11__enable_ifIXntsrSt11__is_scalarIT0_E7__valueEvE6__typeET_SA_RKS6_, symObjAddr: 0x4010, symBinAddr: 0x100007C60, symSize: 0x50 }
  - { offsetInCU: 0xB220, offset: 0xB220, size: 0x8, addend: 0x0, symName: __ZSt9__fill_a1IPiiEN9__gnu_cxx11__enable_ifIXsrSt11__is_scalarIT0_E7__valueEvE6__typeET_S8_RKS4_, symObjAddr: 0x4060, symBinAddr: 0x100007CB0, symSize: 0x58 }
  - { offsetInCU: 0xB28C, offset: 0xB28C, size: 0x8, addend: 0x0, symName: __ZSt19__relocate_object_aISt4pairIiiES1_SaIS1_EEvPT_PT0_RT1_, symObjAddr: 0x3F4C, symBinAddr: 0x100007B9C, symSize: 0xC4 }
  - { offsetInCU: 0xB294, offset: 0xB294, size: 0x8, addend: 0x0, symName: __ZSt9__fill_a1IPSt5arrayIiLm4EES1_EN9__gnu_cxx11__enable_ifIXntsrSt11__is_scalarIT0_E7__valueEvE6__typeET_SA_RKS6_, symObjAddr: 0x4010, symBinAddr: 0x100007C60, symSize: 0x50 }
  - { offsetInCU: 0xB3A0, offset: 0xB3A0, size: 0x8, addend: 0x0, symName: __ZSt11__addressofISt4pairIiiEEPT_RS2_, symObjAddr: 0x3F38, symBinAddr: 0x100007B88, symSize: 0x14 }
  - { offsetInCU: 0xB3A8, offset: 0xB3A8, size: 0x8, addend: 0x0, symName: __ZSt19__relocate_object_aISt4pairIiiES1_SaIS1_EEvPT_PT0_RT1_, symObjAddr: 0x3F4C, symBinAddr: 0x100007B9C, symSize: 0xC4 }
  - { offsetInCU: 0xB463, offset: 0xB463, size: 0x8, addend: 0x0, symName: __ZSt23__copy_move_backward_a2ILb1EPSt5arrayIiLm4EES2_ET1_T0_S4_S3_, symObjAddr: 0x3F0C, symBinAddr: 0x100007B5C, symSize: 0x2C }
  - { offsetInCU: 0xB46B, offset: 0xB46B, size: 0x8, addend: 0x0, symName: __ZSt11__addressofISt4pairIiiEEPT_RS2_, symObjAddr: 0x3F38, symBinAddr: 0x100007B88, symSize: 0x14 }
  - { offsetInCU: 0xB4D5, offset: 0xB4D5, size: 0x8, addend: 0x0, symName: __ZSt29__lexicographical_compare_auxIPKiS1_EbT_S2_T0_S3_, symObjAddr: 0x3E98, symBinAddr: 0x100007AE8, symSize: 0x74 }
  - { offsetInCU: 0xB4DD, offset: 0xB4DD, size: 0x8, addend: 0x0, symName: __ZSt23__copy_move_backward_a2ILb1EPSt5arrayIiLm4EES2_ET1_T0_S4_S3_, symObjAddr: 0x3F0C, symBinAddr: 0x100007B5C, symSize: 0x2C }
  - { offsetInCU: 0xB4F7, offset: 0xB4F7, size: 0x8, addend: 0x0, symName: __ZNKSt5arrayIiLm4EE4dataEv, symObjAddr: 0x3E84, symBinAddr: 0x100007AD4, symSize: 0x14 }
  - { offsetInCU: 0xB4FF, offset: 0xB4FF, size: 0x8, addend: 0x0, symName: __ZSt29__lexicographical_compare_auxIPKiS1_EbT_S2_T0_S3_, symObjAddr: 0x3E98, symBinAddr: 0x100007AE8, symSize: 0x74 }
  - { offsetInCU: 0xB526, offset: 0xB526, size: 0x8, addend: 0x0, symName: __ZNSt5arrayIiLm4EE4swapERS0_, symObjAddr: 0x3E30, symBinAddr: 0x100007A80, symSize: 0x54 }
  - { offsetInCU: 0xB52E, offset: 0xB52E, size: 0x8, addend: 0x0, symName: __ZNKSt5arrayIiLm4EE4dataEv, symObjAddr: 0x3E84, symBinAddr: 0x100007AD4, symSize: 0x14 }
  - { offsetInCU: 0xB693, offset: 0xB693, size: 0x8, addend: 0x0, symName: __ZSt11__push_heapIN9__gnu_cxx17__normal_iteratorIPSt5arrayIiLm4EESt6vectorIS3_SaIS3_EEEElS3_NS0_5__ops14_Iter_less_valEEvT_T0_SC_T1_RT2_, symObjAddr: 0x3CF8, symBinAddr: 0x100007948, symSize: 0x138 }
  - { offsetInCU: 0xB69B, offset: 0xB69B, size: 0x8, addend: 0x0, symName: __ZNSt5arrayIiLm4EE4swapERS0_, symObjAddr: 0x3E30, symBinAddr: 0x100007A80, symSize: 0x54 }
  - { offsetInCU: 0xB6BD, offset: 0xB6BD, size: 0x8, addend: 0x0, symName: __ZSt4moveIRN9__gnu_cxx5__ops15_Iter_less_iterEEONSt16remove_referenceIT_E4typeEOS5_, symObjAddr: 0x3CE4, symBinAddr: 0x100007934, symSize: 0x14 }
  - { offsetInCU: 0xB6C5, offset: 0xB6C5, size: 0x8, addend: 0x0, symName: __ZSt11__push_heapIN9__gnu_cxx17__normal_iteratorIPSt5arrayIiLm4EESt6vectorIS3_SaIS3_EEEElS3_NS0_5__ops14_Iter_less_valEEvT_T0_SC_T1_RT2_, symObjAddr: 0x3CF8, symBinAddr: 0x100007948, symSize: 0x138 }
  - { offsetInCU: 0xB6CD, offset: 0xB6CD, size: 0x8, addend: 0x0, symName: __ZSt8__fill_aIPiiEvT_S1_RKT0_, symObjAddr: 0x3CB4, symBinAddr: 0x100007904, symSize: 0x30 }
  - { offsetInCU: 0xB6D5, offset: 0xB6D5, size: 0x8, addend: 0x0, symName: __ZSt4moveIRN9__gnu_cxx5__ops15_Iter_less_iterEEONSt16remove_referenceIT_E4typeEOS5_, symObjAddr: 0x3CE4, symBinAddr: 0x100007934, symSize: 0x14 }
  - { offsetInCU: 0xB775, offset: 0xB775, size: 0x8, addend: 0x0, symName: __ZSt8__fill_aIPSt5arrayIiLm4EES1_EvT_S3_RKT0_, symObjAddr: 0x3C84, symBinAddr: 0x1000078D4, symSize: 0x30 }
  - { offsetInCU: 0xB77D, offset: 0xB77D, size: 0x8, addend: 0x0, symName: __ZSt8__fill_aIPiiEvT_S1_RKT0_, symObjAddr: 0x3CB4, symBinAddr: 0x100007904, symSize: 0x30 }
  - { offsetInCU: 0xB7C5, offset: 0xB7C5, size: 0x8, addend: 0x0, symName: __ZStltIiiEbRKSt4pairIT_T0_ES5_, symObjAddr: 0x3C1C, symBinAddr: 0x10000786C, symSize: 0x68 }
  - { offsetInCU: 0xB7CD, offset: 0xB7CD, size: 0x8, addend: 0x0, symName: __ZSt8__fill_aIPSt5arrayIiLm4EES1_EvT_S3_RKT0_, symObjAddr: 0x3C84, symBinAddr: 0x1000078D4, symSize: 0x30 }
  - { offsetInCU: 0xB89C, offset: 0xB89C, size: 0x8, addend: 0x0, symName: __ZSt14__relocate_a_1IPSt4pairIiiES2_SaIS1_EET0_T_S5_S4_RT1_, symObjAddr: 0x3B98, symBinAddr: 0x1000077E8, symSize: 0x84 }
  - { offsetInCU: 0xB8A4, offset: 0xB8A4, size: 0x8, addend: 0x0, symName: __ZStltIiiEbRKSt4pairIT_T0_ES5_, symObjAddr: 0x3C1C, symBinAddr: 0x10000786C, symSize: 0x68 }
  - { offsetInCU: 0xB8FD, offset: 0xB8FD, size: 0x8, addend: 0x0, symName: __ZSt12__niter_baseIPSt4pairIiiEET_S3_, symObjAddr: 0x3B84, symBinAddr: 0x1000077D4, symSize: 0x14 }
  - { offsetInCU: 0xB905, offset: 0xB905, size: 0x8, addend: 0x0, symName: __ZSt14__relocate_a_1IPSt4pairIiiES2_SaIS1_EET0_T_S5_S4_RT1_, symObjAddr: 0x3B98, symBinAddr: 0x1000077E8, symSize: 0x84 }
  - { offsetInCU: 0xB8FB, offset: 0xB8FB, size: 0x8, addend: 0x0, symName: __ZNSt15__new_allocatorISt4pairIiiEE8allocateEmPKv, symObjAddr: 0x3B08, symBinAddr: 0x100007758, symSize: 0x7C }
  - { offsetInCU: 0xB903, offset: 0xB903, size: 0x8, addend: 0x0, symName: __ZSt12__niter_baseIPSt4pairIiiEET_S3_, symObjAddr: 0x3B84, symBinAddr: 0x1000077D4, symSize: 0x14 }
  - { offsetInCU: 0xB981, offset: 0xB981, size: 0x8, addend: 0x0, symName: __ZNKSt12_Vector_baseISt4pairIiiESaIS1_EE19_M_get_Tp_allocatorEv, symObjAddr: 0x3AF4, symBinAddr: 0x100007744, symSize: 0x14 }
  - { offsetInCU: 0xB989, offset: 0xB989, size: 0x8, addend: 0x0, symName: __ZNSt15__new_allocatorISt4pairIiiEE8allocateEmPKv, symObjAddr: 0x3B08, symBinAddr: 0x100007758, symSize: 0x7C }
  - { offsetInCU: 0xB9B0, offset: 0xB9B0, size: 0x8, addend: 0x0, symName: __ZNSt6vectorISt4pairIiiESaIS1_EE11_S_max_sizeERKS2_, symObjAddr: 0x3AA0, symBinAddr: 0x1000076F0, symSize: 0x54 }
  - { offsetInCU: 0xB9B8, offset: 0xB9B8, size: 0x8, addend: 0x0, symName: __ZNKSt12_Vector_baseISt4pairIiiESaIS1_EE19_M_get_Tp_allocatorEv, symObjAddr: 0x3AF4, symBinAddr: 0x100007744, symSize: 0x14 }
  - { offsetInCU: 0xBB5F, offset: 0xBB5F, size: 0x8, addend: 0x0, symName: __ZSt12__niter_wrapIN9__gnu_cxx17__normal_iteratorIPSt5arrayIiLm4EESt6vectorIS3_SaIS3_EEEES4_ET_S9_T0_, symObjAddr: 0x3A64, symBinAddr: 0x1000076B4, symSize: 0x3C }
  - { offsetInCU: 0xBB67, offset: 0xBB67, size: 0x8, addend: 0x0, symName: __ZNSt6vectorISt4pairIiiESaIS1_EE11_S_max_sizeERKS2_, symObjAddr: 0x3AA0, symBinAddr: 0x1000076F0, symSize: 0x54 }
  - { offsetInCU: 0xBB79, offset: 0xBB79, size: 0x8, addend: 0x0, symName: __ZSt23__copy_move_backward_a1ILb1EPSt5arrayIiLm4EES2_ET1_T0_S4_S3_, symObjAddr: 0x3A38, symBinAddr: 0x100007688, symSize: 0x2C }
  - { offsetInCU: 0xBB81, offset: 0xBB81, size: 0x8, addend: 0x0, symName: __ZSt12__niter_wrapIN9__gnu_cxx17__normal_iteratorIPSt5arrayIiLm4EESt6vectorIS3_SaIS3_EEEES4_ET_S9_T0_, symObjAddr: 0x3A64, symBinAddr: 0x1000076B4, symSize: 0x3C }
  - { offsetInCU: 0xBC25, offset: 0xBC25, size: 0x8, addend: 0x0, symName: __ZSt12__niter_baseIPSt5arrayIiLm4EESt6vectorIS1_SaIS1_EEET_N9__gnu_cxx17__normal_iteratorIS6_T0_EE, symObjAddr: 0x3A18, symBinAddr: 0x100007668, symSize: 0x20 }
  - { offsetInCU: 0xBC2D, offset: 0xBC2D, size: 0x8, addend: 0x0, symName: __ZSt23__copy_move_backward_a1ILb1EPSt5arrayIiLm4EES2_ET1_T0_S4_S3_, symObjAddr: 0x3A38, symBinAddr: 0x100007688, symSize: 0x2C }
  - { offsetInCU: 0xBC38, offset: 0xBC38, size: 0x8, addend: 0x0, symName: __ZSt23lexicographical_compareIPKiS1_EbT_S2_T0_S3_, symObjAddr: 0x39E0, symBinAddr: 0x100007630, symSize: 0x38 }
  - { offsetInCU: 0xBC40, offset: 0xBC40, size: 0x8, addend: 0x0, symName: __ZSt12__niter_baseIPSt5arrayIiLm4EESt6vectorIS1_SaIS1_EEET_N9__gnu_cxx17__normal_iteratorIS6_T0_EE, symObjAddr: 0x3A18, symBinAddr: 0x100007668, symSize: 0x20 }
  - { offsetInCU: 0xBC66, offset: 0xBC66, size: 0x8, addend: 0x0, symName: __ZNKSt5arrayIiLm4EE3endEv, symObjAddr: 0x39C0, symBinAddr: 0x100007610, symSize: 0x20 }
  - { offsetInCU: 0xBC6E, offset: 0xBC6E, size: 0x8, addend: 0x0, symName: __ZSt23lexicographical_compareIPKiS1_EbT_S2_T0_S3_, symObjAddr: 0x39E0, symBinAddr: 0x100007630, symSize: 0x38 }
  - { offsetInCU: 0xBC95, offset: 0xBC95, size: 0x8, addend: 0x0, symName: __ZNKSt5arrayIiLm4EE5beginEv, symObjAddr: 0x39A4, symBinAddr: 0x1000075F4, symSize: 0x1C }
  - { offsetInCU: 0xBC9D, offset: 0xBC9D, size: 0x8, addend: 0x0, symName: __ZNKSt5arrayIiLm4EE3endEv, symObjAddr: 0x39C0, symBinAddr: 0x100007610, symSize: 0x20 }
  - { offsetInCU: 0xBD45, offset: 0xBD45, size: 0x8, addend: 0x0, symName: __ZSt4swapIiLm4EENSt9enable_ifIXsrNSt14__array_traitsIT_XT0_EE13_Is_swappableE5valueEvE4typeERSt5arrayIS2_XT0_EES9_, symObjAddr: 0x397C, symBinAddr: 0x1000075CC, symSize: 0x28 }
  - { offsetInCU: 0xBD4D, offset: 0xBD4D, size: 0x8, addend: 0x0, symName: __ZNKSt5arrayIiLm4EE5beginEv, symObjAddr: 0x39A4, symBinAddr: 0x1000075F4, symSize: 0x1C }
  - { offsetInCU: 0xBE5A, offset: 0xBE5A, size: 0x8, addend: 0x0, symName: __ZSt13__adjust_heapIN9__gnu_cxx17__normal_iteratorIPSt5arrayIiLm4EESt6vectorIS3_SaIS3_EEEElS3_NS0_5__ops15_Iter_less_iterEEvT_T0_SC_T1_T2_, symObjAddr: 0x3798, symBinAddr: 0x1000073E8, symSize: 0x1E4 }
  - { offsetInCU: 0xBE62, offset: 0xBE62, size: 0x8, addend: 0x0, symName: __ZSt4swapIiLm4EENSt9enable_ifIXsrNSt14__array_traitsIT_XT0_EE13_Is_swappableE5valueEvE4typeERSt5arrayIS2_XT0_EES9_, symObjAddr: 0x397C, symBinAddr: 0x1000075CC, symSize: 0x28 }
  - { offsetInCU: 0xBE8D, offset: 0xBE8D, size: 0x8, addend: 0x0, symName: __ZSt10__fill_n_aIPimiET_S1_T0_RKT1_St26random_access_iterator_tag, symObjAddr: 0x3734, symBinAddr: 0x100007384, symSize: 0x64 }
  - { offsetInCU: 0xBE95, offset: 0xBE95, size: 0x8, addend: 0x0, symName: __ZSt13__adjust_heapIN9__gnu_cxx17__normal_iteratorIPSt5arrayIiLm4EESt6vectorIS3_SaIS3_EEEElS3_NS0_5__ops15_Iter_less_iterEEvT_T0_SC_T1_T2_, symObjAddr: 0x3798, symBinAddr: 0x1000073E8, symSize: 0x1E4 }
  - { offsetInCU: 0xBF83, offset: 0xBF83, size: 0x8, addend: 0x0, symName: __ZSt10__fill_n_aIPSt5arrayIiLm4EEmS1_ET_S3_T0_RKT1_St26random_access_iterator_tag, symObjAddr: 0x36D0, symBinAddr: 0x100007320, symSize: 0x64 }
  - { offsetInCU: 0xBF8B, offset: 0xBF8B, size: 0x8, addend: 0x0, symName: __ZSt10__fill_n_aIPimiET_S1_T0_RKT1_St26random_access_iterator_tag, symObjAddr: 0x3734, symBinAddr: 0x100007384, symSize: 0x64 }
  - { offsetInCU: 0xBFE3, offset: 0xBFE3, size: 0x8, addend: 0x0, symName: __ZStgtIiiEbRKSt4pairIT_T0_ES5_, symObjAddr: 0x36A8, symBinAddr: 0x1000072F8, symSize: 0x28 }
  - { offsetInCU: 0xBFEB, offset: 0xBFEB, size: 0x8, addend: 0x0, symName: __ZSt10__fill_n_aIPSt5arrayIiLm4EEmS1_ET_S3_T0_RKT1_St26random_access_iterator_tag, symObjAddr: 0x36D0, symBinAddr: 0x100007320, symSize: 0x64 }
  - { offsetInCU: 0xC0ED, offset: 0xC0ED, size: 0x8, addend: 0x0, symName: __ZSt12__relocate_aIPSt4pairIiiES2_SaIS1_EET0_T_S5_S4_RT1_, symObjAddr: 0x364C, symBinAddr: 0x10000729C, symSize: 0x5C }
  - { offsetInCU: 0xC0F5, offset: 0xC0F5, size: 0x8, addend: 0x0, symName: __ZStgtIiiEbRKSt4pairIT_T0_ES5_, symObjAddr: 0x36A8, symBinAddr: 0x1000072F8, symSize: 0x28 }
  - { offsetInCU: 0xC11D, offset: 0xC11D, size: 0x8, addend: 0x0, symName: __ZNKSt6vectorISt4pairIiiESaIS1_EE4sizeEv, symObjAddr: 0x3624, symBinAddr: 0x100007274, symSize: 0x28 }
  - { offsetInCU: 0xC125, offset: 0xC125, size: 0x8, addend: 0x0, symName: __ZSt12__relocate_aIPSt4pairIiiES2_SaIS1_EET0_T_S5_S4_RT1_, symObjAddr: 0x364C, symBinAddr: 0x10000729C, symSize: 0x5C }
  - { offsetInCU: 0xC14C, offset: 0xC14C, size: 0x8, addend: 0x0, symName: __ZNKSt6vectorISt4pairIiiESaIS1_EE8max_sizeEv, symObjAddr: 0x3604, symBinAddr: 0x100007254, symSize: 0x20 }
  - { offsetInCU: 0xC154, offset: 0xC154, size: 0x8, addend: 0x0, symName: __ZNKSt6vectorISt4pairIiiESaIS1_EE4sizeEv, symObjAddr: 0x3624, symBinAddr: 0x100007274, symSize: 0x28 }
  - { offsetInCU: 0xC18E, offset: 0xC18E, size: 0x8, addend: 0x0, symName: __ZNK9__gnu_cxx5__ops14_Val_less_iterclISt5arrayIiLm4EENS_17__normal_iteratorIPS4_St6vectorIS4_SaIS4_EEEEEEbRT_T0_, symObjAddr: 0x35D0, symBinAddr: 0x100007220, symSize: 0x34 }
  - { offsetInCU: 0xC196, offset: 0xC196, size: 0x8, addend: 0x0, symName: __ZNKSt6vectorISt4pairIiiESaIS1_EE8max_sizeEv, symObjAddr: 0x3604, symBinAddr: 0x100007254, symSize: 0x20 }
  - { offsetInCU: 0xC344, offset: 0xC344, size: 0x8, addend: 0x0, symName: __ZSt22__copy_move_backward_aILb1EN9__gnu_cxx17__normal_iteratorIPSt5arrayIiLm4EESt6vectorIS3_SaIS3_EEEES8_ET1_T0_SA_S9_, symObjAddr: 0x3570, symBinAddr: 0x1000071C0, symSize: 0x60 }
  - { offsetInCU: 0xC34C, offset: 0xC34C, size: 0x8, addend: 0x0, symName: __ZNK9__gnu_cxx5__ops14_Val_less_iterclISt5arrayIiLm4EENS_17__normal_iteratorIPS4_St6vectorIS4_SaIS4_EEEEEEbRT_T0_, symObjAddr: 0x35D0, symBinAddr: 0x100007220, symSize: 0x34 }
  - { offsetInCU: 0xC355, offset: 0xC355, size: 0x8, addend: 0x0, symName: __ZSt12__miter_baseIN9__gnu_cxx17__normal_iteratorIPSt5arrayIiLm4EESt6vectorIS3_SaIS3_EEEEET_S9_, symObjAddr: 0x355C, symBinAddr: 0x1000071AC, symSize: 0x14 }
  - { offsetInCU: 0xC35D, offset: 0xC35D, size: 0x8, addend: 0x0, symName: __ZSt22__copy_move_backward_aILb1EN9__gnu_cxx17__normal_iteratorIPSt5arrayIiLm4EESt6vectorIS3_SaIS3_EEEES8_ET1_T0_SA_S9_, symObjAddr: 0x3570, symBinAddr: 0x1000071C0, symSize: 0x60 }
  - { offsetInCU: 0xC315, offset: 0xC315, size: 0x8, addend: 0x0, symName: __ZStltIiLm4EEbRKSt5arrayIT_XT0_EES4_, symObjAddr: 0x34F0, symBinAddr: 0x100007140, symSize: 0x6C }
  - { offsetInCU: 0xC31D, offset: 0xC31D, size: 0x8, addend: 0x0, symName: __ZSt12__miter_baseIN9__gnu_cxx17__normal_iteratorIPSt5arrayIiLm4EESt6vectorIS3_SaIS3_EEEEET_S9_, symObjAddr: 0x355C, symBinAddr: 0x1000071AC, symSize: 0x14 }
  - { offsetInCU: 0xC45D, offset: 0xC45D, size: 0x8, addend: 0x0, symName: __ZSt9iter_swapIN9__gnu_cxx17__normal_iteratorIPSt5arrayIiLm4EESt6vectorIS3_SaIS3_EEEES8_EvT_T0_, symObjAddr: 0x34AC, symBinAddr: 0x1000070FC, symSize: 0x44 }
  - { offsetInCU: 0xC465, offset: 0xC465, size: 0x8, addend: 0x0, symName: __ZStltIiLm4EEbRKSt5arrayIT_XT0_EES4_, symObjAddr: 0x34F0, symBinAddr: 0x100007140, symSize: 0x6C }
  - { offsetInCU: 0xC3A8, offset: 0xC3A8, size: 0x8, addend: 0x0, symName: __ZN9__gnu_cxx17__normal_iteratorIPSt5arrayIiLm4EESt6vectorIS2_SaIS2_EEEmmEv, symObjAddr: 0x3484, symBinAddr: 0x1000070D4, symSize: 0x28 }
  - { offsetInCU: 0xC3B0, offset: 0xC3B0, size: 0x8, addend: 0x0, symName: __ZSt9iter_swapIN9__gnu_cxx17__normal_iteratorIPSt5arrayIiLm4EESt6vectorIS3_SaIS3_EEEES8_EvT_T0_, symObjAddr: 0x34AC, symBinAddr: 0x1000070FC, symSize: 0x44 }
  - { offsetInCU: 0xC4DD, offset: 0xC4DD, size: 0x8, addend: 0x0, symName: __ZSt10__pop_heapIN9__gnu_cxx17__normal_iteratorIPSt5arrayIiLm4EESt6vectorIS3_SaIS3_EEEENS0_5__ops15_Iter_less_iterEEvT_SB_SB_RT0_, symObjAddr: 0x33F0, symBinAddr: 0x100007040, symSize: 0x94 }
  - { offsetInCU: 0xC4E5, offset: 0xC4E5, size: 0x8, addend: 0x0, symName: __ZN9__gnu_cxx17__normal_iteratorIPSt5arrayIiLm4EESt6vectorIS2_SaIS2_EEEmmEv, symObjAddr: 0x3484, symBinAddr: 0x1000070D4, symSize: 0x28 }
  - { offsetInCU: 0xC539, offset: 0xC539, size: 0x8, addend: 0x0, symName: __ZN9__gnu_cxxltIPSt5arrayIiLm4EESt6vectorIS2_SaIS2_EEEEbRKNS_17__normal_iteratorIT_T0_EESC_, symObjAddr: 0x33AC, symBinAddr: 0x100006FFC, symSize: 0x44 }
  - { offsetInCU: 0xC541, offset: 0xC541, size: 0x8, addend: 0x0, symName: __ZSt10__pop_heapIN9__gnu_cxx17__normal_iteratorIPSt5arrayIiLm4EESt6vectorIS3_SaIS3_EEEENS0_5__ops15_Iter_less_iterEEvT_SB_SB_RT0_, symObjAddr: 0x33F0, symBinAddr: 0x100007040, symSize: 0x94 }
  - { offsetInCU: 0xC612, offset: 0xC612, size: 0x8, addend: 0x0, symName: __ZSt11__make_heapIN9__gnu_cxx17__normal_iteratorIPSt5arrayIiLm4EESt6vectorIS3_SaIS3_EEEENS0_5__ops15_Iter_less_iterEEvT_SB_RT0_, symObjAddr: 0x32D0, symBinAddr: 0x100006F20, symSize: 0xDC }
  - { offsetInCU: 0xC61A, offset: 0xC61A, size: 0x8, addend: 0x0, symName: __ZN9__gnu_cxxltIPSt5arrayIiLm4EESt6vectorIS2_SaIS2_EEEEbRKNS_17__normal_iteratorIT_T0_EESC_, symObjAddr: 0x33AC, symBinAddr: 0x100006FFC, symSize: 0x44 }
  - { offsetInCU: 0xC661, offset: 0xC661, size: 0x8, addend: 0x0, symName: __ZSt6fill_nIPimiET_S1_T0_RKT1_, symObjAddr: 0x3288, symBinAddr: 0x100006ED8, symSize: 0x48 }
  - { offsetInCU: 0xC669, offset: 0xC669, size: 0x8, addend: 0x0, symName: __ZSt11__make_heapIN9__gnu_cxx17__normal_iteratorIPSt5arrayIiLm4EESt6vectorIS3_SaIS3_EEEENS0_5__ops15_Iter_less_iterEEvT_SB_RT0_, symObjAddr: 0x32D0, symBinAddr: 0x100006F20, symSize: 0xDC }
  - { offsetInCU: 0xC6F9, offset: 0xC6F9, size: 0x8, addend: 0x0, symName: __ZSt10_ConstructIiJEEvPT_DpOT0_, symObjAddr: 0x325C, symBinAddr: 0x100006EAC, symSize: 0x2C }
  - { offsetInCU: 0xC701, offset: 0xC701, size: 0x8, addend: 0x0, symName: __ZSt6fill_nIPimiET_S1_T0_RKT1_, symObjAddr: 0x3288, symBinAddr: 0x100006ED8, symSize: 0x48 }
  - { offsetInCU: 0xC745, offset: 0xC745, size: 0x8, addend: 0x0, symName: __ZSt11__addressofIiEPT_RS0_, symObjAddr: 0x3248, symBinAddr: 0x100006E98, symSize: 0x14 }
  - { offsetInCU: 0xC74D, offset: 0xC74D, size: 0x8, addend: 0x0, symName: __ZSt10_ConstructIiJEEvPT_DpOT0_, symObjAddr: 0x325C, symBinAddr: 0x100006EAC, symSize: 0x2C }
  - { offsetInCU: 0xC808, offset: 0xC808, size: 0x8, addend: 0x0, symName: __ZSt6fill_nIPSt5arrayIiLm4EEmS1_ET_S3_T0_RKT1_, symObjAddr: 0x3200, symBinAddr: 0x100006E50, symSize: 0x48 }
  - { offsetInCU: 0xC810, offset: 0xC810, size: 0x8, addend: 0x0, symName: __ZSt11__addressofIiEPT_RS0_, symObjAddr: 0x3248, symBinAddr: 0x100006E98, symSize: 0x14 }
  - { offsetInCU: 0xC88F, offset: 0xC88F, size: 0x8, addend: 0x0, symName: __ZSt10_ConstructISt5arrayIiLm4EEJEEvPT_DpOT0_, symObjAddr: 0x31BC, symBinAddr: 0x100006E0C, symSize: 0x44 }
  - { offsetInCU: 0xC897, offset: 0xC897, size: 0x8, addend: 0x0, symName: __ZSt6fill_nIPSt5arrayIiLm4EEmS1_ET_S3_T0_RKT1_, symObjAddr: 0x3200, symBinAddr: 0x100006E50, symSize: 0x48 }
  - { offsetInCU: 0xC8DB, offset: 0xC8DB, size: 0x8, addend: 0x0, symName: __ZSt11__addressofISt5arrayIiLm4EEEPT_RS2_, symObjAddr: 0x31A8, symBinAddr: 0x100006DF8, symSize: 0x14 }
  - { offsetInCU: 0xC8E3, offset: 0xC8E3, size: 0x8, addend: 0x0, symName: __ZSt10_ConstructISt5arrayIiLm4EEJEEvPT_DpOT0_, symObjAddr: 0x31BC, symBinAddr: 0x100006E0C, symSize: 0x44 }
  - { offsetInCU: 0xC934, offset: 0xC934, size: 0x8, addend: 0x0, symName: __ZSt7forwardIiEOT_RNSt16remove_referenceIS0_E4typeE, symObjAddr: 0x3194, symBinAddr: 0x100006DE4, symSize: 0x14 }
  - { offsetInCU: 0xC93C, offset: 0xC93C, size: 0x8, addend: 0x0, symName: __ZSt11__addressofISt5arrayIiLm4EEEPT_RS2_, symObjAddr: 0x31A8, symBinAddr: 0x100006DF8, symSize: 0x14 }
  - { offsetInCU: 0xC943, offset: 0xC943, size: 0x8, addend: 0x0, symName: __ZNKSt7greaterISt4pairIiiEEclERKS1_S4_, symObjAddr: 0x3168, symBinAddr: 0x100006DB8, symSize: 0x2C }
  - { offsetInCU: 0xC94B, offset: 0xC94B, size: 0x8, addend: 0x0, symName: __ZSt7forwardIiEOT_RNSt16remove_referenceIS0_E4typeE, symObjAddr: 0x3194, symBinAddr: 0x100006DE4, symSize: 0x14 }
  - { offsetInCU: 0xC9D4, offset: 0xC9D4, size: 0x8, addend: 0x0, symName: __ZNSt6vectorISt4pairIiiESaIS1_EE11_S_relocateEPS1_S4_S4_RS2_, symObjAddr: 0x3134, symBinAddr: 0x100006D84, symSize: 0x34 }
  - { offsetInCU: 0xC9DC, offset: 0xC9DC, size: 0x8, addend: 0x0, symName: __ZNKSt7greaterISt4pairIiiEEclERKS1_S4_, symObjAddr: 0x3168, symBinAddr: 0x100006DB8, symSize: 0x2C }
  - { offsetInCU: 0xCA42, offset: 0xCA42, size: 0x8, addend: 0x0, symName: __ZNSt12_Vector_baseISt4pairIiiESaIS1_EE11_M_allocateEm, symObjAddr: 0x30E4, symBinAddr: 0x100006D34, symSize: 0x50 }
  - { offsetInCU: 0xCA4A, offset: 0xCA4A, size: 0x8, addend: 0x0, symName: __ZNSt6vectorISt4pairIiiESaIS1_EE11_S_relocateEPS1_S4_S4_RS2_, symObjAddr: 0x3134, symBinAddr: 0x100006D84, symSize: 0x34 }
  - { offsetInCU: 0xCAB7, offset: 0xCAB7, size: 0x8, addend: 0x0, symName: __ZNKSt6vectorISt4pairIiiESaIS1_EE12_M_check_lenEmPKc, symObjAddr: 0x3014, symBinAddr: 0x100006C64, symSize: 0xD0 }
  - { offsetInCU: 0xCABF, offset: 0xCABF, size: 0x8, addend: 0x0, symName: __ZNSt12_Vector_baseISt4pairIiiESaIS1_EE11_M_allocateEm, symObjAddr: 0x30E4, symBinAddr: 0x100006D34, symSize: 0x50 }
  - { offsetInCU: 0xCC91, offset: 0xCC91, size: 0x8, addend: 0x0, symName: __ZSt25__unguarded_linear_insertIN9__gnu_cxx17__normal_iteratorIPSt5arrayIiLm4EESt6vectorIS3_SaIS3_EEEENS0_5__ops14_Val_less_iterEEvT_T0_, symObjAddr: 0x2F54, symBinAddr: 0x100006BA4, symSize: 0xC0 }
  - { offsetInCU: 0xCC99, offset: 0xCC99, size: 0x8, addend: 0x0, symName: __ZNKSt6vectorISt4pairIiiESaIS1_EE12_M_check_lenEmPKc, symObjAddr: 0x3014, symBinAddr: 0x100006C64, symSize: 0xD0 }
  - { offsetInCU: 0xCD2C, offset: 0xCD2C, size: 0x8, addend: 0x0, symName: __ZSt13move_backwardIN9__gnu_cxx17__normal_iteratorIPSt5arrayIiLm4EESt6vectorIS3_SaIS3_EEEES8_ET0_T_SA_S9_, symObjAddr: 0x2F0C, symBinAddr: 0x100006B5C, symSize: 0x48 }
  - { offsetInCU: 0xCD34, offset: 0xCD34, size: 0x8, addend: 0x0, symName: __ZSt25__unguarded_linear_insertIN9__gnu_cxx17__normal_iteratorIPSt5arrayIiLm4EESt6vectorIS3_SaIS3_EEEENS0_5__ops14_Val_less_iterEEvT_T0_, symObjAddr: 0x2F54, symBinAddr: 0x100006BA4, symSize: 0xC0 }
  - { offsetInCU: 0xCCE1, offset: 0xCCE1, size: 0x8, addend: 0x0, symName: __ZSt4moveIRSt5arrayIiLm4EEEONSt16remove_referenceIT_E4typeEOS4_, symObjAddr: 0x2EF8, symBinAddr: 0x100006B48, symSize: 0x14 }
  - { offsetInCU: 0xCCE9, offset: 0xCCE9, size: 0x8, addend: 0x0, symName: __ZSt13move_backwardIN9__gnu_cxx17__normal_iteratorIPSt5arrayIiLm4EESt6vectorIS3_SaIS3_EEEES8_ET0_T_SA_S9_, symObjAddr: 0x2F0C, symBinAddr: 0x100006B5C, symSize: 0x48 }
  - { offsetInCU: 0xCCD7, offset: 0xCCD7, size: 0x8, addend: 0x0, symName: __ZNK9__gnu_cxx17__normal_iteratorIPSt5arrayIiLm4EESt6vectorIS2_SaIS2_EEEdeEv, symObjAddr: 0x2EE0, symBinAddr: 0x100006B30, symSize: 0x18 }
  - { offsetInCU: 0xCCDF, offset: 0xCCDF, size: 0x8, addend: 0x0, symName: __ZSt4moveIRSt5arrayIiLm4EEEONSt16remove_referenceIT_E4typeEOS4_, symObjAddr: 0x2EF8, symBinAddr: 0x100006B48, symSize: 0x14 }
  - { offsetInCU: 0xCD06, offset: 0xCD06, size: 0x8, addend: 0x0, symName: __ZNK9__gnu_cxx5__ops15_Iter_less_iterclINS_17__normal_iteratorIPSt5arrayIiLm4EESt6vectorIS5_SaIS5_EEEESA_EEbT_T0_, symObjAddr: 0x2E98, symBinAddr: 0x100006AE8, symSize: 0x48 }
  - { offsetInCU: 0xCD0E, offset: 0xCD0E, size: 0x8, addend: 0x0, symName: __ZNK9__gnu_cxx17__normal_iteratorIPSt5arrayIiLm4EESt6vectorIS2_SaIS2_EEEdeEv, symObjAddr: 0x2EE0, symBinAddr: 0x100006B30, symSize: 0x18 }
  - { offsetInCU: 0xCD75, offset: 0xCD75, size: 0x8, addend: 0x0, symName: __ZN9__gnu_cxx17__normal_iteratorIPSt5arrayIiLm4EESt6vectorIS2_SaIS2_EEEppEv, symObjAddr: 0x2E70, symBinAddr: 0x100006AC0, symSize: 0x28 }
  - { offsetInCU: 0xCD7D, offset: 0xCD7D, size: 0x8, addend: 0x0, symName: __ZNK9__gnu_cxx5__ops15_Iter_less_iterclINS_17__normal_iteratorIPSt5arrayIiLm4EESt6vectorIS5_SaIS5_EEEESA_EEbT_T0_, symObjAddr: 0x2E98, symBinAddr: 0x100006AE8, symSize: 0x48 }
  - { offsetInCU: 0xCE48, offset: 0xCE48, size: 0x8, addend: 0x0, symName: __ZN9__gnu_cxxeqIPSt5arrayIiLm4EESt6vectorIS2_SaIS2_EEEEbRKNS_17__normal_iteratorIT_T0_EESC_, symObjAddr: 0x2E2C, symBinAddr: 0x100006A7C, symSize: 0x44 }
  - { offsetInCU: 0xCE50, offset: 0xCE50, size: 0x8, addend: 0x0, symName: __ZN9__gnu_cxx17__normal_iteratorIPSt5arrayIiLm4EESt6vectorIS2_SaIS2_EEEppEv, symObjAddr: 0x2E70, symBinAddr: 0x100006AC0, symSize: 0x28 }
  - { offsetInCU: 0xCF33, offset: 0xCF33, size: 0x8, addend: 0x0, symName: __ZSt21__unguarded_partitionIN9__gnu_cxx17__normal_iteratorIPSt5arrayIiLm4EESt6vectorIS3_SaIS3_EEEENS0_5__ops15_Iter_less_iterEET_SB_SB_SB_T0_, symObjAddr: 0x2D68, symBinAddr: 0x1000069B8, symSize: 0xC4 }
  - { offsetInCU: 0xCF3B, offset: 0xCF3B, size: 0x8, addend: 0x0, symName: __ZN9__gnu_cxxeqIPSt5arrayIiLm4EESt6vectorIS2_SaIS2_EEEEbRKNS_17__normal_iteratorIT_T0_EESC_, symObjAddr: 0x2E2C, symBinAddr: 0x100006A7C, symSize: 0x44 }
  - { offsetInCU: 0xCFC6, offset: 0xCFC6, size: 0x8, addend: 0x0, symName: __ZSt22__move_median_to_firstIN9__gnu_cxx17__normal_iteratorIPSt5arrayIiLm4EESt6vectorIS3_SaIS3_EEEENS0_5__ops15_Iter_less_iterEEvT_SB_SB_SB_T0_, symObjAddr: 0x2C44, symBinAddr: 0x100006894, symSize: 0x124 }
  - { offsetInCU: 0xCFCE, offset: 0xCFCE, size: 0x8, addend: 0x0, symName: __ZSt21__unguarded_partitionIN9__gnu_cxx17__normal_iteratorIPSt5arrayIiLm4EESt6vectorIS3_SaIS3_EEEENS0_5__ops15_Iter_less_iterEET_SB_SB_SB_T0_, symObjAddr: 0x2D68, symBinAddr: 0x1000069B8, symSize: 0xC4 }
  - { offsetInCU: 0xCF41, offset: 0xCF41, size: 0x8, addend: 0x0, symName: __ZNK9__gnu_cxx17__normal_iteratorIPSt5arrayIiLm4EESt6vectorIS2_SaIS2_EEEmiEl, symObjAddr: 0x2C00, symBinAddr: 0x100006850, symSize: 0x44 }
  - { offsetInCU: 0xCF49, offset: 0xCF49, size: 0x8, addend: 0x0, symName: __ZSt22__move_median_to_firstIN9__gnu_cxx17__normal_iteratorIPSt5arrayIiLm4EESt6vectorIS3_SaIS3_EEEENS0_5__ops15_Iter_less_iterEEvT_SB_SB_SB_T0_, symObjAddr: 0x2C44, symBinAddr: 0x100006894, symSize: 0x124 }
  - { offsetInCU: 0xD08A, offset: 0xD08A, size: 0x8, addend: 0x0, symName: __ZSt11__sort_heapIN9__gnu_cxx17__normal_iteratorIPSt5arrayIiLm4EESt6vectorIS3_SaIS3_EEEENS0_5__ops15_Iter_less_iterEEvT_SB_RT0_, symObjAddr: 0x2B98, symBinAddr: 0x1000067E8, symSize: 0x68 }
  - { offsetInCU: 0xD092, offset: 0xD092, size: 0x8, addend: 0x0, symName: __ZNK9__gnu_cxx17__normal_iteratorIPSt5arrayIiLm4EESt6vectorIS2_SaIS2_EEEmiEl, symObjAddr: 0x2C00, symBinAddr: 0x100006850, symSize: 0x44 }
  - { offsetInCU: 0xD109, offset: 0xD109, size: 0x8, addend: 0x0, symName: __ZSt13__heap_selectIN9__gnu_cxx17__normal_iteratorIPSt5arrayIiLm4EESt6vectorIS3_SaIS3_EEEENS0_5__ops15_Iter_less_iterEEvT_SB_SB_T0_, symObjAddr: 0x2AF4, symBinAddr: 0x100006744, symSize: 0xA4 }
  - { offsetInCU: 0xD111, offset: 0xD111, size: 0x8, addend: 0x0, symName: __ZSt11__sort_heapIN9__gnu_cxx17__normal_iteratorIPSt5arrayIiLm4EESt6vectorIS3_SaIS3_EEEENS0_5__ops15_Iter_less_iterEEvT_SB_RT0_, symObjAddr: 0x2B98, symBinAddr: 0x1000067E8, symSize: 0x68 }
  - { offsetInCU: 0xD0EF, offset: 0xD0EF, size: 0x8, addend: 0x0, symName: __ZSt13__countl_zeroImEiT_, symObjAddr: 0x2AA0, symBinAddr: 0x1000066F0, symSize: 0x54 }
  - { offsetInCU: 0xD0F7, offset: 0xD0F7, size: 0x8, addend: 0x0, symName: __ZSt13__heap_selectIN9__gnu_cxx17__normal_iteratorIPSt5arrayIiLm4EESt6vectorIS3_SaIS3_EEEENS0_5__ops15_Iter_less_iterEEvT_SB_SB_T0_, symObjAddr: 0x2AF4, symBinAddr: 0x100006744, symSize: 0xA4 }
  - { offsetInCU: 0xD16B, offset: 0xD16B, size: 0x8, addend: 0x0, symName: __ZNSt12_Destroy_auxILb1EE9__destroyIPiEEvT_S3_, symObjAddr: 0x2A88, symBinAddr: 0x1000066D8, symSize: 0x18 }
  - { offsetInCU: 0xD173, offset: 0xD173, size: 0x8, addend: 0x0, symName: __ZSt13__countl_zeroImEiT_, symObjAddr: 0x2AA0, symBinAddr: 0x1000066F0, symSize: 0x54 }
  - { offsetInCU: 0xD24A, offset: 0xD24A, size: 0x8, addend: 0x0, symName: __ZSt14__relocate_a_1IiiENSt9enable_ifIXsrSt24__is_bitwise_relocatableIT_vE5valueEPS2_E4typeES4_S4_S4_RSaIT0_E, symObjAddr: 0x2A20, symBinAddr: 0x100006670, symSize: 0x68 }
  - { offsetInCU: 0xD252, offset: 0xD252, size: 0x8, addend: 0x0, symName: __ZNSt12_Destroy_auxILb1EE9__destroyIPiEEvT_S3_, symObjAddr: 0x2A88, symBinAddr: 0x1000066D8, symSize: 0x18 }
  - { offsetInCU: 0xD29B, offset: 0xD29B, size: 0x8, addend: 0x0, symName: __ZSt12__niter_baseIPiET_S1_, symObjAddr: 0x2A0C, symBinAddr: 0x10000665C, symSize: 0x14 }
  - { offsetInCU: 0xD2A3, offset: 0xD2A3, size: 0x8, addend: 0x0, symName: __ZSt14__relocate_a_1IiiENSt9enable_ifIXsrSt24__is_bitwise_relocatableIT_vE5valueEPS2_E4typeES4_S4_S4_RSaIT0_E, symObjAddr: 0x2A20, symBinAddr: 0x100006670, symSize: 0x68 }
  - { offsetInCU: 0xD2B3, offset: 0xD2B3, size: 0x8, addend: 0x0, symName: __ZNSt15__new_allocatorIiE8allocateEmPKv, symObjAddr: 0x2990, symBinAddr: 0x1000065E0, symSize: 0x7C }
  - { offsetInCU: 0xD2BB, offset: 0xD2BB, size: 0x8, addend: 0x0, symName: __ZSt12__niter_baseIPiET_S1_, symObjAddr: 0x2A0C, symBinAddr: 0x10000665C, symSize: 0x14 }
  - { offsetInCU: 0xD339, offset: 0xD339, size: 0x8, addend: 0x0, symName: __ZNSt27__uninitialized_default_n_1ILb1EE18__uninit_default_nIPimEET_S3_T0_, symObjAddr: 0x292C, symBinAddr: 0x10000657C, symSize: 0x64 }
  - { offsetInCU: 0xD341, offset: 0xD341, size: 0x8, addend: 0x0, symName: __ZNSt15__new_allocatorIiE8allocateEmPKv, symObjAddr: 0x2990, symBinAddr: 0x1000065E0, symSize: 0x7C }
  - { offsetInCU: 0xD3E5, offset: 0xD3E5, size: 0x8, addend: 0x0, symName: __ZNSt12_Destroy_auxILb1EE9__destroyIPSt5arrayIiLm4EEEEvT_S5_, symObjAddr: 0x2914, symBinAddr: 0x100006564, symSize: 0x18 }
  - { offsetInCU: 0xD3ED, offset: 0xD3ED, size: 0x8, addend: 0x0, symName: __ZNSt27__uninitialized_default_n_1ILb1EE18__uninit_default_nIPimEET_S3_T0_, symObjAddr: 0x292C, symBinAddr: 0x10000657C, symSize: 0x64 }
  - { offsetInCU: 0xD4F3, offset: 0xD4F3, size: 0x8, addend: 0x0, symName: __ZSt14__relocate_a_1ISt5arrayIiLm4EES1_ENSt9enable_ifIXsrSt24__is_bitwise_relocatableIT_vE5valueEPS4_E4typeES6_S6_S6_RSaIT0_E, symObjAddr: 0x28AC, symBinAddr: 0x1000064FC, symSize: 0x68 }
  - { offsetInCU: 0xD4FB, offset: 0xD4FB, size: 0x8, addend: 0x0, symName: __ZNSt12_Destroy_auxILb1EE9__destroyIPSt5arrayIiLm4EEEEvT_S5_, symObjAddr: 0x2914, symBinAddr: 0x100006564, symSize: 0x18 }
  - { offsetInCU: 0xD532, offset: 0xD532, size: 0x8, addend: 0x0, symName: __ZSt12__niter_baseIPSt5arrayIiLm4EEET_S3_, symObjAddr: 0x2898, symBinAddr: 0x1000064E8, symSize: 0x14 }
  - { offsetInCU: 0xD53A, offset: 0xD53A, size: 0x8, addend: 0x0, symName: __ZSt14__relocate_a_1ISt5arrayIiLm4EES1_ENSt9enable_ifIXsrSt24__is_bitwise_relocatableIT_vE5valueEPS4_E4typeES6_S6_S6_RSaIT0_E, symObjAddr: 0x28AC, symBinAddr: 0x1000064FC, symSize: 0x68 }
  - { offsetInCU: 0xD52D, offset: 0xD52D, size: 0x8, addend: 0x0, symName: __ZNSt15__new_allocatorISt5arrayIiLm4EEE8allocateEmPKv, symObjAddr: 0x281C, symBinAddr: 0x10000646C, symSize: 0x7C }
  - { offsetInCU: 0xD535, offset: 0xD535, size: 0x8, addend: 0x0, symName: __ZSt12__niter_baseIPSt5arrayIiLm4EEET_S3_, symObjAddr: 0x2898, symBinAddr: 0x1000064E8, symSize: 0x14 }
  - { offsetInCU: 0xD5B3, offset: 0xD5B3, size: 0x8, addend: 0x0, symName: __ZNSt27__uninitialized_default_n_1ILb1EE18__uninit_default_nIPSt5arrayIiLm4EEmEET_S5_T0_, symObjAddr: 0x27B8, symBinAddr: 0x100006408, symSize: 0x64 }
  - { offsetInCU: 0xD5BB, offset: 0xD5BB, size: 0x8, addend: 0x0, symName: __ZNSt15__new_allocatorISt5arrayIiLm4EEE8allocateEmPKv, symObjAddr: 0x281C, symBinAddr: 0x10000646C, symSize: 0x7C }
  - { offsetInCU: 0xD674, offset: 0xD674, size: 0x8, addend: 0x0, symName: __ZSt3minImERKT_S2_S2_, symObjAddr: 0x2780, symBinAddr: 0x1000063D0, symSize: 0x38 }
  - { offsetInCU: 0xD67C, offset: 0xD67C, size: 0x8, addend: 0x0, symName: __ZNSt27__uninitialized_default_n_1ILb1EE18__uninit_default_nIPSt5arrayIiLm4EEmEET_S5_T0_, symObjAddr: 0x27B8, symBinAddr: 0x100006408, symSize: 0x64 }
  - { offsetInCU: 0xD6BC, offset: 0xD6BC, size: 0x8, addend: 0x0, symName: __ZNSt12_Destroy_auxILb1EE9__destroyIPSt4pairIiiEEEvT_S5_, symObjAddr: 0x2768, symBinAddr: 0x1000063B8, symSize: 0x18 }
  - { offsetInCU: 0xD6C4, offset: 0xD6C4, size: 0x8, addend: 0x0, symName: __ZSt3minImERKT_S2_S2_, symObjAddr: 0x2780, symBinAddr: 0x1000063D0, symSize: 0x38 }
  - { offsetInCU: 0xD6FF, offset: 0xD6FF, size: 0x8, addend: 0x0, symName: __ZNSt15__new_allocatorISt4pairIiiEE10deallocateEPS1_m, symObjAddr: 0x2738, symBinAddr: 0x100006388, symSize: 0x30 }
  - { offsetInCU: 0xD707, offset: 0xD707, size: 0x8, addend: 0x0, symName: __ZNSt12_Destroy_auxILb1EE9__destroyIPSt4pairIiiEEEvT_S5_, symObjAddr: 0x2768, symBinAddr: 0x1000063B8, symSize: 0x18 }
  - { offsetInCU: 0xD754, offset: 0xD754, size: 0x8, addend: 0x0, symName: __ZNSt4pairIiiEaSEOS0_, symObjAddr: 0x26F0, symBinAddr: 0x100006340, symSize: 0x48 }
  - { offsetInCU: 0xD75C, offset: 0xD75C, size: 0x8, addend: 0x0, symName: __ZNSt15__new_allocatorISt4pairIiiEE10deallocateEPS1_m, symObjAddr: 0x2738, symBinAddr: 0x100006388, symSize: 0x30 }
  - { offsetInCU: 0xD797, offset: 0xD797, size: 0x8, addend: 0x0, symName: __ZN9__gnu_cxx5__ops14_Iter_comp_valISt7greaterISt4pairIiiEEEclINS_17__normal_iteratorIPS4_St6vectorIS4_SaIS4_EEEES4_EEbT_RT0_, symObjAddr: 0x26AC, symBinAddr: 0x1000062FC, symSize: 0x44 }
  - { offsetInCU: 0xD79F, offset: 0xD79F, size: 0x8, addend: 0x0, symName: __ZNSt4pairIiiEaSEOS0_, symObjAddr: 0x26F0, symBinAddr: 0x100006340, symSize: 0x48 }
  - { offsetInCU: 0xD806, offset: 0xD806, size: 0x8, addend: 0x0, symName: __ZNK9__gnu_cxx17__normal_iteratorIPSt4pairIiiESt6vectorIS2_SaIS2_EEEplEl, symObjAddr: 0x266C, symBinAddr: 0x1000062BC, symSize: 0x40 }
  - { offsetInCU: 0xD80E, offset: 0xD80E, size: 0x8, addend: 0x0, symName: __ZN9__gnu_cxx5__ops14_Iter_comp_valISt7greaterISt4pairIiiEEEclINS_17__normal_iteratorIPS4_St6vectorIS4_SaIS4_EEEES4_EEbT_RT0_, symObjAddr: 0x26AC, symBinAddr: 0x1000062FC, symSize: 0x44 }
  - { offsetInCU: 0xD849, offset: 0xD849, size: 0x8, addend: 0x0, symName: __ZNK9__gnu_cxx17__normal_iteratorIPSt4pairIiiESt6vectorIS2_SaIS2_EEE4baseEv, symObjAddr: 0x2658, symBinAddr: 0x1000062A8, symSize: 0x14 }
  - { offsetInCU: 0xD851, offset: 0xD851, size: 0x8, addend: 0x0, symName: __ZNK9__gnu_cxx17__normal_iteratorIPSt4pairIiiESt6vectorIS2_SaIS2_EEEplEl, symObjAddr: 0x266C, symBinAddr: 0x1000062BC, symSize: 0x40 }
  - { offsetInCU: 0xD878, offset: 0xD878, size: 0x8, addend: 0x0, symName: __ZNSt6vectorISt4pairIiiESaIS1_EE4backEv, symObjAddr: 0x2620, symBinAddr: 0x100006270, symSize: 0x38 }
  - { offsetInCU: 0xD880, offset: 0xD880, size: 0x8, addend: 0x0, symName: __ZNK9__gnu_cxx17__normal_iteratorIPSt4pairIiiESt6vectorIS2_SaIS2_EEE4baseEv, symObjAddr: 0x2658, symBinAddr: 0x1000062A8, symSize: 0x14 }
  - { offsetInCU: 0xD8A7, offset: 0xD8A7, size: 0x8, addend: 0x0, symName: __ZNSt6vectorISt4pairIiiESaIS1_EE17_M_realloc_insertIJS1_EEEvN9__gnu_cxx17__normal_iteratorIPS1_S3_EEDpOT_, symObjAddr: 0x2460, symBinAddr: 0x1000060B0, symSize: 0x1C0 }
  - { offsetInCU: 0xD8AF, offset: 0xD8AF, size: 0x8, addend: 0x0, symName: __ZNSt6vectorISt4pairIiiESaIS1_EE4backEv, symObjAddr: 0x2620, symBinAddr: 0x100006270, symSize: 0x38 }
  - { offsetInCU: 0xDABE, offset: 0xDABE, size: 0x8, addend: 0x0, symName: __ZSt7forwardISt4pairIiiEEOT_RNSt16remove_referenceIS2_E4typeE, symObjAddr: 0x244C, symBinAddr: 0x10000609C, symSize: 0x14 }
  - { offsetInCU: 0xDAC6, offset: 0xDAC6, size: 0x8, addend: 0x0, symName: __ZNSt6vectorISt4pairIiiESaIS1_EE17_M_realloc_insertIJS1_EEEvN9__gnu_cxx17__normal_iteratorIPS1_S3_EEDpOT_, symObjAddr: 0x2460, symBinAddr: 0x1000060B0, symSize: 0x1C0 }
  - { offsetInCU: 0xDAB2, offset: 0xDAB2, size: 0x8, addend: 0x0, symName: __ZNK9__gnu_cxx17__normal_iteratorIPKSt4pairIiiESt6vectorIS2_SaIS2_EEE4baseEv, symObjAddr: 0x2438, symBinAddr: 0x100006088, symSize: 0x14 }
  - { offsetInCU: 0xDABA, offset: 0xDABA, size: 0x8, addend: 0x0, symName: __ZSt7forwardISt4pairIiiEEOT_RNSt16remove_referenceIS2_E4typeE, symObjAddr: 0x244C, symBinAddr: 0x10000609C, symSize: 0x14 }
  - { offsetInCU: 0xDB58, offset: 0xDB58, size: 0x8, addend: 0x0, symName: __ZN9__gnu_cxx17__normal_iteratorIPKSt4pairIiiESt6vectorIS2_SaIS2_EEEC1ERKS4_, symObjAddr: 0x2410, symBinAddr: 0x100006060, symSize: 0x28 }
  - { offsetInCU: 0xDB60, offset: 0xDB60, size: 0x8, addend: 0x0, symName: __ZNK9__gnu_cxx17__normal_iteratorIPKSt4pairIiiESt6vectorIS2_SaIS2_EEE4baseEv, symObjAddr: 0x2438, symBinAddr: 0x100006088, symSize: 0x14 }
  - { offsetInCU: 0xDC68, offset: 0xDC68, size: 0x8, addend: 0x0, symName: __ZSt26__unguarded_insertion_sortIN9__gnu_cxx17__normal_iteratorIPSt5arrayIiLm4EESt6vectorIS3_SaIS3_EEEENS0_5__ops15_Iter_less_iterEEvT_SB_T0_, symObjAddr: 0x23A0, symBinAddr: 0x100005FF0, symSize: 0x70 }
  - { offsetInCU: 0xDC70, offset: 0xDC70, size: 0x8, addend: 0x0, symName: __ZN9__gnu_cxx17__normal_iteratorIPKSt4pairIiiESt6vectorIS2_SaIS2_EEEC1ERKS4_, symObjAddr: 0x2410, symBinAddr: 0x100006060, symSize: 0x28 }
  - { offsetInCU: 0xDCF3, offset: 0xDCF3, size: 0x8, addend: 0x0, symName: __ZSt16__insertion_sortIN9__gnu_cxx17__normal_iteratorIPSt5arrayIiLm4EESt6vectorIS3_SaIS3_EEEENS0_5__ops15_Iter_less_iterEEvT_SB_T0_, symObjAddr: 0x2290, symBinAddr: 0x100005EE0, symSize: 0x110 }
  - { offsetInCU: 0xDCFB, offset: 0xDCFB, size: 0x8, addend: 0x0, symName: __ZSt26__unguarded_insertion_sortIN9__gnu_cxx17__normal_iteratorIPSt5arrayIiLm4EESt6vectorIS3_SaIS3_EEEENS0_5__ops15_Iter_less_iterEEvT_SB_T0_, symObjAddr: 0x23A0, symBinAddr: 0x100005FF0, symSize: 0x70 }
  - { offsetInCU: 0xDCA9, offset: 0xDCA9, size: 0x8, addend: 0x0, symName: __ZNK9__gnu_cxx17__normal_iteratorIPSt5arrayIiLm4EESt6vectorIS2_SaIS2_EEEplEl, symObjAddr: 0x2250, symBinAddr: 0x100005EA0, symSize: 0x40 }
  - { offsetInCU: 0xDCB1, offset: 0xDCB1, size: 0x8, addend: 0x0, symName: __ZSt16__insertion_sortIN9__gnu_cxx17__normal_iteratorIPSt5arrayIiLm4EESt6vectorIS3_SaIS3_EEEENS0_5__ops15_Iter_less_iterEEvT_SB_T0_, symObjAddr: 0x2290, symBinAddr: 0x100005EE0, symSize: 0x110 }
  - { offsetInCU: 0xDE17, offset: 0xDE17, size: 0x8, addend: 0x0, symName: __ZSt27__unguarded_partition_pivotIN9__gnu_cxx17__normal_iteratorIPSt5arrayIiLm4EESt6vectorIS3_SaIS3_EEEENS0_5__ops15_Iter_less_iterEET_SB_SB_T0_, symObjAddr: 0x21AC, symBinAddr: 0x100005DFC, symSize: 0xA4 }
  - { offsetInCU: 0xDE1F, offset: 0xDE1F, size: 0x8, addend: 0x0, symName: __ZNK9__gnu_cxx17__normal_iteratorIPSt5arrayIiLm4EESt6vectorIS2_SaIS2_EEEplEl, symObjAddr: 0x2250, symBinAddr: 0x100005EA0, symSize: 0x40 }
  - { offsetInCU: 0xDE8F, offset: 0xDE8F, size: 0x8, addend: 0x0, symName: __ZSt14__partial_sortIN9__gnu_cxx17__normal_iteratorIPSt5arrayIiLm4EESt6vectorIS3_SaIS3_EEEENS0_5__ops15_Iter_less_iterEEvT_SB_SB_T0_, symObjAddr: 0x2160, symBinAddr: 0x100005DB0, symSize: 0x4C }
  - { offsetInCU: 0xDE97, offset: 0xDE97, size: 0x8, addend: 0x0, symName: __ZSt27__unguarded_partition_pivotIN9__gnu_cxx17__normal_iteratorIPSt5arrayIiLm4EESt6vectorIS3_SaIS3_EEEENS0_5__ops15_Iter_less_iterEET_SB_SB_T0_, symObjAddr: 0x21AC, symBinAddr: 0x100005DFC, symSize: 0xA4 }
  - { offsetInCU: 0xDE4A, offset: 0xDE4A, size: 0x8, addend: 0x0, symName: __ZSt11__bit_widthImEiT_, symObjAddr: 0x2130, symBinAddr: 0x100005D80, symSize: 0x30 }
  - { offsetInCU: 0xDE52, offset: 0xDE52, size: 0x8, addend: 0x0, symName: __ZSt14__partial_sortIN9__gnu_cxx17__normal_iteratorIPSt5arrayIiLm4EESt6vectorIS3_SaIS3_EEEENS0_5__ops15_Iter_less_iterEEvT_SB_SB_T0_, symObjAddr: 0x2160, symBinAddr: 0x100005DB0, symSize: 0x4C }
  - { offsetInCU: 0xDE6E, offset: 0xDE6E, size: 0x8, addend: 0x0, symName: __ZNK9__gnu_cxx17__normal_iteratorIPSt5arrayIiLm4EESt6vectorIS2_SaIS2_EEE4baseEv, symObjAddr: 0x211C, symBinAddr: 0x100005D6C, symSize: 0x14 }
  - { offsetInCU: 0xDE76, offset: 0xDE76, size: 0x8, addend: 0x0, symName: __ZSt11__bit_widthImEiT_, symObjAddr: 0x2130, symBinAddr: 0x100005D80, symSize: 0x30 }
  - { offsetInCU: 0xDEC4, offset: 0xDEC4, size: 0x8, addend: 0x0, symName: __ZSt8_DestroyIPiEvT_S1_, symObjAddr: 0x20F4, symBinAddr: 0x100005D44, symSize: 0x28 }
  - { offsetInCU: 0xDECC, offset: 0xDECC, size: 0x8, addend: 0x0, symName: __ZNK9__gnu_cxx17__normal_iteratorIPSt5arrayIiLm4EESt6vectorIS2_SaIS2_EEE4baseEv, symObjAddr: 0x211C, symBinAddr: 0x100005D6C, symSize: 0x14 }
  - { offsetInCU: 0xDF54, offset: 0xDF54, size: 0x8, addend: 0x0, symName: __ZSt12__relocate_aIPiS0_SaIiEET0_T_S3_S2_RT1_, symObjAddr: 0x2098, symBinAddr: 0x100005CE8, symSize: 0x5C }
  - { offsetInCU: 0xDF5C, offset: 0xDF5C, size: 0x8, addend: 0x0, symName: __ZSt8_DestroyIPiEvT_S1_, symObjAddr: 0x20F4, symBinAddr: 0x100005D44, symSize: 0x28 }
  - { offsetInCU: 0xE026, offset: 0xE026, size: 0x8, addend: 0x0, symName: __ZSt25__uninitialized_default_nIPimET_S1_T0_, symObjAddr: 0x206C, symBinAddr: 0x100005CBC, symSize: 0x2C }
  - { offsetInCU: 0xE02E, offset: 0xE02E, size: 0x8, addend: 0x0, symName: __ZSt12__relocate_aIPiS0_SaIiEET0_T_S3_S2_RT1_, symObjAddr: 0x2098, symBinAddr: 0x100005CE8, symSize: 0x5C }
  - { offsetInCU: 0xE042, offset: 0xE042, size: 0x8, addend: 0x0, symName: __ZNKSt12_Vector_baseIiSaIiEE19_M_get_Tp_allocatorEv, symObjAddr: 0x2058, symBinAddr: 0x100005CA8, symSize: 0x14 }
  - { offsetInCU: 0xE04A, offset: 0xE04A, size: 0x8, addend: 0x0, symName: __ZSt25__uninitialized_default_nIPimET_S1_T0_, symObjAddr: 0x206C, symBinAddr: 0x100005CBC, symSize: 0x2C }
  - { offsetInCU: 0xE071, offset: 0xE071, size: 0x8, addend: 0x0, symName: __ZNSt6vectorIiSaIiEE11_S_max_sizeERKS0_, symObjAddr: 0x2004, symBinAddr: 0x100005C54, symSize: 0x54 }
  - { offsetInCU: 0xE079, offset: 0xE079, size: 0x8, addend: 0x0, symName: __ZNKSt12_Vector_baseIiSaIiEE19_M_get_Tp_allocatorEv, symObjAddr: 0x2058, symBinAddr: 0x100005CA8, symSize: 0x14 }
  - { offsetInCU: 0xE181, offset: 0xE181, size: 0x8, addend: 0x0, symName: __ZSt8_DestroyIPSt5arrayIiLm4EEEvT_S3_, symObjAddr: 0x1FDC, symBinAddr: 0x100005C2C, symSize: 0x28 }
  - { offsetInCU: 0xE189, offset: 0xE189, size: 0x8, addend: 0x0, symName: __ZNSt6vectorIiSaIiEE11_S_max_sizeERKS0_, symObjAddr: 0x2004, symBinAddr: 0x100005C54, symSize: 0x54 }
  - { offsetInCU: 0xE232, offset: 0xE232, size: 0x8, addend: 0x0, symName: __ZSt12__relocate_aIPSt5arrayIiLm4EES2_SaIS1_EET0_T_S5_S4_RT1_, symObjAddr: 0x1F80, symBinAddr: 0x100005BD0, symSize: 0x5C }
  - { offsetInCU: 0xE23A, offset: 0xE23A, size: 0x8, addend: 0x0, symName: __ZSt8_DestroyIPSt5arrayIiLm4EEEvT_S3_, symObjAddr: 0x1FDC, symBinAddr: 0x100005C2C, symSize: 0x28 }
  - { offsetInCU: 0xE293, offset: 0xE293, size: 0x8, addend: 0x0, symName: __ZSt3maxImERKT_S2_S2_, symObjAddr: 0x1F48, symBinAddr: 0x100005B98, symSize: 0x38 }
  - { offsetInCU: 0xE29B, offset: 0xE29B, size: 0x8, addend: 0x0, symName: __ZSt12__relocate_aIPSt5arrayIiLm4EES2_SaIS1_EET0_T_S5_S4_RT1_, symObjAddr: 0x1F80, symBinAddr: 0x100005BD0, symSize: 0x5C }
  - { offsetInCU: 0xE343, offset: 0xE343, size: 0x8, addend: 0x0, symName: __ZSt25__uninitialized_default_nIPSt5arrayIiLm4EEmET_S3_T0_, symObjAddr: 0x1F1C, symBinAddr: 0x100005B6C, symSize: 0x2C }
  - { offsetInCU: 0xE34B, offset: 0xE34B, size: 0x8, addend: 0x0, symName: __ZSt3maxImERKT_S2_S2_, symObjAddr: 0x1F48, symBinAddr: 0x100005B98, symSize: 0x38 }
  - { offsetInCU: 0xE342, offset: 0xE342, size: 0x8, addend: 0x0, symName: __ZNKSt12_Vector_baseISt5arrayIiLm4EESaIS1_EE19_M_get_Tp_allocatorEv, symObjAddr: 0x1F08, symBinAddr: 0x100005B58, symSize: 0x14 }
  - { offsetInCU: 0xE34A, offset: 0xE34A, size: 0x8, addend: 0x0, symName: __ZSt25__uninitialized_default_nIPSt5arrayIiLm4EEmET_S3_T0_, symObjAddr: 0x1F1C, symBinAddr: 0x100005B6C, symSize: 0x2C }
  - { offsetInCU: 0xE371, offset: 0xE371, size: 0x8, addend: 0x0, symName: __ZNSt6vectorISt5arrayIiLm4EESaIS1_EE11_S_max_sizeERKS2_, symObjAddr: 0x1EB4, symBinAddr: 0x100005B04, symSize: 0x54 }
  - { offsetInCU: 0xE379, offset: 0xE379, size: 0x8, addend: 0x0, symName: __ZNKSt12_Vector_baseISt5arrayIiLm4EESaIS1_EE19_M_get_Tp_allocatorEv, symObjAddr: 0x1F08, symBinAddr: 0x100005B58, symSize: 0x14 }
  - { offsetInCU: 0xE47E, offset: 0xE47E, size: 0x8, addend: 0x0, symName: __ZSt8_DestroyIPSt4pairIiiEEvT_S3_, symObjAddr: 0x1E8C, symBinAddr: 0x100005ADC, symSize: 0x28 }
  - { offsetInCU: 0xE486, offset: 0xE486, size: 0x8, addend: 0x0, symName: __ZNSt6vectorISt5arrayIiLm4EESaIS1_EE11_S_max_sizeERKS2_, symObjAddr: 0x1EB4, symBinAddr: 0x100005B04, symSize: 0x54 }
  - { offsetInCU: 0xE4E9, offset: 0xE4E9, size: 0x8, addend: 0x0, symName: __ZNSt15__new_allocatorIiE10deallocateEPim, symObjAddr: 0x1E5C, symBinAddr: 0x100005AAC, symSize: 0x30 }
  - { offsetInCU: 0xE4F1, offset: 0xE4F1, size: 0x8, addend: 0x0, symName: __ZSt8_DestroyIPSt4pairIiiEEvT_S3_, symObjAddr: 0x1E8C, symBinAddr: 0x100005ADC, symSize: 0x28 }
  - { offsetInCU: 0xE53E, offset: 0xE53E, size: 0x8, addend: 0x0, symName: __ZNSt15__new_allocatorISt5arrayIiLm4EEE10deallocateEPS1_m, symObjAddr: 0x1E2C, symBinAddr: 0x100005A7C, symSize: 0x30 }
  - { offsetInCU: 0xE546, offset: 0xE546, size: 0x8, addend: 0x0, symName: __ZNSt15__new_allocatorIiE10deallocateEPim, symObjAddr: 0x1E5C, symBinAddr: 0x100005AAC, symSize: 0x30 }
  - { offsetInCU: 0xE6F4, offset: 0xE6F4, size: 0x8, addend: 0x0, symName: __ZSt11__push_heapIN9__gnu_cxx17__normal_iteratorIPSt4pairIiiESt6vectorIS3_SaIS3_EEEElS3_NS0_5__ops14_Iter_comp_valISt7greaterIS3_EEEEvT_T0_SF_T1_RT2_, symObjAddr: 0x1CFC, symBinAddr: 0x10000594C, symSize: 0x130 }
  - { offsetInCU: 0xE6FC, offset: 0xE6FC, size: 0x8, addend: 0x0, symName: __ZNSt15__new_allocatorISt5arrayIiLm4EEE10deallocateEPS1_m, symObjAddr: 0x1E2C, symBinAddr: 0x100005A7C, symSize: 0x30 }
  - { offsetInCU: 0xE71A, offset: 0xE71A, size: 0x8, addend: 0x0, symName: __ZN9__gnu_cxxmiIPSt4pairIiiESt6vectorIS2_SaIS2_EEEENS_17__normal_iteratorIT_T0_E15difference_typeERKSA_SD_, symObjAddr: 0x1CBC, symBinAddr: 0x10000590C, symSize: 0x40 }
  - { offsetInCU: 0xE722, offset: 0xE722, size: 0x8, addend: 0x0, symName: __ZSt11__push_heapIN9__gnu_cxx17__normal_iteratorIPSt4pairIiiESt6vectorIS3_SaIS3_EEEElS3_NS0_5__ops14_Iter_comp_valISt7greaterIS3_EEEEvT_T0_SF_T1_RT2_, symObjAddr: 0x1CFC, symBinAddr: 0x10000594C, symSize: 0x130 }
  - { offsetInCU: 0xE6DD, offset: 0xE6DD, size: 0x8, addend: 0x0, symName: __ZNK9__gnu_cxx17__normal_iteratorIPSt4pairIiiESt6vectorIS2_SaIS2_EEEdeEv, symObjAddr: 0x1CA4, symBinAddr: 0x1000058F4, symSize: 0x18 }
  - { offsetInCU: 0xE6E5, offset: 0xE6E5, size: 0x8, addend: 0x0, symName: __ZN9__gnu_cxxmiIPSt4pairIiiESt6vectorIS2_SaIS2_EEEENS_17__normal_iteratorIT_T0_E15difference_typeERKSA_SD_, symObjAddr: 0x1CBC, symBinAddr: 0x10000590C, symSize: 0x40 }
  - { offsetInCU: 0xE70C, offset: 0xE70C, size: 0x8, addend: 0x0, symName: __ZNK9__gnu_cxx17__normal_iteratorIPSt4pairIiiESt6vectorIS2_SaIS2_EEEmiEl, symObjAddr: 0x1C60, symBinAddr: 0x1000058B0, symSize: 0x44 }
  - { offsetInCU: 0xE714, offset: 0xE714, size: 0x8, addend: 0x0, symName: __ZNK9__gnu_cxx17__normal_iteratorIPSt4pairIiiESt6vectorIS2_SaIS2_EEEdeEv, symObjAddr: 0x1CA4, symBinAddr: 0x1000058F4, symSize: 0x18 }
  - { offsetInCU: 0xE7BB, offset: 0xE7BB, size: 0x8, addend: 0x0, symName: __ZN9__gnu_cxx5__ops14_Iter_comp_valISt7greaterISt4pairIiiEEEC1ES5_, symObjAddr: 0x1C3C, symBinAddr: 0x10000588C, symSize: 0x24 }
  - { offsetInCU: 0xE7C3, offset: 0xE7C3, size: 0x8, addend: 0x0, symName: __ZNK9__gnu_cxx17__normal_iteratorIPSt4pairIiiESt6vectorIS2_SaIS2_EEEmiEl, symObjAddr: 0x1C60, symBinAddr: 0x1000058B0, symSize: 0x44 }
  - { offsetInCU: 0xE828, offset: 0xE828, size: 0x8, addend: 0x0, symName: __ZSt4moveIRSt7greaterISt4pairIiiEEEONSt16remove_referenceIT_E4typeEOS6_, symObjAddr: 0x1C28, symBinAddr: 0x100005878, symSize: 0x14 }
  - { offsetInCU: 0xE830, offset: 0xE830, size: 0x8, addend: 0x0, symName: __ZN9__gnu_cxx5__ops14_Iter_comp_valISt7greaterISt4pairIiiEEEC1ES5_, symObjAddr: 0x1C3C, symBinAddr: 0x10000588C, symSize: 0x24 }
  - { offsetInCU: 0xE886, offset: 0xE886, size: 0x8, addend: 0x0, symName: __ZN9__gnu_cxx17__normal_iteratorIPSt4pairIiiESt6vectorIS2_SaIS2_EEEC1ERKS3_, symObjAddr: 0x1C00, symBinAddr: 0x100005850, symSize: 0x28 }
  - { offsetInCU: 0xE88E, offset: 0xE88E, size: 0x8, addend: 0x0, symName: __ZSt4moveIRSt7greaterISt4pairIiiEEEONSt16remove_referenceIT_E4typeEOS6_, symObjAddr: 0x1C28, symBinAddr: 0x100005878, symSize: 0x14 }
  - { offsetInCU: 0xE874, offset: 0xE874, size: 0x8, addend: 0x0, symName: __ZNSt6vectorISt4pairIiiESaIS1_EE12emplace_backIJS1_EEERS1_DpOT_, symObjAddr: 0x1B18, symBinAddr: 0x100005768, symSize: 0xE8 }
  - { offsetInCU: 0xE87C, offset: 0xE87C, size: 0x8, addend: 0x0, symName: __ZN9__gnu_cxx17__normal_iteratorIPSt4pairIiiESt6vectorIS2_SaIS2_EEEC1ERKS3_, symObjAddr: 0x1C00, symBinAddr: 0x100005850, symSize: 0x28 }
  - { offsetInCU: 0xE93F, offset: 0xE93F, size: 0x8, addend: 0x0, symName: __ZNK9__gnu_cxx17__normal_iteratorIPKSt4pairIiiESt6vectorIS2_SaIS2_EEEdeEv, symObjAddr: 0x1B00, symBinAddr: 0x100005750, symSize: 0x18 }
  - { offsetInCU: 0xE947, offset: 0xE947, size: 0x8, addend: 0x0, symName: __ZNSt6vectorISt4pairIiiESaIS1_EE12emplace_backIJS1_EEERS1_DpOT_, symObjAddr: 0x1B18, symBinAddr: 0x100005768, symSize: 0xE8 }
  - { offsetInCU: 0xEA17, offset: 0xEA17, size: 0x8, addend: 0x0, symName: __ZN9__gnu_cxxeqIPKSt4pairIiiESt6vectorIS2_SaIS2_EEEEbRKNS_17__normal_iteratorIT_T0_EESD_, symObjAddr: 0x1ABC, symBinAddr: 0x10000570C, symSize: 0x44 }
  - { offsetInCU: 0xEA1F, offset: 0xEA1F, size: 0x8, addend: 0x0, symName: __ZNK9__gnu_cxx17__normal_iteratorIPKSt4pairIiiESt6vectorIS2_SaIS2_EEEdeEv, symObjAddr: 0x1B00, symBinAddr: 0x100005750, symSize: 0x18 }
  - { offsetInCU: 0xE9E5, offset: 0xE9E5, size: 0x8, addend: 0x0, symName: __ZNKSt6vectorISt4pairIiiESaIS1_EE3endEv, symObjAddr: 0x1A94, symBinAddr: 0x1000056E4, symSize: 0x28 }
  - { offsetInCU: 0xE9ED, offset: 0xE9ED, size: 0x8, addend: 0x0, symName: __ZN9__gnu_cxxeqIPKSt4pairIiiESt6vectorIS2_SaIS2_EEEEbRKNS_17__normal_iteratorIT_T0_EESD_, symObjAddr: 0x1ABC, symBinAddr: 0x10000570C, symSize: 0x44 }
  - { offsetInCU: 0xEA14, offset: 0xEA14, size: 0x8, addend: 0x0, symName: __ZNKSt6vectorISt4pairIiiESaIS1_EE5beginEv, symObjAddr: 0x1A70, symBinAddr: 0x1000056C0, symSize: 0x24 }
  - { offsetInCU: 0xEA1C, offset: 0xEA1C, size: 0x8, addend: 0x0, symName: __ZNKSt6vectorISt4pairIiiESaIS1_EE3endEv, symObjAddr: 0x1A94, symBinAddr: 0x1000056E4, symSize: 0x28 }
  - { offsetInCU: 0xEB5E, offset: 0xEB5E, size: 0x8, addend: 0x0, symName: __ZSt22__final_insertion_sortIN9__gnu_cxx17__normal_iteratorIPSt5arrayIiLm4EESt6vectorIS3_SaIS3_EEEENS0_5__ops15_Iter_less_iterEEvT_SB_T0_, symObjAddr: 0x19D4, symBinAddr: 0x100005624, symSize: 0x9C }
  - { offsetInCU: 0xEB66, offset: 0xEB66, size: 0x8, addend: 0x0, symName: __ZNKSt6vectorISt4pairIiiESaIS1_EE5beginEv, symObjAddr: 0x1A70, symBinAddr: 0x1000056C0, symSize: 0x24 }
  - { offsetInCU: 0xEBD9, offset: 0xEBD9, size: 0x8, addend: 0x0, symName: __ZSt16__introsort_loopIN9__gnu_cxx17__normal_iteratorIPSt5arrayIiLm4EESt6vectorIS3_SaIS3_EEEElNS0_5__ops15_Iter_less_iterEEvT_SB_T0_T1_, symObjAddr: 0x191C, symBinAddr: 0x10000556C, symSize: 0xB8 }
  - { offsetInCU: 0xEBE1, offset: 0xEBE1, size: 0x8, addend: 0x0, symName: __ZSt22__final_insertion_sortIN9__gnu_cxx17__normal_iteratorIPSt5arrayIiLm4EESt6vectorIS3_SaIS3_EEEENS0_5__ops15_Iter_less_iterEEvT_SB_T0_, symObjAddr: 0x19D4, symBinAddr: 0x100005624, symSize: 0x9C }
  - { offsetInCU: 0xEBA2, offset: 0xEBA2, size: 0x8, addend: 0x0, symName: __ZSt4__lgIlET_S0_, symObjAddr: 0x18F8, symBinAddr: 0x100005548, symSize: 0x24 }
  - { offsetInCU: 0xEBAA, offset: 0xEBAA, size: 0x8, addend: 0x0, symName: __ZSt16__introsort_loopIN9__gnu_cxx17__normal_iteratorIPSt5arrayIiLm4EESt6vectorIS3_SaIS3_EEEElNS0_5__ops15_Iter_less_iterEEvT_SB_T0_T1_, symObjAddr: 0x191C, symBinAddr: 0x10000556C, symSize: 0xB8 }
  - { offsetInCU: 0xEC7E, offset: 0xEC7E, size: 0x8, addend: 0x0, symName: __ZN9__gnu_cxxmiIPSt5arrayIiLm4EESt6vectorIS2_SaIS2_EEEENS_17__normal_iteratorIT_T0_E15difference_typeERKSA_SD_, symObjAddr: 0x18B8, symBinAddr: 0x100005508, symSize: 0x40 }
  - { offsetInCU: 0xEC86, offset: 0xEC86, size: 0x8, addend: 0x0, symName: __ZSt4__lgIlET_S0_, symObjAddr: 0x18F8, symBinAddr: 0x100005548, symSize: 0x24 }
  - { offsetInCU: 0xECD9, offset: 0xECD9, size: 0x8, addend: 0x0, symName: __ZN9__gnu_cxxneIPSt5arrayIiLm4EESt6vectorIS2_SaIS2_EEEEbRKNS_17__normal_iteratorIT_T0_EESC_, symObjAddr: 0x1874, symBinAddr: 0x1000054C4, symSize: 0x44 }
  - { offsetInCU: 0xECE1, offset: 0xECE1, size: 0x8, addend: 0x0, symName: __ZN9__gnu_cxxmiIPSt5arrayIiLm4EESt6vectorIS2_SaIS2_EEEENS_17__normal_iteratorIT_T0_E15difference_typeERKSA_SD_, symObjAddr: 0x18B8, symBinAddr: 0x100005508, symSize: 0x40 }
  - { offsetInCU: 0xECF7, offset: 0xECF7, size: 0x8, addend: 0x0, symName: __ZNSt6vectorIiSaIiEE11_S_relocateEPiS2_S2_RS0_, symObjAddr: 0x1840, symBinAddr: 0x100005490, symSize: 0x34 }
  - { offsetInCU: 0xECFF, offset: 0xECFF, size: 0x8, addend: 0x0, symName: __ZN9__gnu_cxxneIPSt5arrayIiLm4EESt6vectorIS2_SaIS2_EEEEbRKNS_17__normal_iteratorIT_T0_EESC_, symObjAddr: 0x1874, symBinAddr: 0x1000054C4, symSize: 0x44 }
  - { offsetInCU: 0xED65, offset: 0xED65, size: 0x8, addend: 0x0, symName: __ZNSt12_Vector_baseIiSaIiEE11_M_allocateEm, symObjAddr: 0x17F0, symBinAddr: 0x100005440, symSize: 0x50 }
  - { offsetInCU: 0xED6D, offset: 0xED6D, size: 0x8, addend: 0x0, symName: __ZNSt6vectorIiSaIiEE11_S_relocateEPiS2_S2_RS0_, symObjAddr: 0x1840, symBinAddr: 0x100005490, symSize: 0x34 }
  - { offsetInCU: 0xEDDA, offset: 0xEDDA, size: 0x8, addend: 0x0, symName: __ZNKSt6vectorIiSaIiEE12_M_check_lenEmPKc, symObjAddr: 0x1720, symBinAddr: 0x100005370, symSize: 0xD0 }
  - { offsetInCU: 0xEDE2, offset: 0xEDE2, size: 0x8, addend: 0x0, symName: __ZNSt12_Vector_baseIiSaIiEE11_M_allocateEm, symObjAddr: 0x17F0, symBinAddr: 0x100005440, symSize: 0x50 }
  - { offsetInCU: 0xEEBC, offset: 0xEEBC, size: 0x8, addend: 0x0, symName: __ZSt27__uninitialized_default_n_aIPimiET_S1_T0_RSaIT1_E, symObjAddr: 0x16F8, symBinAddr: 0x100005348, symSize: 0x28 }
  - { offsetInCU: 0xEEC4, offset: 0xEEC4, size: 0x8, addend: 0x0, symName: __ZNKSt6vectorIiSaIiEE12_M_check_lenEmPKc, symObjAddr: 0x1720, symBinAddr: 0x100005370, symSize: 0xD0 }
  - { offsetInCU: 0xEECB, offset: 0xEECB, size: 0x8, addend: 0x0, symName: __ZNSt12_Vector_baseIiSaIiEE19_M_get_Tp_allocatorEv, symObjAddr: 0x16E4, symBinAddr: 0x100005334, symSize: 0x14 }
  - { offsetInCU: 0xEED3, offset: 0xEED3, size: 0x8, addend: 0x0, symName: __ZSt27__uninitialized_default_n_aIPimiET_S1_T0_RSaIT1_E, symObjAddr: 0x16F8, symBinAddr: 0x100005348, symSize: 0x28 }
  - { offsetInCU: 0xEEFA, offset: 0xEEFA, size: 0x8, addend: 0x0, symName: __ZNKSt6vectorIiSaIiEE8max_sizeEv, symObjAddr: 0x16C4, symBinAddr: 0x100005314, symSize: 0x20 }
  - { offsetInCU: 0xEF02, offset: 0xEF02, size: 0x8, addend: 0x0, symName: __ZNSt12_Vector_baseIiSaIiEE19_M_get_Tp_allocatorEv, symObjAddr: 0x16E4, symBinAddr: 0x100005334, symSize: 0x14 }
  - { offsetInCU: 0xEF7E, offset: 0xEF7E, size: 0x8, addend: 0x0, symName: __ZNSt6vectorISt5arrayIiLm4EESaIS1_EE11_S_relocateEPS1_S4_S4_RS2_, symObjAddr: 0x1690, symBinAddr: 0x1000052E0, symSize: 0x34 }
  - { offsetInCU: 0xEF86, offset: 0xEF86, size: 0x8, addend: 0x0, symName: __ZNKSt6vectorIiSaIiEE8max_sizeEv, symObjAddr: 0x16C4, symBinAddr: 0x100005314, symSize: 0x20 }
  - { offsetInCU: 0xEFEC, offset: 0xEFEC, size: 0x8, addend: 0x0, symName: __ZNSt12_Vector_baseISt5arrayIiLm4EESaIS1_EE11_M_allocateEm, symObjAddr: 0x1640, symBinAddr: 0x100005290, symSize: 0x50 }
  - { offsetInCU: 0xEFF4, offset: 0xEFF4, size: 0x8, addend: 0x0, symName: __ZNSt6vectorISt5arrayIiLm4EESaIS1_EE11_S_relocateEPS1_S4_S4_RS2_, symObjAddr: 0x1690, symBinAddr: 0x1000052E0, symSize: 0x34 }
  - { offsetInCU: 0xF061, offset: 0xF061, size: 0x8, addend: 0x0, symName: __ZNKSt6vectorISt5arrayIiLm4EESaIS1_EE12_M_check_lenEmPKc, symObjAddr: 0x1570, symBinAddr: 0x1000051C0, symSize: 0xD0 }
  - { offsetInCU: 0xF069, offset: 0xF069, size: 0x8, addend: 0x0, symName: __ZNSt12_Vector_baseISt5arrayIiLm4EESaIS1_EE11_M_allocateEm, symObjAddr: 0x1640, symBinAddr: 0x100005290, symSize: 0x50 }
  - { offsetInCU: 0xF172, offset: 0xF172, size: 0x8, addend: 0x0, symName: __ZSt27__uninitialized_default_n_aIPSt5arrayIiLm4EEmS1_ET_S3_T0_RSaIT1_E, symObjAddr: 0x1548, symBinAddr: 0x100005198, symSize: 0x28 }
  - { offsetInCU: 0xF17A, offset: 0xF17A, size: 0x8, addend: 0x0, symName: __ZNKSt6vectorISt5arrayIiLm4EESaIS1_EE12_M_check_lenEmPKc, symObjAddr: 0x1570, symBinAddr: 0x1000051C0, symSize: 0xD0 }
  - { offsetInCU: 0xF152, offset: 0xF152, size: 0x8, addend: 0x0, symName: __ZNSt12_Vector_baseISt5arrayIiLm4EESaIS1_EE19_M_get_Tp_allocatorEv, symObjAddr: 0x1534, symBinAddr: 0x100005184, symSize: 0x14 }
  - { offsetInCU: 0xF15A, offset: 0xF15A, size: 0x8, addend: 0x0, symName: __ZSt27__uninitialized_default_n_aIPSt5arrayIiLm4EEmS1_ET_S3_T0_RSaIT1_E, symObjAddr: 0x1548, symBinAddr: 0x100005198, symSize: 0x28 }
  - { offsetInCU: 0xF181, offset: 0xF181, size: 0x8, addend: 0x0, symName: __ZNKSt6vectorISt5arrayIiLm4EESaIS1_EE8max_sizeEv, symObjAddr: 0x1514, symBinAddr: 0x100005164, symSize: 0x20 }
  - { offsetInCU: 0xF189, offset: 0xF189, size: 0x8, addend: 0x0, symName: __ZNSt12_Vector_baseISt5arrayIiLm4EESaIS1_EE19_M_get_Tp_allocatorEv, symObjAddr: 0x1534, symBinAddr: 0x100005184, symSize: 0x14 }
  - { offsetInCU: 0xF205, offset: 0xF205, size: 0x8, addend: 0x0, symName: __ZNSt12_Vector_baseISt4pairIiiESaIS1_EE19_M_get_Tp_allocatorEv, symObjAddr: 0x1500, symBinAddr: 0x100005150, symSize: 0x14 }
  - { offsetInCU: 0xF20D, offset: 0xF20D, size: 0x8, addend: 0x0, symName: __ZNKSt6vectorISt5arrayIiLm4EESaIS1_EE8max_sizeEv, symObjAddr: 0x1514, symBinAddr: 0x100005164, symSize: 0x20 }
  - { offsetInCU: 0xF234, offset: 0xF234, size: 0x8, addend: 0x0, symName: __ZNSt12_Vector_baseISt4pairIiiESaIS1_EE13_M_deallocateEPS1_m, symObjAddr: 0x14A8, symBinAddr: 0x1000050F8, symSize: 0x58 }
  - { offsetInCU: 0xF23C, offset: 0xF23C, size: 0x8, addend: 0x0, symName: __ZNSt12_Vector_baseISt4pairIiiESaIS1_EE19_M_get_Tp_allocatorEv, symObjAddr: 0x1500, symBinAddr: 0x100005150, symSize: 0x14 }
  - { offsetInCU: 0xF318, offset: 0xF318, size: 0x8, addend: 0x0, symName: __ZNSt15__new_allocatorISt4pairIiiEED2Ev, symObjAddr: 0x1494, symBinAddr: 0x1000050E4, symSize: 0x14 }
  - { offsetInCU: 0xF320, offset: 0xF320, size: 0x8, addend: 0x0, symName: __ZNSt12_Vector_baseISt4pairIiiESaIS1_EE13_M_deallocateEPS1_m, symObjAddr: 0x14A8, symBinAddr: 0x1000050F8, symSize: 0x58 }
  - { offsetInCU: 0xF376, offset: 0xF376, size: 0x8, addend: 0x0, symName: __ZNSt12_Vector_baseISt4pairIiiESaIS1_EE17_Vector_impl_dataC2Ev, symObjAddr: 0x1468, symBinAddr: 0x1000050B8, symSize: 0x2C }
  - { offsetInCU: 0xF37E, offset: 0xF37E, size: 0x8, addend: 0x0, symName: __ZNSt15__new_allocatorISt4pairIiiEED2Ev, symObjAddr: 0x1494, symBinAddr: 0x1000050E4, symSize: 0x14 }
  - { offsetInCU: 0xF42C, offset: 0xF42C, size: 0x8, addend: 0x0, symName: __ZNK9__gnu_cxx17__normal_iteratorIPiSt6vectorIiSaIiEEE4baseEv, symObjAddr: 0x1454, symBinAddr: 0x1000050A4, symSize: 0x14 }
  - { offsetInCU: 0xF434, offset: 0xF434, size: 0x8, addend: 0x0, symName: __ZNSt12_Vector_baseISt4pairIiiESaIS1_EE17_Vector_impl_dataC2Ev, symObjAddr: 0x1468, symBinAddr: 0x1000050B8, symSize: 0x2C }
  - { offsetInCU: 0xF4C3, offset: 0xF4C3, size: 0x8, addend: 0x0, symName: __ZN9__gnu_cxx17__normal_iteratorIPiSt6vectorIiSaIiEEEC1ERKS1_, symObjAddr: 0x142C, symBinAddr: 0x10000507C, symSize: 0x28 }
  - { offsetInCU: 0xF4CB, offset: 0xF4CB, size: 0x8, addend: 0x0, symName: __ZNK9__gnu_cxx17__normal_iteratorIPiSt6vectorIiSaIiEEE4baseEv, symObjAddr: 0x1454, symBinAddr: 0x1000050A4, symSize: 0x14 }
  - { offsetInCU: 0xF5B1, offset: 0xF5B1, size: 0x8, addend: 0x0, symName: __ZSt9push_heapIN9__gnu_cxx17__normal_iteratorIPSt4pairIiiESt6vectorIS3_SaIS3_EEEESt7greaterIS3_EEvT_SB_T0_, symObjAddr: 0x1398, symBinAddr: 0x100004FE8, symSize: 0x94 }
  - { offsetInCU: 0xF5B9, offset: 0xF5B9, size: 0x8, addend: 0x0, symName: __ZN9__gnu_cxx17__normal_iteratorIPiSt6vectorIiSaIiEEEC1ERKS1_, symObjAddr: 0x142C, symBinAddr: 0x10000507C, symSize: 0x28 }
  - { offsetInCU: 0xF57A, offset: 0xF57A, size: 0x8, addend: 0x0, symName: __ZNSt6vectorISt4pairIiiESaIS1_EE3endEv, symObjAddr: 0x1370, symBinAddr: 0x100004FC0, symSize: 0x28 }
  - { offsetInCU: 0xF582, offset: 0xF582, size: 0x8, addend: 0x0, symName: __ZSt9push_heapIN9__gnu_cxx17__normal_iteratorIPSt4pairIiiESt6vectorIS3_SaIS3_EEEESt7greaterIS3_EEvT_SB_T0_, symObjAddr: 0x1398, symBinAddr: 0x100004FE8, symSize: 0x94 }
  - { offsetInCU: 0xF5A9, offset: 0xF5A9, size: 0x8, addend: 0x0, symName: __ZNSt6vectorISt4pairIiiESaIS1_EE5beginEv, symObjAddr: 0x134C, symBinAddr: 0x100004F9C, symSize: 0x24 }
  - { offsetInCU: 0xF5B1, offset: 0xF5B1, size: 0x8, addend: 0x0, symName: __ZNSt6vectorISt4pairIiiESaIS1_EE3endEv, symObjAddr: 0x1370, symBinAddr: 0x100004FC0, symSize: 0x28 }
  - { offsetInCU: 0xF5D8, offset: 0xF5D8, size: 0x8, addend: 0x0, symName: __ZNSt6vectorISt4pairIiiESaIS1_EE9push_backEOS1_, symObjAddr: 0x131C, symBinAddr: 0x100004F6C, symSize: 0x30 }
  - { offsetInCU: 0xF5E0, offset: 0xF5E0, size: 0x8, addend: 0x0, symName: __ZNSt6vectorISt4pairIiiESaIS1_EE5beginEv, symObjAddr: 0x134C, symBinAddr: 0x100004F9C, symSize: 0x24 }
  - { offsetInCU: 0xF676, offset: 0xF676, size: 0x8, addend: 0x0, symName: __ZSt4moveIRSt4pairIiiEEONSt16remove_referenceIT_E4typeEOS4_, symObjAddr: 0x1308, symBinAddr: 0x100004F58, symSize: 0x14 }
  - { offsetInCU: 0xF67E, offset: 0xF67E, size: 0x8, addend: 0x0, symName: __ZNSt6vectorISt4pairIiiESaIS1_EE9push_backEOS1_, symObjAddr: 0x131C, symBinAddr: 0x100004F6C, symSize: 0x30 }
  - { offsetInCU: 0xF6B6, offset: 0xF6B6, size: 0x8, addend: 0x0, symName: __ZSt7forwardIRiEOT_RNSt16remove_referenceIS1_E4typeE, symObjAddr: 0x12F4, symBinAddr: 0x100004F44, symSize: 0x14 }
  - { offsetInCU: 0xF6BE, offset: 0xF6BE, size: 0x8, addend: 0x0, symName: __ZSt4moveIRSt4pairIiiEEONSt16remove_referenceIT_E4typeEOS4_, symObjAddr: 0x1308, symBinAddr: 0x100004F58, symSize: 0x14 }
  - { offsetInCU: 0xF6C3, offset: 0xF6C3, size: 0x8, addend: 0x0, symName: __ZNKSt6vectorISt4pairIiiESaIS1_EE5frontEv, symObjAddr: 0x12CC, symBinAddr: 0x100004F1C, symSize: 0x28 }
  - { offsetInCU: 0xF6CB, offset: 0xF6CB, size: 0x8, addend: 0x0, symName: __ZSt7forwardIRiEOT_RNSt16remove_referenceIS1_E4typeE, symObjAddr: 0x12F4, symBinAddr: 0x100004F44, symSize: 0x14 }
  - { offsetInCU: 0xF6F2, offset: 0xF6F2, size: 0x8, addend: 0x0, symName: __ZNKSt6vectorISt4pairIiiESaIS1_EE5emptyEv, symObjAddr: 0x1290, symBinAddr: 0x100004EE0, symSize: 0x3C }
  - { offsetInCU: 0xF6FA, offset: 0xF6FA, size: 0x8, addend: 0x0, symName: __ZNKSt6vectorISt4pairIiiESaIS1_EE5frontEv, symObjAddr: 0x12CC, symBinAddr: 0x100004F1C, symSize: 0x28 }
  - { offsetInCU: 0xF81B, offset: 0xF81B, size: 0x8, addend: 0x0, symName: __ZSt6__sortIN9__gnu_cxx17__normal_iteratorIPSt5arrayIiLm4EESt6vectorIS3_SaIS3_EEEENS0_5__ops15_Iter_less_iterEEvT_SB_T0_, symObjAddr: 0x1214, symBinAddr: 0x100004E64, symSize: 0x7C }
  - { offsetInCU: 0xF823, offset: 0xF823, size: 0x8, addend: 0x0, symName: __ZNKSt6vectorISt4pairIiiESaIS1_EE5emptyEv, symObjAddr: 0x1290, symBinAddr: 0x100004EE0, symSize: 0x3C }
  - { offsetInCU: 0xF814, offset: 0xF814, size: 0x8, addend: 0x0, symName: __ZN9__gnu_cxx17__normal_iteratorIPSt5arrayIiLm4EESt6vectorIS2_SaIS2_EEEC1ERKS3_, symObjAddr: 0x11EC, symBinAddr: 0x100004E3C, symSize: 0x28 }
  - { offsetInCU: 0xF81C, offset: 0xF81C, size: 0x8, addend: 0x0, symName: __ZSt6__sortIN9__gnu_cxx17__normal_iteratorIPSt5arrayIiLm4EESt6vectorIS3_SaIS3_EEEENS0_5__ops15_Iter_less_iterEEvT_SB_T0_, symObjAddr: 0x1214, symBinAddr: 0x100004E64, symSize: 0x7C }
  - { offsetInCU: 0xF7FE, offset: 0xF7FE, size: 0x8, addend: 0x0, symName: __ZNSt6vectorIiSaIiEE15_M_erase_at_endEPi, symObjAddr: 0x1164, symBinAddr: 0x100004DB4, symSize: 0x88 }
  - { offsetInCU: 0xF806, offset: 0xF806, size: 0x8, addend: 0x0, symName: __ZN9__gnu_cxx17__normal_iteratorIPSt5arrayIiLm4EESt6vectorIS2_SaIS2_EEEC1ERKS3_, symObjAddr: 0x11EC, symBinAddr: 0x100004E3C, symSize: 0x28 }
  - { offsetInCU: 0xF8A5, offset: 0xF8A5, size: 0x8, addend: 0x0, symName: __ZNSt6vectorIiSaIiEE17_M_default_appendEm, symObjAddr: 0xF64, symBinAddr: 0x100004BB4, symSize: 0x200 }
  - { offsetInCU: 0xF8AD, offset: 0xF8AD, size: 0x8, addend: 0x0, symName: __ZNSt6vectorIiSaIiEE15_M_erase_at_endEPi, symObjAddr: 0x1164, symBinAddr: 0x100004DB4, symSize: 0x88 }
  - { offsetInCU: 0xF984, offset: 0xF984, size: 0x8, addend: 0x0, symName: __ZNKSt6vectorIiSaIiEE4sizeEv, symObjAddr: 0xF3C, symBinAddr: 0x100004B8C, symSize: 0x28 }
  - { offsetInCU: 0xF98C, offset: 0xF98C, size: 0x8, addend: 0x0, symName: __ZNSt6vectorIiSaIiEE17_M_default_appendEm, symObjAddr: 0xF64, symBinAddr: 0x100004BB4, symSize: 0x200 }
  - { offsetInCU: 0xF9B3, offset: 0xF9B3, size: 0x8, addend: 0x0, symName: __ZNSt6vectorISt5arrayIiLm4EESaIS1_EE15_M_erase_at_endEPS1_, symObjAddr: 0xEB4, symBinAddr: 0x100004B04, symSize: 0x88 }
  - { offsetInCU: 0xF9BB, offset: 0xF9BB, size: 0x8, addend: 0x0, symName: __ZNKSt6vectorIiSaIiEE4sizeEv, symObjAddr: 0xF3C, symBinAddr: 0x100004B8C, symSize: 0x28 }
  - { offsetInCU: 0xFA5A, offset: 0xFA5A, size: 0x8, addend: 0x0, symName: __ZNSt6vectorISt5arrayIiLm4EESaIS1_EE17_M_default_appendEm, symObjAddr: 0xCB4, symBinAddr: 0x100004904, symSize: 0x200 }
  - { offsetInCU: 0xFA62, offset: 0xFA62, size: 0x8, addend: 0x0, symName: __ZNSt6vectorISt5arrayIiLm4EESaIS1_EE15_M_erase_at_endEPS1_, symObjAddr: 0xEB4, symBinAddr: 0x100004B04, symSize: 0x88 }
  - { offsetInCU: 0xFB39, offset: 0xFB39, size: 0x8, addend: 0x0, symName: __ZNKSt6vectorISt5arrayIiLm4EESaIS1_EE4sizeEv, symObjAddr: 0xC8C, symBinAddr: 0x1000048DC, symSize: 0x28 }
  - { offsetInCU: 0xFB41, offset: 0xFB41, size: 0x8, addend: 0x0, symName: __ZNSt6vectorISt5arrayIiLm4EESaIS1_EE17_M_default_appendEm, symObjAddr: 0xCB4, symBinAddr: 0x100004904, symSize: 0x200 }
  - { offsetInCU: 0xFBB4, offset: 0xFBB4, size: 0x8, addend: 0x0, symName: __ZNSt6vectorISt4pairIiiESaIS1_EED1Ev, symObjAddr: 0xC30, symBinAddr: 0x100004880, symSize: 0x5C }
  - { offsetInCU: 0xFBBC, offset: 0xFBBC, size: 0x8, addend: 0x0, symName: __ZNKSt6vectorISt5arrayIiLm4EESaIS1_EE4sizeEv, symObjAddr: 0xC8C, symBinAddr: 0x1000048DC, symSize: 0x28 }
  - { offsetInCU: 0xFC4E, offset: 0xFC4E, size: 0x8, addend: 0x0, symName: __ZNSt12_Vector_baseISt4pairIiiESaIS1_EED2Ev, symObjAddr: 0xBE0, symBinAddr: 0x100004830, symSize: 0x50 }
  - { offsetInCU: 0xFC56, offset: 0xFC56, size: 0x8, addend: 0x0, symName: __ZNSt6vectorISt4pairIiiESaIS1_EED1Ev, symObjAddr: 0xC30, symBinAddr: 0x100004880, symSize: 0x5C }
  - { offsetInCU: 0xFCCA, offset: 0xFCCA, size: 0x8, addend: 0x0, symName: __ZNSt12_Vector_baseISt4pairIiiESaIS1_EE12_Vector_implC1Ev, symObjAddr: 0xBA8, symBinAddr: 0x1000047F8, symSize: 0x38 }
  - { offsetInCU: 0xFCD2, offset: 0xFCD2, size: 0x8, addend: 0x0, symName: __ZNSt12_Vector_baseISt4pairIiiESaIS1_EED2Ev, symObjAddr: 0xBE0, symBinAddr: 0x100004830, symSize: 0x50 }
  - { offsetInCU: 0xFD0A, offset: 0xFD0A, size: 0x8, addend: 0x0, symName: __ZNSt12_Vector_baseIiSaIiEE13_M_deallocateEPim, symObjAddr: 0xB50, symBinAddr: 0x1000047A0, symSize: 0x58 }
  - { offsetInCU: 0xFD12, offset: 0xFD12, size: 0x8, addend: 0x0, symName: __ZNSt12_Vector_baseISt4pairIiiESaIS1_EE12_Vector_implC1Ev, symObjAddr: 0xBA8, symBinAddr: 0x1000047F8, symSize: 0x38 }
  - { offsetInCU: 0xFDE4, offset: 0xFDE4, size: 0x8, addend: 0x0, symName: __ZNSt15__new_allocatorIiED2Ev, symObjAddr: 0xB3C, symBinAddr: 0x10000478C, symSize: 0x14 }
  - { offsetInCU: 0xFDEC, offset: 0xFDEC, size: 0x8, addend: 0x0, symName: __ZNSt12_Vector_baseIiSaIiEE13_M_deallocateEPim, symObjAddr: 0xB50, symBinAddr: 0x1000047A0, symSize: 0x58 }
  - { offsetInCU: 0xFE40, offset: 0xFE40, size: 0x8, addend: 0x0, symName: __ZNSt12_Vector_baseIiSaIiEE17_Vector_impl_dataC2Ev, symObjAddr: 0xB10, symBinAddr: 0x100004760, symSize: 0x2C }
  - { offsetInCU: 0xFE48, offset: 0xFE48, size: 0x8, addend: 0x0, symName: __ZNSt15__new_allocatorIiED2Ev, symObjAddr: 0xB3C, symBinAddr: 0x10000478C, symSize: 0x14 }
  - { offsetInCU: 0xFE54, offset: 0xFE54, size: 0x8, addend: 0x0, symName: __ZNSt12_Vector_baseISt5arrayIiLm4EESaIS1_EE13_M_deallocateEPS1_m, symObjAddr: 0xAB8, symBinAddr: 0x100004708, symSize: 0x58 }
  - { offsetInCU: 0xFE5C, offset: 0xFE5C, size: 0x8, addend: 0x0, symName: __ZNSt12_Vector_baseIiSaIiEE17_Vector_impl_dataC2Ev, symObjAddr: 0xB10, symBinAddr: 0x100004760, symSize: 0x2C }
  - { offsetInCU: 0xFF3C, offset: 0xFF3C, size: 0x8, addend: 0x0, symName: __ZNSt15__new_allocatorISt5arrayIiLm4EEED2Ev, symObjAddr: 0xAA4, symBinAddr: 0x1000046F4, symSize: 0x14 }
  - { offsetInCU: 0xFF44, offset: 0xFF44, size: 0x8, addend: 0x0, symName: __ZNSt12_Vector_baseISt5arrayIiLm4EESaIS1_EE13_M_deallocateEPS1_m, symObjAddr: 0xAB8, symBinAddr: 0x100004708, symSize: 0x58 }
  - { offsetInCU: 0xFF9A, offset: 0xFF9A, size: 0x8, addend: 0x0, symName: __ZNSt12_Vector_baseISt5arrayIiLm4EESaIS1_EE17_Vector_impl_dataC2Ev, symObjAddr: 0xA78, symBinAddr: 0x1000046C8, symSize: 0x2C }
  - { offsetInCU: 0xFFA2, offset: 0xFFA2, size: 0x8, addend: 0x0, symName: __ZNSt15__new_allocatorISt5arrayIiLm4EEED2Ev, symObjAddr: 0xAA4, symBinAddr: 0x1000046F4, symSize: 0x14 }
  - { offsetInCU: 0xFF9E, offset: 0xFF9E, size: 0x8, addend: 0x0, symName: __ZNK9__gnu_cxx17__normal_iteratorIPiSt6vectorIiSaIiEEEdeEv, symObjAddr: 0xA60, symBinAddr: 0x1000046B0, symSize: 0x18 }
  - { offsetInCU: 0xFFA6, offset: 0xFFA6, size: 0x8, addend: 0x0, symName: __ZNSt12_Vector_baseISt5arrayIiLm4EESaIS1_EE17_Vector_impl_dataC2Ev, symObjAddr: 0xA78, symBinAddr: 0x1000046C8, symSize: 0x2C }
  - { offsetInCU: 0xFFCD, offset: 0xFFCD, size: 0x8, addend: 0x0, symName: __ZN9__gnu_cxx17__normal_iteratorIPiSt6vectorIiSaIiEEEppEv, symObjAddr: 0xA38, symBinAddr: 0x100004688, symSize: 0x28 }
  - { offsetInCU: 0xFFD5, offset: 0xFFD5, size: 0x8, addend: 0x0, symName: __ZNK9__gnu_cxx17__normal_iteratorIPiSt6vectorIiSaIiEEEdeEv, symObjAddr: 0xA60, symBinAddr: 0x1000046B0, symSize: 0x18 }
  - { offsetInCU: 0x1006F, offset: 0x1006F, size: 0x8, addend: 0x0, symName: __ZN9__gnu_cxxneIPiSt6vectorIiSaIiEEEEbRKNS_17__normal_iteratorIT_T0_EESA_, symObjAddr: 0x9F4, symBinAddr: 0x100004644, symSize: 0x44 }
  - { offsetInCU: 0x10077, offset: 0x10077, size: 0x8, addend: 0x0, symName: __ZN9__gnu_cxx17__normal_iteratorIPiSt6vectorIiSaIiEEEppEv, symObjAddr: 0xA38, symBinAddr: 0x100004688, symSize: 0x28 }
  - { offsetInCU: 0x10073, offset: 0x10073, size: 0x8, addend: 0x0, symName: __ZNSt6vectorIiSaIiEE3endEv, symObjAddr: 0x9CC, symBinAddr: 0x10000461C, symSize: 0x28 }
  - { offsetInCU: 0x1007B, offset: 0x1007B, size: 0x8, addend: 0x0, symName: __ZN9__gnu_cxxneIPiSt6vectorIiSaIiEEEEbRKNS_17__normal_iteratorIT_T0_EESA_, symObjAddr: 0x9F4, symBinAddr: 0x100004644, symSize: 0x44 }
  - { offsetInCU: 0x100A2, offset: 0x100A2, size: 0x8, addend: 0x0, symName: __ZNSt6vectorIiSaIiEE5beginEv, symObjAddr: 0x9A8, symBinAddr: 0x1000045F8, symSize: 0x24 }
  - { offsetInCU: 0x100AA, offset: 0x100AA, size: 0x8, addend: 0x0, symName: __ZNSt6vectorIiSaIiEE3endEv, symObjAddr: 0x9CC, symBinAddr: 0x10000461C, symSize: 0x28 }
  - { offsetInCU: 0x100D1, offset: 0x100D1, size: 0x8, addend: 0x0, symName: __ZNSt14priority_queueISt4pairIiiESt6vectorIS1_SaIS1_EESt7greaterIS1_EE4pushEOS1_, symObjAddr: 0x948, symBinAddr: 0x100004598, symSize: 0x60 }
  - { offsetInCU: 0x100D9, offset: 0x100D9, size: 0x8, addend: 0x0, symName: __ZNSt6vectorIiSaIiEE5beginEv, symObjAddr: 0x9A8, symBinAddr: 0x1000045F8, symSize: 0x24 }
  - { offsetInCU: 0x1018D, offset: 0x1018D, size: 0x8, addend: 0x0, symName: __ZNSt4pairIiiEC1IRiS2_Lb1EEEOT_OT0_, symObjAddr: 0x900, symBinAddr: 0x100004550, symSize: 0x48 }
  - { offsetInCU: 0x10195, offset: 0x10195, size: 0x8, addend: 0x0, symName: __ZNSt14priority_queueISt4pairIiiESt6vectorIS1_SaIS1_EESt7greaterIS1_EE4pushEOS1_, symObjAddr: 0x948, symBinAddr: 0x100004598, symSize: 0x60 }
  - { offsetInCU: 0x101C9, offset: 0x101C9, size: 0x8, addend: 0x0, symName: __ZNSt6vectorIiSaIiEEixEm, symObjAddr: 0x8D8, symBinAddr: 0x100004528, symSize: 0x28 }
  - { offsetInCU: 0x101D1, offset: 0x101D1, size: 0x8, addend: 0x0, symName: __ZNSt4pairIiiEC1IRiS2_Lb1EEEOT_OT0_, symObjAddr: 0x900, symBinAddr: 0x100004550, symSize: 0x48 }
  - { offsetInCU: 0x1020C, offset: 0x1020C, size: 0x8, addend: 0x0, symName: __ZNKSt14priority_queueISt4pairIiiESt6vectorIS1_SaIS1_EESt7greaterIS1_EE3topEv, symObjAddr: 0x8BC, symBinAddr: 0x10000450C, symSize: 0x1C }
  - { offsetInCU: 0x10214, offset: 0x10214, size: 0x8, addend: 0x0, symName: __ZNSt6vectorIiSaIiEEixEm, symObjAddr: 0x8D8, symBinAddr: 0x100004528, symSize: 0x28 }
  - { offsetInCU: 0x1023B, offset: 0x1023B, size: 0x8, addend: 0x0, symName: __ZNKSt14priority_queueISt4pairIiiESt6vectorIS1_SaIS1_EESt7greaterIS1_EE5emptyEv, symObjAddr: 0x89C, symBinAddr: 0x1000044EC, symSize: 0x20 }
  - { offsetInCU: 0x10243, offset: 0x10243, size: 0x8, addend: 0x0, symName: __ZNKSt14priority_queueISt4pairIiiESt6vectorIS1_SaIS1_EESt7greaterIS1_EE3topEv, symObjAddr: 0x8BC, symBinAddr: 0x10000450C, symSize: 0x1C }
  - { offsetInCU: 0x1031F, offset: 0x1031F, size: 0x8, addend: 0x0, symName: __ZSt4sortIN9__gnu_cxx17__normal_iteratorIPSt5arrayIiLm4EESt6vectorIS3_SaIS3_EEEEEvT_S9_, symObjAddr: 0x864, symBinAddr: 0x1000044B4, symSize: 0x38 }
  - { offsetInCU: 0x10327, offset: 0x10327, size: 0x8, addend: 0x0, symName: __ZNKSt14priority_queueISt4pairIiiESt6vectorIS1_SaIS1_EESt7greaterIS1_EE5emptyEv, symObjAddr: 0x89C, symBinAddr: 0x1000044EC, symSize: 0x20 }
  - { offsetInCU: 0x102C2, offset: 0x102C2, size: 0x8, addend: 0x0, symName: __ZNSt6vectorISt5arrayIiLm4EESaIS1_EE3endEv, symObjAddr: 0x83C, symBinAddr: 0x10000448C, symSize: 0x28 }
  - { offsetInCU: 0x102CA, offset: 0x102CA, size: 0x8, addend: 0x0, symName: __ZSt4sortIN9__gnu_cxx17__normal_iteratorIPSt5arrayIiLm4EESt6vectorIS3_SaIS3_EEEEEvT_S9_, symObjAddr: 0x864, symBinAddr: 0x1000044B4, symSize: 0x38 }
  - { offsetInCU: 0x102F1, offset: 0x102F1, size: 0x8, addend: 0x0, symName: __ZNSt6vectorISt5arrayIiLm4EESaIS1_EE5beginEv, symObjAddr: 0x818, symBinAddr: 0x100004468, symSize: 0x24 }
  - { offsetInCU: 0x102F9, offset: 0x102F9, size: 0x8, addend: 0x0, symName: __ZNSt6vectorISt5arrayIiLm4EESaIS1_EE3endEv, symObjAddr: 0x83C, symBinAddr: 0x10000448C, symSize: 0x28 }
  - { offsetInCU: 0x10320, offset: 0x10320, size: 0x8, addend: 0x0, symName: __ZNSt5arrayIiLm4EEixEm, symObjAddr: 0x7F4, symBinAddr: 0x100004444, symSize: 0x24 }
  - { offsetInCU: 0x10328, offset: 0x10328, size: 0x8, addend: 0x0, symName: __ZNSt6vectorISt5arrayIiLm4EESaIS1_EE5beginEv, symObjAddr: 0x818, symBinAddr: 0x100004468, symSize: 0x24 }
  - { offsetInCU: 0x10362, offset: 0x10362, size: 0x8, addend: 0x0, symName: __ZNSt6vectorISt5arrayIiLm4EESaIS1_EEixEm, symObjAddr: 0x7CC, symBinAddr: 0x10000441C, symSize: 0x28 }
  - { offsetInCU: 0x1036A, offset: 0x1036A, size: 0x8, addend: 0x0, symName: __ZNSt5arrayIiLm4EEixEm, symObjAddr: 0x7F4, symBinAddr: 0x100004444, symSize: 0x24 }
  - { offsetInCU: 0x103A5, offset: 0x103A5, size: 0x8, addend: 0x0, symName: __ZNSt6vectorIiSaIiEE6resizeEm, symObjAddr: 0x71C, symBinAddr: 0x10000436C, symSize: 0xB0 }
  - { offsetInCU: 0x103AD, offset: 0x103AD, size: 0x8, addend: 0x0, symName: __ZNSt6vectorISt5arrayIiLm4EESaIS1_EEixEm, symObjAddr: 0x7CC, symBinAddr: 0x10000441C, symSize: 0x28 }
  - { offsetInCU: 0x103E8, offset: 0x103E8, size: 0x8, addend: 0x0, symName: __ZNSt6vectorISt5arrayIiLm4EESaIS1_EE6resizeEm, symObjAddr: 0x66C, symBinAddr: 0x1000042BC, symSize: 0xB0 }
  - { offsetInCU: 0x103F0, offset: 0x103F0, size: 0x8, addend: 0x0, symName: __ZNSt6vectorIiSaIiEE6resizeEm, symObjAddr: 0x71C, symBinAddr: 0x10000436C, symSize: 0xB0 }
  - { offsetInCU: 0x104A9, offset: 0x104A9, size: 0x8, addend: 0x0, symName: __ZNSt14priority_queueISt4pairIiiESt6vectorIS1_SaIS1_EESt7greaterIS1_EEC1IS4_vEEv, symObjAddr: 0x640, symBinAddr: 0x100004290, symSize: 0x2C }
  - { offsetInCU: 0x104B1, offset: 0x104B1, size: 0x8, addend: 0x0, symName: __ZNSt6vectorISt5arrayIiLm4EESaIS1_EE6resizeEm, symObjAddr: 0x66C, symBinAddr: 0x1000042BC, symSize: 0xB0 }
  - { offsetInCU: 0x104D8, offset: 0x104D8, size: 0x8, addend: 0x0, symName: __ZNSt6vectorISt4pairIiiESaIS1_EEC1Ev, symObjAddr: 0x620, symBinAddr: 0x100004270, symSize: 0x20 }
  - { offsetInCU: 0x104E0, offset: 0x104E0, size: 0x8, addend: 0x0, symName: __ZNSt14priority_queueISt4pairIiiESt6vectorIS1_SaIS1_EESt7greaterIS1_EEC1IS4_vEEv, symObjAddr: 0x640, symBinAddr: 0x100004290, symSize: 0x2C }
  - { offsetInCU: 0x10526, offset: 0x10526, size: 0x8, addend: 0x0, symName: __ZNSt12_Vector_baseISt4pairIiiESaIS1_EEC2Ev, symObjAddr: 0x600, symBinAddr: 0x100004250, symSize: 0x20 }
  - { offsetInCU: 0x1052E, offset: 0x1052E, size: 0x8, addend: 0x0, symName: __ZNSt6vectorISt4pairIiiESaIS1_EEC1Ev, symObjAddr: 0x620, symBinAddr: 0x100004270, symSize: 0x20 }
  - { offsetInCU: 0x1058C, offset: 0x1058C, size: 0x8, addend: 0x0, symName: __ZNSt12_Vector_baseISt4pairIiiESaIS1_EE12_Vector_implD1Ev, symObjAddr: 0x5D4, symBinAddr: 0x100004224, symSize: 0x2C }
  - { offsetInCU: 0x10594, offset: 0x10594, size: 0x8, addend: 0x0, symName: __ZNSt12_Vector_baseISt4pairIiiESaIS1_EEC2Ev, symObjAddr: 0x600, symBinAddr: 0x100004250, symSize: 0x20 }
  - { offsetInCU: 0x105ED, offset: 0x105ED, size: 0x8, addend: 0x0, symName: __ZNSt12_Vector_baseIiSaIiEED2Ev, symObjAddr: 0x584, symBinAddr: 0x1000041D4, symSize: 0x50 }
  - { offsetInCU: 0x105F5, offset: 0x105F5, size: 0x8, addend: 0x0, symName: __ZNSt12_Vector_baseISt4pairIiiESaIS1_EE12_Vector_implD1Ev, symObjAddr: 0x5D4, symBinAddr: 0x100004224, symSize: 0x2C }
  - { offsetInCU: 0x10669, offset: 0x10669, size: 0x8, addend: 0x0, symName: __ZNSt12_Vector_baseIiSaIiEE12_Vector_implC1Ev, symObjAddr: 0x54C, symBinAddr: 0x10000419C, symSize: 0x38 }
  - { offsetInCU: 0x10671, offset: 0x10671, size: 0x8, addend: 0x0, symName: __ZNSt12_Vector_baseIiSaIiEED2Ev, symObjAddr: 0x584, symBinAddr: 0x1000041D4, symSize: 0x50 }
  - { offsetInCU: 0x1070C, offset: 0x1070C, size: 0x8, addend: 0x0, symName: __ZNSt12_Vector_baseISt5arrayIiLm4EESaIS1_EED2Ev, symObjAddr: 0x4FC, symBinAddr: 0x10000414C, symSize: 0x50 }
  - { offsetInCU: 0x10714, offset: 0x10714, size: 0x8, addend: 0x0, symName: __ZNSt12_Vector_baseIiSaIiEE12_Vector_implC1Ev, symObjAddr: 0x54C, symBinAddr: 0x10000419C, symSize: 0x38 }
  - { offsetInCU: 0x10788, offset: 0x10788, size: 0x8, addend: 0x0, symName: __ZNSt12_Vector_baseISt5arrayIiLm4EESaIS1_EE12_Vector_implC1Ev, symObjAddr: 0x4C4, symBinAddr: 0x100004114, symSize: 0x38 }
  - { offsetInCU: 0x10790, offset: 0x10790, size: 0x8, addend: 0x0, symName: __ZNSt12_Vector_baseISt5arrayIiLm4EESaIS1_EED2Ev, symObjAddr: 0x4FC, symBinAddr: 0x10000414C, symSize: 0x50 }
  - { offsetInCU: 0x107CE, offset: 0x107CE, size: 0x8, addend: 0x0, symName: _main, symObjAddr: 0x13C, symBinAddr: 0x100003D8C, symSize: 0x388 }
  - { offsetInCU: 0x107D6, offset: 0x107D6, size: 0x8, addend: 0x0, symName: __ZNSt12_Vector_baseISt5arrayIiLm4EESaIS1_EE12_Vector_implC1Ev, symObjAddr: 0x4C4, symBinAddr: 0x100004114, symSize: 0x38 }
  - { offsetInCU: 0x108E4, offset: 0x108E4, size: 0x8, addend: 0x0, symName: __ZNSt6vectorIiSaIiEEC1Ev, symObjAddr: 0x11C, symBinAddr: 0x100003D6C, symSize: 0x20 }
  - { offsetInCU: 0x108EC, offset: 0x108EC, size: 0x8, addend: 0x0, symName: _main, symObjAddr: 0x13C, symBinAddr: 0x100003D8C, symSize: 0x388 }
  - { offsetInCU: 0x10932, offset: 0x10932, size: 0x8, addend: 0x0, symName: __ZNSt12_Vector_baseIiSaIiEEC2Ev, symObjAddr: 0xFC, symBinAddr: 0x100003D4C, symSize: 0x20 }
  - { offsetInCU: 0x1093A, offset: 0x1093A, size: 0x8, addend: 0x0, symName: __ZNSt6vectorIiSaIiEEC1Ev, symObjAddr: 0x11C, symBinAddr: 0x100003D6C, symSize: 0x20 }
  - { offsetInCU: 0x10998, offset: 0x10998, size: 0x8, addend: 0x0, symName: __ZNSt12_Vector_baseIiSaIiEE12_Vector_implD1Ev, symObjAddr: 0xD0, symBinAddr: 0x100003D20, symSize: 0x2C }
  - { offsetInCU: 0x109A0, offset: 0x109A0, size: 0x8, addend: 0x0, symName: __ZNSt12_Vector_baseIiSaIiEEC2Ev, symObjAddr: 0xFC, symBinAddr: 0x100003D4C, symSize: 0x20 }
  - { offsetInCU: 0x10A00, offset: 0x10A00, size: 0x8, addend: 0x0, symName: __ZNSt6vectorISt5arrayIiLm4EESaIS1_EEC1Ev, symObjAddr: 0xB0, symBinAddr: 0x100003D00, symSize: 0x20 }
  - { offsetInCU: 0x10A08, offset: 0x10A08, size: 0x8, addend: 0x0, symName: __ZNSt12_Vector_baseIiSaIiEE12_Vector_implD1Ev, symObjAddr: 0xD0, symBinAddr: 0x100003D20, symSize: 0x2C }
  - { offsetInCU: 0x10A4E, offset: 0x10A4E, size: 0x8, addend: 0x0, symName: __ZNSt12_Vector_baseISt5arrayIiLm4EESaIS1_EEC2Ev, symObjAddr: 0x90, symBinAddr: 0x100003CE0, symSize: 0x20 }
  - { offsetInCU: 0x10A56, offset: 0x10A56, size: 0x8, addend: 0x0, symName: __ZNSt6vectorISt5arrayIiLm4EESaIS1_EEC1Ev, symObjAddr: 0xB0, symBinAddr: 0x100003D00, symSize: 0x20 }
  - { offsetInCU: 0x10AB4, offset: 0x10AB4, size: 0x8, addend: 0x0, symName: __ZNSt12_Vector_baseISt5arrayIiLm4EESaIS1_EE12_Vector_implD1Ev, symObjAddr: 0x64, symBinAddr: 0x100003CB4, symSize: 0x2C }
  - { offsetInCU: 0x10ABC, offset: 0x10ABC, size: 0x8, addend: 0x0, symName: __ZNSt12_Vector_baseISt5arrayIiLm4EESaIS1_EEC2Ev, symObjAddr: 0x90, symBinAddr: 0x100003CE0, symSize: 0x20 }
  - { offsetInCU: 0x10ADB, offset: 0x10ADB, size: 0x8, addend: 0x0, symName: __ZnwmPv, symObjAddr: 0x4C, symBinAddr: 0x100003C9C, symSize: 0x18 }
  - { offsetInCU: 0x10AE3, offset: 0x10AE3, size: 0x8, addend: 0x0, symName: __ZNSt12_Vector_baseISt5arrayIiLm4EESaIS1_EE12_Vector_implD1Ev, symObjAddr: 0x64, symBinAddr: 0x100003CB4, symSize: 0x2C }
  - { offsetInCU: 0x10B43, offset: 0x10B43, size: 0x8, addend: 0x0, symName: __ZSt17__size_to_integerm, symObjAddr: 0x38, symBinAddr: 0x100003C88, symSize: 0x14 }
  - { offsetInCU: 0x10B4B, offset: 0x10B4B, size: 0x8, addend: 0x0, symName: __ZnwmPv, symObjAddr: 0x4C, symBinAddr: 0x100003C9C, symSize: 0x18 }
  - { offsetInCU: 0x10BA2, offset: 0x10BA2, size: 0x8, addend: 0x0, symName: __ZN9__gnu_cxx5__ops15__val_comp_iterENS0_15_Iter_less_iterE, symObjAddr: 0x20, symBinAddr: 0x100003C70, symSize: 0x18 }
  - { offsetInCU: 0x10BAA, offset: 0x10BAA, size: 0x8, addend: 0x0, symName: __ZSt17__size_to_integerm, symObjAddr: 0x38, symBinAddr: 0x100003C88, symSize: 0x14 }
  - { offsetInCU: 0x10BE7, offset: 0x10BE7, size: 0x8, addend: 0x0, symName: __ZN9__gnu_cxx5__ops14_Iter_less_valC1ENS0_15_Iter_less_iterE, symObjAddr: 0x8, symBinAddr: 0x100003C58, symSize: 0x18 }
  - { offsetInCU: 0x10BEF, offset: 0x10BEF, size: 0x8, addend: 0x0, symName: __ZN9__gnu_cxx5__ops15__val_comp_iterENS0_15_Iter_less_iterE, symObjAddr: 0x20, symBinAddr: 0x100003C70, symSize: 0x18 }
  - { offsetInCU: 0x10C22, offset: 0x10C22, size: 0x8, addend: 0x0, symName: __ZN9__gnu_cxx5__ops16__iter_less_iterEv, symObjAddr: 0x0, symBinAddr: 0x100003C50, symSize: 0x8 }
  - { offsetInCU: 0x10C2A, offset: 0x10C2A, size: 0x8, addend: 0x0, symName: __ZN9__gnu_cxx5__ops14_Iter_less_valC1ENS0_15_Iter_less_iterE, symObjAddr: 0x8, symBinAddr: 0x100003C58, symSize: 0x18 }
...
