---
triple:          'arm64-apple-darwin'
binary-path:     '/Users/dingkai/Code/IOI2024/cses/SortingAndSearch/Nested Ranges CountS1.gout'
relocations:
  - { offsetInCU: 0xCB, offset: 0xCB, size: 0x8, addend: 0x0, symName: __ZSt17__size_to_integerm, symObjAddr: 0x0, symBinAddr: 0x100000980, symSize: 0x14 }
  - { offsetInCU: 0x3644, offset: 0x3644, size: 0x8, addend: 0x0, symName: __ZN10__gnu_pbds6detailL9g_a_sizesE, symObjAddr: 0x6560, symBinAddr: 0x100007AC8, symSize: 0x0 }
  - { offsetInCU: 0x37F8, offset: 0x37F8, size: 0x8, addend: 0x0, symName: __ZNSt3tr112_GLOBAL__N_16ignoreE, symObjAddr: 0x71DA0, symBinAddr: 0x100010120, symSize: 0x0 }
  - { offsetInCU: 0x3E53, offset: 0x3E53, size: 0x8, addend: 0x0, symName: __ZStL8__ioinit, symObjAddr: 0x71DA1, symBinAddr: 0x100010121, symSize: 0x0 }
  - { offsetInCU: 0x54D0, offset: 0x54D0, size: 0x8, addend: 0x0, symName: _os, symObjAddr: 0x71DA8, symBinAddr: 0x100010128, symSize: 0x0 }
  - { offsetInCU: 0x6FDE, offset: 0x6FDE, size: 0x8, addend: 0x0, symName: _leftAsc, symObjAddr: 0x71DC8, symBinAddr: 0x100010148, symSize: 0x0 }
  - { offsetInCU: 0x6FF4, offset: 0x6FF4, size: 0x8, addend: 0x0, symName: __ZL4LEFT, symObjAddr: 0x6750, symBinAddr: 0x100007CB8, symSize: 0x0 }
  - { offsetInCU: 0x700F, offset: 0x700F, size: 0x8, addend: 0x0, symName: __ZL5RIGHT, symObjAddr: 0x6754, symBinAddr: 0x100007CBC, symSize: 0x0 }
  - { offsetInCU: 0x7029, offset: 0x7029, size: 0x8, addend: 0x0, symName: __ZL5INDEX, symObjAddr: 0x6758, symBinAddr: 0x100007CC0, symSize: 0x0 }
  - { offsetInCU: 0xD9F3, offset: 0xD9F3, size: 0x8, addend: 0x0, symName: __ZN10__gnu_pbds6detail19bin_search_tree_setISt4pairIiiENS_9null_typeESt4lessIS3_ENS0_11tree_traitsIS3_S4_S6_NS_33tree_order_statistics_node_updateENS_11rb_tree_tagESaIcEEESA_E16s_node_allocatorE, symObjAddr: 0x71A8, symBinAddr: 0x100010000, symSize: 0x0 }
  - { offsetInCU: 0xD9A1, offset: 0xD9A1, size: 0x8, addend: 0x0, symName: __ZN10__gnu_pbds6detail12cond_dealtorINS0_13rb_tree_node_ISt4pairIiiEmSaIcEEES5_E7s_allocE, symObjAddr: 0x71A9, symBinAddr: 0x100010001, symSize: 0x0 }
  - { offsetInCU: 0xDC63, offset: 0xDC63, size: 0x8, addend: 0x0, symName: __ZNSt8__detail30__integer_to_chars_is_unsignedIjEE, symObjAddr: 0x6C62, symBinAddr: 0x1000081CA, symSize: 0x0 }
  - { offsetInCU: 0xDC7D, offset: 0xDC7D, size: 0x8, addend: 0x0, symName: __ZNSt8__detail30__integer_to_chars_is_unsignedImEE, symObjAddr: 0x6C63, symBinAddr: 0x1000081CB, symSize: 0x0 }
  - { offsetInCU: 0xDC97, offset: 0xDC97, size: 0x8, addend: 0x0, symName: __ZNSt8__detail30__integer_to_chars_is_unsignedIyEE, symObjAddr: 0x6C64, symBinAddr: 0x1000081CC, symSize: 0x0 }
  - { offsetInCU: 0xDCCF, offset: 0xDCCF, size: 0x8, addend: 0x0, symName: __GLOBAL__sub_I_Nested_Ranges_CountS1.cpp, symObjAddr: 0x6548, symBinAddr: 0x100006EC8, symSize: 0x14 }
  - { offsetInCU: 0xDD2C, offset: 0xDD2C, size: 0x8, addend: 0x0, symName: __ZNSaIN10__gnu_pbds6detail13rb_tree_node_ISt4pairIiiEmSaIcEEEED1Ev, symObjAddr: 0x6528, symBinAddr: 0x100006EA8, symSize: 0x20 }
  - { offsetInCU: 0xDD34, offset: 0xDD34, size: 0x8, addend: 0x0, symName: __GLOBAL__sub_I_Nested_Ranges_CountS1.cpp, symObjAddr: 0x6548, symBinAddr: 0x100006EC8, symSize: 0x14 }
  - { offsetInCU: 0xDD67, offset: 0xDD67, size: 0x8, addend: 0x0, symName: __ZNSt6vectorISt5arrayIiLm3EESaIS1_EED1Ev, symObjAddr: 0x64CC, symBinAddr: 0x100006E4C, symSize: 0x5C }
  - { offsetInCU: 0xDD6F, offset: 0xDD6F, size: 0x8, addend: 0x0, symName: __ZNSaIN10__gnu_pbds6detail13rb_tree_node_ISt4pairIiiEmSaIcEEEED1Ev, symObjAddr: 0x6528, symBinAddr: 0x100006EA8, symSize: 0x20 }
  - { offsetInCU: 0xDDAA, offset: 0xDDAA, size: 0x8, addend: 0x0, symName: __ZN10__gnu_pbds6detail19bin_search_tree_setISt4pairIiiENS_9null_typeESt4lessIS3_ENS0_11tree_traitsIS3_S4_S6_NS_33tree_order_statistics_node_updateENS_11rb_tree_tagESaIcEEESA_E10get_cmp_fnEv, symObjAddr: 0x64B8, symBinAddr: 0x100006E38, symSize: 0x14 }
  - { offsetInCU: 0xDDB2, offset: 0xDDB2, size: 0x8, addend: 0x0, symName: __ZNSt6vectorISt5arrayIiLm3EESaIS1_EED1Ev, symObjAddr: 0x64CC, symBinAddr: 0x100006E4C, symSize: 0x5C }
  - { offsetInCU: 0xDDD9, offset: 0xDDD9, size: 0x8, addend: 0x0, symName: __ZN10__gnu_pbds6detail19bin_search_tree_setISt4pairIiiENS_9null_typeESt4lessIS3_ENS0_11tree_traitsIS3_S4_S6_NS_33tree_order_statistics_node_updateENS_11rb_tree_tagESaIcEEESA_E8node_endEv, symObjAddr: 0x6494, symBinAddr: 0x100006E14, symSize: 0x24 }
  - { offsetInCU: 0xDDE1, offset: 0xDDE1, size: 0x8, addend: 0x0, symName: __ZN10__gnu_pbds6detail19bin_search_tree_setISt4pairIiiENS_9null_typeESt4lessIS3_ENS0_11tree_traitsIS3_S4_S6_NS_33tree_order_statistics_node_updateENS_11rb_tree_tagESaIcEEESA_E10get_cmp_fnEv, symObjAddr: 0x64B8, symBinAddr: 0x100006E38, symSize: 0x14 }
  - { offsetInCU: 0xDE08, offset: 0xDE08, size: 0x8, addend: 0x0, symName: __ZNK10__gnu_pbds6detail19bin_search_tree_setISt4pairIiiENS_9null_typeESt4lessIS3_ENS0_11tree_traitsIS3_S4_S6_NS_33tree_order_statistics_node_updateENS_11rb_tree_tagESaIcEEESA_E8node_endEv, symObjAddr: 0x6470, symBinAddr: 0x100006DF0, symSize: 0x24 }
  - { offsetInCU: 0xDE10, offset: 0xDE10, size: 0x8, addend: 0x0, symName: __ZN10__gnu_pbds6detail19bin_search_tree_setISt4pairIiiENS_9null_typeESt4lessIS3_ENS0_11tree_traitsIS3_S4_S6_NS_33tree_order_statistics_node_updateENS_11rb_tree_tagESaIcEEESA_E8node_endEv, symObjAddr: 0x6494, symBinAddr: 0x100006E14, symSize: 0x24 }
  - { offsetInCU: 0xDE37, offset: 0xDE37, size: 0x8, addend: 0x0, symName: __ZN10__gnu_pbds6detail19bin_search_tree_setISt4pairIiiENS_9null_typeESt4lessIS3_ENS0_11tree_traitsIS3_S4_S6_NS_33tree_order_statistics_node_updateENS_11rb_tree_tagESaIcEEESA_E10node_beginEv, symObjAddr: 0x6444, symBinAddr: 0x100006DC4, symSize: 0x2C }
  - { offsetInCU: 0xDE3F, offset: 0xDE3F, size: 0x8, addend: 0x0, symName: __ZNK10__gnu_pbds6detail19bin_search_tree_setISt4pairIiiENS_9null_typeESt4lessIS3_ENS0_11tree_traitsIS3_S4_S6_NS_33tree_order_statistics_node_updateENS_11rb_tree_tagESaIcEEESA_E8node_endEv, symObjAddr: 0x6470, symBinAddr: 0x100006DF0, symSize: 0x24 }
  - { offsetInCU: 0xDE66, offset: 0xDE66, size: 0x8, addend: 0x0, symName: __ZNK10__gnu_pbds6detail19bin_search_tree_setISt4pairIiiENS_9null_typeESt4lessIS3_ENS0_11tree_traitsIS3_S4_S6_NS_33tree_order_statistics_node_updateENS_11rb_tree_tagESaIcEEESA_E10node_beginEv, symObjAddr: 0x6418, symBinAddr: 0x100006D98, symSize: 0x2C }
  - { offsetInCU: 0xDE6E, offset: 0xDE6E, size: 0x8, addend: 0x0, symName: __ZN10__gnu_pbds6detail19bin_search_tree_setISt4pairIiiENS_9null_typeESt4lessIS3_ENS0_11tree_traitsIS3_S4_S6_NS_33tree_order_statistics_node_updateENS_11rb_tree_tagESaIcEEESA_E10node_beginEv, symObjAddr: 0x6444, symBinAddr: 0x100006DC4, symSize: 0x2C }
  - { offsetInCU: 0xDF39, offset: 0xDF39, size: 0x8, addend: 0x0, symName: __ZN10__gnu_pbds4treeISt4pairIiiENS_9null_typeESt4lessIS2_ENS_11rb_tree_tagENS_33tree_order_statistics_node_updateESaIcEED0Ev, symObjAddr: 0x63F0, symBinAddr: 0x100006D70, symSize: 0x28 }
  - { offsetInCU: 0xDF41, offset: 0xDF41, size: 0x8, addend: 0x0, symName: __ZNK10__gnu_pbds6detail19bin_search_tree_setISt4pairIiiENS_9null_typeESt4lessIS3_ENS0_11tree_traitsIS3_S4_S6_NS_33tree_order_statistics_node_updateENS_11rb_tree_tagESaIcEEESA_E10node_beginEv, symObjAddr: 0x6418, symBinAddr: 0x100006D98, symSize: 0x2C }
  - { offsetInCU: 0xDF67, offset: 0xDF67, size: 0x8, addend: 0x0, symName: __ZN10__gnu_pbds4treeISt4pairIiiENS_9null_typeESt4lessIS2_ENS_11rb_tree_tagENS_33tree_order_statistics_node_updateESaIcEED1Ev, symObjAddr: 0x63BC, symBinAddr: 0x100006D3C, symSize: 0x34 }
  - { offsetInCU: 0xDF6F, offset: 0xDF6F, size: 0x8, addend: 0x0, symName: __ZN10__gnu_pbds4treeISt4pairIiiENS_9null_typeESt4lessIS2_ENS_11rb_tree_tagENS_33tree_order_statistics_node_updateESaIcEED0Ev, symObjAddr: 0x63F0, symBinAddr: 0x100006D70, symSize: 0x28 }
  - { offsetInCU: 0xDF18, offset: 0xDF18, size: 0x8, addend: 0x0, symName: __ZNK10__gnu_pbds6detail19bin_search_tree_setISt4pairIiiENS_9null_typeESt4lessIS3_ENS0_11tree_traitsIS3_S4_S6_NS_33tree_order_statistics_node_updateENS_11rb_tree_tagESaIcEEESA_E3endEv, symObjAddr: 0x6394, symBinAddr: 0x100006D14, symSize: 0x28 }
  - { offsetInCU: 0xDF20, offset: 0xDF20, size: 0x8, addend: 0x0, symName: __ZN10__gnu_pbds4treeISt4pairIiiENS_9null_typeESt4lessIS2_ENS_11rb_tree_tagENS_33tree_order_statistics_node_updateESaIcEED1Ev, symObjAddr: 0x63BC, symBinAddr: 0x100006D3C, symSize: 0x34 }
  - { offsetInCU: 0xDF6F, offset: 0xDF6F, size: 0x8, addend: 0x0, symName: __Z41__static_initialization_and_destruction_0v, symObjAddr: 0x6258, symBinAddr: 0x100006BD8, symSize: 0x13C }
  - { offsetInCU: 0xDF77, offset: 0xDF77, size: 0x8, addend: 0x0, symName: __ZNK10__gnu_pbds6detail19bin_search_tree_setISt4pairIiiENS_9null_typeESt4lessIS3_ENS0_11tree_traitsIS3_S4_S6_NS_33tree_order_statistics_node_updateENS_11rb_tree_tagESaIcEEESA_E3endEv, symObjAddr: 0x6394, symBinAddr: 0x100006D14, symSize: 0x28 }
  - { offsetInCU: 0xE035, offset: 0xE035, size: 0x8, addend: 0x0, symName: __ZSt4moveIRiEONSt16remove_referenceIT_E4typeEOS2_, symObjAddr: 0x6244, symBinAddr: 0x100006BC4, symSize: 0x14 }
  - { offsetInCU: 0xE03D, offset: 0xE03D, size: 0x8, addend: 0x0, symName: __Z41__static_initialization_and_destruction_0v, symObjAddr: 0x6258, symBinAddr: 0x100006BD8, symSize: 0x13C }
  - { offsetInCU: 0xE0EE, offset: 0xE0EE, size: 0x8, addend: 0x0, symName: __ZSt4swapIiENSt9enable_ifIXsrSt6__and_IJSt6__not_ISt15__is_tuple_likeIT_EESt21is_move_constructibleIS4_ESt18is_move_assignableIS4_EEE5valueEvE4typeERS4_SE_, symObjAddr: 0x61F0, symBinAddr: 0x100006B70, symSize: 0x54 }
  - { offsetInCU: 0xE0F6, offset: 0xE0F6, size: 0x8, addend: 0x0, symName: __ZSt4moveIRiEONSt16remove_referenceIT_E4typeEOS2_, symObjAddr: 0x6244, symBinAddr: 0x100006BC4, symSize: 0x14 }
  - { offsetInCU: 0xE0B0, offset: 0xE0B0, size: 0x8, addend: 0x0, symName: __ZNSt11__copy_moveILb0ELb0ESt26random_access_iterator_tagE12__assign_oneIPSt5arrayIiLm3EES5_EEvPT_PT0_, symObjAddr: 0x61C8, symBinAddr: 0x100006B48, symSize: 0x28 }
  - { offsetInCU: 0xE0B8, offset: 0xE0B8, size: 0x8, addend: 0x0, symName: __ZSt4swapIiENSt9enable_ifIXsrSt6__and_IJSt6__not_ISt15__is_tuple_likeIT_EESt21is_move_constructibleIS4_ESt18is_move_assignableIS4_EEE5valueEvE4typeERS4_SE_, symObjAddr: 0x61F0, symBinAddr: 0x100006B70, symSize: 0x54 }
  - { offsetInCU: 0xE110, offset: 0xE110, size: 0x8, addend: 0x0, symName: __ZNSt11__copy_moveILb1ELb0ESt26random_access_iterator_tagE12__assign_oneISt5arrayIiLm3EES4_EEvPT_PT0_, symObjAddr: 0x618C, symBinAddr: 0x100006B0C, symSize: 0x3C }
  - { offsetInCU: 0xE118, offset: 0xE118, size: 0x8, addend: 0x0, symName: __ZNSt11__copy_moveILb0ELb0ESt26random_access_iterator_tagE12__assign_oneIPSt5arrayIiLm3EES5_EEvPT_PT0_, symObjAddr: 0x61C8, symBinAddr: 0x100006B48, symSize: 0x28 }
  - { offsetInCU: 0xE1A2, offset: 0xE1A2, size: 0x8, addend: 0x0, symName: __ZSt9iter_swapIPiS0_EvT_T0_, symObjAddr: 0x6164, symBinAddr: 0x100006AE4, symSize: 0x28 }
  - { offsetInCU: 0xE1AA, offset: 0xE1AA, size: 0x8, addend: 0x0, symName: __ZNSt11__copy_moveILb1ELb0ESt26random_access_iterator_tagE12__assign_oneISt5arrayIiLm3EES4_EEvPT_PT0_, symObjAddr: 0x618C, symBinAddr: 0x100006B0C, symSize: 0x3C }
  - { offsetInCU: 0xE1EB, offset: 0xE1EB, size: 0x8, addend: 0x0, symName: __ZNSt20__copy_move_backwardILb0ELb1ESt26random_access_iterator_tagE13__copy_move_bIPSt5arrayIiLm3EES5_EEPT0_PT_S9_S7_, symObjAddr: 0x60B8, symBinAddr: 0x100006A38, symSize: 0xAC }
  - { offsetInCU: 0xE1F3, offset: 0xE1F3, size: 0x8, addend: 0x0, symName: __ZSt9iter_swapIPiS0_EvT_T0_, symObjAddr: 0x6164, symBinAddr: 0x100006AE4, symSize: 0x28 }
  - { offsetInCU: 0xE273, offset: 0xE273, size: 0x8, addend: 0x0, symName: __ZNSt11__copy_moveILb0ELb1ESt26random_access_iterator_tagE8__copy_mIPSt5arrayIiLm3EES5_EEPT0_PT_S9_S7_, symObjAddr: 0x6028, symBinAddr: 0x1000069A8, symSize: 0x90 }
  - { offsetInCU: 0xE27B, offset: 0xE27B, size: 0x8, addend: 0x0, symName: __ZNSt20__copy_move_backwardILb0ELb1ESt26random_access_iterator_tagE13__copy_move_bIPSt5arrayIiLm3EES5_EEPT0_PT_S9_S7_, symObjAddr: 0x60B8, symBinAddr: 0x100006A38, symSize: 0xAC }
  - { offsetInCU: 0xE2FB, offset: 0xE2FB, size: 0x8, addend: 0x0, symName: __ZNSt20__copy_move_backwardILb1ELb1ESt26random_access_iterator_tagE13__copy_move_bISt5arrayIiLm3EES4_EEPT0_PT_S8_S6_, symObjAddr: 0x5F4C, symBinAddr: 0x1000068CC, symSize: 0xDC }
  - { offsetInCU: 0xE303, offset: 0xE303, size: 0x8, addend: 0x0, symName: __ZNSt11__copy_moveILb0ELb1ESt26random_access_iterator_tagE8__copy_mIPSt5arrayIiLm3EES5_EEPT0_PT_S9_S7_, symObjAddr: 0x6028, symBinAddr: 0x1000069A8, symSize: 0x90 }
  - { offsetInCU: 0xE3C3, offset: 0xE3C3, size: 0x8, addend: 0x0, symName: __ZSt11swap_rangesIPiS0_ET0_T_S2_S1_, symObjAddr: 0x5EF4, symBinAddr: 0x100006874, symSize: 0x58 }
  - { offsetInCU: 0xE3CB, offset: 0xE3CB, size: 0x8, addend: 0x0, symName: __ZNSt20__copy_move_backwardILb1ELb1ESt26random_access_iterator_tagE13__copy_move_bISt5arrayIiLm3EES4_EEPT0_PT_S8_S6_, symObjAddr: 0x5F4C, symBinAddr: 0x1000068CC, symSize: 0xDC }
  - { offsetInCU: 0xE400, offset: 0xE400, size: 0x8, addend: 0x0, symName: __ZNSt5arrayIiLm3EE3endEv, symObjAddr: 0x5ED4, symBinAddr: 0x100006854, symSize: 0x20 }
  - { offsetInCU: 0xE408, offset: 0xE408, size: 0x8, addend: 0x0, symName: __ZSt11swap_rangesIPiS0_ET0_T_S2_S1_, symObjAddr: 0x5EF4, symBinAddr: 0x100006874, symSize: 0x58 }
  - { offsetInCU: 0xE455, offset: 0xE455, size: 0x8, addend: 0x0, symName: __ZNSt5arrayIiLm3EE5beginEv, symObjAddr: 0x5EB8, symBinAddr: 0x100006838, symSize: 0x1C }
  - { offsetInCU: 0xE45D, offset: 0xE45D, size: 0x8, addend: 0x0, symName: __ZNSt5arrayIiLm3EE3endEv, symObjAddr: 0x5ED4, symBinAddr: 0x100006854, symSize: 0x20 }
  - { offsetInCU: 0xE4AA, offset: 0xE4AA, size: 0x8, addend: 0x0, symName: __ZN9__gnu_cxx5__ops14_Iter_comp_valIZ4mainEUlSt5arrayIiLm3EES3_E_EclINS_17__normal_iteratorIPS3_St6vectorIS3_SaIS3_EEEES3_EEbT_RT0_, symObjAddr: 0x5E5C, symBinAddr: 0x1000067DC, symSize: 0x5C }
  - { offsetInCU: 0xE4B2, offset: 0xE4B2, size: 0x8, addend: 0x0, symName: __ZNSt5arrayIiLm3EE5beginEv, symObjAddr: 0x5EB8, symBinAddr: 0x100006838, symSize: 0x1C }
  - { offsetInCU: 0xE590, offset: 0xE590, size: 0x8, addend: 0x0, symName: __ZSt9__fill_a1IPiiEN9__gnu_cxx11__enable_ifIXsrSt11__is_scalarIT0_E7__valueEvE6__typeET_S8_RKS4_, symObjAddr: 0x5E04, symBinAddr: 0x100006784, symSize: 0x58 }
  - { offsetInCU: 0xE598, offset: 0xE598, size: 0x8, addend: 0x0, symName: __ZN9__gnu_cxx5__ops14_Iter_comp_valIZ4mainEUlSt5arrayIiLm3EES3_E_EclINS_17__normal_iteratorIPS3_St6vectorIS3_SaIS3_EEEES3_EEbT_RT0_, symObjAddr: 0x5E5C, symBinAddr: 0x1000067DC, symSize: 0x5C }
  - { offsetInCU: 0xE64E, offset: 0xE64E, size: 0x8, addend: 0x0, symName: __ZSt9__fill_a1IPSt5arrayIiLm3EES1_EN9__gnu_cxx11__enable_ifIXntsrSt11__is_scalarIT0_E7__valueEvE6__typeET_SA_RKS6_, symObjAddr: 0x5DAC, symBinAddr: 0x10000672C, symSize: 0x58 }
  - { offsetInCU: 0xE656, offset: 0xE656, size: 0x8, addend: 0x0, symName: __ZSt9__fill_a1IPiiEN9__gnu_cxx11__enable_ifIXsrSt11__is_scalarIT0_E7__valueEvE6__typeET_S8_RKS4_, symObjAddr: 0x5E04, symBinAddr: 0x100006784, symSize: 0x58 }
  - { offsetInCU: 0xE6B3, offset: 0xE6B3, size: 0x8, addend: 0x0, symName: __ZSt23__copy_move_backward_a2ILb0EPPSt5arrayIiLm3EES3_ET1_T0_S5_S4_, symObjAddr: 0x5D80, symBinAddr: 0x100006700, symSize: 0x2C }
  - { offsetInCU: 0xE6BB, offset: 0xE6BB, size: 0x8, addend: 0x0, symName: __ZSt9__fill_a1IPSt5arrayIiLm3EES1_EN9__gnu_cxx11__enable_ifIXntsrSt11__is_scalarIT0_E7__valueEvE6__typeET_SA_RKS6_, symObjAddr: 0x5DAC, symBinAddr: 0x10000672C, symSize: 0x58 }
  - { offsetInCU: 0xE730, offset: 0xE730, size: 0x8, addend: 0x0, symName: __ZSt14__copy_move_a2ILb0EPPSt5arrayIiLm3EES3_ET1_T0_S5_S4_, symObjAddr: 0x5D54, symBinAddr: 0x1000066D4, symSize: 0x2C }
  - { offsetInCU: 0xE738, offset: 0xE738, size: 0x8, addend: 0x0, symName: __ZSt23__copy_move_backward_a2ILb0EPPSt5arrayIiLm3EES3_ET1_T0_S5_S4_, symObjAddr: 0x5D80, symBinAddr: 0x100006700, symSize: 0x2C }
  - { offsetInCU: 0xE7CD, offset: 0xE7CD, size: 0x8, addend: 0x0, symName: __ZSt23__copy_move_backward_a2ILb1EPSt5arrayIiLm3EES2_ET1_T0_S4_S3_, symObjAddr: 0x5D28, symBinAddr: 0x1000066A8, symSize: 0x2C }
  - { offsetInCU: 0xE7D5, offset: 0xE7D5, size: 0x8, addend: 0x0, symName: __ZSt14__copy_move_a2ILb0EPPSt5arrayIiLm3EES3_ET1_T0_S5_S4_, symObjAddr: 0x5D54, symBinAddr: 0x1000066D4, symSize: 0x2C }
  - { offsetInCU: 0xE7CC, offset: 0xE7CC, size: 0x8, addend: 0x0, symName: __ZNSt5arrayIiLm3EE4swapERS0_, symObjAddr: 0x5CD4, symBinAddr: 0x100006654, symSize: 0x54 }
  - { offsetInCU: 0xE7D4, offset: 0xE7D4, size: 0x8, addend: 0x0, symName: __ZSt23__copy_move_backward_a2ILb1EPSt5arrayIiLm3EES2_ET1_T0_S4_S3_, symObjAddr: 0x5D28, symBinAddr: 0x1000066A8, symSize: 0x2C }
  - { offsetInCU: 0xE8EB, offset: 0xE8EB, size: 0x8, addend: 0x0, symName: __ZSt11__push_heapIN9__gnu_cxx17__normal_iteratorIPSt5arrayIiLm3EESt6vectorIS3_SaIS3_EEEElS3_NS0_5__ops14_Iter_comp_valIZ4mainEUlS3_S3_E_EEEvT_T0_SE_T1_RT2_, symObjAddr: 0x5B78, symBinAddr: 0x1000064F8, symSize: 0x15C }
  - { offsetInCU: 0xE8F3, offset: 0xE8F3, size: 0x8, addend: 0x0, symName: __ZNSt5arrayIiLm3EE4swapERS0_, symObjAddr: 0x5CD4, symBinAddr: 0x100006654, symSize: 0x54 }
  - { offsetInCU: 0xE907, offset: 0xE907, size: 0x8, addend: 0x0, symName: __ZN9__gnu_cxx5__ops14_Iter_comp_valIZ4mainEUlSt5arrayIiLm3EES3_E_EC1EONS0_15_Iter_comp_iterIS4_EE, symObjAddr: 0x5B54, symBinAddr: 0x1000064D4, symSize: 0x24 }
  - { offsetInCU: 0xE90F, offset: 0xE90F, size: 0x8, addend: 0x0, symName: __ZSt11__push_heapIN9__gnu_cxx17__normal_iteratorIPSt5arrayIiLm3EESt6vectorIS3_SaIS3_EEEElS3_NS0_5__ops14_Iter_comp_valIZ4mainEUlS3_S3_E_EEEvT_T0_SE_T1_RT2_, symObjAddr: 0x5B78, symBinAddr: 0x1000064F8, symSize: 0x15C }
  - { offsetInCU: 0xE96F, offset: 0xE96F, size: 0x8, addend: 0x0, symName: __ZSt8__fill_aIPiiEvT_S1_RKT0_, symObjAddr: 0x5B24, symBinAddr: 0x1000064A4, symSize: 0x30 }
  - { offsetInCU: 0xE977, offset: 0xE977, size: 0x8, addend: 0x0, symName: __ZN9__gnu_cxx5__ops14_Iter_comp_valIZ4mainEUlSt5arrayIiLm3EES3_E_EC1EONS0_15_Iter_comp_iterIS4_EE, symObjAddr: 0x5B54, symBinAddr: 0x1000064D4, symSize: 0x24 }
  - { offsetInCU: 0xEA17, offset: 0xEA17, size: 0x8, addend: 0x0, symName: __ZSt8__fill_aIPSt5arrayIiLm3EES1_EvT_S3_RKT0_, symObjAddr: 0x5AF4, symBinAddr: 0x100006474, symSize: 0x30 }
  - { offsetInCU: 0xEA1F, offset: 0xEA1F, size: 0x8, addend: 0x0, symName: __ZSt8__fill_aIPiiEvT_S1_RKT0_, symObjAddr: 0x5B24, symBinAddr: 0x1000064A4, symSize: 0x30 }
  - { offsetInCU: 0xEAC2, offset: 0xEAC2, size: 0x8, addend: 0x0, symName: __ZSt23__copy_move_backward_a1ILb0EPPSt5arrayIiLm3EES3_ET1_T0_S5_S4_, symObjAddr: 0x5AC8, symBinAddr: 0x100006448, symSize: 0x2C }
  - { offsetInCU: 0xEACA, offset: 0xEACA, size: 0x8, addend: 0x0, symName: __ZSt8__fill_aIPSt5arrayIiLm3EES1_EvT_S3_RKT0_, symObjAddr: 0x5AF4, symBinAddr: 0x100006474, symSize: 0x30 }
  - { offsetInCU: 0xEB15, offset: 0xEB15, size: 0x8, addend: 0x0, symName: __ZSt12__niter_wrapIPPSt5arrayIiLm3EEET_RKS4_S4_, symObjAddr: 0x5AB0, symBinAddr: 0x100006430, symSize: 0x18 }
  - { offsetInCU: 0xEB1D, offset: 0xEB1D, size: 0x8, addend: 0x0, symName: __ZSt23__copy_move_backward_a1ILb0EPPSt5arrayIiLm3EES3_ET1_T0_S5_S4_, symObjAddr: 0x5AC8, symBinAddr: 0x100006448, symSize: 0x2C }
  - { offsetInCU: 0xEB97, offset: 0xEB97, size: 0x8, addend: 0x0, symName: __ZSt14__copy_move_a1ILb0EPPSt5arrayIiLm3EES3_ET1_T0_S5_S4_, symObjAddr: 0x5A84, symBinAddr: 0x100006404, symSize: 0x2C }
  - { offsetInCU: 0xEB9F, offset: 0xEB9F, size: 0x8, addend: 0x0, symName: __ZSt12__niter_wrapIPPSt5arrayIiLm3EEET_RKS4_S4_, symObjAddr: 0x5AB0, symBinAddr: 0x100006430, symSize: 0x18 }
  - { offsetInCU: 0xEBF7, offset: 0xEBF7, size: 0x8, addend: 0x0, symName: __ZSt12__niter_baseIPPSt5arrayIiLm3EEET_S4_, symObjAddr: 0x5A70, symBinAddr: 0x1000063F0, symSize: 0x14 }
  - { offsetInCU: 0xEBFF, offset: 0xEBFF, size: 0x8, addend: 0x0, symName: __ZSt14__copy_move_a1ILb0EPPSt5arrayIiLm3EES3_ET1_T0_S5_S4_, symObjAddr: 0x5A84, symBinAddr: 0x100006404, symSize: 0x2C }
  - { offsetInCU: 0xECD3, offset: 0xECD3, size: 0x8, addend: 0x0, symName: __ZSt12__niter_wrapIN9__gnu_cxx17__normal_iteratorIPSt5arrayIiLm3EESt6vectorIS3_SaIS3_EEEES4_ET_S9_T0_, symObjAddr: 0x5A28, symBinAddr: 0x1000063A8, symSize: 0x48 }
  - { offsetInCU: 0xECDB, offset: 0xECDB, size: 0x8, addend: 0x0, symName: __ZSt12__niter_baseIPPSt5arrayIiLm3EEET_S4_, symObjAddr: 0x5A70, symBinAddr: 0x1000063F0, symSize: 0x14 }
  - { offsetInCU: 0xECED, offset: 0xECED, size: 0x8, addend: 0x0, symName: __ZSt23__copy_move_backward_a1ILb1EPSt5arrayIiLm3EES2_ET1_T0_S4_S3_, symObjAddr: 0x59FC, symBinAddr: 0x10000637C, symSize: 0x2C }
  - { offsetInCU: 0xECF5, offset: 0xECF5, size: 0x8, addend: 0x0, symName: __ZSt12__niter_wrapIN9__gnu_cxx17__normal_iteratorIPSt5arrayIiLm3EESt6vectorIS3_SaIS3_EEEES4_ET_S9_T0_, symObjAddr: 0x5A28, symBinAddr: 0x1000063A8, symSize: 0x48 }
  - { offsetInCU: 0xED99, offset: 0xED99, size: 0x8, addend: 0x0, symName: __ZSt12__niter_baseIPSt5arrayIiLm3EESt6vectorIS1_SaIS1_EEET_N9__gnu_cxx17__normal_iteratorIS6_T0_EE, symObjAddr: 0x59DC, symBinAddr: 0x10000635C, symSize: 0x20 }
  - { offsetInCU: 0xEDA1, offset: 0xEDA1, size: 0x8, addend: 0x0, symName: __ZSt23__copy_move_backward_a1ILb1EPSt5arrayIiLm3EES2_ET1_T0_S4_S3_, symObjAddr: 0x59FC, symBinAddr: 0x10000637C, symSize: 0x2C }
  - { offsetInCU: 0xEDC6, offset: 0xEDC6, size: 0x8, addend: 0x0, symName: __ZSt4swapIiLm3EENSt9enable_ifIXsrNSt14__array_traitsIT_XT0_EE13_Is_swappableE5valueEvE4typeERSt5arrayIS2_XT0_EES9_, symObjAddr: 0x59B4, symBinAddr: 0x100006334, symSize: 0x28 }
  - { offsetInCU: 0xEDCE, offset: 0xEDCE, size: 0x8, addend: 0x0, symName: __ZSt12__niter_baseIPSt5arrayIiLm3EESt6vectorIS1_SaIS1_EEET_N9__gnu_cxx17__normal_iteratorIS6_T0_EE, symObjAddr: 0x59DC, symBinAddr: 0x10000635C, symSize: 0x20 }
  - { offsetInCU: 0xEE8B, offset: 0xEE8B, size: 0x8, addend: 0x0, symName: __ZSt13__adjust_heapIN9__gnu_cxx17__normal_iteratorIPSt5arrayIiLm3EESt6vectorIS3_SaIS3_EEEElS3_NS0_5__ops15_Iter_comp_iterIZ4mainEUlS3_S3_E_EEEvT_T0_SE_T1_T2_, symObjAddr: 0x57A0, symBinAddr: 0x100006120, symSize: 0x214 }
  - { offsetInCU: 0xEE93, offset: 0xEE93, size: 0x8, addend: 0x0, symName: __ZSt4swapIiLm3EENSt9enable_ifIXsrNSt14__array_traitsIT_XT0_EE13_Is_swappableE5valueEvE4typeERSt5arrayIS2_XT0_EES9_, symObjAddr: 0x59B4, symBinAddr: 0x100006334, symSize: 0x28 }
  - { offsetInCU: 0xEF09, offset: 0xEF09, size: 0x8, addend: 0x0, symName: __ZSt10__fill_n_aIPimiET_S1_T0_RKT1_St26random_access_iterator_tag, symObjAddr: 0x573C, symBinAddr: 0x1000060BC, symSize: 0x64 }
  - { offsetInCU: 0xEF11, offset: 0xEF11, size: 0x8, addend: 0x0, symName: __ZSt13__adjust_heapIN9__gnu_cxx17__normal_iteratorIPSt5arrayIiLm3EESt6vectorIS3_SaIS3_EEEElS3_NS0_5__ops15_Iter_comp_iterIZ4mainEUlS3_S3_E_EEEvT_T0_SE_T1_T2_, symObjAddr: 0x57A0, symBinAddr: 0x100006120, symSize: 0x214 }
  - { offsetInCU: 0xEFFF, offset: 0xEFFF, size: 0x8, addend: 0x0, symName: __ZSt10__fill_n_aIPSt5arrayIiLm3EEmS1_ET_S3_T0_RKT1_St26random_access_iterator_tag, symObjAddr: 0x56B8, symBinAddr: 0x100006038, symSize: 0x84 }
  - { offsetInCU: 0xF007, offset: 0xF007, size: 0x8, addend: 0x0, symName: __ZSt10__fill_n_aIPimiET_S1_T0_RKT1_St26random_access_iterator_tag, symObjAddr: 0x573C, symBinAddr: 0x1000060BC, symSize: 0x64 }
  - { offsetInCU: 0xF0B9, offset: 0xF0B9, size: 0x8, addend: 0x0, symName: __ZSt22__copy_move_backward_aILb0EPPSt5arrayIiLm3EES3_ET1_T0_S5_S4_, symObjAddr: 0x5658, symBinAddr: 0x100005FD8, symSize: 0x60 }
  - { offsetInCU: 0xF0C1, offset: 0xF0C1, size: 0x8, addend: 0x0, symName: __ZSt10__fill_n_aIPSt5arrayIiLm3EEmS1_ET_S3_T0_RKT1_St26random_access_iterator_tag, symObjAddr: 0x56B8, symBinAddr: 0x100006038, symSize: 0x84 }
  - { offsetInCU: 0xF136, offset: 0xF136, size: 0x8, addend: 0x0, symName: __ZSt13__copy_move_aILb0EPPSt5arrayIiLm3EES3_ET1_T0_S5_S4_, symObjAddr: 0x55F8, symBinAddr: 0x100005F78, symSize: 0x60 }
  - { offsetInCU: 0xF13E, offset: 0xF13E, size: 0x8, addend: 0x0, symName: __ZSt22__copy_move_backward_aILb0EPPSt5arrayIiLm3EES3_ET1_T0_S5_S4_, symObjAddr: 0x5658, symBinAddr: 0x100005FD8, symSize: 0x60 }
  - { offsetInCU: 0xF198, offset: 0xF198, size: 0x8, addend: 0x0, symName: __ZSt12__miter_baseIPPSt5arrayIiLm3EEET_S4_, symObjAddr: 0x55E4, symBinAddr: 0x100005F64, symSize: 0x14 }
  - { offsetInCU: 0xF1A0, offset: 0xF1A0, size: 0x8, addend: 0x0, symName: __ZSt13__copy_move_aILb0EPPSt5arrayIiLm3EES3_ET1_T0_S5_S4_, symObjAddr: 0x55F8, symBinAddr: 0x100005F78, symSize: 0x60 }
  - { offsetInCU: 0xF1AA, offset: 0xF1AA, size: 0x8, addend: 0x0, symName: __ZN9__gnu_cxx5__ops14_Val_comp_iterIZ4mainEUlSt5arrayIiLm3EES3_E_EclIS3_NS_17__normal_iteratorIPS3_St6vectorIS3_SaIS3_EEEEEEbRT_T0_, symObjAddr: 0x558C, symBinAddr: 0x100005F0C, symSize: 0x58 }
  - { offsetInCU: 0xF1B2, offset: 0xF1B2, size: 0x8, addend: 0x0, symName: __ZSt12__miter_baseIPPSt5arrayIiLm3EEET_S4_, symObjAddr: 0x55E4, symBinAddr: 0x100005F64, symSize: 0x14 }
  - { offsetInCU: 0xF243, offset: 0xF243, size: 0x8, addend: 0x0, symName: __ZN9__gnu_cxx5__ops14_Val_comp_iterIZ4mainEUlSt5arrayIiLm3EES3_E_EC1EONS0_15_Iter_comp_iterIS4_EE, symObjAddr: 0x5568, symBinAddr: 0x100005EE8, symSize: 0x24 }
  - { offsetInCU: 0xF24B, offset: 0xF24B, size: 0x8, addend: 0x0, symName: __ZN9__gnu_cxx5__ops14_Val_comp_iterIZ4mainEUlSt5arrayIiLm3EES3_E_EclIS3_NS_17__normal_iteratorIPS3_St6vectorIS3_SaIS3_EEEEEEbRT_T0_, symObjAddr: 0x558C, symBinAddr: 0x100005F0C, symSize: 0x58 }
  - { offsetInCU: 0xF2DF, offset: 0xF2DF, size: 0x8, addend: 0x0, symName: __ZSt4moveIRN9__gnu_cxx5__ops15_Iter_comp_iterIZ4mainEUlSt5arrayIiLm3EES4_E_EEEONSt16remove_referenceIT_E4typeEOS9_, symObjAddr: 0x5554, symBinAddr: 0x100005ED4, symSize: 0x14 }
  - { offsetInCU: 0xF2E7, offset: 0xF2E7, size: 0x8, addend: 0x0, symName: __ZN9__gnu_cxx5__ops14_Val_comp_iterIZ4mainEUlSt5arrayIiLm3EES3_E_EC1EONS0_15_Iter_comp_iterIS4_EE, symObjAddr: 0x5568, symBinAddr: 0x100005EE8, symSize: 0x24 }
  - { offsetInCU: 0xF418, offset: 0xF418, size: 0x8, addend: 0x0, symName: __ZSt22__copy_move_backward_aILb1EN9__gnu_cxx17__normal_iteratorIPSt5arrayIiLm3EESt6vectorIS3_SaIS3_EEEES8_ET1_T0_SA_S9_, symObjAddr: 0x54F4, symBinAddr: 0x100005E74, symSize: 0x60 }
  - { offsetInCU: 0xF420, offset: 0xF420, size: 0x8, addend: 0x0, symName: __ZSt4moveIRN9__gnu_cxx5__ops15_Iter_comp_iterIZ4mainEUlSt5arrayIiLm3EES4_E_EEEONSt16remove_referenceIT_E4typeEOS9_, symObjAddr: 0x5554, symBinAddr: 0x100005ED4, symSize: 0x14 }
  - { offsetInCU: 0xF429, offset: 0xF429, size: 0x8, addend: 0x0, symName: __ZSt12__miter_baseIN9__gnu_cxx17__normal_iteratorIPSt5arrayIiLm3EESt6vectorIS3_SaIS3_EEEEET_S9_, symObjAddr: 0x54E0, symBinAddr: 0x100005E60, symSize: 0x14 }
  - { offsetInCU: 0xF431, offset: 0xF431, size: 0x8, addend: 0x0, symName: __ZSt22__copy_move_backward_aILb1EN9__gnu_cxx17__normal_iteratorIPSt5arrayIiLm3EESt6vectorIS3_SaIS3_EEEES8_ET1_T0_SA_S9_, symObjAddr: 0x54F4, symBinAddr: 0x100005E74, symSize: 0x60 }
  - { offsetInCU: 0xF4C3, offset: 0xF4C3, size: 0x8, addend: 0x0, symName: __ZSt9iter_swapIN9__gnu_cxx17__normal_iteratorIPSt5arrayIiLm3EESt6vectorIS3_SaIS3_EEEES8_EvT_T0_, symObjAddr: 0x549C, symBinAddr: 0x100005E1C, symSize: 0x44 }
  - { offsetInCU: 0xF4CB, offset: 0xF4CB, size: 0x8, addend: 0x0, symName: __ZSt12__miter_baseIN9__gnu_cxx17__normal_iteratorIPSt5arrayIiLm3EESt6vectorIS3_SaIS3_EEEEET_S9_, symObjAddr: 0x54E0, symBinAddr: 0x100005E60, symSize: 0x14 }
  - { offsetInCU: 0xF40E, offset: 0xF40E, size: 0x8, addend: 0x0, symName: __ZN9__gnu_cxx17__normal_iteratorIPSt5arrayIiLm3EESt6vectorIS2_SaIS2_EEEmmEv, symObjAddr: 0x5474, symBinAddr: 0x100005DF4, symSize: 0x28 }
  - { offsetInCU: 0xF416, offset: 0xF416, size: 0x8, addend: 0x0, symName: __ZSt9iter_swapIN9__gnu_cxx17__normal_iteratorIPSt5arrayIiLm3EESt6vectorIS3_SaIS3_EEEES8_EvT_T0_, symObjAddr: 0x549C, symBinAddr: 0x100005E1C, symSize: 0x44 }
  - { offsetInCU: 0xF4FC, offset: 0xF4FC, size: 0x8, addend: 0x0, symName: __ZSt10__pop_heapIN9__gnu_cxx17__normal_iteratorIPSt5arrayIiLm3EESt6vectorIS3_SaIS3_EEEENS0_5__ops15_Iter_comp_iterIZ4mainEUlS3_S3_E_EEEvT_SD_SD_RT0_, symObjAddr: 0x53B8, symBinAddr: 0x100005D38, symSize: 0xBC }
  - { offsetInCU: 0xF504, offset: 0xF504, size: 0x8, addend: 0x0, symName: __ZN9__gnu_cxx17__normal_iteratorIPSt5arrayIiLm3EESt6vectorIS2_SaIS2_EEEmmEv, symObjAddr: 0x5474, symBinAddr: 0x100005DF4, symSize: 0x28 }
  - { offsetInCU: 0xF59A, offset: 0xF59A, size: 0x8, addend: 0x0, symName: __ZN9__gnu_cxxltIPSt5arrayIiLm3EESt6vectorIS2_SaIS2_EEEEbRKNS_17__normal_iteratorIT_T0_EESC_, symObjAddr: 0x5374, symBinAddr: 0x100005CF4, symSize: 0x44 }
  - { offsetInCU: 0xF5A2, offset: 0xF5A2, size: 0x8, addend: 0x0, symName: __ZSt10__pop_heapIN9__gnu_cxx17__normal_iteratorIPSt5arrayIiLm3EESt6vectorIS3_SaIS3_EEEENS0_5__ops15_Iter_comp_iterIZ4mainEUlS3_S3_E_EEEvT_SD_SD_RT0_, symObjAddr: 0x53B8, symBinAddr: 0x100005D38, symSize: 0xBC }
  - { offsetInCU: 0xF62E, offset: 0xF62E, size: 0x8, addend: 0x0, symName: __ZSt11__make_heapIN9__gnu_cxx17__normal_iteratorIPSt5arrayIiLm3EESt6vectorIS3_SaIS3_EEEENS0_5__ops15_Iter_comp_iterIZ4mainEUlS3_S3_E_EEEvT_SD_RT0_, symObjAddr: 0x5280, symBinAddr: 0x100005C00, symSize: 0xF4 }
  - { offsetInCU: 0xF636, offset: 0xF636, size: 0x8, addend: 0x0, symName: __ZN9__gnu_cxxltIPSt5arrayIiLm3EESt6vectorIS2_SaIS2_EEEEbRKNS_17__normal_iteratorIT_T0_EESC_, symObjAddr: 0x5374, symBinAddr: 0x100005CF4, symSize: 0x44 }
  - { offsetInCU: 0xF6A5, offset: 0xF6A5, size: 0x8, addend: 0x0, symName: __ZSt6fill_nIPimiET_S1_T0_RKT1_, symObjAddr: 0x5238, symBinAddr: 0x100005BB8, symSize: 0x48 }
  - { offsetInCU: 0xF6AD, offset: 0xF6AD, size: 0x8, addend: 0x0, symName: __ZSt11__make_heapIN9__gnu_cxx17__normal_iteratorIPSt5arrayIiLm3EESt6vectorIS3_SaIS3_EEEENS0_5__ops15_Iter_comp_iterIZ4mainEUlS3_S3_E_EEEvT_SD_RT0_, symObjAddr: 0x5280, symBinAddr: 0x100005C00, symSize: 0xF4 }
  - { offsetInCU: 0xF70D, offset: 0xF70D, size: 0x8, addend: 0x0, symName: __ZNSt15__new_allocatorIiE8allocateEmPKv, symObjAddr: 0x51BC, symBinAddr: 0x100005B3C, symSize: 0x7C }
  - { offsetInCU: 0xF715, offset: 0xF715, size: 0x8, addend: 0x0, symName: __ZSt6fill_nIPimiET_S1_T0_RKT1_, symObjAddr: 0x5238, symBinAddr: 0x100005BB8, symSize: 0x48 }
  - { offsetInCU: 0xF83F, offset: 0xF83F, size: 0x8, addend: 0x0, symName: __ZSt6fill_nIPSt5arrayIiLm3EEmS1_ET_S3_T0_RKT1_, symObjAddr: 0x5174, symBinAddr: 0x100005AF4, symSize: 0x48 }
  - { offsetInCU: 0xF847, offset: 0xF847, size: 0x8, addend: 0x0, symName: __ZNSt15__new_allocatorIiE8allocateEmPKv, symObjAddr: 0x51BC, symBinAddr: 0x100005B3C, symSize: 0x7C }
  - { offsetInCU: 0xF8C6, offset: 0xF8C6, size: 0x8, addend: 0x0, symName: __ZSt10_ConstructISt5arrayIiLm3EEJEEvPT_DpOT0_, symObjAddr: 0x5130, symBinAddr: 0x100005AB0, symSize: 0x44 }
  - { offsetInCU: 0xF8CE, offset: 0xF8CE, size: 0x8, addend: 0x0, symName: __ZSt6fill_nIPSt5arrayIiLm3EEmS1_ET_S3_T0_RKT1_, symObjAddr: 0x5174, symBinAddr: 0x100005AF4, symSize: 0x48 }
  - { offsetInCU: 0xF914, offset: 0xF914, size: 0x8, addend: 0x0, symName: __ZSt11__addressofISt5arrayIiLm3EEEPT_RS2_, symObjAddr: 0x511C, symBinAddr: 0x100005A9C, symSize: 0x14 }
  - { offsetInCU: 0xF91C, offset: 0xF91C, size: 0x8, addend: 0x0, symName: __ZSt10_ConstructISt5arrayIiLm3EEJEEvPT_DpOT0_, symObjAddr: 0x5130, symBinAddr: 0x100005AB0, symSize: 0x44 }
  - { offsetInCU: 0xF941, offset: 0xF941, size: 0x8, addend: 0x0, symName: __ZNK10__gnu_pbds33tree_order_statistics_node_updateINS_6detail30bin_search_tree_const_node_it_INS1_13rb_tree_node_ISt4pairIiiEmSaIcEEENS1_25bin_search_tree_const_it_IPS7_S5_PS5_PKS5_RS5_RSB_Lb1ES6_EESF_S6_EESG_St4lessIS5_ES6_EclESG_SG_, symObjAddr: 0x5058, symBinAddr: 0x1000059D8, symSize: 0xC4 }
  - { offsetInCU: 0xF949, offset: 0xF949, size: 0x8, addend: 0x0, symName: __ZSt11__addressofISt5arrayIiLm3EEEPT_RS2_, symObjAddr: 0x511C, symBinAddr: 0x100005A9C, symSize: 0x14 }
  - { offsetInCU: 0xF9E2, offset: 0xF9E2, size: 0x8, addend: 0x0, symName: __ZN10__gnu_pbds6detail12cond_dealtorINS0_13rb_tree_node_ISt4pairIiiEmSaIcEEES5_E13set_no_actionEv, symObjAddr: 0x5038, symBinAddr: 0x1000059B8, symSize: 0x20 }
  - { offsetInCU: 0xF9EA, offset: 0xF9EA, size: 0x8, addend: 0x0, symName: __ZNK10__gnu_pbds33tree_order_statistics_node_updateINS_6detail30bin_search_tree_const_node_it_INS1_13rb_tree_node_ISt4pairIiiEmSaIcEEENS1_25bin_search_tree_const_it_IPS7_S5_PS5_PKS5_RS5_RSB_Lb1ES6_EESF_S6_EESG_St4lessIS5_ES6_EclESG_SG_, symObjAddr: 0x5058, symBinAddr: 0x1000059D8, symSize: 0xC4 }
  - { offsetInCU: 0xFA8D, offset: 0xFA8D, size: 0x8, addend: 0x0, symName: __ZN10__gnu_pbds6detail12cond_dealtorINS0_13rb_tree_node_ISt4pairIiiEmSaIcEEES5_ED1Ev, symObjAddr: 0x4FF0, symBinAddr: 0x100005970, symSize: 0x48 }
  - { offsetInCU: 0xFA95, offset: 0xFA95, size: 0x8, addend: 0x0, symName: __ZN10__gnu_pbds6detail12cond_dealtorINS0_13rb_tree_node_ISt4pairIiiEmSaIcEEES5_E13set_no_actionEv, symObjAddr: 0x5038, symBinAddr: 0x1000059B8, symSize: 0x20 }
  - { offsetInCU: 0xFAE7, offset: 0xFAE7, size: 0x8, addend: 0x0, symName: __ZN10__gnu_pbds6detail12cond_dealtorINS0_13rb_tree_node_ISt4pairIiiEmSaIcEEES5_EC1EPS6_, symObjAddr: 0x4FC4, symBinAddr: 0x100005944, symSize: 0x2C }
  - { offsetInCU: 0xFAEF, offset: 0xFAEF, size: 0x8, addend: 0x0, symName: __ZN10__gnu_pbds6detail12cond_dealtorINS0_13rb_tree_node_ISt4pairIiiEmSaIcEEES5_ED1Ev, symObjAddr: 0x4FF0, symBinAddr: 0x100005970, symSize: 0x48 }
  - { offsetInCU: 0xFB3D, offset: 0xFB3D, size: 0x8, addend: 0x0, symName: __ZSt13copy_backwardIPPSt5arrayIiLm3EES3_ET0_T_S5_S4_, symObjAddr: 0x4F7C, symBinAddr: 0x1000058FC, symSize: 0x48 }
  - { offsetInCU: 0xFB45, offset: 0xFB45, size: 0x8, addend: 0x0, symName: __ZN10__gnu_pbds6detail12cond_dealtorINS0_13rb_tree_node_ISt4pairIiiEmSaIcEEES5_EC1EPS6_, symObjAddr: 0x4FC4, symBinAddr: 0x100005944, symSize: 0x2C }
  - { offsetInCU: 0xFBAB, offset: 0xFBAB, size: 0x8, addend: 0x0, symName: __ZSt4copyIPPSt5arrayIiLm3EES3_ET0_T_S5_S4_, symObjAddr: 0x4F34, symBinAddr: 0x1000058B4, symSize: 0x48 }
  - { offsetInCU: 0xFBB3, offset: 0xFBB3, size: 0x8, addend: 0x0, symName: __ZSt13copy_backwardIPPSt5arrayIiLm3EES3_ET0_T_S5_S4_, symObjAddr: 0x4F7C, symBinAddr: 0x1000058FC, symSize: 0x48 }
  - { offsetInCU: 0xFBE4, offset: 0xFBE4, size: 0x8, addend: 0x0, symName: __ZNSt15__new_allocatorIPSt5arrayIiLm3EEE8allocateEmPKv, symObjAddr: 0x4EB8, symBinAddr: 0x100005838, symSize: 0x7C }
  - { offsetInCU: 0xFBEC, offset: 0xFBEC, size: 0x8, addend: 0x0, symName: __ZSt4copyIPPSt5arrayIiLm3EES3_ET0_T_S5_S4_, symObjAddr: 0x4F34, symBinAddr: 0x1000058B4, symSize: 0x48 }
  - { offsetInCU: 0xFD3A, offset: 0xFD3A, size: 0x8, addend: 0x0, symName: __ZSt25__unguarded_linear_insertIN9__gnu_cxx17__normal_iteratorIPSt5arrayIiLm3EESt6vectorIS3_SaIS3_EEEENS0_5__ops14_Val_comp_iterIZ4mainEUlS3_S3_E_EEEvT_T0_, symObjAddr: 0x4DD8, symBinAddr: 0x100005758, symSize: 0xE0 }
  - { offsetInCU: 0xFD42, offset: 0xFD42, size: 0x8, addend: 0x0, symName: __ZNSt15__new_allocatorIPSt5arrayIiLm3EEE8allocateEmPKv, symObjAddr: 0x4EB8, symBinAddr: 0x100005838, symSize: 0x7C }
  - { offsetInCU: 0xFD42, offset: 0xFD42, size: 0x8, addend: 0x0, symName: __ZN9__gnu_cxx5__ops15__val_comp_iterIZ4mainEUlSt5arrayIiLm3EES3_E_EENS0_14_Val_comp_iterIT_EENS0_15_Iter_comp_iterIS6_EE, symObjAddr: 0x4DA0, symBinAddr: 0x100005720, symSize: 0x38 }
  - { offsetInCU: 0xFD4A, offset: 0xFD4A, size: 0x8, addend: 0x0, symName: __ZSt25__unguarded_linear_insertIN9__gnu_cxx17__normal_iteratorIPSt5arrayIiLm3EESt6vectorIS3_SaIS3_EEEENS0_5__ops14_Val_comp_iterIZ4mainEUlS3_S3_E_EEEvT_T0_, symObjAddr: 0x4DD8, symBinAddr: 0x100005758, symSize: 0xE0 }
  - { offsetInCU: 0xFE63, offset: 0xFE63, size: 0x8, addend: 0x0, symName: __ZSt13move_backwardIN9__gnu_cxx17__normal_iteratorIPSt5arrayIiLm3EESt6vectorIS3_SaIS3_EEEES8_ET0_T_SA_S9_, symObjAddr: 0x4D58, symBinAddr: 0x1000056D8, symSize: 0x48 }
  - { offsetInCU: 0xFE6B, offset: 0xFE6B, size: 0x8, addend: 0x0, symName: __ZN9__gnu_cxx5__ops15__val_comp_iterIZ4mainEUlSt5arrayIiLm3EES3_E_EENS0_14_Val_comp_iterIT_EENS0_15_Iter_comp_iterIS6_EE, symObjAddr: 0x4DA0, symBinAddr: 0x100005720, symSize: 0x38 }
  - { offsetInCU: 0xFE18, offset: 0xFE18, size: 0x8, addend: 0x0, symName: __ZSt4moveIRSt5arrayIiLm3EEEONSt16remove_referenceIT_E4typeEOS4_, symObjAddr: 0x4D44, symBinAddr: 0x1000056C4, symSize: 0x14 }
  - { offsetInCU: 0xFE20, offset: 0xFE20, size: 0x8, addend: 0x0, symName: __ZSt13move_backwardIN9__gnu_cxx17__normal_iteratorIPSt5arrayIiLm3EESt6vectorIS3_SaIS3_EEEES8_ET0_T_SA_S9_, symObjAddr: 0x4D58, symBinAddr: 0x1000056D8, symSize: 0x48 }
  - { offsetInCU: 0xFE0E, offset: 0xFE0E, size: 0x8, addend: 0x0, symName: __ZNK9__gnu_cxx17__normal_iteratorIPSt5arrayIiLm3EESt6vectorIS2_SaIS2_EEEdeEv, symObjAddr: 0x4D2C, symBinAddr: 0x1000056AC, symSize: 0x18 }
  - { offsetInCU: 0xFE16, offset: 0xFE16, size: 0x8, addend: 0x0, symName: __ZSt4moveIRSt5arrayIiLm3EEEONSt16remove_referenceIT_E4typeEOS4_, symObjAddr: 0x4D44, symBinAddr: 0x1000056C4, symSize: 0x14 }
  - { offsetInCU: 0xFE3D, offset: 0xFE3D, size: 0x8, addend: 0x0, symName: __ZN9__gnu_cxx5__ops15_Iter_comp_iterIZ4mainEUlSt5arrayIiLm3EES3_E_EclINS_17__normal_iteratorIPS3_St6vectorIS3_SaIS3_EEEESC_EEbT_T0_, symObjAddr: 0x4CCC, symBinAddr: 0x10000564C, symSize: 0x60 }
  - { offsetInCU: 0xFE45, offset: 0xFE45, size: 0x8, addend: 0x0, symName: __ZNK9__gnu_cxx17__normal_iteratorIPSt5arrayIiLm3EESt6vectorIS2_SaIS2_EEEdeEv, symObjAddr: 0x4D2C, symBinAddr: 0x1000056AC, symSize: 0x18 }
  - { offsetInCU: 0xFEAC, offset: 0xFEAC, size: 0x8, addend: 0x0, symName: __ZN9__gnu_cxx17__normal_iteratorIPSt5arrayIiLm3EESt6vectorIS2_SaIS2_EEEppEv, symObjAddr: 0x4CA4, symBinAddr: 0x100005624, symSize: 0x28 }
  - { offsetInCU: 0xFEB4, offset: 0xFEB4, size: 0x8, addend: 0x0, symName: __ZN9__gnu_cxx5__ops15_Iter_comp_iterIZ4mainEUlSt5arrayIiLm3EES3_E_EclINS_17__normal_iteratorIPS3_St6vectorIS3_SaIS3_EEEESC_EEbT_T0_, symObjAddr: 0x4CCC, symBinAddr: 0x10000564C, symSize: 0x60 }
  - { offsetInCU: 0xFF7F, offset: 0xFF7F, size: 0x8, addend: 0x0, symName: __ZN9__gnu_cxxeqIPSt5arrayIiLm3EESt6vectorIS2_SaIS2_EEEEbRKNS_17__normal_iteratorIT_T0_EESC_, symObjAddr: 0x4C60, symBinAddr: 0x1000055E0, symSize: 0x44 }
  - { offsetInCU: 0xFF87, offset: 0xFF87, size: 0x8, addend: 0x0, symName: __ZN9__gnu_cxx17__normal_iteratorIPSt5arrayIiLm3EESt6vectorIS2_SaIS2_EEEppEv, symObjAddr: 0x4CA4, symBinAddr: 0x100005624, symSize: 0x28 }
  - { offsetInCU: 0x10018, offset: 0x10018, size: 0x8, addend: 0x0, symName: __ZSt21__unguarded_partitionIN9__gnu_cxx17__normal_iteratorIPSt5arrayIiLm3EESt6vectorIS3_SaIS3_EEEENS0_5__ops15_Iter_comp_iterIZ4mainEUlS3_S3_E_EEET_SD_SD_SD_T0_, symObjAddr: 0x4B9C, symBinAddr: 0x10000551C, symSize: 0xC4 }
  - { offsetInCU: 0x10020, offset: 0x10020, size: 0x8, addend: 0x0, symName: __ZN9__gnu_cxxeqIPSt5arrayIiLm3EESt6vectorIS2_SaIS2_EEEEbRKNS_17__normal_iteratorIT_T0_EESC_, symObjAddr: 0x4C60, symBinAddr: 0x1000055E0, symSize: 0x44 }
  - { offsetInCU: 0x100A4, offset: 0x100A4, size: 0x8, addend: 0x0, symName: __ZSt22__move_median_to_firstIN9__gnu_cxx17__normal_iteratorIPSt5arrayIiLm3EESt6vectorIS3_SaIS3_EEEENS0_5__ops15_Iter_comp_iterIZ4mainEUlS3_S3_E_EEEvT_SD_SD_SD_T0_, symObjAddr: 0x4A78, symBinAddr: 0x1000053F8, symSize: 0x124 }
  - { offsetInCU: 0x100AC, offset: 0x100AC, size: 0x8, addend: 0x0, symName: __ZSt21__unguarded_partitionIN9__gnu_cxx17__normal_iteratorIPSt5arrayIiLm3EESt6vectorIS3_SaIS3_EEEENS0_5__ops15_Iter_comp_iterIZ4mainEUlS3_S3_E_EEET_SD_SD_SD_T0_, symObjAddr: 0x4B9C, symBinAddr: 0x10000551C, symSize: 0xC4 }
  - { offsetInCU: 0x1006F, offset: 0x1006F, size: 0x8, addend: 0x0, symName: __ZNK9__gnu_cxx17__normal_iteratorIPSt5arrayIiLm3EESt6vectorIS2_SaIS2_EEEmiEl, symObjAddr: 0x4A28, symBinAddr: 0x1000053A8, symSize: 0x50 }
  - { offsetInCU: 0x10077, offset: 0x10077, size: 0x8, addend: 0x0, symName: __ZSt22__move_median_to_firstIN9__gnu_cxx17__normal_iteratorIPSt5arrayIiLm3EESt6vectorIS3_SaIS3_EEEENS0_5__ops15_Iter_comp_iterIZ4mainEUlS3_S3_E_EEEvT_SD_SD_SD_T0_, symObjAddr: 0x4A78, symBinAddr: 0x1000053F8, symSize: 0x124 }
  - { offsetInCU: 0x10173, offset: 0x10173, size: 0x8, addend: 0x0, symName: __ZSt11__sort_heapIN9__gnu_cxx17__normal_iteratorIPSt5arrayIiLm3EESt6vectorIS3_SaIS3_EEEENS0_5__ops15_Iter_comp_iterIZ4mainEUlS3_S3_E_EEEvT_SD_RT0_, symObjAddr: 0x49C0, symBinAddr: 0x100005340, symSize: 0x68 }
  - { offsetInCU: 0x1017B, offset: 0x1017B, size: 0x8, addend: 0x0, symName: __ZNK9__gnu_cxx17__normal_iteratorIPSt5arrayIiLm3EESt6vectorIS2_SaIS2_EEEmiEl, symObjAddr: 0x4A28, symBinAddr: 0x1000053A8, symSize: 0x50 }
  - { offsetInCU: 0x101E9, offset: 0x101E9, size: 0x8, addend: 0x0, symName: __ZSt13__heap_selectIN9__gnu_cxx17__normal_iteratorIPSt5arrayIiLm3EESt6vectorIS3_SaIS3_EEEENS0_5__ops15_Iter_comp_iterIZ4mainEUlS3_S3_E_EEEvT_SD_SD_T0_, symObjAddr: 0x491C, symBinAddr: 0x10000529C, symSize: 0xA4 }
  - { offsetInCU: 0x101F1, offset: 0x101F1, size: 0x8, addend: 0x0, symName: __ZSt11__sort_heapIN9__gnu_cxx17__normal_iteratorIPSt5arrayIiLm3EESt6vectorIS3_SaIS3_EEEENS0_5__ops15_Iter_comp_iterIZ4mainEUlS3_S3_E_EEEvT_SD_RT0_, symObjAddr: 0x49C0, symBinAddr: 0x100005340, symSize: 0x68 }
  - { offsetInCU: 0x10214, offset: 0x10214, size: 0x8, addend: 0x0, symName: __ZSt13__countl_zeroImEiT_, symObjAddr: 0x48C8, symBinAddr: 0x100005248, symSize: 0x54 }
  - { offsetInCU: 0x1021C, offset: 0x1021C, size: 0x8, addend: 0x0, symName: __ZSt13__heap_selectIN9__gnu_cxx17__normal_iteratorIPSt5arrayIiLm3EESt6vectorIS3_SaIS3_EEEENS0_5__ops15_Iter_comp_iterIZ4mainEUlS3_S3_E_EEEvT_SD_SD_T0_, symObjAddr: 0x491C, symBinAddr: 0x10000529C, symSize: 0xA4 }
  - { offsetInCU: 0x10291, offset: 0x10291, size: 0x8, addend: 0x0, symName: __ZNSt22__uninitialized_fill_nILb1EE15__uninit_fill_nIPimiEET_S3_T0_RKT1_, symObjAddr: 0x489C, symBinAddr: 0x10000521C, symSize: 0x2C }
  - { offsetInCU: 0x10299, offset: 0x10299, size: 0x8, addend: 0x0, symName: __ZSt13__countl_zeroImEiT_, symObjAddr: 0x48C8, symBinAddr: 0x100005248, symSize: 0x54 }
  - { offsetInCU: 0x10312, offset: 0x10312, size: 0x8, addend: 0x0, symName: __ZNSt15__new_allocatorIiE10deallocateEPim, symObjAddr: 0x486C, symBinAddr: 0x1000051EC, symSize: 0x30 }
  - { offsetInCU: 0x1031A, offset: 0x1031A, size: 0x8, addend: 0x0, symName: __ZNSt22__uninitialized_fill_nILb1EE15__uninit_fill_nIPimiEET_S3_T0_RKT1_, symObjAddr: 0x489C, symBinAddr: 0x10000521C, symSize: 0x2C }
  - { offsetInCU: 0x103AF, offset: 0x103AF, size: 0x8, addend: 0x0, symName: __ZNSt12_Destroy_auxILb1EE9__destroyIPSt5arrayIiLm3EEEEvT_S5_, symObjAddr: 0x4854, symBinAddr: 0x1000051D4, symSize: 0x18 }
  - { offsetInCU: 0x103B7, offset: 0x103B7, size: 0x8, addend: 0x0, symName: __ZNSt15__new_allocatorIiE10deallocateEPim, symObjAddr: 0x486C, symBinAddr: 0x1000051EC, symSize: 0x30 }
  - { offsetInCU: 0x104BD, offset: 0x104BD, size: 0x8, addend: 0x0, symName: __ZSt14__relocate_a_1ISt5arrayIiLm3EES1_ENSt9enable_ifIXsrSt24__is_bitwise_relocatableIT_vE5valueEPS4_E4typeES6_S6_S6_RSaIT0_E, symObjAddr: 0x47C4, symBinAddr: 0x100005144, symSize: 0x90 }
  - { offsetInCU: 0x104C5, offset: 0x104C5, size: 0x8, addend: 0x0, symName: __ZNSt12_Destroy_auxILb1EE9__destroyIPSt5arrayIiLm3EEEEvT_S5_, symObjAddr: 0x4854, symBinAddr: 0x1000051D4, symSize: 0x18 }
  - { offsetInCU: 0x104FC, offset: 0x104FC, size: 0x8, addend: 0x0, symName: __ZSt12__niter_baseIPSt5arrayIiLm3EEET_S3_, symObjAddr: 0x47B0, symBinAddr: 0x100005130, symSize: 0x14 }
  - { offsetInCU: 0x10504, offset: 0x10504, size: 0x8, addend: 0x0, symName: __ZSt14__relocate_a_1ISt5arrayIiLm3EES1_ENSt9enable_ifIXsrSt24__is_bitwise_relocatableIT_vE5valueEPS4_E4typeES6_S6_S6_RSaIT0_E, symObjAddr: 0x47C4, symBinAddr: 0x100005144, symSize: 0x90 }
  - { offsetInCU: 0x104F7, offset: 0x104F7, size: 0x8, addend: 0x0, symName: __ZNSt15__new_allocatorISt5arrayIiLm3EEE8allocateEmPKv, symObjAddr: 0x4720, symBinAddr: 0x1000050A0, symSize: 0x90 }
  - { offsetInCU: 0x104FF, offset: 0x104FF, size: 0x8, addend: 0x0, symName: __ZSt12__niter_baseIPSt5arrayIiLm3EEET_S3_, symObjAddr: 0x47B0, symBinAddr: 0x100005130, symSize: 0x14 }
  - { offsetInCU: 0x1057F, offset: 0x1057F, size: 0x8, addend: 0x0, symName: __ZNSt27__uninitialized_default_n_1ILb1EE18__uninit_default_nIPSt5arrayIiLm3EEmEET_S5_T0_, symObjAddr: 0x46BC, symBinAddr: 0x10000503C, symSize: 0x64 }
  - { offsetInCU: 0x10587, offset: 0x10587, size: 0x8, addend: 0x0, symName: __ZNSt15__new_allocatorISt5arrayIiLm3EEE8allocateEmPKv, symObjAddr: 0x4720, symBinAddr: 0x1000050A0, symSize: 0x90 }
  - { offsetInCU: 0x1071B, offset: 0x1071B, size: 0x8, addend: 0x0, symName: __ZN10__gnu_pbds6detail13branch_policyINS0_30bin_search_tree_const_node_it_INS0_13rb_tree_node_ISt4pairIiiEmSaIcEEENS0_25bin_search_tree_const_it_IPS7_S5_PS5_PKS5_RS5_RSB_Lb1ES6_EESF_S6_EESG_S6_ED2Ev, symObjAddr: 0x4694, symBinAddr: 0x100005014, symSize: 0x28 }
  - { offsetInCU: 0x10723, offset: 0x10723, size: 0x8, addend: 0x0, symName: __ZNSt27__uninitialized_default_n_1ILb1EE18__uninit_default_nIPSt5arrayIiLm3EEmEET_S5_T0_, symObjAddr: 0x46BC, symBinAddr: 0x10000503C, symSize: 0x64 }
  - { offsetInCU: 0x10682, offset: 0x10682, size: 0x8, addend: 0x0, symName: __ZNSt15__new_allocatorIN10__gnu_pbds6detail13rb_tree_node_ISt4pairIiiEmSaIcEEEE8allocateEmPKv, symObjAddr: 0x4604, symBinAddr: 0x100004F84, symSize: 0x90 }
  - { offsetInCU: 0x1068A, offset: 0x1068A, size: 0x8, addend: 0x0, symName: __ZN10__gnu_pbds6detail13branch_policyINS0_30bin_search_tree_const_node_it_INS0_13rb_tree_node_ISt4pairIiiEmSaIcEEENS0_25bin_search_tree_const_it_IPS7_S5_PS5_PKS5_RS5_RSB_Lb1ES6_EESF_S6_EESG_S6_ED2Ev, symObjAddr: 0x4694, symBinAddr: 0x100005014, symSize: 0x28 }
  - { offsetInCU: 0x10785, offset: 0x10785, size: 0x8, addend: 0x0, symName: __ZNSt15__new_allocatorIN10__gnu_pbds6detail13rb_tree_node_ISt4pairIiiEmSaIcEEEED2Ev, symObjAddr: 0x45F0, symBinAddr: 0x100004F70, symSize: 0x14 }
  - { offsetInCU: 0x1078D, offset: 0x1078D, size: 0x8, addend: 0x0, symName: __ZNSt15__new_allocatorIN10__gnu_pbds6detail13rb_tree_node_ISt4pairIiiEmSaIcEEEE8allocateEmPKv, symObjAddr: 0x4604, symBinAddr: 0x100004F84, symSize: 0x90 }
  - { offsetInCU: 0x10778, offset: 0x10778, size: 0x8, addend: 0x0, symName: __ZN10__gnu_pbds6detail19bin_search_tree_setISt4pairIiiENS_9null_typeESt4lessIS3_ENS0_11tree_traitsIS3_S4_S6_NS_33tree_order_statistics_node_updateENS_11rb_tree_tagESaIcEEESA_E12apply_updateINS8_INS0_30bin_search_tree_const_node_it_INS0_13rb_tree_node_IS3_mSA_EENS0_25bin_search_tree_const_it_IPSG_S3_PS3_PKS3_RS3_RSK_Lb1ESA_EESO_SA_EESP_S6_SA_EEEEvSI_PT_, symObjAddr: 0x459C, symBinAddr: 0x100004F1C, symSize: 0x54 }
  - { offsetInCU: 0x10780, offset: 0x10780, size: 0x8, addend: 0x0, symName: __ZNSt15__new_allocatorIN10__gnu_pbds6detail13rb_tree_node_ISt4pairIiiEmSaIcEEEED2Ev, symObjAddr: 0x45F0, symBinAddr: 0x100004F70, symSize: 0x14 }
  - { offsetInCU: 0x108AD, offset: 0x108AD, size: 0x8, addend: 0x0, symName: __ZSt7forwardIPN10__gnu_pbds6detail13rb_tree_node_ISt4pairIiiEmSaIcEEEEOT_RNSt16remove_referenceIS8_E4typeE, symObjAddr: 0x4588, symBinAddr: 0x100004F08, symSize: 0x14 }
  - { offsetInCU: 0x108B5, offset: 0x108B5, size: 0x8, addend: 0x0, symName: __ZN10__gnu_pbds6detail19bin_search_tree_setISt4pairIiiENS_9null_typeESt4lessIS3_ENS0_11tree_traitsIS3_S4_S6_NS_33tree_order_statistics_node_updateENS_11rb_tree_tagESaIcEEESA_E12apply_updateINS8_INS0_30bin_search_tree_const_node_it_INS0_13rb_tree_node_IS3_mSA_EENS0_25bin_search_tree_const_it_IPSG_S3_PS3_PKS3_RS3_RSK_Lb1ESA_EESO_SA_EESP_S6_SA_EEEEvSI_PT_, symObjAddr: 0x459C, symBinAddr: 0x100004F1C, symSize: 0x54 }
  - { offsetInCU: 0x108D4, offset: 0x108D4, size: 0x8, addend: 0x0, symName: __ZNSt4pairIPN10__gnu_pbds6detail13rb_tree_node_IS_IiiEmSaIcEEEbEC1IRS6_bLb1EEEOT_OT0_, symObjAddr: 0x4540, symBinAddr: 0x100004EC0, symSize: 0x48 }
  - { offsetInCU: 0x108DC, offset: 0x108DC, size: 0x8, addend: 0x0, symName: __ZSt7forwardIPN10__gnu_pbds6detail13rb_tree_node_ISt4pairIiiEmSaIcEEEEOT_RNSt16remove_referenceIS8_E4typeE, symObjAddr: 0x4588, symBinAddr: 0x100004F08, symSize: 0x14 }
  - { offsetInCU: 0x109BA, offset: 0x109BA, size: 0x8, addend: 0x0, symName: __ZSt7forwardIRPN10__gnu_pbds6detail13rb_tree_node_ISt4pairIiiEmSaIcEEEEOT_RNSt16remove_referenceIS9_E4typeE, symObjAddr: 0x452C, symBinAddr: 0x100004EAC, symSize: 0x14 }
  - { offsetInCU: 0x109C2, offset: 0x109C2, size: 0x8, addend: 0x0, symName: __ZNSt4pairIPN10__gnu_pbds6detail13rb_tree_node_IS_IiiEmSaIcEEEbEC1IRS6_bLb1EEEOT_OT0_, symObjAddr: 0x4540, symBinAddr: 0x100004EC0, symSize: 0x48 }
  - { offsetInCU: 0x10A1B, offset: 0x10A1B, size: 0x8, addend: 0x0, symName: __ZNSt4pairIN10__gnu_pbds6detail25bin_search_tree_const_it_IPNS1_13rb_tree_node_IS_IiiEmSaIcEEES4_PS4_PKS4_RS4_RS9_Lb1ES5_EEbEC1ISD_bLb1EEEOT_OT0_, symObjAddr: 0x44E0, symBinAddr: 0x100004E60, symSize: 0x4C }
  - { offsetInCU: 0x10A23, offset: 0x10A23, size: 0x8, addend: 0x0, symName: __ZSt7forwardIRPN10__gnu_pbds6detail13rb_tree_node_ISt4pairIiiEmSaIcEEEEOT_RNSt16remove_referenceIS9_E4typeE, symObjAddr: 0x452C, symBinAddr: 0x100004EAC, symSize: 0x14 }
  - { offsetInCU: 0x10BC6, offset: 0x10BC6, size: 0x8, addend: 0x0, symName: __ZSt7forwardIN10__gnu_pbds6detail25bin_search_tree_const_it_IPNS1_13rb_tree_node_ISt4pairIiiEmSaIcEEES5_PS5_PKS5_RS5_RSA_Lb1ES6_EEEOT_RNSt16remove_referenceISF_E4typeE, symObjAddr: 0x44CC, symBinAddr: 0x100004E4C, symSize: 0x14 }
  - { offsetInCU: 0x10BCE, offset: 0x10BCE, size: 0x8, addend: 0x0, symName: __ZNSt4pairIN10__gnu_pbds6detail25bin_search_tree_const_it_IPNS1_13rb_tree_node_IS_IiiEmSaIcEEES4_PS4_PKS4_RS4_RS9_Lb1ES5_EEbEC1ISD_bLb1EEEOT_OT0_, symObjAddr: 0x44E0, symBinAddr: 0x100004E60, symSize: 0x4C }
  - { offsetInCU: 0x10A3D, offset: 0x10A3D, size: 0x8, addend: 0x0, symName: __ZN10__gnu_pbds6detail19bin_search_tree_setISt4pairIiiENS_9null_typeESt4lessIS3_ENS0_11tree_traitsIS3_S4_S6_NS_33tree_order_statistics_node_updateENS_11rb_tree_tagESaIcEEESA_E28get_new_node_for_leaf_insertERKS3_NSt3tr117integral_constantIiLi0EEE, symObjAddr: 0x441C, symBinAddr: 0x100004D9C, symSize: 0xB0 }
  - { offsetInCU: 0x10A45, offset: 0x10A45, size: 0x8, addend: 0x0, symName: __ZSt7forwardIN10__gnu_pbds6detail25bin_search_tree_const_it_IPNS1_13rb_tree_node_ISt4pairIiiEmSaIcEEES5_PS5_PKS5_RS5_RSA_Lb1ES6_EEEOT_RNSt16remove_referenceISF_E4typeE, symObjAddr: 0x44CC, symBinAddr: 0x100004E4C, symSize: 0x14 }
  - { offsetInCU: 0x10AB1, offset: 0x10AB1, size: 0x8, addend: 0x0, symName: __ZNSt5dequeISt5arrayIiLm3EESaIS1_EE17_M_reallocate_mapEmb, symObjAddr: 0x41DC, symBinAddr: 0x100004B5C, symSize: 0x240 }
  - { offsetInCU: 0x10AB9, offset: 0x10AB9, size: 0x8, addend: 0x0, symName: __ZN10__gnu_pbds6detail19bin_search_tree_setISt4pairIiiENS_9null_typeESt4lessIS3_ENS0_11tree_traitsIS3_S4_S6_NS_33tree_order_statistics_node_updateENS_11rb_tree_tagESaIcEEESA_E28get_new_node_for_leaf_insertERKS3_NSt3tr117integral_constantIiLi0EEE, symObjAddr: 0x441C, symBinAddr: 0x100004D9C, symSize: 0xB0 }
  - { offsetInCU: 0x10B80, offset: 0x10B80, size: 0x8, addend: 0x0, symName: __ZNSt5dequeISt5arrayIiLm3EESaIS1_EE11_S_max_sizeERKS2_, symObjAddr: 0x4184, symBinAddr: 0x100004B04, symSize: 0x58 }
  - { offsetInCU: 0x10B88, offset: 0x10B88, size: 0x8, addend: 0x0, symName: __ZNSt5dequeISt5arrayIiLm3EESaIS1_EE17_M_reallocate_mapEmb, symObjAddr: 0x41DC, symBinAddr: 0x100004B5C, symSize: 0x240 }
  - { offsetInCU: 0x10C8E, offset: 0x10C8E, size: 0x8, addend: 0x0, symName: __ZStmiRKSt15_Deque_iteratorISt5arrayIiLm3EERS1_PS1_ES6_, symObjAddr: 0x40D8, symBinAddr: 0x100004A58, symSize: 0xAC }
  - { offsetInCU: 0x10C96, offset: 0x10C96, size: 0x8, addend: 0x0, symName: __ZNSt5dequeISt5arrayIiLm3EESaIS1_EE11_S_max_sizeERKS2_, symObjAddr: 0x4184, symBinAddr: 0x100004B04, symSize: 0x58 }
  - { offsetInCU: 0x10CA9, offset: 0x10CA9, size: 0x8, addend: 0x0, symName: __ZNSt15__new_allocatorIPSt5arrayIiLm3EEE10deallocateEPS2_m, symObjAddr: 0x40A8, symBinAddr: 0x100004A28, symSize: 0x30 }
  - { offsetInCU: 0x10CB1, offset: 0x10CB1, size: 0x8, addend: 0x0, symName: __ZStmiRKSt15_Deque_iteratorISt5arrayIiLm3EERS1_PS1_ES6_, symObjAddr: 0x40D8, symBinAddr: 0x100004A58, symSize: 0xAC }
  - { offsetInCU: 0x10D52, offset: 0x10D52, size: 0x8, addend: 0x0, symName: __ZNSt15__new_allocatorIPSt5arrayIiLm3EEED2Ev, symObjAddr: 0x4094, symBinAddr: 0x100004A14, symSize: 0x14 }
  - { offsetInCU: 0x10D5A, offset: 0x10D5A, size: 0x8, addend: 0x0, symName: __ZNSt15__new_allocatorIPSt5arrayIiLm3EEE10deallocateEPS2_m, symObjAddr: 0x40A8, symBinAddr: 0x100004A28, symSize: 0x30 }
  - { offsetInCU: 0x10D82, offset: 0x10D82, size: 0x8, addend: 0x0, symName: __ZNKSt11_Deque_baseISt5arrayIiLm3EESaIS1_EE19_M_get_Tp_allocatorEv, symObjAddr: 0x4080, symBinAddr: 0x100004A00, symSize: 0x14 }
  - { offsetInCU: 0x10D8A, offset: 0x10D8A, size: 0x8, addend: 0x0, symName: __ZNSt15__new_allocatorIPSt5arrayIiLm3EEED2Ev, symObjAddr: 0x4094, symBinAddr: 0x100004A14, symSize: 0x14 }
  - { offsetInCU: 0x10E2D, offset: 0x10E2D, size: 0x8, addend: 0x0, symName: __ZNSt15_Deque_iteratorISt5arrayIiLm3EERS1_PS1_EC1Ev, symObjAddr: 0x404C, symBinAddr: 0x1000049CC, symSize: 0x34 }
  - { offsetInCU: 0x10E35, offset: 0x10E35, size: 0x8, addend: 0x0, symName: __ZNKSt11_Deque_baseISt5arrayIiLm3EESaIS1_EE19_M_get_Tp_allocatorEv, symObjAddr: 0x4080, symBinAddr: 0x100004A00, symSize: 0x14 }
  - { offsetInCU: 0x10EF7, offset: 0x10EF7, size: 0x8, addend: 0x0, symName: __ZSt26__unguarded_insertion_sortIN9__gnu_cxx17__normal_iteratorIPSt5arrayIiLm3EESt6vectorIS3_SaIS3_EEEENS0_5__ops15_Iter_comp_iterIZ4mainEUlS3_S3_E_EEEvT_SD_T0_, symObjAddr: 0x3FDC, symBinAddr: 0x10000495C, symSize: 0x70 }
  - { offsetInCU: 0x10EFF, offset: 0x10EFF, size: 0x8, addend: 0x0, symName: __ZNSt15_Deque_iteratorISt5arrayIiLm3EERS1_PS1_EC1Ev, symObjAddr: 0x404C, symBinAddr: 0x1000049CC, symSize: 0x34 }
  - { offsetInCU: 0x10F88, offset: 0x10F88, size: 0x8, addend: 0x0, symName: __ZSt16__insertion_sortIN9__gnu_cxx17__normal_iteratorIPSt5arrayIiLm3EESt6vectorIS3_SaIS3_EEEENS0_5__ops15_Iter_comp_iterIZ4mainEUlS3_S3_E_EEEvT_SD_T0_, symObjAddr: 0x3EBC, symBinAddr: 0x10000483C, symSize: 0x120 }
  - { offsetInCU: 0x10F90, offset: 0x10F90, size: 0x8, addend: 0x0, symName: __ZSt26__unguarded_insertion_sortIN9__gnu_cxx17__normal_iteratorIPSt5arrayIiLm3EESt6vectorIS3_SaIS3_EEEENS0_5__ops15_Iter_comp_iterIZ4mainEUlS3_S3_E_EEEvT_SD_T0_, symObjAddr: 0x3FDC, symBinAddr: 0x10000495C, symSize: 0x70 }
  - { offsetInCU: 0x1105A, offset: 0x1105A, size: 0x8, addend: 0x0, symName: __ZSt27__unguarded_partition_pivotIN9__gnu_cxx17__normal_iteratorIPSt5arrayIiLm3EESt6vectorIS3_SaIS3_EEEENS0_5__ops15_Iter_comp_iterIZ4mainEUlS3_S3_E_EEET_SD_SD_T0_, symObjAddr: 0x3E20, symBinAddr: 0x1000047A0, symSize: 0x9C }
  - { offsetInCU: 0x11062, offset: 0x11062, size: 0x8, addend: 0x0, symName: __ZSt16__insertion_sortIN9__gnu_cxx17__normal_iteratorIPSt5arrayIiLm3EESt6vectorIS3_SaIS3_EEEENS0_5__ops15_Iter_comp_iterIZ4mainEUlS3_S3_E_EEEvT_SD_T0_, symObjAddr: 0x3EBC, symBinAddr: 0x10000483C, symSize: 0x120 }
  - { offsetInCU: 0x110D9, offset: 0x110D9, size: 0x8, addend: 0x0, symName: __ZSt14__partial_sortIN9__gnu_cxx17__normal_iteratorIPSt5arrayIiLm3EESt6vectorIS3_SaIS3_EEEENS0_5__ops15_Iter_comp_iterIZ4mainEUlS3_S3_E_EEEvT_SD_SD_T0_, symObjAddr: 0x3DD4, symBinAddr: 0x100004754, symSize: 0x4C }
  - { offsetInCU: 0x110E1, offset: 0x110E1, size: 0x8, addend: 0x0, symName: __ZSt27__unguarded_partition_pivotIN9__gnu_cxx17__normal_iteratorIPSt5arrayIiLm3EESt6vectorIS3_SaIS3_EEEENS0_5__ops15_Iter_comp_iterIZ4mainEUlS3_S3_E_EEET_SD_SD_T0_, symObjAddr: 0x3E20, symBinAddr: 0x1000047A0, symSize: 0x9C }
  - { offsetInCU: 0x110D9, offset: 0x110D9, size: 0x8, addend: 0x0, symName: __ZSt11__bit_widthImEiT_, symObjAddr: 0x3DA4, symBinAddr: 0x100004724, symSize: 0x30 }
  - { offsetInCU: 0x110E1, offset: 0x110E1, size: 0x8, addend: 0x0, symName: __ZSt14__partial_sortIN9__gnu_cxx17__normal_iteratorIPSt5arrayIiLm3EESt6vectorIS3_SaIS3_EEEENS0_5__ops15_Iter_comp_iterIZ4mainEUlS3_S3_E_EEEvT_SD_SD_T0_, symObjAddr: 0x3DD4, symBinAddr: 0x100004754, symSize: 0x4C }
  - { offsetInCU: 0x110FD, offset: 0x110FD, size: 0x8, addend: 0x0, symName: __ZNK9__gnu_cxx17__normal_iteratorIPSt5arrayIiLm3EESt6vectorIS2_SaIS2_EEE4baseEv, symObjAddr: 0x3D90, symBinAddr: 0x100004710, symSize: 0x14 }
  - { offsetInCU: 0x11105, offset: 0x11105, size: 0x8, addend: 0x0, symName: __ZSt11__bit_widthImEiT_, symObjAddr: 0x3DA4, symBinAddr: 0x100004724, symSize: 0x30 }
  - { offsetInCU: 0x1112C, offset: 0x1112C, size: 0x8, addend: 0x0, symName: __ZNSt12_Destroy_auxILb1EE9__destroyIPiEEvT_S3_, symObjAddr: 0x3D78, symBinAddr: 0x1000046F8, symSize: 0x18 }
  - { offsetInCU: 0x11134, offset: 0x11134, size: 0x8, addend: 0x0, symName: __ZNK9__gnu_cxx17__normal_iteratorIPSt5arrayIiLm3EESt6vectorIS2_SaIS2_EEE4baseEv, symObjAddr: 0x3D90, symBinAddr: 0x100004710, symSize: 0x14 }
  - { offsetInCU: 0x111D5, offset: 0x111D5, size: 0x8, addend: 0x0, symName: __ZSt20uninitialized_fill_nIPimiET_S1_T0_RKT1_, symObjAddr: 0x3D44, symBinAddr: 0x1000046C4, symSize: 0x34 }
  - { offsetInCU: 0x111DD, offset: 0x111DD, size: 0x8, addend: 0x0, symName: __ZNSt12_Destroy_auxILb1EE9__destroyIPiEEvT_S3_, symObjAddr: 0x3D78, symBinAddr: 0x1000046F8, symSize: 0x18 }
  - { offsetInCU: 0x11252, offset: 0x11252, size: 0x8, addend: 0x0, symName: __ZNSt12_Vector_baseIiSaIiEE11_M_allocateEm, symObjAddr: 0x3CF4, symBinAddr: 0x100004674, symSize: 0x50 }
  - { offsetInCU: 0x1125A, offset: 0x1125A, size: 0x8, addend: 0x0, symName: __ZSt20uninitialized_fill_nIPimiET_S1_T0_RKT1_, symObjAddr: 0x3D44, symBinAddr: 0x1000046C4, symSize: 0x34 }
  - { offsetInCU: 0x11313, offset: 0x11313, size: 0x8, addend: 0x0, symName: __ZNSt12_Vector_baseIiSaIiEE17_Vector_impl_dataC2Ev, symObjAddr: 0x3CC8, symBinAddr: 0x100004648, symSize: 0x2C }
  - { offsetInCU: 0x1131B, offset: 0x1131B, size: 0x8, addend: 0x0, symName: __ZNSt12_Vector_baseIiSaIiEE11_M_allocateEm, symObjAddr: 0x3CF4, symBinAddr: 0x100004674, symSize: 0x50 }
  - { offsetInCU: 0x11391, offset: 0x11391, size: 0x8, addend: 0x0, symName: __ZSt8_DestroyIPSt5arrayIiLm3EEEvT_S3_, symObjAddr: 0x3CA0, symBinAddr: 0x100004620, symSize: 0x28 }
  - { offsetInCU: 0x11399, offset: 0x11399, size: 0x8, addend: 0x0, symName: __ZNSt12_Vector_baseIiSaIiEE17_Vector_impl_dataC2Ev, symObjAddr: 0x3CC8, symBinAddr: 0x100004648, symSize: 0x2C }
  - { offsetInCU: 0x11442, offset: 0x11442, size: 0x8, addend: 0x0, symName: __ZSt12__relocate_aIPSt5arrayIiLm3EES2_SaIS1_EET0_T_S5_S4_RT1_, symObjAddr: 0x3C44, symBinAddr: 0x1000045C4, symSize: 0x5C }
  - { offsetInCU: 0x1144A, offset: 0x1144A, size: 0x8, addend: 0x0, symName: __ZSt8_DestroyIPSt5arrayIiLm3EEEvT_S3_, symObjAddr: 0x3CA0, symBinAddr: 0x100004620, symSize: 0x28 }
  - { offsetInCU: 0x114F5, offset: 0x114F5, size: 0x8, addend: 0x0, symName: __ZSt25__uninitialized_default_nIPSt5arrayIiLm3EEmET_S3_T0_, symObjAddr: 0x3C18, symBinAddr: 0x100004598, symSize: 0x2C }
  - { offsetInCU: 0x114FD, offset: 0x114FD, size: 0x8, addend: 0x0, symName: __ZSt12__relocate_aIPSt5arrayIiLm3EES2_SaIS1_EET0_T_S5_S4_RT1_, symObjAddr: 0x3C44, symBinAddr: 0x1000045C4, symSize: 0x5C }
  - { offsetInCU: 0x114F4, offset: 0x114F4, size: 0x8, addend: 0x0, symName: __ZNKSt12_Vector_baseISt5arrayIiLm3EESaIS1_EE19_M_get_Tp_allocatorEv, symObjAddr: 0x3C04, symBinAddr: 0x100004584, symSize: 0x14 }
  - { offsetInCU: 0x114FC, offset: 0x114FC, size: 0x8, addend: 0x0, symName: __ZSt25__uninitialized_default_nIPSt5arrayIiLm3EEmET_S3_T0_, symObjAddr: 0x3C18, symBinAddr: 0x100004598, symSize: 0x2C }
  - { offsetInCU: 0x11523, offset: 0x11523, size: 0x8, addend: 0x0, symName: __ZNSt6vectorISt5arrayIiLm3EESaIS1_EE11_S_max_sizeERKS2_, symObjAddr: 0x3BA8, symBinAddr: 0x100004528, symSize: 0x5C }
  - { offsetInCU: 0x1152B, offset: 0x1152B, size: 0x8, addend: 0x0, symName: __ZNKSt12_Vector_baseISt5arrayIiLm3EESaIS1_EE19_M_get_Tp_allocatorEv, symObjAddr: 0x3C04, symBinAddr: 0x100004584, symSize: 0x14 }
  - { offsetInCU: 0x115EF, offset: 0x115EF, size: 0x8, addend: 0x0, symName: __ZNSt15__new_allocatorISt5arrayIiLm3EEE10deallocateEPS1_m, symObjAddr: 0x3B6C, symBinAddr: 0x1000044EC, symSize: 0x3C }
  - { offsetInCU: 0x115F7, offset: 0x115F7, size: 0x8, addend: 0x0, symName: __ZNSt6vectorISt5arrayIiLm3EESaIS1_EE11_S_max_sizeERKS2_, symObjAddr: 0x3BA8, symBinAddr: 0x100004528, symSize: 0x5C }
  - { offsetInCU: 0x11751, offset: 0x11751, size: 0x8, addend: 0x0, symName: __ZN10__gnu_pbds33tree_order_statistics_node_updateINS_6detail30bin_search_tree_const_node_it_INS1_13rb_tree_node_ISt4pairIiiEmSaIcEEENS1_25bin_search_tree_const_it_IPS7_S5_PS5_PKS5_RS5_RSB_Lb1ES6_EESF_S6_EESG_St4lessIS5_ES6_ED2Ev, symObjAddr: 0x3B38, symBinAddr: 0x1000044B8, symSize: 0x34 }
  - { offsetInCU: 0x11759, offset: 0x11759, size: 0x8, addend: 0x0, symName: __ZNSt15__new_allocatorISt5arrayIiLm3EEE10deallocateEPS1_m, symObjAddr: 0x3B6C, symBinAddr: 0x1000044EC, symSize: 0x3C }
  - { offsetInCU: 0x11699, offset: 0x11699, size: 0x8, addend: 0x0, symName: __ZN10__gnu_pbds6detail11rb_tree_setISt4pairIiiENS_9null_typeESt4lessIS3_ENS0_11tree_traitsIS3_S4_S6_NS_33tree_order_statistics_node_updateENS_11rb_tree_tagESaIcEEESA_E10initializeEv, symObjAddr: 0x3B14, symBinAddr: 0x100004494, symSize: 0x24 }
  - { offsetInCU: 0x116A1, offset: 0x116A1, size: 0x8, addend: 0x0, symName: __ZN10__gnu_pbds33tree_order_statistics_node_updateINS_6detail30bin_search_tree_const_node_it_INS1_13rb_tree_node_ISt4pairIiiEmSaIcEEENS1_25bin_search_tree_const_it_IPS7_S5_PS5_PKS5_RS5_RSB_Lb1ES6_EESF_S6_EESG_St4lessIS5_ES6_ED2Ev, symObjAddr: 0x3B38, symBinAddr: 0x1000044B8, symSize: 0x34 }
  - { offsetInCU: 0x11795, offset: 0x11795, size: 0x8, addend: 0x0, symName: __ZN10__gnu_pbds6detail19bin_search_tree_setISt4pairIiiENS_9null_typeESt4lessIS3_ENS0_11tree_traitsIS3_S4_S6_NS_33tree_order_statistics_node_updateENS_11rb_tree_tagESaIcEEESA_EC2Ev, symObjAddr: 0x3A94, symBinAddr: 0x100004414, symSize: 0x80 }
  - { offsetInCU: 0x1179D, offset: 0x1179D, size: 0x8, addend: 0x0, symName: __ZN10__gnu_pbds6detail11rb_tree_setISt4pairIiiENS_9null_typeESt4lessIS3_ENS0_11tree_traitsIS3_S4_S6_NS_33tree_order_statistics_node_updateENS_11rb_tree_tagESaIcEEESA_E10initializeEv, symObjAddr: 0x3B14, symBinAddr: 0x100004494, symSize: 0x24 }
  - { offsetInCU: 0x11812, offset: 0x11812, size: 0x8, addend: 0x0, symName: __ZN10__gnu_pbds33tree_order_statistics_node_updateINS_6detail30bin_search_tree_const_node_it_INS1_13rb_tree_node_ISt4pairIiiEmSaIcEEENS1_25bin_search_tree_const_it_IPS7_S5_PS5_PKS5_RS5_RSB_Lb1ES6_EESF_S6_EESG_St4lessIS5_ES6_EC2Ev, symObjAddr: 0x3A60, symBinAddr: 0x1000043E0, symSize: 0x34 }
  - { offsetInCU: 0x1181A, offset: 0x1181A, size: 0x8, addend: 0x0, symName: __ZN10__gnu_pbds6detail19bin_search_tree_setISt4pairIiiENS_9null_typeESt4lessIS3_ENS0_11tree_traitsIS3_S4_S6_NS_33tree_order_statistics_node_updateENS_11rb_tree_tagESaIcEEESA_EC2Ev, symObjAddr: 0x3A94, symBinAddr: 0x100004414, symSize: 0x80 }
  - { offsetInCU: 0x1183E, offset: 0x1183E, size: 0x8, addend: 0x0, symName: __ZN10__gnu_pbds6detail13branch_policyINS0_30bin_search_tree_const_node_it_INS0_13rb_tree_node_ISt4pairIiiEmSaIcEEENS0_25bin_search_tree_const_it_IPS7_S5_PS5_PKS5_RS5_RSB_Lb1ES6_EESF_S6_EESG_S6_EC2Ev, symObjAddr: 0x3A38, symBinAddr: 0x1000043B8, symSize: 0x28 }
  - { offsetInCU: 0x11846, offset: 0x11846, size: 0x8, addend: 0x0, symName: __ZN10__gnu_pbds33tree_order_statistics_node_updateINS_6detail30bin_search_tree_const_node_it_INS1_13rb_tree_node_ISt4pairIiiEmSaIcEEENS1_25bin_search_tree_const_it_IPS7_S5_PS5_PKS5_RS5_RSB_Lb1ES6_EESF_S6_EESG_St4lessIS5_ES6_EC2Ev, symObjAddr: 0x3A60, symBinAddr: 0x1000043E0, symSize: 0x34 }
  - { offsetInCU: 0x117A5, offset: 0x117A5, size: 0x8, addend: 0x0, symName: __ZNSt15__new_allocatorIN10__gnu_pbds6detail13rb_tree_node_ISt4pairIiiEmSaIcEEEE10deallocateEPS6_m, symObjAddr: 0x39FC, symBinAddr: 0x10000437C, symSize: 0x3C }
  - { offsetInCU: 0x117AD, offset: 0x117AD, size: 0x8, addend: 0x0, symName: __ZN10__gnu_pbds6detail13branch_policyINS0_30bin_search_tree_const_node_it_INS0_13rb_tree_node_ISt4pairIiiEmSaIcEEENS0_25bin_search_tree_const_it_IPS7_S5_PS5_PKS5_RS5_RSB_Lb1ES6_EESF_S6_EESG_S6_EC2Ev, symObjAddr: 0x3A38, symBinAddr: 0x1000043B8, symSize: 0x28 }
  - { offsetInCU: 0x11813, offset: 0x11813, size: 0x8, addend: 0x0, symName: __ZN10__gnu_pbds6detail19bin_search_tree_setISt4pairIiiENS_9null_typeESt4lessIS3_ENS0_11tree_traitsIS3_S4_S6_NS_33tree_order_statistics_node_updateENS_11rb_tree_tagESaIcEEESA_E13update_to_topINS8_INS0_30bin_search_tree_const_node_it_INS0_13rb_tree_node_IS3_mSA_EENS0_25bin_search_tree_const_it_IPSG_S3_PS3_PKS3_RS3_RSK_Lb1ESA_EESO_SA_EESP_S6_SA_EEEEvSI_PT_, symObjAddr: 0x39A4, symBinAddr: 0x100004324, symSize: 0x58 }
  - { offsetInCU: 0x1181B, offset: 0x1181B, size: 0x8, addend: 0x0, symName: __ZNSt15__new_allocatorIN10__gnu_pbds6detail13rb_tree_node_ISt4pairIiiEmSaIcEEEE10deallocateEPS6_m, symObjAddr: 0x39FC, symBinAddr: 0x10000437C, symSize: 0x3C }
  - { offsetInCU: 0x11875, offset: 0x11875, size: 0x8, addend: 0x0, symName: __ZN10__gnu_pbds6detail19bin_search_tree_setISt4pairIiiENS_9null_typeESt4lessIS3_ENS0_11tree_traitsIS3_S4_S6_NS_33tree_order_statistics_node_updateENS_11rb_tree_tagESaIcEEESA_E12rotate_rightEPNS0_13rb_tree_node_IS3_mSA_EE, symObjAddr: 0x388C, symBinAddr: 0x10000420C, symSize: 0x118 }
  - { offsetInCU: 0x1187D, offset: 0x1187D, size: 0x8, addend: 0x0, symName: __ZN10__gnu_pbds6detail19bin_search_tree_setISt4pairIiiENS_9null_typeESt4lessIS3_ENS0_11tree_traitsIS3_S4_S6_NS_33tree_order_statistics_node_updateENS_11rb_tree_tagESaIcEEESA_E13update_to_topINS8_INS0_30bin_search_tree_const_node_it_INS0_13rb_tree_node_IS3_mSA_EENS0_25bin_search_tree_const_it_IPSG_S3_PS3_PKS3_RS3_RSK_Lb1ESA_EESO_SA_EESP_S6_SA_EEEEvSI_PT_, symObjAddr: 0x39A4, symBinAddr: 0x100004324, symSize: 0x58 }
  - { offsetInCU: 0x118CA, offset: 0x118CA, size: 0x8, addend: 0x0, symName: __ZN10__gnu_pbds6detail19bin_search_tree_setISt4pairIiiENS_9null_typeESt4lessIS3_ENS0_11tree_traitsIS3_S4_S6_NS_33tree_order_statistics_node_updateENS_11rb_tree_tagESaIcEEESA_E11rotate_leftEPNS0_13rb_tree_node_IS3_mSA_EE, symObjAddr: 0x3774, symBinAddr: 0x1000040F4, symSize: 0x118 }
  - { offsetInCU: 0x118D2, offset: 0x118D2, size: 0x8, addend: 0x0, symName: __ZN10__gnu_pbds6detail19bin_search_tree_setISt4pairIiiENS_9null_typeESt4lessIS3_ENS0_11tree_traitsIS3_S4_S6_NS_33tree_order_statistics_node_updateENS_11rb_tree_tagESaIcEEESA_E12rotate_rightEPNS0_13rb_tree_node_IS3_mSA_EE, symObjAddr: 0x388C, symBinAddr: 0x10000420C, symSize: 0x118 }
  - { offsetInCU: 0x119F9, offset: 0x119F9, size: 0x8, addend: 0x0, symName: __ZNSt4pairIN10__gnu_pbds6detail25bin_search_tree_const_it_IPNS1_13rb_tree_node_IS_IiiEmSaIcEEES4_PS4_PKS4_RS4_RS9_Lb1ES5_EEbEC1IS7_bLb1EEEOS_IT_T0_E, symObjAddr: 0x371C, symBinAddr: 0x10000409C, symSize: 0x58 }
  - { offsetInCU: 0x11A01, offset: 0x11A01, size: 0x8, addend: 0x0, symName: __ZN10__gnu_pbds6detail19bin_search_tree_setISt4pairIiiENS_9null_typeESt4lessIS3_ENS0_11tree_traitsIS3_S4_S6_NS_33tree_order_statistics_node_updateENS_11rb_tree_tagESaIcEEESA_E11rotate_leftEPNS0_13rb_tree_node_IS3_mSA_EE, symObjAddr: 0x3774, symBinAddr: 0x1000040F4, symSize: 0x118 }
  - { offsetInCU: 0x11AE1, offset: 0x11AE1, size: 0x8, addend: 0x0, symName: __ZSt9make_pairIRPN10__gnu_pbds6detail13rb_tree_node_ISt4pairIiiEmSaIcEEEbES3_INSt25__strip_reference_wrapperINSt5decayIT_E4typeEE6__typeENS9_INSA_IT0_E4typeEE6__typeEEOSB_OSG_, symObjAddr: 0x36D0, symBinAddr: 0x100004050, symSize: 0x4C }
  - { offsetInCU: 0x11AE9, offset: 0x11AE9, size: 0x8, addend: 0x0, symName: __ZNSt4pairIN10__gnu_pbds6detail25bin_search_tree_const_it_IPNS1_13rb_tree_node_IS_IiiEmSaIcEEES4_PS4_PKS4_RS4_RS9_Lb1ES5_EEbEC1IS7_bLb1EEEOS_IT_T0_E, symObjAddr: 0x371C, symBinAddr: 0x10000409C, symSize: 0x58 }
  - { offsetInCU: 0x11A25, offset: 0x11A25, size: 0x8, addend: 0x0, symName: __ZN10__gnu_pbds6detail19bin_search_tree_setISt4pairIiiENS_9null_typeESt4lessIS3_ENS0_11tree_traitsIS3_S4_S6_NS_33tree_order_statistics_node_updateENS_11rb_tree_tagESaIcEEESA_E15insert_leaf_newERKS3_PNS0_13rb_tree_node_IS3_mSA_EEb, symObjAddr: 0x35D8, symBinAddr: 0x100003F58, symSize: 0xF8 }
  - { offsetInCU: 0x11A2D, offset: 0x11A2D, size: 0x8, addend: 0x0, symName: __ZSt9make_pairIRPN10__gnu_pbds6detail13rb_tree_node_ISt4pairIiiEmSaIcEEEbES3_INSt25__strip_reference_wrapperINSt5decayIT_E4typeEE6__typeENS9_INSA_IT0_E4typeEE6__typeEEOSB_OSG_, symObjAddr: 0x36D0, symBinAddr: 0x100004050, symSize: 0x4C }
  - { offsetInCU: 0x11CC9, offset: 0x11CC9, size: 0x8, addend: 0x0, symName: __ZSt9make_pairIN10__gnu_pbds6detail25bin_search_tree_const_it_IPNS1_13rb_tree_node_ISt4pairIiiEmSaIcEEES5_PS5_PKS5_RS5_RSA_Lb1ES6_EEbES4_INSt25__strip_reference_wrapperINSt5decayIT_E4typeEE6__typeENSF_INSG_IT0_E4typeEE6__typeEEOSH_OSM_, symObjAddr: 0x358C, symBinAddr: 0x100003F0C, symSize: 0x4C }
  - { offsetInCU: 0x11CD1, offset: 0x11CD1, size: 0x8, addend: 0x0, symName: __ZN10__gnu_pbds6detail19bin_search_tree_setISt4pairIiiENS_9null_typeESt4lessIS3_ENS0_11tree_traitsIS3_S4_S6_NS_33tree_order_statistics_node_updateENS_11rb_tree_tagESaIcEEESA_E15insert_leaf_newERKS3_PNS0_13rb_tree_node_IS3_mSA_EEb, symObjAddr: 0x35D8, symBinAddr: 0x100003F58, symSize: 0xF8 }
  - { offsetInCU: 0x11B0D, offset: 0x11B0D, size: 0x8, addend: 0x0, symName: __ZN10__gnu_pbds6detail19bin_search_tree_setISt4pairIiiENS_9null_typeESt4lessIS3_ENS0_11tree_traitsIS3_S4_S6_NS_33tree_order_statistics_node_updateENS_11rb_tree_tagESaIcEEESA_E16insert_imp_emptyERKS3_, symObjAddr: 0x34DC, symBinAddr: 0x100003E5C, symSize: 0xB0 }
  - { offsetInCU: 0x11B15, offset: 0x11B15, size: 0x8, addend: 0x0, symName: __ZSt9make_pairIN10__gnu_pbds6detail25bin_search_tree_const_it_IPNS1_13rb_tree_node_ISt4pairIiiEmSaIcEEES5_PS5_PKS5_RS5_RSA_Lb1ES6_EEbES4_INSt25__strip_reference_wrapperINSt5decayIT_E4typeEE6__typeENSF_INSG_IT0_E4typeEE6__typeEEOSH_OSM_, symObjAddr: 0x358C, symBinAddr: 0x100003F0C, symSize: 0x4C }
  - { offsetInCU: 0x11B62, offset: 0x11B62, size: 0x8, addend: 0x0, symName: __ZN10__gnu_pbds6detail13rb_tree_node_ISt4pairIiiEmSaIcEE12get_metadataEv, symObjAddr: 0x34C4, symBinAddr: 0x100003E44, symSize: 0x18 }
  - { offsetInCU: 0x11B6A, offset: 0x11B6A, size: 0x8, addend: 0x0, symName: __ZN10__gnu_pbds6detail19bin_search_tree_setISt4pairIiiENS_9null_typeESt4lessIS3_ENS0_11tree_traitsIS3_S4_S6_NS_33tree_order_statistics_node_updateENS_11rb_tree_tagESaIcEEESA_E16insert_imp_emptyERKS3_, symObjAddr: 0x34DC, symBinAddr: 0x100003E5C, symSize: 0xB0 }
  - { offsetInCU: 0x11BCA, offset: 0x11BCA, size: 0x8, addend: 0x0, symName: __ZStltIiiEbRKSt4pairIT_T0_ES5_, symObjAddr: 0x345C, symBinAddr: 0x100003DDC, symSize: 0x68 }
  - { offsetInCU: 0x11BD2, offset: 0x11BD2, size: 0x8, addend: 0x0, symName: __ZN10__gnu_pbds6detail13rb_tree_node_ISt4pairIiiEmSaIcEE12get_metadataEv, symObjAddr: 0x34C4, symBinAddr: 0x100003E44, symSize: 0x18 }
  - { offsetInCU: 0x11CA4, offset: 0x11CA4, size: 0x8, addend: 0x0, symName: __ZN10__gnu_pbds6detail25bin_search_tree_const_it_IPNS0_13rb_tree_node_ISt4pairIiiEmSaIcEEES4_PS4_PKS4_RS4_RS9_Lb1ES5_EC1ES7_, symObjAddr: 0x3438, symBinAddr: 0x100003DB8, symSize: 0x24 }
  - { offsetInCU: 0x11CAC, offset: 0x11CAC, size: 0x8, addend: 0x0, symName: __ZStltIiiEbRKSt4pairIT_T0_ES5_, symObjAddr: 0x345C, symBinAddr: 0x100003DDC, symSize: 0x68 }
  - { offsetInCU: 0x11D37, offset: 0x11D37, size: 0x8, addend: 0x0, symName: __ZN10__gnu_pbds6detail30bin_search_tree_const_node_it_INS0_13rb_tree_node_ISt4pairIiiEmSaIcEEENS0_25bin_search_tree_const_it_IPS6_S4_PS4_PKS4_RS4_RSA_Lb1ES5_EESE_S5_EC1ES8_, symObjAddr: 0x3414, symBinAddr: 0x100003D94, symSize: 0x24 }
  - { offsetInCU: 0x11D3F, offset: 0x11D3F, size: 0x8, addend: 0x0, symName: __ZN10__gnu_pbds6detail25bin_search_tree_const_it_IPNS0_13rb_tree_node_ISt4pairIiiEmSaIcEEES4_PS4_PKS4_RS4_RS9_Lb1ES5_EC1ES7_, symObjAddr: 0x3438, symBinAddr: 0x100003DB8, symSize: 0x24 }
  - { offsetInCU: 0x11CC4, offset: 0x11CC4, size: 0x8, addend: 0x0, symName: __ZNSt15_Deque_iteratorISt5arrayIiLm3EERS1_PS1_EmmEv, symObjAddr: 0x33A8, symBinAddr: 0x100003D28, symSize: 0x6C }
  - { offsetInCU: 0x11CCC, offset: 0x11CCC, size: 0x8, addend: 0x0, symName: __ZN10__gnu_pbds6detail30bin_search_tree_const_node_it_INS0_13rb_tree_node_ISt4pairIiiEmSaIcEEENS0_25bin_search_tree_const_it_IPS6_S4_PS4_PKS4_RS4_RSA_Lb1ES5_EESE_S5_EC1ES8_, symObjAddr: 0x3414, symBinAddr: 0x100003D94, symSize: 0x24 }
  - { offsetInCU: 0x11CF3, offset: 0x11CF3, size: 0x8, addend: 0x0, symName: __ZNSt11_Deque_baseISt5arrayIiLm3EESaIS1_EE16_M_allocate_nodeEv, symObjAddr: 0x3364, symBinAddr: 0x100003CE4, symSize: 0x44 }
  - { offsetInCU: 0x11CFB, offset: 0x11CFB, size: 0x8, addend: 0x0, symName: __ZNSt15_Deque_iteratorISt5arrayIiLm3EERS1_PS1_EmmEv, symObjAddr: 0x33A8, symBinAddr: 0x100003D28, symSize: 0x6C }
  - { offsetInCU: 0x11D54, offset: 0x11D54, size: 0x8, addend: 0x0, symName: __ZNSt5dequeISt5arrayIiLm3EESaIS1_EE22_M_reserve_map_at_backEm, symObjAddr: 0x3304, symBinAddr: 0x100003C84, symSize: 0x60 }
  - { offsetInCU: 0x11D5C, offset: 0x11D5C, size: 0x8, addend: 0x0, symName: __ZNSt11_Deque_baseISt5arrayIiLm3EESaIS1_EE16_M_allocate_nodeEv, symObjAddr: 0x3364, symBinAddr: 0x100003CE4, symSize: 0x44 }
  - { offsetInCU: 0x11D97, offset: 0x11D97, size: 0x8, addend: 0x0, symName: __ZNKSt5dequeISt5arrayIiLm3EESaIS1_EE8max_sizeEv, symObjAddr: 0x32E4, symBinAddr: 0x100003C64, symSize: 0x20 }
  - { offsetInCU: 0x11D9F, offset: 0x11D9F, size: 0x8, addend: 0x0, symName: __ZNSt5dequeISt5arrayIiLm3EESaIS1_EE22_M_reserve_map_at_backEm, symObjAddr: 0x3304, symBinAddr: 0x100003C84, symSize: 0x60 }
  - { offsetInCU: 0x11DC6, offset: 0x11DC6, size: 0x8, addend: 0x0, symName: __ZNKSt5dequeISt5arrayIiLm3EESaIS1_EE4sizeEv, symObjAddr: 0x32B4, symBinAddr: 0x100003C34, symSize: 0x30 }
  - { offsetInCU: 0x11DCE, offset: 0x11DCE, size: 0x8, addend: 0x0, symName: __ZNKSt5dequeISt5arrayIiLm3EESaIS1_EE8max_sizeEv, symObjAddr: 0x32E4, symBinAddr: 0x100003C64, symSize: 0x20 }
  - { offsetInCU: 0x11E4A, offset: 0x11E4A, size: 0x8, addend: 0x0, symName: __ZNSt15_Deque_iteratorISt5arrayIiLm3EERS1_PS1_E14_S_buffer_sizeEv, symObjAddr: 0x329C, symBinAddr: 0x100003C1C, symSize: 0x18 }
  - { offsetInCU: 0x11E52, offset: 0x11E52, size: 0x8, addend: 0x0, symName: __ZNKSt5dequeISt5arrayIiLm3EESaIS1_EE4sizeEv, symObjAddr: 0x32B4, symBinAddr: 0x100003C34, symSize: 0x30 }
  - { offsetInCU: 0x11ECF, offset: 0x11ECF, size: 0x8, addend: 0x0, symName: __ZNKSt11_Deque_baseISt5arrayIiLm3EESaIS1_EE20_M_get_map_allocatorEv, symObjAddr: 0x3254, symBinAddr: 0x100003BD4, symSize: 0x48 }
  - { offsetInCU: 0x11ED7, offset: 0x11ED7, size: 0x8, addend: 0x0, symName: __ZNSt15_Deque_iteratorISt5arrayIiLm3EERS1_PS1_E14_S_buffer_sizeEv, symObjAddr: 0x329C, symBinAddr: 0x100003C1C, symSize: 0x18 }
  - { offsetInCU: 0x11F56, offset: 0x11F56, size: 0x8, addend: 0x0, symName: __ZNSt11_Deque_baseISt5arrayIiLm3EESaIS1_EE18_M_deallocate_nodeEPS1_, symObjAddr: 0x31FC, symBinAddr: 0x100003B7C, symSize: 0x58 }
  - { offsetInCU: 0x11F5E, offset: 0x11F5E, size: 0x8, addend: 0x0, symName: __ZNKSt11_Deque_baseISt5arrayIiLm3EESaIS1_EE20_M_get_map_allocatorEv, symObjAddr: 0x3254, symBinAddr: 0x100003BD4, symSize: 0x48 }
  - { offsetInCU: 0x11FD7, offset: 0x11FD7, size: 0x8, addend: 0x0, symName: __ZNSt11_Deque_baseISt5arrayIiLm3EESaIS1_EE15_M_create_nodesEPPS1_S5_, symObjAddr: 0x3170, symBinAddr: 0x100003AF0, symSize: 0x8C }
  - { offsetInCU: 0x11FDF, offset: 0x11FDF, size: 0x8, addend: 0x0, symName: __ZNSt11_Deque_baseISt5arrayIiLm3EESaIS1_EE18_M_deallocate_nodeEPS1_, symObjAddr: 0x31FC, symBinAddr: 0x100003B7C, symSize: 0x58 }
  - { offsetInCU: 0x12042, offset: 0x12042, size: 0x8, addend: 0x0, symName: __ZNSt11_Deque_baseISt5arrayIiLm3EESaIS1_EE15_M_allocate_mapEm, symObjAddr: 0x30F0, symBinAddr: 0x100003A70, symSize: 0x80 }
  - { offsetInCU: 0x1204A, offset: 0x1204A, size: 0x8, addend: 0x0, symName: __ZNSt11_Deque_baseISt5arrayIiLm3EESaIS1_EE15_M_create_nodesEPPS1_S5_, symObjAddr: 0x3170, symBinAddr: 0x100003AF0, symSize: 0x8C }
  - { offsetInCU: 0x12168, offset: 0x12168, size: 0x8, addend: 0x0, symName: __ZNSt11_Deque_baseISt5arrayIiLm3EESaIS1_EE16_Deque_impl_dataC2Ev, symObjAddr: 0x30B0, symBinAddr: 0x100003A30, symSize: 0x40 }
  - { offsetInCU: 0x12170, offset: 0x12170, size: 0x8, addend: 0x0, symName: __ZNSt11_Deque_baseISt5arrayIiLm3EESaIS1_EE15_M_allocate_mapEm, symObjAddr: 0x30F0, symBinAddr: 0x100003A70, symSize: 0x80 }
  - { offsetInCU: 0x12221, offset: 0x12221, size: 0x8, addend: 0x0, symName: __ZSt22__final_insertion_sortIN9__gnu_cxx17__normal_iteratorIPSt5arrayIiLm3EESt6vectorIS3_SaIS3_EEEENS0_5__ops15_Iter_comp_iterIZ4mainEUlS3_S3_E_EEEvT_SD_T0_, symObjAddr: 0x3024, symBinAddr: 0x1000039A4, symSize: 0x8C }
  - { offsetInCU: 0x12229, offset: 0x12229, size: 0x8, addend: 0x0, symName: __ZNSt11_Deque_baseISt5arrayIiLm3EESaIS1_EE16_Deque_impl_dataC2Ev, symObjAddr: 0x30B0, symBinAddr: 0x100003A30, symSize: 0x40 }
  - { offsetInCU: 0x12299, offset: 0x12299, size: 0x8, addend: 0x0, symName: __ZSt16__introsort_loopIN9__gnu_cxx17__normal_iteratorIPSt5arrayIiLm3EESt6vectorIS3_SaIS3_EEEElNS0_5__ops15_Iter_comp_iterIZ4mainEUlS3_S3_E_EEEvT_SD_T0_T1_, symObjAddr: 0x2F7C, symBinAddr: 0x1000038FC, symSize: 0xA8 }
  - { offsetInCU: 0x122A1, offset: 0x122A1, size: 0x8, addend: 0x0, symName: __ZSt22__final_insertion_sortIN9__gnu_cxx17__normal_iteratorIPSt5arrayIiLm3EESt6vectorIS3_SaIS3_EEEENS0_5__ops15_Iter_comp_iterIZ4mainEUlS3_S3_E_EEEvT_SD_T0_, symObjAddr: 0x3024, symBinAddr: 0x1000039A4, symSize: 0x8C }
  - { offsetInCU: 0x122AB, offset: 0x122AB, size: 0x8, addend: 0x0, symName: __ZSt4__lgIlET_S0_, symObjAddr: 0x2F58, symBinAddr: 0x1000038D8, symSize: 0x24 }
  - { offsetInCU: 0x122B3, offset: 0x122B3, size: 0x8, addend: 0x0, symName: __ZSt16__introsort_loopIN9__gnu_cxx17__normal_iteratorIPSt5arrayIiLm3EESt6vectorIS3_SaIS3_EEEElNS0_5__ops15_Iter_comp_iterIZ4mainEUlS3_S3_E_EEEvT_SD_T0_T1_, symObjAddr: 0x2F7C, symBinAddr: 0x1000038FC, symSize: 0xA8 }
  - { offsetInCU: 0x12387, offset: 0x12387, size: 0x8, addend: 0x0, symName: __ZN9__gnu_cxxmiIPSt5arrayIiLm3EESt6vectorIS2_SaIS2_EEEENS_17__normal_iteratorIT_T0_E15difference_typeERKSA_SD_, symObjAddr: 0x2F0C, symBinAddr: 0x10000388C, symSize: 0x4C }
  - { offsetInCU: 0x1238F, offset: 0x1238F, size: 0x8, addend: 0x0, symName: __ZSt4__lgIlET_S0_, symObjAddr: 0x2F58, symBinAddr: 0x1000038D8, symSize: 0x24 }
  - { offsetInCU: 0x123E2, offset: 0x123E2, size: 0x8, addend: 0x0, symName: __ZN9__gnu_cxxneIPSt5arrayIiLm3EESt6vectorIS2_SaIS2_EEEEbRKNS_17__normal_iteratorIT_T0_EESC_, symObjAddr: 0x2EC8, symBinAddr: 0x100003848, symSize: 0x44 }
  - { offsetInCU: 0x123EA, offset: 0x123EA, size: 0x8, addend: 0x0, symName: __ZN9__gnu_cxxmiIPSt5arrayIiLm3EESt6vectorIS2_SaIS2_EEEENS_17__normal_iteratorIT_T0_E15difference_typeERKSA_SD_, symObjAddr: 0x2F0C, symBinAddr: 0x10000388C, symSize: 0x4C }
  - { offsetInCU: 0x123D5, offset: 0x123D5, size: 0x8, addend: 0x0, symName: __ZN9__gnu_cxx5__ops15_Iter_comp_iterIZ4mainEUlSt5arrayIiLm3EES3_E_EC1ES4_, symObjAddr: 0x2EA4, symBinAddr: 0x100003824, symSize: 0x24 }
  - { offsetInCU: 0x123DD, offset: 0x123DD, size: 0x8, addend: 0x0, symName: __ZN9__gnu_cxxneIPSt5arrayIiLm3EESt6vectorIS2_SaIS2_EEEEbRKNS_17__normal_iteratorIT_T0_EESC_, symObjAddr: 0x2EC8, symBinAddr: 0x100003848, symSize: 0x44 }
  - { offsetInCU: 0x1244D, offset: 0x1244D, size: 0x8, addend: 0x0, symName: __ZSt4moveIRZ4mainEUlSt5arrayIiLm3EES1_E_EONSt16remove_referenceIT_E4typeEOS5_, symObjAddr: 0x2E90, symBinAddr: 0x100003810, symSize: 0x14 }
  - { offsetInCU: 0x12455, offset: 0x12455, size: 0x8, addend: 0x0, symName: __ZN9__gnu_cxx5__ops15_Iter_comp_iterIZ4mainEUlSt5arrayIiLm3EES3_E_EC1ES4_, symObjAddr: 0x2EA4, symBinAddr: 0x100003824, symSize: 0x24 }
  - { offsetInCU: 0x1248A, offset: 0x1248A, size: 0x8, addend: 0x0, symName: __ZSt8_DestroyIPiEvT_S1_, symObjAddr: 0x2E68, symBinAddr: 0x1000037E8, symSize: 0x28 }
  - { offsetInCU: 0x12492, offset: 0x12492, size: 0x8, addend: 0x0, symName: __ZSt4moveIRZ4mainEUlSt5arrayIiLm3EES1_E_EONSt16remove_referenceIT_E4typeEOS5_, symObjAddr: 0x2E90, symBinAddr: 0x100003810, symSize: 0x14 }
  - { offsetInCU: 0x12534, offset: 0x12534, size: 0x8, addend: 0x0, symName: __ZSt24__uninitialized_fill_n_aIPimiiET_S1_T0_RKT1_RSaIT2_E, symObjAddr: 0x2E38, symBinAddr: 0x1000037B8, symSize: 0x30 }
  - { offsetInCU: 0x1253C, offset: 0x1253C, size: 0x8, addend: 0x0, symName: __ZSt8_DestroyIPiEvT_S1_, symObjAddr: 0x2E68, symBinAddr: 0x1000037E8, symSize: 0x28 }
  - { offsetInCU: 0x1255F, offset: 0x1255F, size: 0x8, addend: 0x0, symName: __ZNSt12_Vector_baseIiSaIiEE13_M_deallocateEPim, symObjAddr: 0x2DE0, symBinAddr: 0x100003760, symSize: 0x58 }
  - { offsetInCU: 0x12567, offset: 0x12567, size: 0x8, addend: 0x0, symName: __ZSt24__uninitialized_fill_n_aIPimiiET_S1_T0_RKT1_RSaIT2_E, symObjAddr: 0x2E38, symBinAddr: 0x1000037B8, symSize: 0x30 }
  - { offsetInCU: 0x125F4, offset: 0x125F4, size: 0x8, addend: 0x0, symName: __ZNSt12_Vector_baseIiSaIiEE17_M_create_storageEm, symObjAddr: 0x2D80, symBinAddr: 0x100003700, symSize: 0x60 }
  - { offsetInCU: 0x125FC, offset: 0x125FC, size: 0x8, addend: 0x0, symName: __ZNSt12_Vector_baseIiSaIiEE13_M_deallocateEPim, symObjAddr: 0x2DE0, symBinAddr: 0x100003760, symSize: 0x58 }
  - { offsetInCU: 0x12692, offset: 0x12692, size: 0x8, addend: 0x0, symName: __ZNSt12_Vector_baseIiSaIiEE12_Vector_implC1ERKS0_, symObjAddr: 0x2D34, symBinAddr: 0x1000036B4, symSize: 0x4C }
  - { offsetInCU: 0x1269A, offset: 0x1269A, size: 0x8, addend: 0x0, symName: __ZNSt12_Vector_baseIiSaIiEE17_M_create_storageEm, symObjAddr: 0x2D80, symBinAddr: 0x100003700, symSize: 0x60 }
  - { offsetInCU: 0x12727, offset: 0x12727, size: 0x8, addend: 0x0, symName: __ZNSt6vectorIiSaIiEE11_S_max_sizeERKS0_, symObjAddr: 0x2CE0, symBinAddr: 0x100003660, symSize: 0x54 }
  - { offsetInCU: 0x1272F, offset: 0x1272F, size: 0x8, addend: 0x0, symName: __ZNSt12_Vector_baseIiSaIiEE12_Vector_implC1ERKS0_, symObjAddr: 0x2D34, symBinAddr: 0x1000036B4, symSize: 0x4C }
  - { offsetInCU: 0x1284B, offset: 0x1284B, size: 0x8, addend: 0x0, symName: __ZNSt6vectorISt5arrayIiLm3EESaIS1_EE11_S_relocateEPS1_S4_S4_RS2_, symObjAddr: 0x2CAC, symBinAddr: 0x10000362C, symSize: 0x34 }
  - { offsetInCU: 0x12853, offset: 0x12853, size: 0x8, addend: 0x0, symName: __ZNSt6vectorIiSaIiEE11_S_max_sizeERKS0_, symObjAddr: 0x2CE0, symBinAddr: 0x100003660, symSize: 0x54 }
  - { offsetInCU: 0x128B9, offset: 0x128B9, size: 0x8, addend: 0x0, symName: __ZNSt12_Vector_baseISt5arrayIiLm3EESaIS1_EE11_M_allocateEm, symObjAddr: 0x2C5C, symBinAddr: 0x1000035DC, symSize: 0x50 }
  - { offsetInCU: 0x128C1, offset: 0x128C1, size: 0x8, addend: 0x0, symName: __ZNSt6vectorISt5arrayIiLm3EESaIS1_EE11_S_relocateEPS1_S4_S4_RS2_, symObjAddr: 0x2CAC, symBinAddr: 0x10000362C, symSize: 0x34 }
  - { offsetInCU: 0x1292E, offset: 0x1292E, size: 0x8, addend: 0x0, symName: __ZNKSt6vectorISt5arrayIiLm3EESaIS1_EE12_M_check_lenEmPKc, symObjAddr: 0x2B8C, symBinAddr: 0x10000350C, symSize: 0xD0 }
  - { offsetInCU: 0x12936, offset: 0x12936, size: 0x8, addend: 0x0, symName: __ZNSt12_Vector_baseISt5arrayIiLm3EESaIS1_EE11_M_allocateEm, symObjAddr: 0x2C5C, symBinAddr: 0x1000035DC, symSize: 0x50 }
  - { offsetInCU: 0x12A3F, offset: 0x12A3F, size: 0x8, addend: 0x0, symName: __ZSt27__uninitialized_default_n_aIPSt5arrayIiLm3EEmS1_ET_S3_T0_RSaIT1_E, symObjAddr: 0x2B64, symBinAddr: 0x1000034E4, symSize: 0x28 }
  - { offsetInCU: 0x12A47, offset: 0x12A47, size: 0x8, addend: 0x0, symName: __ZNKSt6vectorISt5arrayIiLm3EESaIS1_EE12_M_check_lenEmPKc, symObjAddr: 0x2B8C, symBinAddr: 0x10000350C, symSize: 0xD0 }
  - { offsetInCU: 0x12A1F, offset: 0x12A1F, size: 0x8, addend: 0x0, symName: __ZNSt12_Vector_baseISt5arrayIiLm3EESaIS1_EE19_M_get_Tp_allocatorEv, symObjAddr: 0x2B50, symBinAddr: 0x1000034D0, symSize: 0x14 }
  - { offsetInCU: 0x12A27, offset: 0x12A27, size: 0x8, addend: 0x0, symName: __ZSt27__uninitialized_default_n_aIPSt5arrayIiLm3EEmS1_ET_S3_T0_RSaIT1_E, symObjAddr: 0x2B64, symBinAddr: 0x1000034E4, symSize: 0x28 }
  - { offsetInCU: 0x12A4E, offset: 0x12A4E, size: 0x8, addend: 0x0, symName: __ZNKSt6vectorISt5arrayIiLm3EESaIS1_EE8max_sizeEv, symObjAddr: 0x2B30, symBinAddr: 0x1000034B0, symSize: 0x20 }
  - { offsetInCU: 0x12A56, offset: 0x12A56, size: 0x8, addend: 0x0, symName: __ZNSt12_Vector_baseISt5arrayIiLm3EESaIS1_EE19_M_get_Tp_allocatorEv, symObjAddr: 0x2B50, symBinAddr: 0x1000034D0, symSize: 0x14 }
  - { offsetInCU: 0x12BB2, offset: 0x12BB2, size: 0x8, addend: 0x0, symName: __ZN10__gnu_pbds6detail19bin_search_tree_setISt4pairIiiENS_9null_typeESt4lessIS3_ENS0_11tree_traitsIS3_S4_S6_NS_33tree_order_statistics_node_updateENS_11rb_tree_tagESaIcEEESA_ED0Ev, symObjAddr: 0x2B08, symBinAddr: 0x100003488, symSize: 0x28 }
  - { offsetInCU: 0x12BBA, offset: 0x12BBA, size: 0x8, addend: 0x0, symName: __ZNKSt6vectorISt5arrayIiLm3EESaIS1_EE8max_sizeEv, symObjAddr: 0x2B30, symBinAddr: 0x1000034B0, symSize: 0x20 }
  - { offsetInCU: 0x12BE0, offset: 0x12BE0, size: 0x8, addend: 0x0, symName: __ZN10__gnu_pbds6detail19bin_search_tree_setISt4pairIiiENS_9null_typeESt4lessIS3_ENS0_11tree_traitsIS3_S4_S6_NS_33tree_order_statistics_node_updateENS_11rb_tree_tagESaIcEEESA_ED1Ev, symObjAddr: 0x2AB0, symBinAddr: 0x100003430, symSize: 0x58 }
  - { offsetInCU: 0x12BE8, offset: 0x12BE8, size: 0x8, addend: 0x0, symName: __ZN10__gnu_pbds6detail19bin_search_tree_setISt4pairIiiENS_9null_typeESt4lessIS3_ENS0_11tree_traitsIS3_S4_S6_NS_33tree_order_statistics_node_updateENS_11rb_tree_tagESaIcEEESA_ED0Ev, symObjAddr: 0x2B08, symBinAddr: 0x100003488, symSize: 0x28 }
  - { offsetInCU: 0x12C0E, offset: 0x12C0E, size: 0x8, addend: 0x0, symName: __ZN10__gnu_pbds6detail19bin_search_tree_setISt4pairIiiENS_9null_typeESt4lessIS3_ENS0_11tree_traitsIS3_S4_S6_NS_33tree_order_statistics_node_updateENS_11rb_tree_tagESaIcEEESA_ED2Ev, symObjAddr: 0x2A58, symBinAddr: 0x1000033D8, symSize: 0x58 }
  - { offsetInCU: 0x12C16, offset: 0x12C16, size: 0x8, addend: 0x0, symName: __ZN10__gnu_pbds6detail19bin_search_tree_setISt4pairIiiENS_9null_typeESt4lessIS3_ENS0_11tree_traitsIS3_S4_S6_NS_33tree_order_statistics_node_updateENS_11rb_tree_tagESaIcEEESA_ED1Ev, symObjAddr: 0x2AB0, symBinAddr: 0x100003430, symSize: 0x58 }
  - { offsetInCU: 0x12C4D, offset: 0x12C4D, size: 0x8, addend: 0x0, symName: __ZN10__gnu_pbds6detail11rb_tree_setISt4pairIiiENS_9null_typeESt4lessIS3_ENS0_11tree_traitsIS3_S4_S6_NS_33tree_order_statistics_node_updateENS_11rb_tree_tagESaIcEEESA_EC2Ev, symObjAddr: 0x2A1C, symBinAddr: 0x10000339C, symSize: 0x3C }
  - { offsetInCU: 0x12C55, offset: 0x12C55, size: 0x8, addend: 0x0, symName: __ZN10__gnu_pbds6detail19bin_search_tree_setISt4pairIiiENS_9null_typeESt4lessIS3_ENS0_11tree_traitsIS3_S4_S6_NS_33tree_order_statistics_node_updateENS_11rb_tree_tagESaIcEEESA_ED2Ev, symObjAddr: 0x2A58, symBinAddr: 0x1000033D8, symSize: 0x58 }
  - { offsetInCU: 0x12BCF, offset: 0x12BCF, size: 0x8, addend: 0x0, symName: __ZNK9__gnu_cxx17__normal_iteratorIPiSt6vectorIiSaIiEEE4baseEv, symObjAddr: 0x2A08, symBinAddr: 0x100003388, symSize: 0x14 }
  - { offsetInCU: 0x12BD7, offset: 0x12BD7, size: 0x8, addend: 0x0, symName: __ZN10__gnu_pbds6detail11rb_tree_setISt4pairIiiENS_9null_typeESt4lessIS3_ENS0_11tree_traitsIS3_S4_S6_NS_33tree_order_statistics_node_updateENS_11rb_tree_tagESaIcEEESA_EC2Ev, symObjAddr: 0x2A1C, symBinAddr: 0x10000339C, symSize: 0x3C }
  - { offsetInCU: 0x12C67, offset: 0x12C67, size: 0x8, addend: 0x0, symName: __ZN9__gnu_cxx17__normal_iteratorIPiSt6vectorIiSaIiEEEC1ERKS1_, symObjAddr: 0x29E0, symBinAddr: 0x100003360, symSize: 0x28 }
  - { offsetInCU: 0x12C6F, offset: 0x12C6F, size: 0x8, addend: 0x0, symName: __ZNK9__gnu_cxx17__normal_iteratorIPiSt6vectorIiSaIiEEE4baseEv, symObjAddr: 0x2A08, symBinAddr: 0x100003388, symSize: 0x14 }
  - { offsetInCU: 0x12C63, offset: 0x12C63, size: 0x8, addend: 0x0, symName: __ZN10__gnu_pbds6detail19bin_search_tree_setISt4pairIiiENS_9null_typeESt4lessIS3_ENS0_11tree_traitsIS3_S4_S6_NS_33tree_order_statistics_node_updateENS_11rb_tree_tagESaIcEEESA_E10initializeEv, symObjAddr: 0x2990, symBinAddr: 0x100003310, symSize: 0x50 }
  - { offsetInCU: 0x12C6B, offset: 0x12C6B, size: 0x8, addend: 0x0, symName: __ZN9__gnu_cxx17__normal_iteratorIPiSt6vectorIiSaIiEEEC1ERKS1_, symObjAddr: 0x29E0, symBinAddr: 0x100003360, symSize: 0x28 }
  - { offsetInCU: 0x12C92, offset: 0x12C92, size: 0x8, addend: 0x0, symName: __ZN10__gnu_pbds6detail19bin_search_tree_setISt4pairIiiENS_9null_typeESt4lessIS3_ENS0_11tree_traitsIS3_S4_S6_NS_33tree_order_statistics_node_updateENS_11rb_tree_tagESaIcEEESA_E9clear_impEPNS0_13rb_tree_node_IS3_mSA_EE, symObjAddr: 0x293C, symBinAddr: 0x1000032BC, symSize: 0x54 }
  - { offsetInCU: 0x12C9A, offset: 0x12C9A, size: 0x8, addend: 0x0, symName: __ZN10__gnu_pbds6detail19bin_search_tree_setISt4pairIiiENS_9null_typeESt4lessIS3_ENS0_11tree_traitsIS3_S4_S6_NS_33tree_order_statistics_node_updateENS_11rb_tree_tagESaIcEEESA_E10initializeEv, symObjAddr: 0x2990, symBinAddr: 0x100003310, symSize: 0x50 }
  - { offsetInCU: 0x12CC3, offset: 0x12CC3, size: 0x8, addend: 0x0, symName: __ZN10__gnu_pbds6detail11rb_tree_setISt4pairIiiENS_9null_typeESt4lessIS3_ENS0_11tree_traitsIS3_S4_S6_NS_33tree_order_statistics_node_updateENS_11rb_tree_tagESaIcEEESA_E12insert_fixupEPNS0_13rb_tree_node_IS3_mSA_EE, symObjAddr: 0x26EC, symBinAddr: 0x10000306C, symSize: 0x250 }
  - { offsetInCU: 0x12CCB, offset: 0x12CCB, size: 0x8, addend: 0x0, symName: __ZN10__gnu_pbds6detail19bin_search_tree_setISt4pairIiiENS_9null_typeESt4lessIS3_ENS0_11tree_traitsIS3_S4_S6_NS_33tree_order_statistics_node_updateENS_11rb_tree_tagESaIcEEESA_E9clear_impEPNS0_13rb_tree_node_IS3_mSA_EE, symObjAddr: 0x293C, symBinAddr: 0x1000032BC, symSize: 0x54 }
  - { offsetInCU: 0x12D51, offset: 0x12D51, size: 0x8, addend: 0x0, symName: __ZN10__gnu_pbds6detail19bin_search_tree_setISt4pairIiiENS_9null_typeESt4lessIS3_ENS0_11tree_traitsIS3_S4_S6_NS_33tree_order_statistics_node_updateENS_11rb_tree_tagESaIcEEESA_E11insert_leafERKS3_, symObjAddr: 0x24DC, symBinAddr: 0x100002E5C, symSize: 0x210 }
  - { offsetInCU: 0x12D59, offset: 0x12D59, size: 0x8, addend: 0x0, symName: __ZN10__gnu_pbds6detail11rb_tree_setISt4pairIiiENS_9null_typeESt4lessIS3_ENS0_11tree_traitsIS3_S4_S6_NS_33tree_order_statistics_node_updateENS_11rb_tree_tagESaIcEEESA_E12insert_fixupEPNS0_13rb_tree_node_IS3_mSA_EE, symObjAddr: 0x26EC, symBinAddr: 0x10000306C, symSize: 0x250 }
  - { offsetInCU: 0x12E37, offset: 0x12E37, size: 0x8, addend: 0x0, symName: __ZNSt4pairIiiEC1IRiS2_Lb1EEEOT_OT0_, symObjAddr: 0x2494, symBinAddr: 0x100002E14, symSize: 0x48 }
  - { offsetInCU: 0x12E3F, offset: 0x12E3F, size: 0x8, addend: 0x0, symName: __ZN10__gnu_pbds6detail19bin_search_tree_setISt4pairIiiENS_9null_typeESt4lessIS3_ENS0_11tree_traitsIS3_S4_S6_NS_33tree_order_statistics_node_updateENS_11rb_tree_tagESaIcEEESA_E11insert_leafERKS3_, symObjAddr: 0x24DC, symBinAddr: 0x100002E5C, symSize: 0x210 }
  - { offsetInCU: 0x12E73, offset: 0x12E73, size: 0x8, addend: 0x0, symName: __ZNK10__gnu_pbds6detail30bin_search_tree_const_node_it_INS0_13rb_tree_node_ISt4pairIiiEmSaIcEEENS0_25bin_search_tree_const_it_IPS6_S4_PS4_PKS4_RS4_RSA_Lb1ES5_EESE_S5_E11get_r_childEv, symObjAddr: 0x2468, symBinAddr: 0x100002DE8, symSize: 0x2C }
  - { offsetInCU: 0x12E7B, offset: 0x12E7B, size: 0x8, addend: 0x0, symName: __ZNSt4pairIiiEC1IRiS2_Lb1EEEOT_OT0_, symObjAddr: 0x2494, symBinAddr: 0x100002E14, symSize: 0x48 }
  - { offsetInCU: 0x12EA2, offset: 0x12EA2, size: 0x8, addend: 0x0, symName: __ZNK10__gnu_pbds6detail30bin_search_tree_const_node_it_INS0_13rb_tree_node_ISt4pairIiiEmSaIcEEENS0_25bin_search_tree_const_it_IPS6_S4_PS4_PKS4_RS4_RSA_Lb1ES5_EESE_S5_E12get_metadataEv, symObjAddr: 0x2448, symBinAddr: 0x100002DC8, symSize: 0x20 }
  - { offsetInCU: 0x12EAA, offset: 0x12EAA, size: 0x8, addend: 0x0, symName: __ZNK10__gnu_pbds6detail30bin_search_tree_const_node_it_INS0_13rb_tree_node_ISt4pairIiiEmSaIcEEENS0_25bin_search_tree_const_it_IPS6_S4_PS4_PKS4_RS4_RSA_Lb1ES5_EESE_S5_E11get_r_childEv, symObjAddr: 0x2468, symBinAddr: 0x100002DE8, symSize: 0x2C }
  - { offsetInCU: 0x12ED1, offset: 0x12ED1, size: 0x8, addend: 0x0, symName: __ZNK10__gnu_pbds6detail30bin_search_tree_const_node_it_INS0_13rb_tree_node_ISt4pairIiiEmSaIcEEENS0_25bin_search_tree_const_it_IPS6_S4_PS4_PKS4_RS4_RSA_Lb1ES5_EESE_S5_EeqERKSF_, symObjAddr: 0x2418, symBinAddr: 0x100002D98, symSize: 0x30 }
  - { offsetInCU: 0x12ED9, offset: 0x12ED9, size: 0x8, addend: 0x0, symName: __ZNK10__gnu_pbds6detail30bin_search_tree_const_node_it_INS0_13rb_tree_node_ISt4pairIiiEmSaIcEEENS0_25bin_search_tree_const_it_IPS6_S4_PS4_PKS4_RS4_RSA_Lb1ES5_EESE_S5_E12get_metadataEv, symObjAddr: 0x2448, symBinAddr: 0x100002DC8, symSize: 0x20 }
  - { offsetInCU: 0x12F13, offset: 0x12F13, size: 0x8, addend: 0x0, symName: __ZNKSt4lessISt4pairIiiEEclERKS1_S4_, symObjAddr: 0x23EC, symBinAddr: 0x100002D6C, symSize: 0x2C }
  - { offsetInCU: 0x12F1B, offset: 0x12F1B, size: 0x8, addend: 0x0, symName: __ZNK10__gnu_pbds6detail30bin_search_tree_const_node_it_INS0_13rb_tree_node_ISt4pairIiiEmSaIcEEENS0_25bin_search_tree_const_it_IPS6_S4_PS4_PKS4_RS4_RSA_Lb1ES5_EESE_S5_EeqERKSF_, symObjAddr: 0x2418, symBinAddr: 0x100002D98, symSize: 0x30 }
  - { offsetInCU: 0x12F6A, offset: 0x12F6A, size: 0x8, addend: 0x0, symName: __ZN10__gnu_pbds6detail13branch_policyINS0_30bin_search_tree_const_node_it_INS0_13rb_tree_node_ISt4pairIiiEmSaIcEEENS0_25bin_search_tree_const_it_IPS7_S5_PS5_PKS5_RS5_RSB_Lb1ES6_EESF_S6_EESG_S6_E11extract_keyESE_, symObjAddr: 0x23D8, symBinAddr: 0x100002D58, symSize: 0x14 }
  - { offsetInCU: 0x12F72, offset: 0x12F72, size: 0x8, addend: 0x0, symName: __ZNKSt4lessISt4pairIiiEEclERKS1_S4_, symObjAddr: 0x23EC, symBinAddr: 0x100002D6C, symSize: 0x2C }
  - { offsetInCU: 0x12F9B, offset: 0x12F9B, size: 0x8, addend: 0x0, symName: __ZNK10__gnu_pbds6detail25bin_search_tree_const_it_IPNS0_13rb_tree_node_ISt4pairIiiEmSaIcEEES4_PS4_PKS4_RS4_RS9_Lb1ES5_EdeEv, symObjAddr: 0x23BC, symBinAddr: 0x100002D3C, symSize: 0x1C }
  - { offsetInCU: 0x12FA3, offset: 0x12FA3, size: 0x8, addend: 0x0, symName: __ZN10__gnu_pbds6detail13branch_policyINS0_30bin_search_tree_const_node_it_INS0_13rb_tree_node_ISt4pairIiiEmSaIcEEENS0_25bin_search_tree_const_it_IPS7_S5_PS5_PKS5_RS5_RSB_Lb1ES6_EESF_S6_EESG_S6_E11extract_keyESE_, symObjAddr: 0x23D8, symBinAddr: 0x100002D58, symSize: 0x14 }
  - { offsetInCU: 0x12FCA, offset: 0x12FCA, size: 0x8, addend: 0x0, symName: __ZNK10__gnu_pbds6detail30bin_search_tree_const_node_it_INS0_13rb_tree_node_ISt4pairIiiEmSaIcEEENS0_25bin_search_tree_const_it_IPS6_S4_PS4_PKS4_RS4_RSA_Lb1ES5_EESE_S5_EdeEv, symObjAddr: 0x2394, symBinAddr: 0x100002D14, symSize: 0x28 }
  - { offsetInCU: 0x12FD2, offset: 0x12FD2, size: 0x8, addend: 0x0, symName: __ZNK10__gnu_pbds6detail25bin_search_tree_const_it_IPNS0_13rb_tree_node_ISt4pairIiiEmSaIcEEES4_PS4_PKS4_RS4_RS9_Lb1ES5_EdeEv, symObjAddr: 0x23BC, symBinAddr: 0x100002D3C, symSize: 0x1C }
  - { offsetInCU: 0x12FF9, offset: 0x12FF9, size: 0x8, addend: 0x0, symName: __ZNK10__gnu_pbds6detail30bin_search_tree_const_node_it_INS0_13rb_tree_node_ISt4pairIiiEmSaIcEEENS0_25bin_search_tree_const_it_IPS6_S4_PS4_PKS4_RS4_RSA_Lb1ES5_EESE_S5_E11get_l_childEv, symObjAddr: 0x2368, symBinAddr: 0x100002CE8, symSize: 0x2C }
  - { offsetInCU: 0x13001, offset: 0x13001, size: 0x8, addend: 0x0, symName: __ZNK10__gnu_pbds6detail30bin_search_tree_const_node_it_INS0_13rb_tree_node_ISt4pairIiiEmSaIcEEENS0_25bin_search_tree_const_it_IPS6_S4_PS4_PKS4_RS4_RSA_Lb1ES5_EESE_S5_EdeEv, symObjAddr: 0x2394, symBinAddr: 0x100002D14, symSize: 0x28 }
  - { offsetInCU: 0x13028, offset: 0x13028, size: 0x8, addend: 0x0, symName: __ZNK10__gnu_pbds6detail30bin_search_tree_const_node_it_INS0_13rb_tree_node_ISt4pairIiiEmSaIcEEENS0_25bin_search_tree_const_it_IPS6_S4_PS4_PKS4_RS4_RSA_Lb1ES5_EESE_S5_EneERKSF_, symObjAddr: 0x2338, symBinAddr: 0x100002CB8, symSize: 0x30 }
  - { offsetInCU: 0x13030, offset: 0x13030, size: 0x8, addend: 0x0, symName: __ZNK10__gnu_pbds6detail30bin_search_tree_const_node_it_INS0_13rb_tree_node_ISt4pairIiiEmSaIcEEENS0_25bin_search_tree_const_it_IPS6_S4_PS4_PKS4_RS4_RSA_Lb1ES5_EESE_S5_E11get_l_childEv, symObjAddr: 0x2368, symBinAddr: 0x100002CE8, symSize: 0x2C }
  - { offsetInCU: 0x130E3, offset: 0x130E3, size: 0x8, addend: 0x0, symName: __ZNSt4pairIiiEC1IRiiLb1EEEOT_OT0_, symObjAddr: 0x22F0, symBinAddr: 0x100002C70, symSize: 0x48 }
  - { offsetInCU: 0x130EB, offset: 0x130EB, size: 0x8, addend: 0x0, symName: __ZNK10__gnu_pbds6detail30bin_search_tree_const_node_it_INS0_13rb_tree_node_ISt4pairIiiEmSaIcEEENS0_25bin_search_tree_const_it_IPS6_S4_PS4_PKS4_RS4_RSA_Lb1ES5_EESE_S5_EneERKSF_, symObjAddr: 0x2338, symBinAddr: 0x100002CB8, symSize: 0x30 }
  - { offsetInCU: 0x13168, offset: 0x13168, size: 0x8, addend: 0x0, symName: __ZSt7forwardIRiEOT_RNSt16remove_referenceIS1_E4typeE, symObjAddr: 0x22DC, symBinAddr: 0x100002C5C, symSize: 0x14 }
  - { offsetInCU: 0x13170, offset: 0x13170, size: 0x8, addend: 0x0, symName: __ZNSt4pairIiiEC1IRiiLb1EEEOT_OT0_, symObjAddr: 0x22F0, symBinAddr: 0x100002C70, symSize: 0x48 }
  - { offsetInCU: 0x13175, offset: 0x13175, size: 0x8, addend: 0x0, symName: __ZNSt5dequeISt5arrayIiLm3EESaIS1_EE4backEv, symObjAddr: 0x22A8, symBinAddr: 0x100002C28, symSize: 0x34 }
  - { offsetInCU: 0x1317D, offset: 0x1317D, size: 0x8, addend: 0x0, symName: __ZSt7forwardIRiEOT_RNSt16remove_referenceIS1_E4typeE, symObjAddr: 0x22DC, symBinAddr: 0x100002C5C, symSize: 0x14 }
  - { offsetInCU: 0x131B8, offset: 0x131B8, size: 0x8, addend: 0x0, symName: __ZNSt5dequeISt5arrayIiLm3EESaIS1_EE16_M_push_back_auxIJRS1_EEEvDpOT_, symObjAddr: 0x2178, symBinAddr: 0x100002AF8, symSize: 0x130 }
  - { offsetInCU: 0x131C0, offset: 0x131C0, size: 0x8, addend: 0x0, symName: __ZNSt5dequeISt5arrayIiLm3EESaIS1_EE4backEv, symObjAddr: 0x22A8, symBinAddr: 0x100002C28, symSize: 0x34 }
  - { offsetInCU: 0x13344, offset: 0x13344, size: 0x8, addend: 0x0, symName: __ZSt7forwardIRSt5arrayIiLm3EEEOT_RNSt16remove_referenceIS3_E4typeE, symObjAddr: 0x2164, symBinAddr: 0x100002AE4, symSize: 0x14 }
  - { offsetInCU: 0x1334C, offset: 0x1334C, size: 0x8, addend: 0x0, symName: __ZNSt5dequeISt5arrayIiLm3EESaIS1_EE16_M_push_back_auxIJRS1_EEEvDpOT_, symObjAddr: 0x2178, symBinAddr: 0x100002AF8, symSize: 0x130 }
  - { offsetInCU: 0x13334, offset: 0x13334, size: 0x8, addend: 0x0, symName: __ZNSt5dequeISt5arrayIiLm3EESaIS1_EE15_M_erase_at_endESt15_Deque_iteratorIS1_RS1_PS1_E, symObjAddr: 0x20C8, symBinAddr: 0x100002A48, symSize: 0x9C }
  - { offsetInCU: 0x1333C, offset: 0x1333C, size: 0x8, addend: 0x0, symName: __ZSt7forwardIRSt5arrayIiLm3EEEOT_RNSt16remove_referenceIS3_E4typeE, symObjAddr: 0x2164, symBinAddr: 0x100002AE4, symSize: 0x14 }
  - { offsetInCU: 0x1337A, offset: 0x1337A, size: 0x8, addend: 0x0, symName: __ZNSt15_Deque_iteratorISt5arrayIiLm3EERS1_PS1_E11_M_set_nodeEPS3_, symObjAddr: 0x205C, symBinAddr: 0x1000029DC, symSize: 0x6C }
  - { offsetInCU: 0x13382, offset: 0x13382, size: 0x8, addend: 0x0, symName: __ZNSt5dequeISt5arrayIiLm3EESaIS1_EE15_M_erase_at_endESt15_Deque_iteratorIS1_RS1_PS1_E, symObjAddr: 0x20C8, symBinAddr: 0x100002A48, symSize: 0x9C }
  - { offsetInCU: 0x1341E, offset: 0x1341E, size: 0x8, addend: 0x0, symName: __ZNSt15_Deque_iteratorISt5arrayIiLm3EERS1_PS1_EC1ERKS4_, symObjAddr: 0x2004, symBinAddr: 0x100002984, symSize: 0x58 }
  - { offsetInCU: 0x13426, offset: 0x13426, size: 0x8, addend: 0x0, symName: __ZNSt15_Deque_iteratorISt5arrayIiLm3EERS1_PS1_E11_M_set_nodeEPS3_, symObjAddr: 0x205C, symBinAddr: 0x1000029DC, symSize: 0x6C }
  - { offsetInCU: 0x13462, offset: 0x13462, size: 0x8, addend: 0x0, symName: __ZSteqRKSt15_Deque_iteratorISt5arrayIiLm3EERS1_PS1_ES6_, symObjAddr: 0x1FD4, symBinAddr: 0x100002954, symSize: 0x30 }
  - { offsetInCU: 0x1346A, offset: 0x1346A, size: 0x8, addend: 0x0, symName: __ZNSt15_Deque_iteratorISt5arrayIiLm3EERS1_PS1_EC1ERKS4_, symObjAddr: 0x2004, symBinAddr: 0x100002984, symSize: 0x58 }
  - { offsetInCU: 0x13473, offset: 0x13473, size: 0x8, addend: 0x0, symName: __ZNSt5dequeISt5arrayIiLm3EESaIS1_EE15_M_destroy_dataESt15_Deque_iteratorIS1_RS1_PS1_ES7_RKS2_, symObjAddr: 0x1FB4, symBinAddr: 0x100002934, symSize: 0x20 }
  - { offsetInCU: 0x1347B, offset: 0x1347B, size: 0x8, addend: 0x0, symName: __ZSteqRKSt15_Deque_iteratorISt5arrayIiLm3EERS1_PS1_ES6_, symObjAddr: 0x1FD4, symBinAddr: 0x100002954, symSize: 0x30 }
  - { offsetInCU: 0x134DC, offset: 0x134DC, size: 0x8, addend: 0x0, symName: __ZNSt11_Deque_baseISt5arrayIiLm3EESaIS1_EE19_M_get_Tp_allocatorEv, symObjAddr: 0x1FA0, symBinAddr: 0x100002920, symSize: 0x14 }
  - { offsetInCU: 0x134E4, offset: 0x134E4, size: 0x8, addend: 0x0, symName: __ZNSt5dequeISt5arrayIiLm3EESaIS1_EE15_M_destroy_dataESt15_Deque_iteratorIS1_RS1_PS1_ES7_RKS2_, symObjAddr: 0x1FB4, symBinAddr: 0x100002934, symSize: 0x20 }
  - { offsetInCU: 0x1350B, offset: 0x1350B, size: 0x8, addend: 0x0, symName: __ZNSt11_Deque_baseISt5arrayIiLm3EESaIS1_EE17_M_deallocate_mapEPPS1_m, symObjAddr: 0x1F40, symBinAddr: 0x1000028C0, symSize: 0x60 }
  - { offsetInCU: 0x13513, offset: 0x13513, size: 0x8, addend: 0x0, symName: __ZNSt11_Deque_baseISt5arrayIiLm3EESaIS1_EE19_M_get_Tp_allocatorEv, symObjAddr: 0x1FA0, symBinAddr: 0x100002920, symSize: 0x14 }
  - { offsetInCU: 0x135D4, offset: 0x135D4, size: 0x8, addend: 0x0, symName: __ZNSt11_Deque_baseISt5arrayIiLm3EESaIS1_EE16_M_destroy_nodesEPPS1_S5_, symObjAddr: 0x1EE0, symBinAddr: 0x100002860, symSize: 0x60 }
  - { offsetInCU: 0x135DC, offset: 0x135DC, size: 0x8, addend: 0x0, symName: __ZNSt11_Deque_baseISt5arrayIiLm3EESaIS1_EE17_M_deallocate_mapEPPS1_m, symObjAddr: 0x1F40, symBinAddr: 0x1000028C0, symSize: 0x60 }
  - { offsetInCU: 0x13652, offset: 0x13652, size: 0x8, addend: 0x0, symName: __ZNSt11_Deque_baseISt5arrayIiLm3EESaIS1_EE17_M_initialize_mapEm, symObjAddr: 0x1D48, symBinAddr: 0x1000026C8, symSize: 0x198 }
  - { offsetInCU: 0x1365A, offset: 0x1365A, size: 0x8, addend: 0x0, symName: __ZNSt11_Deque_baseISt5arrayIiLm3EESaIS1_EE16_M_destroy_nodesEPPS1_S5_, symObjAddr: 0x1EE0, symBinAddr: 0x100002860, symSize: 0x60 }
  - { offsetInCU: 0x13726, offset: 0x13726, size: 0x8, addend: 0x0, symName: __ZNSt11_Deque_baseISt5arrayIiLm3EESaIS1_EE11_Deque_implC1Ev, symObjAddr: 0x1D10, symBinAddr: 0x100002690, symSize: 0x38 }
  - { offsetInCU: 0x1372E, offset: 0x1372E, size: 0x8, addend: 0x0, symName: __ZNSt11_Deque_baseISt5arrayIiLm3EESaIS1_EE17_M_initialize_mapEm, symObjAddr: 0x1D48, symBinAddr: 0x1000026C8, symSize: 0x198 }
  - { offsetInCU: 0x13820, offset: 0x13820, size: 0x8, addend: 0x0, symName: __ZSt6__sortIN9__gnu_cxx17__normal_iteratorIPSt5arrayIiLm3EESt6vectorIS3_SaIS3_EEEENS0_5__ops15_Iter_comp_iterIZ4mainEUlS3_S3_E_EEEvT_SD_T0_, symObjAddr: 0x1C9C, symBinAddr: 0x10000261C, symSize: 0x74 }
  - { offsetInCU: 0x13828, offset: 0x13828, size: 0x8, addend: 0x0, symName: __ZNSt11_Deque_baseISt5arrayIiLm3EESaIS1_EE11_Deque_implC1Ev, symObjAddr: 0x1D10, symBinAddr: 0x100002690, symSize: 0x38 }
  - { offsetInCU: 0x13827, offset: 0x13827, size: 0x8, addend: 0x0, symName: __ZN9__gnu_cxx5__ops16__iter_comp_iterIZ4mainEUlSt5arrayIiLm3EES3_E_EENS0_15_Iter_comp_iterIT_EES6_, symObjAddr: 0x1C64, symBinAddr: 0x1000025E4, symSize: 0x38 }
  - { offsetInCU: 0x1382F, offset: 0x1382F, size: 0x8, addend: 0x0, symName: __ZSt6__sortIN9__gnu_cxx17__normal_iteratorIPSt5arrayIiLm3EESt6vectorIS3_SaIS3_EEEENS0_5__ops15_Iter_comp_iterIZ4mainEUlS3_S3_E_EEEvT_SD_T0_, symObjAddr: 0x1C9C, symBinAddr: 0x10000261C, symSize: 0x74 }
  - { offsetInCU: 0x13898, offset: 0x13898, size: 0x8, addend: 0x0, symName: __ZN9__gnu_cxx17__normal_iteratorIPSt5arrayIiLm3EESt6vectorIS2_SaIS2_EEEC1ERKS3_, symObjAddr: 0x1C3C, symBinAddr: 0x1000025BC, symSize: 0x28 }
  - { offsetInCU: 0x138A0, offset: 0x138A0, size: 0x8, addend: 0x0, symName: __ZN9__gnu_cxx5__ops16__iter_comp_iterIZ4mainEUlSt5arrayIiLm3EES3_E_EENS0_15_Iter_comp_iterIT_EES6_, symObjAddr: 0x1C64, symBinAddr: 0x1000025E4, symSize: 0x38 }
  - { offsetInCU: 0x138DA, offset: 0x138DA, size: 0x8, addend: 0x0, symName: __ZNSt12_Vector_baseIiSaIiEE19_M_get_Tp_allocatorEv, symObjAddr: 0x1C28, symBinAddr: 0x1000025A8, symSize: 0x14 }
  - { offsetInCU: 0x138E2, offset: 0x138E2, size: 0x8, addend: 0x0, symName: __ZN9__gnu_cxx17__normal_iteratorIPSt5arrayIiLm3EESt6vectorIS2_SaIS2_EEEC1ERKS3_, symObjAddr: 0x1C3C, symBinAddr: 0x1000025BC, symSize: 0x28 }
  - { offsetInCU: 0x13909, offset: 0x13909, size: 0x8, addend: 0x0, symName: __ZNSt6vectorIiSaIiEE18_M_fill_initializeEmRKi, symObjAddr: 0x1BD0, symBinAddr: 0x100002550, symSize: 0x58 }
  - { offsetInCU: 0x13911, offset: 0x13911, size: 0x8, addend: 0x0, symName: __ZNSt12_Vector_baseIiSaIiEE19_M_get_Tp_allocatorEv, symObjAddr: 0x1C28, symBinAddr: 0x1000025A8, symSize: 0x14 }
  - { offsetInCU: 0x139A7, offset: 0x139A7, size: 0x8, addend: 0x0, symName: __ZNSt12_Vector_baseIiSaIiEED2Ev, symObjAddr: 0x1B80, symBinAddr: 0x100002500, symSize: 0x50 }
  - { offsetInCU: 0x139AF, offset: 0x139AF, size: 0x8, addend: 0x0, symName: __ZNSt6vectorIiSaIiEE18_M_fill_initializeEmRKi, symObjAddr: 0x1BD0, symBinAddr: 0x100002550, symSize: 0x58 }
  - { offsetInCU: 0x13A17, offset: 0x13A17, size: 0x8, addend: 0x0, symName: __ZNSt12_Vector_baseIiSaIiEEC2EmRKS0_, symObjAddr: 0x1B2C, symBinAddr: 0x1000024AC, symSize: 0x54 }
  - { offsetInCU: 0x13A1F, offset: 0x13A1F, size: 0x8, addend: 0x0, symName: __ZNSt12_Vector_baseIiSaIiEED2Ev, symObjAddr: 0x1B80, symBinAddr: 0x100002500, symSize: 0x50 }
  - { offsetInCU: 0x13A91, offset: 0x13A91, size: 0x8, addend: 0x0, symName: __ZNSt12_Vector_baseIiSaIiEE12_Vector_implD1Ev, symObjAddr: 0x1B00, symBinAddr: 0x100002480, symSize: 0x2C }
  - { offsetInCU: 0x13A99, offset: 0x13A99, size: 0x8, addend: 0x0, symName: __ZNSt12_Vector_baseIiSaIiEEC2EmRKS0_, symObjAddr: 0x1B2C, symBinAddr: 0x1000024AC, symSize: 0x54 }
  - { offsetInCU: 0x13AB7, offset: 0x13AB7, size: 0x8, addend: 0x0, symName: __ZNSt6vectorIiSaIiEE17_S_check_init_lenEmRKS0_, symObjAddr: 0x1A7C, symBinAddr: 0x1000023FC, symSize: 0x84 }
  - { offsetInCU: 0x13ABF, offset: 0x13ABF, size: 0x8, addend: 0x0, symName: __ZNSt12_Vector_baseIiSaIiEE12_Vector_implD1Ev, symObjAddr: 0x1B00, symBinAddr: 0x100002480, symSize: 0x2C }
  - { offsetInCU: 0x13BC6, offset: 0x13BC6, size: 0x8, addend: 0x0, symName: __ZNSt15__new_allocatorIiED2Ev, symObjAddr: 0x1A68, symBinAddr: 0x1000023E8, symSize: 0x14 }
  - { offsetInCU: 0x13BCE, offset: 0x13BCE, size: 0x8, addend: 0x0, symName: __ZNSt6vectorIiSaIiEE17_S_check_init_lenEmRKS0_, symObjAddr: 0x1A7C, symBinAddr: 0x1000023FC, symSize: 0x84 }
  - { offsetInCU: 0x13BEF, offset: 0x13BEF, size: 0x8, addend: 0x0, symName: __ZNSt6vectorISt5arrayIiLm3EESaIS1_EE15_M_erase_at_endEPS1_, symObjAddr: 0x19D4, symBinAddr: 0x100002354, symSize: 0x94 }
  - { offsetInCU: 0x13BF7, offset: 0x13BF7, size: 0x8, addend: 0x0, symName: __ZNSt15__new_allocatorIiED2Ev, symObjAddr: 0x1A68, symBinAddr: 0x1000023E8, symSize: 0x14 }
  - { offsetInCU: 0x13C97, offset: 0x13C97, size: 0x8, addend: 0x0, symName: __ZNSt6vectorISt5arrayIiLm3EESaIS1_EE17_M_default_appendEm, symObjAddr: 0x178C, symBinAddr: 0x10000210C, symSize: 0x248 }
  - { offsetInCU: 0x13C9F, offset: 0x13C9F, size: 0x8, addend: 0x0, symName: __ZNSt6vectorISt5arrayIiLm3EESaIS1_EE15_M_erase_at_endEPS1_, symObjAddr: 0x19D4, symBinAddr: 0x100002354, symSize: 0x94 }
  - { offsetInCU: 0x13D78, offset: 0x13D78, size: 0x8, addend: 0x0, symName: __ZNKSt6vectorISt5arrayIiLm3EESaIS1_EE4sizeEv, symObjAddr: 0x1758, symBinAddr: 0x1000020D8, symSize: 0x34 }
  - { offsetInCU: 0x13D80, offset: 0x13D80, size: 0x8, addend: 0x0, symName: __ZNSt6vectorISt5arrayIiLm3EESaIS1_EE17_M_default_appendEm, symObjAddr: 0x178C, symBinAddr: 0x10000210C, symSize: 0x248 }
  - { offsetInCU: 0x13DA7, offset: 0x13DA7, size: 0x8, addend: 0x0, symName: __ZNSt12_Vector_baseISt5arrayIiLm3EESaIS1_EE13_M_deallocateEPS1_m, symObjAddr: 0x1700, symBinAddr: 0x100002080, symSize: 0x58 }
  - { offsetInCU: 0x13DAF, offset: 0x13DAF, size: 0x8, addend: 0x0, symName: __ZNKSt6vectorISt5arrayIiLm3EESaIS1_EE4sizeEv, symObjAddr: 0x1758, symBinAddr: 0x1000020D8, symSize: 0x34 }
  - { offsetInCU: 0x13E8F, offset: 0x13E8F, size: 0x8, addend: 0x0, symName: __ZNSt15__new_allocatorISt5arrayIiLm3EEED2Ev, symObjAddr: 0x16EC, symBinAddr: 0x10000206C, symSize: 0x14 }
  - { offsetInCU: 0x13E97, offset: 0x13E97, size: 0x8, addend: 0x0, symName: __ZNSt12_Vector_baseISt5arrayIiLm3EESaIS1_EE13_M_deallocateEPS1_m, symObjAddr: 0x1700, symBinAddr: 0x100002080, symSize: 0x58 }
  - { offsetInCU: 0x13EED, offset: 0x13EED, size: 0x8, addend: 0x0, symName: __ZNSt12_Vector_baseISt5arrayIiLm3EESaIS1_EE17_Vector_impl_dataC2Ev, symObjAddr: 0x16C0, symBinAddr: 0x100002040, symSize: 0x2C }
  - { offsetInCU: 0x13EF5, offset: 0x13EF5, size: 0x8, addend: 0x0, symName: __ZNSt15__new_allocatorISt5arrayIiLm3EEED2Ev, symObjAddr: 0x16EC, symBinAddr: 0x10000206C, symSize: 0x14 }
  - { offsetInCU: 0x1409F, offset: 0x1409F, size: 0x8, addend: 0x0, symName: __ZN10__gnu_pbds12basic_branchISt4pairIiiENS_9null_typeENS_11rb_tree_tagENS_33tree_order_statistics_node_updateINS_6detail30bin_search_tree_const_node_it_INS6_13rb_tree_node_IS2_mSaIcEEENS6_25bin_search_tree_const_it_IPSA_S2_PS2_PKS2_RS2_RSE_Lb1ES9_EESI_S9_EESJ_St4lessIS2_ES9_EEN9__gnu_cxx8typelist4nodeINSO_5chainISL_NSQ_INS6_11tree_traitsIS2_S3_SL_S5_S4_S9_EENSO_9null_typeEEEEEEES9_ED0Ev, symObjAddr: 0x1698, symBinAddr: 0x100002018, symSize: 0x28 }
  - { offsetInCU: 0x140A7, offset: 0x140A7, size: 0x8, addend: 0x0, symName: __ZNSt12_Vector_baseISt5arrayIiLm3EESaIS1_EE17_Vector_impl_dataC2Ev, symObjAddr: 0x16C0, symBinAddr: 0x100002040, symSize: 0x2C }
  - { offsetInCU: 0x140CD, offset: 0x140CD, size: 0x8, addend: 0x0, symName: __ZN10__gnu_pbds12basic_branchISt4pairIiiENS_9null_typeENS_11rb_tree_tagENS_33tree_order_statistics_node_updateINS_6detail30bin_search_tree_const_node_it_INS6_13rb_tree_node_IS2_mSaIcEEENS6_25bin_search_tree_const_it_IPSA_S2_PS2_PKS2_RS2_RSE_Lb1ES9_EESI_S9_EESJ_St4lessIS2_ES9_EEN9__gnu_cxx8typelist4nodeINSO_5chainISL_NSQ_INS6_11tree_traitsIS2_S3_SL_S5_S4_S9_EENSO_9null_typeEEEEEEES9_ED1Ev, symObjAddr: 0x1664, symBinAddr: 0x100001FE4, symSize: 0x34 }
  - { offsetInCU: 0x140D5, offset: 0x140D5, size: 0x8, addend: 0x0, symName: __ZN10__gnu_pbds12basic_branchISt4pairIiiENS_9null_typeENS_11rb_tree_tagENS_33tree_order_statistics_node_updateINS_6detail30bin_search_tree_const_node_it_INS6_13rb_tree_node_IS2_mSaIcEEENS6_25bin_search_tree_const_it_IPSA_S2_PS2_PKS2_RS2_RSE_Lb1ES9_EESI_S9_EESJ_St4lessIS2_ES9_EEN9__gnu_cxx8typelist4nodeINSO_5chainISL_NSQ_INS6_11tree_traitsIS2_S3_SL_S5_S4_S9_EENSO_9null_typeEEEEEEES9_ED0Ev, symObjAddr: 0x1698, symBinAddr: 0x100002018, symSize: 0x28 }
  - { offsetInCU: 0x140FB, offset: 0x140FB, size: 0x8, addend: 0x0, symName: __ZN10__gnu_pbds12basic_branchISt4pairIiiENS_9null_typeENS_11rb_tree_tagENS_33tree_order_statistics_node_updateINS_6detail30bin_search_tree_const_node_it_INS6_13rb_tree_node_IS2_mSaIcEEENS6_25bin_search_tree_const_it_IPSA_S2_PS2_PKS2_RS2_RSE_Lb1ES9_EESI_S9_EESJ_St4lessIS2_ES9_EEN9__gnu_cxx8typelist4nodeINSO_5chainISL_NSQ_INS6_11tree_traitsIS2_S3_SL_S5_S4_S9_EENSO_9null_typeEEEEEEES9_ED2Ev, symObjAddr: 0x1630, symBinAddr: 0x100001FB0, symSize: 0x34 }
  - { offsetInCU: 0x14103, offset: 0x14103, size: 0x8, addend: 0x0, symName: __ZN10__gnu_pbds12basic_branchISt4pairIiiENS_9null_typeENS_11rb_tree_tagENS_33tree_order_statistics_node_updateINS_6detail30bin_search_tree_const_node_it_INS6_13rb_tree_node_IS2_mSaIcEEENS6_25bin_search_tree_const_it_IPSA_S2_PS2_PKS2_RS2_RSE_Lb1ES9_EESI_S9_EESJ_St4lessIS2_ES9_EEN9__gnu_cxx8typelist4nodeINSO_5chainISL_NSQ_INS6_11tree_traitsIS2_S3_SL_S5_S4_S9_EENSO_9null_typeEEEEEEES9_ED1Ev, symObjAddr: 0x1664, symBinAddr: 0x100001FE4, symSize: 0x34 }
  - { offsetInCU: 0x14142, offset: 0x14142, size: 0x8, addend: 0x0, symName: __ZN10__gnu_pbds12basic_branchISt4pairIiiENS_9null_typeENS_11rb_tree_tagENS_33tree_order_statistics_node_updateINS_6detail30bin_search_tree_const_node_it_INS6_13rb_tree_node_IS2_mSaIcEEENS6_25bin_search_tree_const_it_IPSA_S2_PS2_PKS2_RS2_RSE_Lb1ES9_EESI_S9_EESJ_St4lessIS2_ES9_EEN9__gnu_cxx8typelist4nodeINSO_5chainISL_NSQ_INS6_11tree_traitsIS2_S3_SL_S5_S4_S9_EENSO_9null_typeEEEEEEES9_EC2Ev, symObjAddr: 0x15FC, symBinAddr: 0x100001F7C, symSize: 0x34 }
  - { offsetInCU: 0x1414A, offset: 0x1414A, size: 0x8, addend: 0x0, symName: __ZN10__gnu_pbds12basic_branchISt4pairIiiENS_9null_typeENS_11rb_tree_tagENS_33tree_order_statistics_node_updateINS_6detail30bin_search_tree_const_node_it_INS6_13rb_tree_node_IS2_mSaIcEEENS6_25bin_search_tree_const_it_IPSA_S2_PS2_PKS2_RS2_RSE_Lb1ES9_EESI_S9_EESJ_St4lessIS2_ES9_EEN9__gnu_cxx8typelist4nodeINSO_5chainISL_NSQ_INS6_11tree_traitsIS2_S3_SL_S5_S4_S9_EENSO_9null_typeEEEEEEES9_ED2Ev, symObjAddr: 0x1630, symBinAddr: 0x100001FB0, symSize: 0x34 }
  - { offsetInCU: 0x140C0, offset: 0x140C0, size: 0x8, addend: 0x0, symName: __ZN10__gnu_pbds6detail11rb_tree_setISt4pairIiiENS_9null_typeESt4lessIS3_ENS0_11tree_traitsIS3_S4_S6_NS_33tree_order_statistics_node_updateENS_11rb_tree_tagESaIcEEESA_ED0Ev, symObjAddr: 0x15D4, symBinAddr: 0x100001F54, symSize: 0x28 }
  - { offsetInCU: 0x140C8, offset: 0x140C8, size: 0x8, addend: 0x0, symName: __ZN10__gnu_pbds12basic_branchISt4pairIiiENS_9null_typeENS_11rb_tree_tagENS_33tree_order_statistics_node_updateINS_6detail30bin_search_tree_const_node_it_INS6_13rb_tree_node_IS2_mSaIcEEENS6_25bin_search_tree_const_it_IPSA_S2_PS2_PKS2_RS2_RSE_Lb1ES9_EESI_S9_EESJ_St4lessIS2_ES9_EEN9__gnu_cxx8typelist4nodeINSO_5chainISL_NSQ_INS6_11tree_traitsIS2_S3_SL_S5_S4_S9_EENSO_9null_typeEEEEEEES9_EC2Ev, symObjAddr: 0x15FC, symBinAddr: 0x100001F7C, symSize: 0x34 }
  - { offsetInCU: 0x140EE, offset: 0x140EE, size: 0x8, addend: 0x0, symName: __ZN10__gnu_pbds6detail11rb_tree_setISt4pairIiiENS_9null_typeESt4lessIS3_ENS0_11tree_traitsIS3_S4_S6_NS_33tree_order_statistics_node_updateENS_11rb_tree_tagESaIcEEESA_ED1Ev, symObjAddr: 0x15A0, symBinAddr: 0x100001F20, symSize: 0x34 }
  - { offsetInCU: 0x140F6, offset: 0x140F6, size: 0x8, addend: 0x0, symName: __ZN10__gnu_pbds6detail11rb_tree_setISt4pairIiiENS_9null_typeESt4lessIS3_ENS0_11tree_traitsIS3_S4_S6_NS_33tree_order_statistics_node_updateENS_11rb_tree_tagESaIcEEESA_ED0Ev, symObjAddr: 0x15D4, symBinAddr: 0x100001F54, symSize: 0x28 }
  - { offsetInCU: 0x1411C, offset: 0x1411C, size: 0x8, addend: 0x0, symName: __ZN10__gnu_pbds6detail11rb_tree_setISt4pairIiiENS_9null_typeESt4lessIS3_ENS0_11tree_traitsIS3_S4_S6_NS_33tree_order_statistics_node_updateENS_11rb_tree_tagESaIcEEESA_ED2Ev, symObjAddr: 0x156C, symBinAddr: 0x100001EEC, symSize: 0x34 }
  - { offsetInCU: 0x14124, offset: 0x14124, size: 0x8, addend: 0x0, symName: __ZN10__gnu_pbds6detail11rb_tree_setISt4pairIiiENS_9null_typeESt4lessIS3_ENS0_11tree_traitsIS3_S4_S6_NS_33tree_order_statistics_node_updateENS_11rb_tree_tagESaIcEEESA_ED1Ev, symObjAddr: 0x15A0, symBinAddr: 0x100001F20, symSize: 0x34 }
  - { offsetInCU: 0x140E3, offset: 0x140E3, size: 0x8, addend: 0x0, symName: __ZSt7forwardIiEOT_RNSt16remove_referenceIS0_E4typeE, symObjAddr: 0x1558, symBinAddr: 0x100001ED8, symSize: 0x14 }
  - { offsetInCU: 0x140EB, offset: 0x140EB, size: 0x8, addend: 0x0, symName: __ZN10__gnu_pbds6detail11rb_tree_setISt4pairIiiENS_9null_typeESt4lessIS3_ENS0_11tree_traitsIS3_S4_S6_NS_33tree_order_statistics_node_updateENS_11rb_tree_tagESaIcEEESA_ED2Ev, symObjAddr: 0x156C, symBinAddr: 0x100001EEC, symSize: 0x34 }
  - { offsetInCU: 0x14138, offset: 0x14138, size: 0x8, addend: 0x0, symName: __ZSt7forwardIbEOT_RNSt16remove_referenceIS0_E4typeE, symObjAddr: 0x1544, symBinAddr: 0x100001EC4, symSize: 0x14 }
  - { offsetInCU: 0x14140, offset: 0x14140, size: 0x8, addend: 0x0, symName: __ZSt7forwardIiEOT_RNSt16remove_referenceIS0_E4typeE, symObjAddr: 0x1558, symBinAddr: 0x100001ED8, symSize: 0x14 }
  - { offsetInCU: 0x14146, offset: 0x14146, size: 0x8, addend: 0x0, symName: __ZNK9__gnu_cxx17__normal_iteratorIPiSt6vectorIiSaIiEEEdeEv, symObjAddr: 0x152C, symBinAddr: 0x100001EAC, symSize: 0x18 }
  - { offsetInCU: 0x1414E, offset: 0x1414E, size: 0x8, addend: 0x0, symName: __ZSt7forwardIbEOT_RNSt16remove_referenceIS0_E4typeE, symObjAddr: 0x1544, symBinAddr: 0x100001EC4, symSize: 0x14 }
  - { offsetInCU: 0x14175, offset: 0x14175, size: 0x8, addend: 0x0, symName: __ZN9__gnu_cxx17__normal_iteratorIPiSt6vectorIiSaIiEEEppEv, symObjAddr: 0x1504, symBinAddr: 0x100001E84, symSize: 0x28 }
  - { offsetInCU: 0x1417D, offset: 0x1417D, size: 0x8, addend: 0x0, symName: __ZNK9__gnu_cxx17__normal_iteratorIPiSt6vectorIiSaIiEEEdeEv, symObjAddr: 0x152C, symBinAddr: 0x100001EAC, symSize: 0x18 }
  - { offsetInCU: 0x14217, offset: 0x14217, size: 0x8, addend: 0x0, symName: __ZN9__gnu_cxxneIPiSt6vectorIiSaIiEEEEbRKNS_17__normal_iteratorIT_T0_EESA_, symObjAddr: 0x14C0, symBinAddr: 0x100001E40, symSize: 0x44 }
  - { offsetInCU: 0x1421F, offset: 0x1421F, size: 0x8, addend: 0x0, symName: __ZN9__gnu_cxx17__normal_iteratorIPiSt6vectorIiSaIiEEEppEv, symObjAddr: 0x1504, symBinAddr: 0x100001E84, symSize: 0x28 }
  - { offsetInCU: 0x1421B, offset: 0x1421B, size: 0x8, addend: 0x0, symName: __ZNSt6vectorIiSaIiEE3endEv, symObjAddr: 0x1498, symBinAddr: 0x100001E18, symSize: 0x28 }
  - { offsetInCU: 0x14223, offset: 0x14223, size: 0x8, addend: 0x0, symName: __ZN9__gnu_cxxneIPiSt6vectorIiSaIiEEEEbRKNS_17__normal_iteratorIT_T0_EESA_, symObjAddr: 0x14C0, symBinAddr: 0x100001E40, symSize: 0x44 }
  - { offsetInCU: 0x1424A, offset: 0x1424A, size: 0x8, addend: 0x0, symName: __ZNSt6vectorIiSaIiEE5beginEv, symObjAddr: 0x1474, symBinAddr: 0x100001DF4, symSize: 0x24 }
  - { offsetInCU: 0x14252, offset: 0x14252, size: 0x8, addend: 0x0, symName: __ZNSt6vectorIiSaIiEE3endEv, symObjAddr: 0x1498, symBinAddr: 0x100001E18, symSize: 0x28 }
  - { offsetInCU: 0x14279, offset: 0x14279, size: 0x8, addend: 0x0, symName: __ZN10__gnu_pbds6detail19bin_search_tree_setISt4pairIiiENS_9null_typeESt4lessIS3_ENS0_11tree_traitsIS3_S4_S6_NS_33tree_order_statistics_node_updateENS_11rb_tree_tagESaIcEEESA_E5clearEv, symObjAddr: 0x143C, symBinAddr: 0x100001DBC, symSize: 0x38 }
  - { offsetInCU: 0x14281, offset: 0x14281, size: 0x8, addend: 0x0, symName: __ZNSt6vectorIiSaIiEE5beginEv, symObjAddr: 0x1474, symBinAddr: 0x100001DF4, symSize: 0x24 }
  - { offsetInCU: 0x142A8, offset: 0x142A8, size: 0x8, addend: 0x0, symName: __ZN10__gnu_pbds6detail11rb_tree_setISt4pairIiiENS_9null_typeESt4lessIS3_ENS0_11tree_traitsIS3_S4_S6_NS_33tree_order_statistics_node_updateENS_11rb_tree_tagESaIcEEESA_E6insertERKS3_, symObjAddr: 0x13E8, symBinAddr: 0x100001D68, symSize: 0x54 }
  - { offsetInCU: 0x142B0, offset: 0x142B0, size: 0x8, addend: 0x0, symName: __ZN10__gnu_pbds6detail19bin_search_tree_setISt4pairIiiENS_9null_typeESt4lessIS3_ENS0_11tree_traitsIS3_S4_S6_NS_33tree_order_statistics_node_updateENS_11rb_tree_tagESaIcEEESA_E5clearEv, symObjAddr: 0x143C, symBinAddr: 0x100001DBC, symSize: 0x38 }
  - { offsetInCU: 0x14397, offset: 0x14397, size: 0x8, addend: 0x0, symName: __ZSt9make_pairIRiS0_ESt4pairINSt25__strip_reference_wrapperINSt5decayIT_E4typeEE6__typeENS2_INS3_IT0_E4typeEE6__typeEEOS4_OS9_, symObjAddr: 0x139C, symBinAddr: 0x100001D1C, symSize: 0x4C }
  - { offsetInCU: 0x1439F, offset: 0x1439F, size: 0x8, addend: 0x0, symName: __ZN10__gnu_pbds6detail11rb_tree_setISt4pairIiiENS_9null_typeESt4lessIS3_ENS0_11tree_traitsIS3_S4_S6_NS_33tree_order_statistics_node_updateENS_11rb_tree_tagESaIcEEESA_E6insertERKS3_, symObjAddr: 0x13E8, symBinAddr: 0x100001D68, symSize: 0x54 }
  - { offsetInCU: 0x1436A, offset: 0x1436A, size: 0x8, addend: 0x0, symName: __ZNK10__gnu_pbds33tree_order_statistics_node_updateINS_6detail30bin_search_tree_const_node_it_INS1_13rb_tree_node_ISt4pairIiiEmSaIcEEENS1_25bin_search_tree_const_it_IPS7_S5_PS5_PKS5_RS5_RSB_Lb1ES6_EESF_S6_EESG_St4lessIS5_ES6_E12order_of_keyESE_, symObjAddr: 0x11EC, symBinAddr: 0x100001B6C, symSize: 0x1B0 }
  - { offsetInCU: 0x14372, offset: 0x14372, size: 0x8, addend: 0x0, symName: __ZSt9make_pairIRiS0_ESt4pairINSt25__strip_reference_wrapperINSt5decayIT_E4typeEE6__typeENS2_INS3_IT0_E4typeEE6__typeEEOS4_OS9_, symObjAddr: 0x139C, symBinAddr: 0x100001D1C, symSize: 0x4C }
  - { offsetInCU: 0x144C1, offset: 0x144C1, size: 0x8, addend: 0x0, symName: __ZSt9make_pairIRiiESt4pairINSt25__strip_reference_wrapperINSt5decayIT_E4typeEE6__typeENS2_INS3_IT0_E4typeEE6__typeEEOS4_OS9_, symObjAddr: 0x11A0, symBinAddr: 0x100001B20, symSize: 0x4C }
  - { offsetInCU: 0x144C9, offset: 0x144C9, size: 0x8, addend: 0x0, symName: __ZNK10__gnu_pbds33tree_order_statistics_node_updateINS_6detail30bin_search_tree_const_node_it_INS1_13rb_tree_node_ISt4pairIiiEmSaIcEEENS1_25bin_search_tree_const_it_IPS7_S5_PS5_PKS5_RS5_RSB_Lb1ES6_EESF_S6_EESG_St4lessIS5_ES6_E12order_of_keyESE_, symObjAddr: 0x11EC, symBinAddr: 0x100001B6C, symSize: 0x1B0 }
  - { offsetInCU: 0x14497, offset: 0x14497, size: 0x8, addend: 0x0, symName: __ZNK10__gnu_pbds6detail19bin_search_tree_setISt4pairIiiENS_9null_typeESt4lessIS3_ENS0_11tree_traitsIS3_S4_S6_NS_33tree_order_statistics_node_updateENS_11rb_tree_tagESaIcEEESA_E4sizeEv, symObjAddr: 0x1188, symBinAddr: 0x100001B08, symSize: 0x18 }
  - { offsetInCU: 0x1449F, offset: 0x1449F, size: 0x8, addend: 0x0, symName: __ZSt9make_pairIRiiESt4pairINSt25__strip_reference_wrapperINSt5decayIT_E4typeEE6__typeENS2_INS3_IT0_E4typeEE6__typeEEOS4_OS9_, symObjAddr: 0x11A0, symBinAddr: 0x100001B20, symSize: 0x4C }
  - { offsetInCU: 0x144C6, offset: 0x144C6, size: 0x8, addend: 0x0, symName: __ZNSt5dequeISt5arrayIiLm3EESaIS1_EE12emplace_backIJRS1_EEES5_DpOT_, symObjAddr: 0x109C, symBinAddr: 0x100001A1C, symSize: 0xEC }
  - { offsetInCU: 0x144CE, offset: 0x144CE, size: 0x8, addend: 0x0, symName: __ZNK10__gnu_pbds6detail19bin_search_tree_setISt4pairIiiENS_9null_typeESt4lessIS3_ENS0_11tree_traitsIS3_S4_S6_NS_33tree_order_statistics_node_updateENS_11rb_tree_tagESaIcEEESA_E4sizeEv, symObjAddr: 0x1188, symBinAddr: 0x100001B08, symSize: 0x18 }
  - { offsetInCU: 0x14592, offset: 0x14592, size: 0x8, addend: 0x0, symName: __ZNSt5dequeISt5arrayIiLm3EESaIS1_EE5clearEv, symObjAddr: 0x1064, symBinAddr: 0x1000019E4, symSize: 0x38 }
  - { offsetInCU: 0x1459A, offset: 0x1459A, size: 0x8, addend: 0x0, symName: __ZNSt5dequeISt5arrayIiLm3EESaIS1_EE12emplace_backIJRS1_EEES5_DpOT_, symObjAddr: 0x109C, symBinAddr: 0x100001A1C, symSize: 0xEC }
  - { offsetInCU: 0x145C1, offset: 0x145C1, size: 0x8, addend: 0x0, symName: __ZNSt6vectorIiSaIiEEixEm, symObjAddr: 0x103C, symBinAddr: 0x1000019BC, symSize: 0x28 }
  - { offsetInCU: 0x145C9, offset: 0x145C9, size: 0x8, addend: 0x0, symName: __ZNSt5dequeISt5arrayIiLm3EESaIS1_EE5clearEv, symObjAddr: 0x1064, symBinAddr: 0x1000019E4, symSize: 0x38 }
  - { offsetInCU: 0x14604, offset: 0x14604, size: 0x8, addend: 0x0, symName: __ZNKSt15_Deque_iteratorISt5arrayIiLm3EERS1_PS1_EdeEv, symObjAddr: 0x1024, symBinAddr: 0x1000019A4, symSize: 0x18 }
  - { offsetInCU: 0x1460C, offset: 0x1460C, size: 0x8, addend: 0x0, symName: __ZNSt6vectorIiSaIiEEixEm, symObjAddr: 0x103C, symBinAddr: 0x1000019BC, symSize: 0x28 }
  - { offsetInCU: 0x14633, offset: 0x14633, size: 0x8, addend: 0x0, symName: __ZNSt15_Deque_iteratorISt5arrayIiLm3EERS1_PS1_EppEv, symObjAddr: 0xFB8, symBinAddr: 0x100001938, symSize: 0x6C }
  - { offsetInCU: 0x1463B, offset: 0x1463B, size: 0x8, addend: 0x0, symName: __ZNKSt15_Deque_iteratorISt5arrayIiLm3EERS1_PS1_EdeEv, symObjAddr: 0x1024, symBinAddr: 0x1000019A4, symSize: 0x18 }
  - { offsetInCU: 0x146A4, offset: 0x146A4, size: 0x8, addend: 0x0, symName: __ZStneRKSt15_Deque_iteratorISt5arrayIiLm3EERS1_PS1_ES6_, symObjAddr: 0xF88, symBinAddr: 0x100001908, symSize: 0x30 }
  - { offsetInCU: 0x146AC, offset: 0x146AC, size: 0x8, addend: 0x0, symName: __ZNSt15_Deque_iteratorISt5arrayIiLm3EERS1_PS1_EppEv, symObjAddr: 0xFB8, symBinAddr: 0x100001938, symSize: 0x6C }
  - { offsetInCU: 0x146B5, offset: 0x146B5, size: 0x8, addend: 0x0, symName: __ZNSt5dequeISt5arrayIiLm3EESaIS1_EE3endEv, symObjAddr: 0xF50, symBinAddr: 0x1000018D0, symSize: 0x38 }
  - { offsetInCU: 0x146BD, offset: 0x146BD, size: 0x8, addend: 0x0, symName: __ZStneRKSt15_Deque_iteratorISt5arrayIiLm3EERS1_PS1_ES6_, symObjAddr: 0xF88, symBinAddr: 0x100001908, symSize: 0x30 }
  - { offsetInCU: 0x146E4, offset: 0x146E4, size: 0x8, addend: 0x0, symName: __ZNSt5dequeISt5arrayIiLm3EESaIS1_EE5beginEv, symObjAddr: 0xF18, symBinAddr: 0x100001898, symSize: 0x38 }
  - { offsetInCU: 0x146EC, offset: 0x146EC, size: 0x8, addend: 0x0, symName: __ZNSt5dequeISt5arrayIiLm3EESaIS1_EE3endEv, symObjAddr: 0xF50, symBinAddr: 0x1000018D0, symSize: 0x38 }
  - { offsetInCU: 0x14713, offset: 0x14713, size: 0x8, addend: 0x0, symName: __ZNSt5dequeISt5arrayIiLm3EESaIS1_EE5frontEv, symObjAddr: 0xEEC, symBinAddr: 0x10000186C, symSize: 0x2C }
  - { offsetInCU: 0x1471B, offset: 0x1471B, size: 0x8, addend: 0x0, symName: __ZNSt5dequeISt5arrayIiLm3EESaIS1_EE5beginEv, symObjAddr: 0xF18, symBinAddr: 0x100001898, symSize: 0x38 }
  - { offsetInCU: 0x14742, offset: 0x14742, size: 0x8, addend: 0x0, symName: __ZNKSt5dequeISt5arrayIiLm3EESaIS1_EE5emptyEv, symObjAddr: 0xEB8, symBinAddr: 0x100001838, symSize: 0x34 }
  - { offsetInCU: 0x1474A, offset: 0x1474A, size: 0x8, addend: 0x0, symName: __ZNSt5dequeISt5arrayIiLm3EESaIS1_EE5frontEv, symObjAddr: 0xEEC, symBinAddr: 0x10000186C, symSize: 0x2C }
  - { offsetInCU: 0x147C0, offset: 0x147C0, size: 0x8, addend: 0x0, symName: __ZNSt5dequeISt5arrayIiLm3EESaIS1_EED1Ev, symObjAddr: 0xE50, symBinAddr: 0x1000017D0, symSize: 0x68 }
  - { offsetInCU: 0x147C8, offset: 0x147C8, size: 0x8, addend: 0x0, symName: __ZNKSt5dequeISt5arrayIiLm3EESaIS1_EE5emptyEv, symObjAddr: 0xEB8, symBinAddr: 0x100001838, symSize: 0x34 }
  - { offsetInCU: 0x1481D, offset: 0x1481D, size: 0x8, addend: 0x0, symName: __ZNSt11_Deque_baseISt5arrayIiLm3EESaIS1_EED2Ev, symObjAddr: 0xDE4, symBinAddr: 0x100001764, symSize: 0x6C }
  - { offsetInCU: 0x14825, offset: 0x14825, size: 0x8, addend: 0x0, symName: __ZNSt5dequeISt5arrayIiLm3EESaIS1_EED1Ev, symObjAddr: 0xE50, symBinAddr: 0x1000017D0, symSize: 0x68 }
  - { offsetInCU: 0x14864, offset: 0x14864, size: 0x8, addend: 0x0, symName: __ZNSt11_Deque_baseISt5arrayIiLm3EESaIS1_EEC2Ev, symObjAddr: 0xD9C, symBinAddr: 0x10000171C, symSize: 0x48 }
  - { offsetInCU: 0x1486C, offset: 0x1486C, size: 0x8, addend: 0x0, symName: __ZNSt11_Deque_baseISt5arrayIiLm3EESaIS1_EED2Ev, symObjAddr: 0xDE4, symBinAddr: 0x100001764, symSize: 0x6C }
  - { offsetInCU: 0x148CB, offset: 0x148CB, size: 0x8, addend: 0x0, symName: __ZNSt11_Deque_baseISt5arrayIiLm3EESaIS1_EE11_Deque_implD1Ev, symObjAddr: 0xD70, symBinAddr: 0x1000016F0, symSize: 0x2C }
  - { offsetInCU: 0x148D3, offset: 0x148D3, size: 0x8, addend: 0x0, symName: __ZNSt11_Deque_baseISt5arrayIiLm3EESaIS1_EEC2Ev, symObjAddr: 0xD9C, symBinAddr: 0x10000171C, symSize: 0x48 }
  - { offsetInCU: 0x14979, offset: 0x14979, size: 0x8, addend: 0x0, symName: __ZSt4sortIN9__gnu_cxx17__normal_iteratorIPSt5arrayIiLm3EESt6vectorIS3_SaIS3_EEEEZ4mainEUlS3_S3_E_EvT_SA_T0_, symObjAddr: 0xD30, symBinAddr: 0x1000016B0, symSize: 0x40 }
  - { offsetInCU: 0x14981, offset: 0x14981, size: 0x8, addend: 0x0, symName: __ZNSt11_Deque_baseISt5arrayIiLm3EESaIS1_EE11_Deque_implD1Ev, symObjAddr: 0xD70, symBinAddr: 0x1000016F0, symSize: 0x2C }
  - { offsetInCU: 0x14957, offset: 0x14957, size: 0x8, addend: 0x0, symName: __ZNK9__gnu_cxx17__normal_iteratorIPSt5arrayIiLm3EESt6vectorIS2_SaIS2_EEEplEl, symObjAddr: 0xCE4, symBinAddr: 0x100001664, symSize: 0x4C }
  - { offsetInCU: 0x1495F, offset: 0x1495F, size: 0x8, addend: 0x0, symName: __ZSt4sortIN9__gnu_cxx17__normal_iteratorIPSt5arrayIiLm3EESt6vectorIS3_SaIS3_EEEEZ4mainEUlS3_S3_E_EvT_SA_T0_, symObjAddr: 0xD30, symBinAddr: 0x1000016B0, symSize: 0x40 }
  - { offsetInCU: 0x1499A, offset: 0x1499A, size: 0x8, addend: 0x0, symName: __ZNSt6vectorISt5arrayIiLm3EESaIS1_EE5beginEv, symObjAddr: 0xCC0, symBinAddr: 0x100001640, symSize: 0x24 }
  - { offsetInCU: 0x149A2, offset: 0x149A2, size: 0x8, addend: 0x0, symName: __ZNK9__gnu_cxx17__normal_iteratorIPSt5arrayIiLm3EESt6vectorIS2_SaIS2_EEEplEl, symObjAddr: 0xCE4, symBinAddr: 0x100001664, symSize: 0x4C }
  - { offsetInCU: 0x149C9, offset: 0x149C9, size: 0x8, addend: 0x0, symName: __ZNSt6vectorISt5arrayIiLm3EESaIS1_EEixEm, symObjAddr: 0xC8C, symBinAddr: 0x10000160C, symSize: 0x34 }
  - { offsetInCU: 0x149D1, offset: 0x149D1, size: 0x8, addend: 0x0, symName: __ZNSt6vectorISt5arrayIiLm3EESaIS1_EE5beginEv, symObjAddr: 0xCC0, symBinAddr: 0x100001640, symSize: 0x24 }
  - { offsetInCU: 0x14A4C, offset: 0x14A4C, size: 0x8, addend: 0x0, symName: __ZNSt6vectorIiSaIiEED1Ev, symObjAddr: 0xC30, symBinAddr: 0x1000015B0, symSize: 0x5C }
  - { offsetInCU: 0x14A54, offset: 0x14A54, size: 0x8, addend: 0x0, symName: __ZNSt6vectorISt5arrayIiLm3EESaIS1_EEixEm, symObjAddr: 0xC8C, symBinAddr: 0x10000160C, symSize: 0x34 }
  - { offsetInCU: 0x14B0F, offset: 0x14B0F, size: 0x8, addend: 0x0, symName: __ZNSt6vectorIiSaIiEEC1EmRKiRKS0_, symObjAddr: 0xBC0, symBinAddr: 0x100001540, symSize: 0x70 }
  - { offsetInCU: 0x14B17, offset: 0x14B17, size: 0x8, addend: 0x0, symName: __ZNSt6vectorIiSaIiEED1Ev, symObjAddr: 0xC30, symBinAddr: 0x1000015B0, symSize: 0x5C }
  - { offsetInCU: 0x14B80, offset: 0x14B80, size: 0x8, addend: 0x0, symName: __ZNSt6vectorISt5arrayIiLm3EESaIS1_EE6resizeEm, symObjAddr: 0xB04, symBinAddr: 0x100001484, symSize: 0xBC }
  - { offsetInCU: 0x14B88, offset: 0x14B88, size: 0x8, addend: 0x0, symName: __ZNSt6vectorIiSaIiEEC1EmRKiRKS0_, symObjAddr: 0xBC0, symBinAddr: 0x100001540, symSize: 0x70 }
  - { offsetInCU: 0x14C1A, offset: 0x14C1A, size: 0x8, addend: 0x0, symName: __ZNSt12_Vector_baseISt5arrayIiLm3EESaIS1_EED2Ev, symObjAddr: 0xAA8, symBinAddr: 0x100001428, symSize: 0x5C }
  - { offsetInCU: 0x14C22, offset: 0x14C22, size: 0x8, addend: 0x0, symName: __ZNSt6vectorISt5arrayIiLm3EESaIS1_EE6resizeEm, symObjAddr: 0xB04, symBinAddr: 0x100001484, symSize: 0xBC }
  - { offsetInCU: 0x14C96, offset: 0x14C96, size: 0x8, addend: 0x0, symName: __ZNSt12_Vector_baseISt5arrayIiLm3EESaIS1_EE12_Vector_implC1Ev, symObjAddr: 0xA70, symBinAddr: 0x1000013F0, symSize: 0x38 }
  - { offsetInCU: 0x14C9E, offset: 0x14C9E, size: 0x8, addend: 0x0, symName: __ZNSt12_Vector_baseISt5arrayIiLm3EESaIS1_EED2Ev, symObjAddr: 0xAA8, symBinAddr: 0x100001428, symSize: 0x5C }
  - { offsetInCU: 0x14D68, offset: 0x14D68, size: 0x8, addend: 0x0, symName: __ZN10__gnu_pbds4treeISt4pairIiiENS_9null_typeESt4lessIS2_ENS_11rb_tree_tagENS_33tree_order_statistics_node_updateESaIcEEC1Ev, symObjAddr: 0xA3C, symBinAddr: 0x1000013BC, symSize: 0x34 }
  - { offsetInCU: 0x14D70, offset: 0x14D70, size: 0x8, addend: 0x0, symName: __ZNSt12_Vector_baseISt5arrayIiLm3EESaIS1_EE12_Vector_implC1Ev, symObjAddr: 0xA70, symBinAddr: 0x1000013F0, symSize: 0x38 }
  - { offsetInCU: 0x14D4B, offset: 0x14D4B, size: 0x8, addend: 0x0, symName: __ZSt3maxImERKT_S2_S2_, symObjAddr: 0xA04, symBinAddr: 0x100001384, symSize: 0x38 }
  - { offsetInCU: 0x14D53, offset: 0x14D53, size: 0x8, addend: 0x0, symName: __ZN10__gnu_pbds4treeISt4pairIiiENS_9null_typeESt4lessIS2_ENS_11rb_tree_tagENS_33tree_order_statistics_node_updateESaIcEEC1Ev, symObjAddr: 0xA3C, symBinAddr: 0x1000013BC, symSize: 0x34 }
  - { offsetInCU: 0x14D83, offset: 0x14D83, size: 0x8, addend: 0x0, symName: _main, symObjAddr: 0x214, symBinAddr: 0x100000B94, symSize: 0x7F0 }
  - { offsetInCU: 0x14D8B, offset: 0x14D8B, size: 0x8, addend: 0x0, symName: __ZSt3maxImERKT_S2_S2_, symObjAddr: 0xA04, symBinAddr: 0x100001384, symSize: 0x38 }
  - { offsetInCU: 0x14E58, offset: 0x14E58, size: 0x8, addend: 0x0, symName: __ZZ4mainENKUlSt5arrayIiLm3EES0_E_clES0_S0_, symObjAddr: 0x124, symBinAddr: 0x100000AA4, symSize: 0xD0 }
  - { offsetInCU: 0x14E60, offset: 0x14E60, size: 0x8, addend: 0x0, symName: __ZNSt5dequeISt5arrayIiLm3EESaIS1_EEC1Ev, symObjAddr: 0x1F4, symBinAddr: 0x100000B74, symSize: 0x20 }
  - { offsetInCU: 0x15266, offset: 0x15266, size: 0x8, addend: 0x0, symName: __ZNSt5dequeISt5arrayIiLm3EESaIS1_EEC1Ev, symObjAddr: 0x1F4, symBinAddr: 0x100000B74, symSize: 0x20 }
  - { offsetInCU: 0x1526E, offset: 0x1526E, size: 0x8, addend: 0x0, symName: _main, symObjAddr: 0x214, symBinAddr: 0x100000B94, symSize: 0x7F0 }
  - { offsetInCU: 0x1526C, offset: 0x1526C, size: 0x8, addend: 0x0, symName: __ZNSt5arrayIiLm3EEixEm, symObjAddr: 0x100, symBinAddr: 0x100000A80, symSize: 0x24 }
  - { offsetInCU: 0x15274, offset: 0x15274, size: 0x8, addend: 0x0, symName: __ZZ4mainENKUlSt5arrayIiLm3EES0_E_clES0_S0_, symObjAddr: 0x124, symBinAddr: 0x100000AA4, symSize: 0xD0 }
  - { offsetInCU: 0x152F0, offset: 0x152F0, size: 0x8, addend: 0x0, symName: __ZNSt6vectorISt5arrayIiLm3EESaIS1_EEC1Ev, symObjAddr: 0xE0, symBinAddr: 0x100000A60, symSize: 0x20 }
  - { offsetInCU: 0x152F8, offset: 0x152F8, size: 0x8, addend: 0x0, symName: __ZNSt5arrayIiLm3EEixEm, symObjAddr: 0x100, symBinAddr: 0x100000A80, symSize: 0x24 }
  - { offsetInCU: 0x1533E, offset: 0x1533E, size: 0x8, addend: 0x0, symName: __ZNSt12_Vector_baseISt5arrayIiLm3EESaIS1_EEC2Ev, symObjAddr: 0xC0, symBinAddr: 0x100000A40, symSize: 0x20 }
  - { offsetInCU: 0x15346, offset: 0x15346, size: 0x8, addend: 0x0, symName: __ZNSt6vectorISt5arrayIiLm3EESaIS1_EEC1Ev, symObjAddr: 0xE0, symBinAddr: 0x100000A60, symSize: 0x20 }
  - { offsetInCU: 0x153A5, offset: 0x153A5, size: 0x8, addend: 0x0, symName: __ZNSt12_Vector_baseISt5arrayIiLm3EESaIS1_EE12_Vector_implD1Ev, symObjAddr: 0x94, symBinAddr: 0x100000A14, symSize: 0x2C }
  - { offsetInCU: 0x153AD, offset: 0x153AD, size: 0x8, addend: 0x0, symName: __ZNSt12_Vector_baseISt5arrayIiLm3EESaIS1_EEC2Ev, symObjAddr: 0xC0, symBinAddr: 0x100000A40, symSize: 0x20 }
  - { offsetInCU: 0x153EC, offset: 0x153EC, size: 0x8, addend: 0x0, symName: __ZSt3minImERKT_S2_S2_, symObjAddr: 0x5C, symBinAddr: 0x1000009DC, symSize: 0x38 }
  - { offsetInCU: 0x153F4, offset: 0x153F4, size: 0x8, addend: 0x0, symName: __ZNSt12_Vector_baseISt5arrayIiLm3EESaIS1_EE12_Vector_implD1Ev, symObjAddr: 0x94, symBinAddr: 0x100000A14, symSize: 0x2C }
  - { offsetInCU: 0x15445, offset: 0x15445, size: 0x8, addend: 0x0, symName: __ZSt16__deque_buf_sizem, symObjAddr: 0x2C, symBinAddr: 0x1000009AC, symSize: 0x30 }
  - { offsetInCU: 0x1544D, offset: 0x1544D, size: 0x8, addend: 0x0, symName: __ZSt3minImERKT_S2_S2_, symObjAddr: 0x5C, symBinAddr: 0x1000009DC, symSize: 0x38 }
  - { offsetInCU: 0x15466, offset: 0x15466, size: 0x8, addend: 0x0, symName: __ZnwmPv, symObjAddr: 0x14, symBinAddr: 0x100000994, symSize: 0x18 }
  - { offsetInCU: 0x1546E, offset: 0x1546E, size: 0x8, addend: 0x0, symName: __ZSt16__deque_buf_sizem, symObjAddr: 0x2C, symBinAddr: 0x1000009AC, symSize: 0x30 }
  - { offsetInCU: 0x154CF, offset: 0x154CF, size: 0x8, addend: 0x0, symName: __ZSt17__size_to_integerm, symObjAddr: 0x0, symBinAddr: 0x100000980, symSize: 0x14 }
  - { offsetInCU: 0x154D7, offset: 0x154D7, size: 0x8, addend: 0x0, symName: __ZnwmPv, symObjAddr: 0x14, symBinAddr: 0x100000994, symSize: 0x18 }
...
