---
triple:          'arm64-apple-darwin'
binary-path:     '/Users/dingkai/Code/IOI2024/cses/SortingAndSearch/Josephus Problem IIS1.gout'
relocations:
  - { offsetInCU: 0xCA, offset: 0xCA, size: 0x8, addend: 0x0, symName: _main, symObjAddr: 0x0, symBinAddr: 0x10000268C, symSize: 0x30 }
  - { offsetInCU: 0x3350, offset: 0x3350, size: 0x8, addend: 0x0, symName: __ZN10__gnu_pbds6detailL9g_a_sizesE, symObjAddr: 0x858, symBinAddr: 0x100003070, symSize: 0x0 }
  - { offsetInCU: 0x3536, offset: 0x3536, size: 0x8, addend: 0x0, symName: __ZNSt3tr112_GLOBAL__N_16ignoreE, symObjAddr: 0x37718, symBinAddr: 0x100008024, symSize: 0x0 }
  - { offsetInCU: 0x3B90, offset: 0x3B90, size: 0x8, addend: 0x0, symName: __ZStL8__ioinit, symObjAddr: 0x37719, symBinAddr: 0x100008025, symSize: 0x0 }
  - { offsetInCU: 0x4EDD, offset: 0x4EDD, size: 0x8, addend: 0x0, symName: _os, symObjAddr: 0x37720, symBinAddr: 0x100008028, symSize: 0x0 }
  - { offsetInCU: 0x675F, offset: 0x675F, size: 0x8, addend: 0x0, symName: __ZN10__gnu_pbds6detail19bin_search_tree_setIiNS_9null_typeESt4lessIiENS0_11tree_traitsIiS2_S4_NS_33tree_order_statistics_node_updateENS_11rb_tree_tagESaIcEEES8_E16s_node_allocatorE, symObjAddr: 0x1290, symBinAddr: 0x100008000, symSize: 0x0 }
  - { offsetInCU: 0x69D4, offset: 0x69D4, size: 0x8, addend: 0x0, symName: __ZNSt8__detail30__integer_to_chars_is_unsignedIjEE, symObjAddr: 0xEF0, symBinAddr: 0x100003708, symSize: 0x0 }
  - { offsetInCU: 0x69EE, offset: 0x69EE, size: 0x8, addend: 0x0, symName: __ZNSt8__detail30__integer_to_chars_is_unsignedImEE, symObjAddr: 0xEF1, symBinAddr: 0x100003709, symSize: 0x0 }
  - { offsetInCU: 0x6A08, offset: 0x6A08, size: 0x8, addend: 0x0, symName: __ZNSt8__detail30__integer_to_chars_is_unsignedIyEE, symObjAddr: 0xEF2, symBinAddr: 0x10000370A, symSize: 0x0 }
  - { offsetInCU: 0x6A40, offset: 0x6A40, size: 0x8, addend: 0x0, symName: __GLOBAL__sub_I_Josephus_Problem_IIS1.cpp, symObjAddr: 0x840, symBinAddr: 0x100002ECC, symSize: 0x14 }
  - { offsetInCU: 0x6AF7, offset: 0x6AF7, size: 0x8, addend: 0x0, symName: __ZN10__gnu_pbds6detail30bin_search_tree_const_node_it_INS0_13rb_tree_node_IimSaIcEEENS0_25bin_search_tree_const_it_IPS4_iPiPKiRiRS8_Lb1ES3_EESC_S3_EC1ES6_, symObjAddr: 0x81C, symBinAddr: 0x100002EA8, symSize: 0x24 }
  - { offsetInCU: 0x6AFF, offset: 0x6AFF, size: 0x8, addend: 0x0, symName: __GLOBAL__sub_I_Josephus_Problem_IIS1.cpp, symObjAddr: 0x840, symBinAddr: 0x100002ECC, symSize: 0x14 }
  - { offsetInCU: 0x6B2A, offset: 0x6B2A, size: 0x8, addend: 0x0, symName: __ZN10__gnu_pbds6detail25bin_search_tree_const_it_IPNS0_13rb_tree_node_IimSaIcEEEiPiPKiRiRS7_Lb1ES3_EC1ES5_, symObjAddr: 0x7F8, symBinAddr: 0x100002E84, symSize: 0x24 }
  - { offsetInCU: 0x6B32, offset: 0x6B32, size: 0x8, addend: 0x0, symName: __ZN10__gnu_pbds6detail30bin_search_tree_const_node_it_INS0_13rb_tree_node_IimSaIcEEENS0_25bin_search_tree_const_it_IPS4_iPiPKiRiRS8_Lb1ES3_EESC_S3_EC1ES6_, symObjAddr: 0x81C, symBinAddr: 0x100002EA8, symSize: 0x24 }
  - { offsetInCU: 0x6B59, offset: 0x6B59, size: 0x8, addend: 0x0, symName: __ZNSaIN10__gnu_pbds6detail13rb_tree_node_IimSaIcEEEED1Ev, symObjAddr: 0x7D8, symBinAddr: 0x100002E64, symSize: 0x20 }
  - { offsetInCU: 0x6B61, offset: 0x6B61, size: 0x8, addend: 0x0, symName: __ZN10__gnu_pbds6detail25bin_search_tree_const_it_IPNS0_13rb_tree_node_IimSaIcEEEiPiPKiRiRS7_Lb1ES3_EC1ES5_, symObjAddr: 0x7F8, symBinAddr: 0x100002E84, symSize: 0x24 }
  - { offsetInCU: 0x6B4E, offset: 0x6B4E, size: 0x8, addend: 0x0, symName: __ZN10__gnu_pbds6detail19bin_search_tree_setIiNS_9null_typeESt4lessIiENS0_11tree_traitsIiS2_S4_NS_33tree_order_statistics_node_updateENS_11rb_tree_tagESaIcEEES8_E10get_cmp_fnEv, symObjAddr: 0x7C4, symBinAddr: 0x100002E50, symSize: 0x14 }
  - { offsetInCU: 0x6B56, offset: 0x6B56, size: 0x8, addend: 0x0, symName: __ZNSaIN10__gnu_pbds6detail13rb_tree_node_IimSaIcEEEED1Ev, symObjAddr: 0x7D8, symBinAddr: 0x100002E64, symSize: 0x20 }
  - { offsetInCU: 0x6B7D, offset: 0x6B7D, size: 0x8, addend: 0x0, symName: __ZN10__gnu_pbds6detail19bin_search_tree_setIiNS_9null_typeESt4lessIiENS0_11tree_traitsIiS2_S4_NS_33tree_order_statistics_node_updateENS_11rb_tree_tagESaIcEEES8_E8node_endEv, symObjAddr: 0x7A0, symBinAddr: 0x100002E2C, symSize: 0x24 }
  - { offsetInCU: 0x6B85, offset: 0x6B85, size: 0x8, addend: 0x0, symName: __ZN10__gnu_pbds6detail19bin_search_tree_setIiNS_9null_typeESt4lessIiENS0_11tree_traitsIiS2_S4_NS_33tree_order_statistics_node_updateENS_11rb_tree_tagESaIcEEES8_E10get_cmp_fnEv, symObjAddr: 0x7C4, symBinAddr: 0x100002E50, symSize: 0x14 }
  - { offsetInCU: 0x6BAC, offset: 0x6BAC, size: 0x8, addend: 0x0, symName: __ZNK10__gnu_pbds6detail19bin_search_tree_setIiNS_9null_typeESt4lessIiENS0_11tree_traitsIiS2_S4_NS_33tree_order_statistics_node_updateENS_11rb_tree_tagESaIcEEES8_E8node_endEv, symObjAddr: 0x77C, symBinAddr: 0x100002E08, symSize: 0x24 }
  - { offsetInCU: 0x6BB4, offset: 0x6BB4, size: 0x8, addend: 0x0, symName: __ZN10__gnu_pbds6detail19bin_search_tree_setIiNS_9null_typeESt4lessIiENS0_11tree_traitsIiS2_S4_NS_33tree_order_statistics_node_updateENS_11rb_tree_tagESaIcEEES8_E8node_endEv, symObjAddr: 0x7A0, symBinAddr: 0x100002E2C, symSize: 0x24 }
  - { offsetInCU: 0x6BDB, offset: 0x6BDB, size: 0x8, addend: 0x0, symName: __ZN10__gnu_pbds6detail19bin_search_tree_setIiNS_9null_typeESt4lessIiENS0_11tree_traitsIiS2_S4_NS_33tree_order_statistics_node_updateENS_11rb_tree_tagESaIcEEES8_E10node_beginEv, symObjAddr: 0x750, symBinAddr: 0x100002DDC, symSize: 0x2C }
  - { offsetInCU: 0x6BE3, offset: 0x6BE3, size: 0x8, addend: 0x0, symName: __ZNK10__gnu_pbds6detail19bin_search_tree_setIiNS_9null_typeESt4lessIiENS0_11tree_traitsIiS2_S4_NS_33tree_order_statistics_node_updateENS_11rb_tree_tagESaIcEEES8_E8node_endEv, symObjAddr: 0x77C, symBinAddr: 0x100002E08, symSize: 0x24 }
  - { offsetInCU: 0x6C0A, offset: 0x6C0A, size: 0x8, addend: 0x0, symName: __ZNK10__gnu_pbds6detail19bin_search_tree_setIiNS_9null_typeESt4lessIiENS0_11tree_traitsIiS2_S4_NS_33tree_order_statistics_node_updateENS_11rb_tree_tagESaIcEEES8_E10node_beginEv, symObjAddr: 0x724, symBinAddr: 0x100002DB0, symSize: 0x2C }
  - { offsetInCU: 0x6C12, offset: 0x6C12, size: 0x8, addend: 0x0, symName: __ZN10__gnu_pbds6detail19bin_search_tree_setIiNS_9null_typeESt4lessIiENS0_11tree_traitsIiS2_S4_NS_33tree_order_statistics_node_updateENS_11rb_tree_tagESaIcEEES8_E10node_beginEv, symObjAddr: 0x750, symBinAddr: 0x100002DDC, symSize: 0x2C }
  - { offsetInCU: 0x6CD1, offset: 0x6CD1, size: 0x8, addend: 0x0, symName: __ZN10__gnu_pbds4treeIiNS_9null_typeESt4lessIiENS_11rb_tree_tagENS_33tree_order_statistics_node_updateESaIcEED0Ev, symObjAddr: 0x6FC, symBinAddr: 0x100002D88, symSize: 0x28 }
  - { offsetInCU: 0x6CD9, offset: 0x6CD9, size: 0x8, addend: 0x0, symName: __ZNK10__gnu_pbds6detail19bin_search_tree_setIiNS_9null_typeESt4lessIiENS0_11tree_traitsIiS2_S4_NS_33tree_order_statistics_node_updateENS_11rb_tree_tagESaIcEEES8_E10node_beginEv, symObjAddr: 0x724, symBinAddr: 0x100002DB0, symSize: 0x2C }
  - { offsetInCU: 0x6CFF, offset: 0x6CFF, size: 0x8, addend: 0x0, symName: __ZN10__gnu_pbds4treeIiNS_9null_typeESt4lessIiENS_11rb_tree_tagENS_33tree_order_statistics_node_updateESaIcEED1Ev, symObjAddr: 0x6C8, symBinAddr: 0x100002D54, symSize: 0x34 }
  - { offsetInCU: 0x6D07, offset: 0x6D07, size: 0x8, addend: 0x0, symName: __ZN10__gnu_pbds4treeIiNS_9null_typeESt4lessIiENS_11rb_tree_tagENS_33tree_order_statistics_node_updateESaIcEED0Ev, symObjAddr: 0x6FC, symBinAddr: 0x100002D88, symSize: 0x28 }
  - { offsetInCU: 0x6CBC, offset: 0x6CBC, size: 0x8, addend: 0x0, symName: __ZNK10__gnu_pbds6detail19bin_search_tree_setIiNS_9null_typeESt4lessIiENS0_11tree_traitsIiS2_S4_NS_33tree_order_statistics_node_updateENS_11rb_tree_tagESaIcEEES8_E3endEv, symObjAddr: 0x6A0, symBinAddr: 0x100002D2C, symSize: 0x28 }
  - { offsetInCU: 0x6CC4, offset: 0x6CC4, size: 0x8, addend: 0x0, symName: __ZN10__gnu_pbds4treeIiNS_9null_typeESt4lessIiENS_11rb_tree_tagENS_33tree_order_statistics_node_updateESaIcEED1Ev, symObjAddr: 0x6C8, symBinAddr: 0x100002D54, symSize: 0x34 }
  - { offsetInCU: 0x6D13, offset: 0x6D13, size: 0x8, addend: 0x0, symName: __Z41__static_initialization_and_destruction_0v, symObjAddr: 0x5E4, symBinAddr: 0x100002C70, symSize: 0xBC }
  - { offsetInCU: 0x6D1B, offset: 0x6D1B, size: 0x8, addend: 0x0, symName: __ZNK10__gnu_pbds6detail19bin_search_tree_setIiNS_9null_typeESt4lessIiENS0_11tree_traitsIiS2_S4_NS_33tree_order_statistics_node_updateENS_11rb_tree_tagESaIcEEES8_E3endEv, symObjAddr: 0x6A0, symBinAddr: 0x100002D2C, symSize: 0x28 }
  - { offsetInCU: 0x6DD9, offset: 0x6DD9, size: 0x8, addend: 0x0, symName: __ZNSt15__new_allocatorIN10__gnu_pbds6detail13rb_tree_node_IimSaIcEEEED2Ev, symObjAddr: 0x5D0, symBinAddr: 0x100002C5C, symSize: 0x14 }
  - { offsetInCU: 0x6DE1, offset: 0x6DE1, size: 0x8, addend: 0x0, symName: __Z41__static_initialization_and_destruction_0v, symObjAddr: 0x5E4, symBinAddr: 0x100002C70, symSize: 0xBC }
  - { offsetInCU: 0x6DD6, offset: 0x6DD6, size: 0x8, addend: 0x0, symName: __ZN10__gnu_pbds6detail19bin_search_tree_setIiNS_9null_typeESt4lessIiENS0_11tree_traitsIiS2_S4_NS_33tree_order_statistics_node_updateENS_11rb_tree_tagESaIcEEES8_E9clear_impEPNS0_13rb_tree_node_IimS8_EE, symObjAddr: 0x57C, symBinAddr: 0x100002C08, symSize: 0x54 }
  - { offsetInCU: 0x6DDE, offset: 0x6DDE, size: 0x8, addend: 0x0, symName: __ZNSt15__new_allocatorIN10__gnu_pbds6detail13rb_tree_node_IimSaIcEEEED2Ev, symObjAddr: 0x5D0, symBinAddr: 0x100002C5C, symSize: 0x14 }
  - { offsetInCU: 0x6E07, offset: 0x6E07, size: 0x8, addend: 0x0, symName: __ZN10__gnu_pbds6detail19bin_search_tree_setIiNS_9null_typeESt4lessIiENS0_11tree_traitsIiS2_S4_NS_33tree_order_statistics_node_updateENS_11rb_tree_tagESaIcEEES8_E10initializeEv, symObjAddr: 0x52C, symBinAddr: 0x100002BB8, symSize: 0x50 }
  - { offsetInCU: 0x6E0F, offset: 0x6E0F, size: 0x8, addend: 0x0, symName: __ZN10__gnu_pbds6detail19bin_search_tree_setIiNS_9null_typeESt4lessIiENS0_11tree_traitsIiS2_S4_NS_33tree_order_statistics_node_updateENS_11rb_tree_tagESaIcEEES8_E9clear_impEPNS0_13rb_tree_node_IimS8_EE, symObjAddr: 0x57C, symBinAddr: 0x100002C08, symSize: 0x54 }
  - { offsetInCU: 0x6F12, offset: 0x6F12, size: 0x8, addend: 0x0, symName: __ZN10__gnu_pbds6detail13branch_policyINS0_30bin_search_tree_const_node_it_INS0_13rb_tree_node_IimSaIcEEENS0_25bin_search_tree_const_it_IPS5_iPiPKiRiRS9_Lb1ES4_EESD_S4_EESE_S4_ED2Ev, symObjAddr: 0x504, symBinAddr: 0x100002B90, symSize: 0x28 }
  - { offsetInCU: 0x6F1A, offset: 0x6F1A, size: 0x8, addend: 0x0, symName: __ZN10__gnu_pbds6detail19bin_search_tree_setIiNS_9null_typeESt4lessIiENS0_11tree_traitsIiS2_S4_NS_33tree_order_statistics_node_updateENS_11rb_tree_tagESaIcEEES8_E10initializeEv, symObjAddr: 0x52C, symBinAddr: 0x100002BB8, symSize: 0x50 }
  - { offsetInCU: 0x6E8B, offset: 0x6E8B, size: 0x8, addend: 0x0, symName: __ZNSt15__new_allocatorIN10__gnu_pbds6detail13rb_tree_node_IimSaIcEEEE8allocateEmPKv, symObjAddr: 0x474, symBinAddr: 0x100002B00, symSize: 0x90 }
  - { offsetInCU: 0x6E93, offset: 0x6E93, size: 0x8, addend: 0x0, symName: __ZN10__gnu_pbds6detail13branch_policyINS0_30bin_search_tree_const_node_it_INS0_13rb_tree_node_IimSaIcEEENS0_25bin_search_tree_const_it_IPS5_iPiPKiRiRS9_Lb1ES4_EESD_S4_EESE_S4_ED2Ev, symObjAddr: 0x504, symBinAddr: 0x100002B90, symSize: 0x28 }
  - { offsetInCU: 0x6F11, offset: 0x6F11, size: 0x8, addend: 0x0, symName: __ZNSt15__new_allocatorIN10__gnu_pbds6detail13rb_tree_node_IimSaIcEEEE10deallocateEPS4_m, symObjAddr: 0x438, symBinAddr: 0x100002AC4, symSize: 0x3C }
  - { offsetInCU: 0x6F19, offset: 0x6F19, size: 0x8, addend: 0x0, symName: __ZNSt15__new_allocatorIN10__gnu_pbds6detail13rb_tree_node_IimSaIcEEEE8allocateEmPKv, symObjAddr: 0x474, symBinAddr: 0x100002B00, symSize: 0x90 }
  - { offsetInCU: 0x6F7F, offset: 0x6F7F, size: 0x8, addend: 0x0, symName: __ZN10__gnu_pbds6detail19bin_search_tree_setIiNS_9null_typeESt4lessIiENS0_11tree_traitsIiS2_S4_NS_33tree_order_statistics_node_updateENS_11rb_tree_tagESaIcEEES8_E5clearEv, symObjAddr: 0x400, symBinAddr: 0x100002A8C, symSize: 0x38 }
  - { offsetInCU: 0x6F87, offset: 0x6F87, size: 0x8, addend: 0x0, symName: __ZNSt15__new_allocatorIN10__gnu_pbds6detail13rb_tree_node_IimSaIcEEEE10deallocateEPS4_m, symObjAddr: 0x438, symBinAddr: 0x100002AC4, symSize: 0x3C }
  - { offsetInCU: 0x70A7, offset: 0x70A7, size: 0x8, addend: 0x0, symName: __ZN10__gnu_pbds33tree_order_statistics_node_updateINS_6detail30bin_search_tree_const_node_it_INS1_13rb_tree_node_IimSaIcEEENS1_25bin_search_tree_const_it_IPS5_iPiPKiRiRS9_Lb1ES4_EESD_S4_EESE_St4lessIiES4_ED2Ev, symObjAddr: 0x3CC, symBinAddr: 0x100002A58, symSize: 0x34 }
  - { offsetInCU: 0x70AF, offset: 0x70AF, size: 0x8, addend: 0x0, symName: __ZN10__gnu_pbds6detail19bin_search_tree_setIiNS_9null_typeESt4lessIiENS0_11tree_traitsIiS2_S4_NS_33tree_order_statistics_node_updateENS_11rb_tree_tagESaIcEEES8_E5clearEv, symObjAddr: 0x400, symBinAddr: 0x100002A8C, symSize: 0x38 }
  - { offsetInCU: 0x7003, offset: 0x7003, size: 0x8, addend: 0x0, symName: __ZN10__gnu_pbds6detail11rb_tree_setIiNS_9null_typeESt4lessIiENS0_11tree_traitsIiS2_S4_NS_33tree_order_statistics_node_updateENS_11rb_tree_tagESaIcEEES8_E10initializeEv, symObjAddr: 0x3A8, symBinAddr: 0x100002A34, symSize: 0x24 }
  - { offsetInCU: 0x700B, offset: 0x700B, size: 0x8, addend: 0x0, symName: __ZN10__gnu_pbds33tree_order_statistics_node_updateINS_6detail30bin_search_tree_const_node_it_INS1_13rb_tree_node_IimSaIcEEENS1_25bin_search_tree_const_it_IPS5_iPiPKiRiRS9_Lb1ES4_EESD_S4_EESE_St4lessIiES4_ED2Ev, symObjAddr: 0x3CC, symBinAddr: 0x100002A58, symSize: 0x34 }
  - { offsetInCU: 0x70F1, offset: 0x70F1, size: 0x8, addend: 0x0, symName: __ZN10__gnu_pbds6detail19bin_search_tree_setIiNS_9null_typeESt4lessIiENS0_11tree_traitsIiS2_S4_NS_33tree_order_statistics_node_updateENS_11rb_tree_tagESaIcEEES8_EC2Ev, symObjAddr: 0x328, symBinAddr: 0x1000029B4, symSize: 0x80 }
  - { offsetInCU: 0x70F9, offset: 0x70F9, size: 0x8, addend: 0x0, symName: __ZN10__gnu_pbds6detail11rb_tree_setIiNS_9null_typeESt4lessIiENS0_11tree_traitsIiS2_S4_NS_33tree_order_statistics_node_updateENS_11rb_tree_tagESaIcEEES8_E10initializeEv, symObjAddr: 0x3A8, symBinAddr: 0x100002A34, symSize: 0x24 }
  - { offsetInCU: 0x7167, offset: 0x7167, size: 0x8, addend: 0x0, symName: __ZN10__gnu_pbds33tree_order_statistics_node_updateINS_6detail30bin_search_tree_const_node_it_INS1_13rb_tree_node_IimSaIcEEENS1_25bin_search_tree_const_it_IPS5_iPiPKiRiRS9_Lb1ES4_EESD_S4_EESE_St4lessIiES4_EC2Ev, symObjAddr: 0x2F4, symBinAddr: 0x100002980, symSize: 0x34 }
  - { offsetInCU: 0x716F, offset: 0x716F, size: 0x8, addend: 0x0, symName: __ZN10__gnu_pbds6detail19bin_search_tree_setIiNS_9null_typeESt4lessIiENS0_11tree_traitsIiS2_S4_NS_33tree_order_statistics_node_updateENS_11rb_tree_tagESaIcEEES8_EC2Ev, symObjAddr: 0x328, symBinAddr: 0x1000029B4, symSize: 0x80 }
  - { offsetInCU: 0x7194, offset: 0x7194, size: 0x8, addend: 0x0, symName: __ZN10__gnu_pbds6detail13branch_policyINS0_30bin_search_tree_const_node_it_INS0_13rb_tree_node_IimSaIcEEENS0_25bin_search_tree_const_it_IPS5_iPiPKiRiRS9_Lb1ES4_EESD_S4_EESE_S4_EC2Ev, symObjAddr: 0x2CC, symBinAddr: 0x100002958, symSize: 0x28 }
  - { offsetInCU: 0x719C, offset: 0x719C, size: 0x8, addend: 0x0, symName: __ZN10__gnu_pbds33tree_order_statistics_node_updateINS_6detail30bin_search_tree_const_node_it_INS1_13rb_tree_node_IimSaIcEEENS1_25bin_search_tree_const_it_IPS5_iPiPKiRiRS9_Lb1ES4_EESD_S4_EESE_St4lessIiES4_EC2Ev, symObjAddr: 0x2F4, symBinAddr: 0x100002980, symSize: 0x34 }
  - { offsetInCU: 0x71DA, offset: 0x71DA, size: 0x8, addend: 0x0, symName: __ZN10__gnu_pbds6detail19bin_search_tree_setIiNS_9null_typeESt4lessIiENS0_11tree_traitsIiS2_S4_NS_33tree_order_statistics_node_updateENS_11rb_tree_tagESaIcEEES8_ED0Ev, symObjAddr: 0x2A4, symBinAddr: 0x100002930, symSize: 0x28 }
  - { offsetInCU: 0x71E2, offset: 0x71E2, size: 0x8, addend: 0x0, symName: __ZN10__gnu_pbds6detail13branch_policyINS0_30bin_search_tree_const_node_it_INS0_13rb_tree_node_IimSaIcEEENS0_25bin_search_tree_const_it_IPS5_iPiPKiRiRS9_Lb1ES4_EESD_S4_EESE_S4_EC2Ev, symObjAddr: 0x2CC, symBinAddr: 0x100002958, symSize: 0x28 }
  - { offsetInCU: 0x7208, offset: 0x7208, size: 0x8, addend: 0x0, symName: __ZN10__gnu_pbds6detail19bin_search_tree_setIiNS_9null_typeESt4lessIiENS0_11tree_traitsIiS2_S4_NS_33tree_order_statistics_node_updateENS_11rb_tree_tagESaIcEEES8_ED1Ev, symObjAddr: 0x24C, symBinAddr: 0x1000028D8, symSize: 0x58 }
  - { offsetInCU: 0x7210, offset: 0x7210, size: 0x8, addend: 0x0, symName: __ZN10__gnu_pbds6detail19bin_search_tree_setIiNS_9null_typeESt4lessIiENS0_11tree_traitsIiS2_S4_NS_33tree_order_statistics_node_updateENS_11rb_tree_tagESaIcEEES8_ED0Ev, symObjAddr: 0x2A4, symBinAddr: 0x100002930, symSize: 0x28 }
  - { offsetInCU: 0x7236, offset: 0x7236, size: 0x8, addend: 0x0, symName: __ZN10__gnu_pbds6detail19bin_search_tree_setIiNS_9null_typeESt4lessIiENS0_11tree_traitsIiS2_S4_NS_33tree_order_statistics_node_updateENS_11rb_tree_tagESaIcEEES8_ED2Ev, symObjAddr: 0x1F4, symBinAddr: 0x100002880, symSize: 0x58 }
  - { offsetInCU: 0x723E, offset: 0x723E, size: 0x8, addend: 0x0, symName: __ZN10__gnu_pbds6detail19bin_search_tree_setIiNS_9null_typeESt4lessIiENS0_11tree_traitsIiS2_S4_NS_33tree_order_statistics_node_updateENS_11rb_tree_tagESaIcEEES8_ED1Ev, symObjAddr: 0x24C, symBinAddr: 0x1000028D8, symSize: 0x58 }
  - { offsetInCU: 0x7275, offset: 0x7275, size: 0x8, addend: 0x0, symName: __ZN10__gnu_pbds6detail11rb_tree_setIiNS_9null_typeESt4lessIiENS0_11tree_traitsIiS2_S4_NS_33tree_order_statistics_node_updateENS_11rb_tree_tagESaIcEEES8_EC2Ev, symObjAddr: 0x1B8, symBinAddr: 0x100002844, symSize: 0x3C }
  - { offsetInCU: 0x727D, offset: 0x727D, size: 0x8, addend: 0x0, symName: __ZN10__gnu_pbds6detail19bin_search_tree_setIiNS_9null_typeESt4lessIiENS0_11tree_traitsIiS2_S4_NS_33tree_order_statistics_node_updateENS_11rb_tree_tagESaIcEEES8_ED2Ev, symObjAddr: 0x1F4, symBinAddr: 0x100002880, symSize: 0x58 }
  - { offsetInCU: 0x739B, offset: 0x739B, size: 0x8, addend: 0x0, symName: __ZN10__gnu_pbds12basic_branchIiNS_9null_typeENS_11rb_tree_tagENS_33tree_order_statistics_node_updateINS_6detail30bin_search_tree_const_node_it_INS4_13rb_tree_node_IimSaIcEEENS4_25bin_search_tree_const_it_IPS8_iPiPKiRiRSC_Lb1ES7_EESG_S7_EESH_St4lessIiES7_EEN9__gnu_cxx8typelist4nodeINSM_5chainISJ_NSO_INS4_11tree_traitsIiS1_SJ_S3_S2_S7_EENSM_9null_typeEEEEEEES7_ED0Ev, symObjAddr: 0x190, symBinAddr: 0x10000281C, symSize: 0x28 }
  - { offsetInCU: 0x73A3, offset: 0x73A3, size: 0x8, addend: 0x0, symName: __ZN10__gnu_pbds6detail11rb_tree_setIiNS_9null_typeESt4lessIiENS0_11tree_traitsIiS2_S4_NS_33tree_order_statistics_node_updateENS_11rb_tree_tagESaIcEEES8_EC2Ev, symObjAddr: 0x1B8, symBinAddr: 0x100002844, symSize: 0x3C }
  - { offsetInCU: 0x73C9, offset: 0x73C9, size: 0x8, addend: 0x0, symName: __ZN10__gnu_pbds12basic_branchIiNS_9null_typeENS_11rb_tree_tagENS_33tree_order_statistics_node_updateINS_6detail30bin_search_tree_const_node_it_INS4_13rb_tree_node_IimSaIcEEENS4_25bin_search_tree_const_it_IPS8_iPiPKiRiRSC_Lb1ES7_EESG_S7_EESH_St4lessIiES7_EEN9__gnu_cxx8typelist4nodeINSM_5chainISJ_NSO_INS4_11tree_traitsIiS1_SJ_S3_S2_S7_EENSM_9null_typeEEEEEEES7_ED1Ev, symObjAddr: 0x15C, symBinAddr: 0x1000027E8, symSize: 0x34 }
  - { offsetInCU: 0x73D1, offset: 0x73D1, size: 0x8, addend: 0x0, symName: __ZN10__gnu_pbds12basic_branchIiNS_9null_typeENS_11rb_tree_tagENS_33tree_order_statistics_node_updateINS_6detail30bin_search_tree_const_node_it_INS4_13rb_tree_node_IimSaIcEEENS4_25bin_search_tree_const_it_IPS8_iPiPKiRiRSC_Lb1ES7_EESG_S7_EESH_St4lessIiES7_EEN9__gnu_cxx8typelist4nodeINSM_5chainISJ_NSO_INS4_11tree_traitsIiS1_SJ_S3_S2_S7_EENSM_9null_typeEEEEEEES7_ED0Ev, symObjAddr: 0x190, symBinAddr: 0x10000281C, symSize: 0x28 }
  - { offsetInCU: 0x73F7, offset: 0x73F7, size: 0x8, addend: 0x0, symName: __ZN10__gnu_pbds12basic_branchIiNS_9null_typeENS_11rb_tree_tagENS_33tree_order_statistics_node_updateINS_6detail30bin_search_tree_const_node_it_INS4_13rb_tree_node_IimSaIcEEENS4_25bin_search_tree_const_it_IPS8_iPiPKiRiRSC_Lb1ES7_EESG_S7_EESH_St4lessIiES7_EEN9__gnu_cxx8typelist4nodeINSM_5chainISJ_NSO_INS4_11tree_traitsIiS1_SJ_S3_S2_S7_EENSM_9null_typeEEEEEEES7_ED2Ev, symObjAddr: 0x128, symBinAddr: 0x1000027B4, symSize: 0x34 }
  - { offsetInCU: 0x73FF, offset: 0x73FF, size: 0x8, addend: 0x0, symName: __ZN10__gnu_pbds12basic_branchIiNS_9null_typeENS_11rb_tree_tagENS_33tree_order_statistics_node_updateINS_6detail30bin_search_tree_const_node_it_INS4_13rb_tree_node_IimSaIcEEENS4_25bin_search_tree_const_it_IPS8_iPiPKiRiRSC_Lb1ES7_EESG_S7_EESH_St4lessIiES7_EEN9__gnu_cxx8typelist4nodeINSM_5chainISJ_NSO_INS4_11tree_traitsIiS1_SJ_S3_S2_S7_EENSM_9null_typeEEEEEEES7_ED1Ev, symObjAddr: 0x15C, symBinAddr: 0x1000027E8, symSize: 0x34 }
  - { offsetInCU: 0x743E, offset: 0x743E, size: 0x8, addend: 0x0, symName: __ZN10__gnu_pbds12basic_branchIiNS_9null_typeENS_11rb_tree_tagENS_33tree_order_statistics_node_updateINS_6detail30bin_search_tree_const_node_it_INS4_13rb_tree_node_IimSaIcEEENS4_25bin_search_tree_const_it_IPS8_iPiPKiRiRSC_Lb1ES7_EESG_S7_EESH_St4lessIiES7_EEN9__gnu_cxx8typelist4nodeINSM_5chainISJ_NSO_INS4_11tree_traitsIiS1_SJ_S3_S2_S7_EENSM_9null_typeEEEEEEES7_EC2Ev, symObjAddr: 0xF4, symBinAddr: 0x100002780, symSize: 0x34 }
  - { offsetInCU: 0x7446, offset: 0x7446, size: 0x8, addend: 0x0, symName: __ZN10__gnu_pbds12basic_branchIiNS_9null_typeENS_11rb_tree_tagENS_33tree_order_statistics_node_updateINS_6detail30bin_search_tree_const_node_it_INS4_13rb_tree_node_IimSaIcEEENS4_25bin_search_tree_const_it_IPS8_iPiPKiRiRSC_Lb1ES7_EESG_S7_EESH_St4lessIiES7_EEN9__gnu_cxx8typelist4nodeINSM_5chainISJ_NSO_INS4_11tree_traitsIiS1_SJ_S3_S2_S7_EENSM_9null_typeEEEEEEES7_ED2Ev, symObjAddr: 0x128, symBinAddr: 0x1000027B4, symSize: 0x34 }
  - { offsetInCU: 0x73C5, offset: 0x73C5, size: 0x8, addend: 0x0, symName: __ZN10__gnu_pbds6detail11rb_tree_setIiNS_9null_typeESt4lessIiENS0_11tree_traitsIiS2_S4_NS_33tree_order_statistics_node_updateENS_11rb_tree_tagESaIcEEES8_ED0Ev, symObjAddr: 0xCC, symBinAddr: 0x100002758, symSize: 0x28 }
  - { offsetInCU: 0x73CD, offset: 0x73CD, size: 0x8, addend: 0x0, symName: __ZN10__gnu_pbds12basic_branchIiNS_9null_typeENS_11rb_tree_tagENS_33tree_order_statistics_node_updateINS_6detail30bin_search_tree_const_node_it_INS4_13rb_tree_node_IimSaIcEEENS4_25bin_search_tree_const_it_IPS8_iPiPKiRiRSC_Lb1ES7_EESG_S7_EESH_St4lessIiES7_EEN9__gnu_cxx8typelist4nodeINSM_5chainISJ_NSO_INS4_11tree_traitsIiS1_SJ_S3_S2_S7_EENSM_9null_typeEEEEEEES7_EC2Ev, symObjAddr: 0xF4, symBinAddr: 0x100002780, symSize: 0x34 }
  - { offsetInCU: 0x73F3, offset: 0x73F3, size: 0x8, addend: 0x0, symName: __ZN10__gnu_pbds6detail11rb_tree_setIiNS_9null_typeESt4lessIiENS0_11tree_traitsIiS2_S4_NS_33tree_order_statistics_node_updateENS_11rb_tree_tagESaIcEEES8_ED1Ev, symObjAddr: 0x98, symBinAddr: 0x100002724, symSize: 0x34 }
  - { offsetInCU: 0x73FB, offset: 0x73FB, size: 0x8, addend: 0x0, symName: __ZN10__gnu_pbds6detail11rb_tree_setIiNS_9null_typeESt4lessIiENS0_11tree_traitsIiS2_S4_NS_33tree_order_statistics_node_updateENS_11rb_tree_tagESaIcEEES8_ED0Ev, symObjAddr: 0xCC, symBinAddr: 0x100002758, symSize: 0x28 }
  - { offsetInCU: 0x7421, offset: 0x7421, size: 0x8, addend: 0x0, symName: __ZN10__gnu_pbds6detail11rb_tree_setIiNS_9null_typeESt4lessIiENS0_11tree_traitsIiS2_S4_NS_33tree_order_statistics_node_updateENS_11rb_tree_tagESaIcEEES8_ED2Ev, symObjAddr: 0x64, symBinAddr: 0x1000026F0, symSize: 0x34 }
  - { offsetInCU: 0x7429, offset: 0x7429, size: 0x8, addend: 0x0, symName: __ZN10__gnu_pbds6detail11rb_tree_setIiNS_9null_typeESt4lessIiENS0_11tree_traitsIiS2_S4_NS_33tree_order_statistics_node_updateENS_11rb_tree_tagESaIcEEES8_ED1Ev, symObjAddr: 0x98, symBinAddr: 0x100002724, symSize: 0x34 }
  - { offsetInCU: 0x743B, offset: 0x743B, size: 0x8, addend: 0x0, symName: __ZN10__gnu_pbds4treeIiNS_9null_typeESt4lessIiENS_11rb_tree_tagENS_33tree_order_statistics_node_updateESaIcEEC1Ev, symObjAddr: 0x30, symBinAddr: 0x1000026BC, symSize: 0x34 }
  - { offsetInCU: 0x7443, offset: 0x7443, size: 0x8, addend: 0x0, symName: __ZN10__gnu_pbds6detail11rb_tree_setIiNS_9null_typeESt4lessIiENS0_11tree_traitsIiS2_S4_NS_33tree_order_statistics_node_updateENS_11rb_tree_tagESaIcEEES8_ED2Ev, symObjAddr: 0x64, symBinAddr: 0x1000026F0, symSize: 0x34 }
  - { offsetInCU: 0x7402, offset: 0x7402, size: 0x8, addend: 0x0, symName: _main, symObjAddr: 0x0, symBinAddr: 0x10000268C, symSize: 0x30 }
  - { offsetInCU: 0x740A, offset: 0x740A, size: 0x8, addend: 0x0, symName: __ZN10__gnu_pbds4treeIiNS_9null_typeESt4lessIiENS_11rb_tree_tagENS_33tree_order_statistics_node_updateESaIcEEC1Ev, symObjAddr: 0x30, symBinAddr: 0x1000026BC, symSize: 0x34 }
...
