---
triple:          'arm64-apple-darwin'
binary-path:     '/Users/dingkai/Code/IOI2024/luoguP2015.gout'
relocations:
  - { offsetInCU: 0xB8, offset: 0xB8, size: 0x8, addend: 0x0, symName: __ZSt17__size_to_integerm, symObjAddr: 0x0, symBinAddr: 0x10000316C, symSize: 0x14 }
  - { offsetInCU: 0xB00D, offset: 0xB00D, size: 0x8, addend: 0x0, symName: __ZStL8__ioinit, symObjAddr: 0x54DB8, symBinAddr: 0x10001423C, symSize: 0x0 }
  - { offsetInCU: 0xB145, offset: 0xB145, size: 0x8, addend: 0x0, symName: _adj, symObjAddr: 0x54DC0, symBinAddr: 0x100014240, symSize: 0x0 }
  - { offsetInCU: 0xB275, offset: 0xB275, size: 0x8, addend: 0x0, symName: _dp, symObjAddr: 0x54DD8, symBinAddr: 0x100014258, symSize: 0x0 }
  - { offsetInCU: 0xB37E, offset: 0xB37E, size: 0x8, addend: 0x0, symName: _sumEdge, symObjAddr: 0x54DF0, symBinAddr: 0x100014270, symSize: 0x0 }
  - { offsetInCU: 0xB38E, offset: 0xB38E, size: 0x8, addend: 0x0, symName: _n, symObjAddr: 0x54E08, symBinAddr: 0x100014288, symSize: 0x0 }
  - { offsetInCU: 0xB3A4, offset: 0xB3A4, size: 0x8, addend: 0x0, symName: _q, symObjAddr: 0x54E0C, symBinAddr: 0x10001428C, symSize: 0x0 }
  - { offsetInCU: 0xB780, offset: 0xB780, size: 0x8, addend: 0x0, symName: __GLOBAL__sub_I_luoguP2015.cpp, symObjAddr: 0x6EF4, symBinAddr: 0x10000A060, symSize: 0x14 }
  - { offsetInCU: 0xB7C1, offset: 0xB7C1, size: 0x8, addend: 0x0, symName: __ZNSt6vectorIS_IiSaIiEESaIS1_EED1Ev, symObjAddr: 0x6E98, symBinAddr: 0x10000A004, symSize: 0x5C }
  - { offsetInCU: 0xB848, offset: 0xB848, size: 0x8, addend: 0x0, symName: __ZNSt6vectorIS_ISt5arrayIiLm2EESaIS1_EESaIS3_EED1Ev, symObjAddr: 0x6E3C, symBinAddr: 0x100009FA8, symSize: 0x5C }
  - { offsetInCU: 0xB891, offset: 0xB891, size: 0x8, addend: 0x0, symName: __Z41__static_initialization_and_destruction_0v, symObjAddr: 0x6D88, symBinAddr: 0x100009EF4, symSize: 0xB4 }
  - { offsetInCU: 0xB881, offset: 0xB881, size: 0x8, addend: 0x0, symName: __ZNSt11__copy_moveILb0ELb0ESt26random_access_iterator_tagE12__assign_oneIiiEEvPT_PT0_, symObjAddr: 0x6D60, symBinAddr: 0x100009ECC, symSize: 0x28 }
  - { offsetInCU: 0xB8CB, offset: 0xB8CB, size: 0x8, addend: 0x0, symName: __ZNSt11__copy_moveILb0ELb0ESt26random_access_iterator_tagE12__assign_oneIiKiEEvPT_PT0_, symObjAddr: 0x6D38, symBinAddr: 0x100009EA4, symSize: 0x28 }
  - { offsetInCU: 0xB915, offset: 0xB915, size: 0x8, addend: 0x0, symName: __ZNSt11__copy_moveILb0ELb0ESt26random_access_iterator_tagE12__assign_oneISt5arrayIiLm2EES4_EEvPT_PT0_, symObjAddr: 0x6D10, symBinAddr: 0x100009E7C, symSize: 0x28 }
  - { offsetInCU: 0xB95F, offset: 0xB95F, size: 0x8, addend: 0x0, symName: __ZNSt11__copy_moveILb0ELb0ESt26random_access_iterator_tagE12__assign_oneISt5arrayIiLm2EEKS4_EEvPT_PT0_, symObjAddr: 0x6CE8, symBinAddr: 0x100009E54, symSize: 0x28 }
  - { offsetInCU: 0xB9A9, offset: 0xB9A9, size: 0x8, addend: 0x0, symName: __ZNSt11__copy_moveILb0ELb1ESt26random_access_iterator_tagE8__copy_mIiiEEPT0_PT_S6_S4_, symObjAddr: 0x6C58, symBinAddr: 0x100009DC4, symSize: 0x90 }
  - { offsetInCU: 0xBA13, offset: 0xBA13, size: 0x8, addend: 0x0, symName: __ZNSt11__copy_moveILb0ELb1ESt26random_access_iterator_tagE8__copy_mIKiiEEPT0_PT_S7_S5_, symObjAddr: 0x6BC8, symBinAddr: 0x100009D34, symSize: 0x90 }
  - { offsetInCU: 0xBA83, offset: 0xBA83, size: 0x8, addend: 0x0, symName: __ZSt4moveIRSaIiEEONSt16remove_referenceIT_E4typeEOS3_, symObjAddr: 0x6BB4, symBinAddr: 0x100009D20, symSize: 0x14 }
  - { offsetInCU: 0xBAB7, offset: 0xBAB7, size: 0x8, addend: 0x0, symName: __ZNSt12_Vector_baseIiSaIiEE17_Vector_impl_data12_M_copy_dataERKS2_, symObjAddr: 0x6B6C, symBinAddr: 0x100009CD8, symSize: 0x48 }
  - { offsetInCU: 0xBB33, offset: 0xBB33, size: 0x8, addend: 0x0, symName: __ZNSt12_Vector_baseIiSaIiEEC2ERKS0_, symObjAddr: 0x6B44, symBinAddr: 0x100009CB0, symSize: 0x28 }
  - { offsetInCU: 0xBB3B, offset: 0xBB3B, size: 0x8, addend: 0x0, symName: __ZSt13__copy_move_aILb0EN9__gnu_cxx17__normal_iteratorIPKiSt6vectorIiSaIiEEEEPiET1_T0_SA_S9_, symObjAddr: 0x6AE4, symBinAddr: 0x100009C50, symSize: 0x60 }
  - { offsetInCU: 0xBB9F, offset: 0xBB9F, size: 0x8, addend: 0x0, symName: __ZNSt11__copy_moveILb0ELb1ESt26random_access_iterator_tagE8__copy_mISt5arrayIiLm2EES4_EEPT0_PT_S8_S6_, symObjAddr: 0x6A54, symBinAddr: 0x100009BC0, symSize: 0x90 }
  - { offsetInCU: 0xBC09, offset: 0xBC09, size: 0x8, addend: 0x0, symName: __ZNSt11__copy_moveILb0ELb1ESt26random_access_iterator_tagE8__copy_mIKSt5arrayIiLm2EES4_EEPT0_PT_S9_S7_, symObjAddr: 0x69C4, symBinAddr: 0x100009B30, symSize: 0x90 }
  - { offsetInCU: 0xBC79, offset: 0xBC79, size: 0x8, addend: 0x0, symName: __ZSt4moveIRSaISt5arrayIiLm2EEEEONSt16remove_referenceIT_E4typeEOS5_, symObjAddr: 0x69B0, symBinAddr: 0x100009B1C, symSize: 0x14 }
  - { offsetInCU: 0xBCAD, offset: 0xBCAD, size: 0x8, addend: 0x0, symName: __ZNSt12_Vector_baseISt5arrayIiLm2EESaIS1_EE17_Vector_impl_data12_M_copy_dataERKS4_, symObjAddr: 0x6968, symBinAddr: 0x100009AD4, symSize: 0x48 }
  - { offsetInCU: 0xBD39, offset: 0xBD39, size: 0x8, addend: 0x0, symName: __ZNSt12_Vector_baseISt5arrayIiLm2EESaIS1_EEC2ERKS2_, symObjAddr: 0x6940, symBinAddr: 0x100009AAC, symSize: 0x28 }
  - { offsetInCU: 0xBD31, offset: 0xBD31, size: 0x8, addend: 0x0, symName: __ZSt13__copy_move_aILb0EN9__gnu_cxx17__normal_iteratorIPKSt5arrayIiLm2EESt6vectorIS3_SaIS3_EEEEPS3_ET1_T0_SC_SB_, symObjAddr: 0x68E0, symBinAddr: 0x100009A4C, symSize: 0x60 }
  - { offsetInCU: 0xBD95, offset: 0xBD95, size: 0x8, addend: 0x0, symName: __ZSt14__copy_move_a2ILb0EPiS0_ET1_T0_S2_S1_, symObjAddr: 0x68B4, symBinAddr: 0x100009A20, symSize: 0x2C }
  - { offsetInCU: 0xBDFD, offset: 0xBDFD, size: 0x8, addend: 0x0, symName: __ZNK9__gnu_cxx17__normal_iteratorIPiSt6vectorIiSaIiEEEplEl, symObjAddr: 0x6874, symBinAddr: 0x1000099E0, symSize: 0x40 }
  - { offsetInCU: 0xBE31, offset: 0xBE31, size: 0x8, addend: 0x0, symName: __ZSt14__copy_move_a2ILb0EPKiPiET1_T0_S4_S3_, symObjAddr: 0x6848, symBinAddr: 0x1000099B4, symSize: 0x2C }
  - { offsetInCU: 0xBE99, offset: 0xBE99, size: 0x8, addend: 0x0, symName: __ZNK9__gnu_cxx17__normal_iteratorIPiSt6vectorIiSaIiEEE4baseEv, symObjAddr: 0x6834, symBinAddr: 0x1000099A0, symSize: 0x14 }
  - { offsetInCU: 0xBEC1, offset: 0xBEC1, size: 0x8, addend: 0x0, symName: __ZNK9__gnu_cxx17__normal_iteratorIPKiSt6vectorIiSaIiEEE4baseEv, symObjAddr: 0x6820, symBinAddr: 0x10000998C, symSize: 0x14 }
  - { offsetInCU: 0xBF13, offset: 0xBF13, size: 0x8, addend: 0x0, symName: __ZNSt12_Vector_baseIiSaIiEE17_Vector_impl_data12_M_swap_dataERS2_, symObjAddr: 0x67D4, symBinAddr: 0x100009940, symSize: 0x4C }
  - { offsetInCU: 0xBF97, offset: 0xBF97, size: 0x8, addend: 0x0, symName: __ZNSt6vectorIiSaIiEEC1ERKS0_, symObjAddr: 0x67AC, symBinAddr: 0x100009918, symSize: 0x28 }
  - { offsetInCU: 0xBFAA, offset: 0xBFAA, size: 0x8, addend: 0x0, symName: __ZNKSt12_Vector_baseIiSaIiEE13get_allocatorEv, symObjAddr: 0x675C, symBinAddr: 0x1000098C8, symSize: 0x50 }
  - { offsetInCU: 0xC07B, offset: 0xC07B, size: 0x8, addend: 0x0, symName: __ZNSt12_Vector_baseIiSaIiEE17_Vector_impl_dataC2EOS2_, symObjAddr: 0x66EC, symBinAddr: 0x100009858, symSize: 0x70 }
  - { offsetInCU: 0xC07D, offset: 0xC07D, size: 0x8, addend: 0x0, symName: __ZSt4moveIRNSt12_Vector_baseIiSaIiEE12_Vector_implEEONSt16remove_referenceIT_E4typeEOS6_, symObjAddr: 0x66D8, symBinAddr: 0x100009844, symSize: 0x14 }
  - { offsetInCU: 0xC0B1, offset: 0xC0B1, size: 0x8, addend: 0x0, symName: __ZNKSt13move_iteratorIPSt6vectorIiSaIiEEE4baseEv, symObjAddr: 0x66C0, symBinAddr: 0x10000982C, symSize: 0x18 }
  - { offsetInCU: 0xC0D5, offset: 0xC0D5, size: 0x8, addend: 0x0, symName: __ZSt4copyIN9__gnu_cxx17__normal_iteratorIPKiSt6vectorIiSaIiEEEEPiET0_T_SA_S9_, symObjAddr: 0x6678, symBinAddr: 0x1000097E4, symSize: 0x48 }
  - { offsetInCU: 0xC12F, offset: 0xC12F, size: 0x8, addend: 0x0, symName: __ZSt14__copy_move_a2ILb0EPSt5arrayIiLm2EES2_ET1_T0_S4_S3_, symObjAddr: 0x664C, symBinAddr: 0x1000097B8, symSize: 0x2C }
  - { offsetInCU: 0xC197, offset: 0xC197, size: 0x8, addend: 0x0, symName: __ZNK9__gnu_cxx17__normal_iteratorIPSt5arrayIiLm2EESt6vectorIS2_SaIS2_EEEplEl, symObjAddr: 0x660C, symBinAddr: 0x100009778, symSize: 0x40 }
  - { offsetInCU: 0xC1CB, offset: 0xC1CB, size: 0x8, addend: 0x0, symName: __ZSt14__copy_move_a2ILb0EPKSt5arrayIiLm2EEPS1_ET1_T0_S6_S5_, symObjAddr: 0x65E0, symBinAddr: 0x10000974C, symSize: 0x2C }
  - { offsetInCU: 0xC233, offset: 0xC233, size: 0x8, addend: 0x0, symName: __ZNK9__gnu_cxx17__normal_iteratorIPKSt5arrayIiLm2EESt6vectorIS2_SaIS2_EEE4baseEv, symObjAddr: 0x65CC, symBinAddr: 0x100009738, symSize: 0x14 }
  - { offsetInCU: 0xC285, offset: 0xC285, size: 0x8, addend: 0x0, symName: __ZNSt12_Vector_baseISt5arrayIiLm2EESaIS1_EE17_Vector_impl_data12_M_swap_dataERS4_, symObjAddr: 0x6580, symBinAddr: 0x1000096EC, symSize: 0x4C }
  - { offsetInCU: 0xC319, offset: 0xC319, size: 0x8, addend: 0x0, symName: __ZNSt6vectorISt5arrayIiLm2EESaIS1_EEC1ERKS2_, symObjAddr: 0x6558, symBinAddr: 0x1000096C4, symSize: 0x28 }
  - { offsetInCU: 0xC31C, offset: 0xC31C, size: 0x8, addend: 0x0, symName: __ZNKSt12_Vector_baseISt5arrayIiLm2EESaIS1_EE13get_allocatorEv, symObjAddr: 0x6508, symBinAddr: 0x100009674, symSize: 0x50 }
  - { offsetInCU: 0xC3FD, offset: 0xC3FD, size: 0x8, addend: 0x0, symName: __ZNSt12_Vector_baseISt5arrayIiLm2EESaIS1_EE17_Vector_impl_dataC2EOS4_, symObjAddr: 0x6498, symBinAddr: 0x100009604, symSize: 0x70 }
  - { offsetInCU: 0xC3EF, offset: 0xC3EF, size: 0x8, addend: 0x0, symName: __ZSt4moveIRNSt12_Vector_baseISt5arrayIiLm2EESaIS2_EE12_Vector_implEEONSt16remove_referenceIT_E4typeEOS8_, symObjAddr: 0x6484, symBinAddr: 0x1000095F0, symSize: 0x14 }
  - { offsetInCU: 0xC423, offset: 0xC423, size: 0x8, addend: 0x0, symName: __ZNKSt13move_iteratorIPSt6vectorISt5arrayIiLm2EESaIS2_EEE4baseEv, symObjAddr: 0x646C, symBinAddr: 0x1000095D8, symSize: 0x18 }
  - { offsetInCU: 0xC447, offset: 0xC447, size: 0x8, addend: 0x0, symName: __ZSt4copyIN9__gnu_cxx17__normal_iteratorIPKSt5arrayIiLm2EESt6vectorIS3_SaIS3_EEEEPS3_ET0_T_SC_SB_, symObjAddr: 0x6424, symBinAddr: 0x100009590, symSize: 0x48 }
  - { offsetInCU: 0xC4BA, offset: 0xC4BA, size: 0x8, addend: 0x0, symName: __ZNSt20__uninitialized_copyILb1EE13__uninit_copyIPiS2_EET0_T_S4_S3_, symObjAddr: 0x63F8, symBinAddr: 0x100009564, symSize: 0x2C }
  - { offsetInCU: 0xC511, offset: 0xC511, size: 0x8, addend: 0x0, symName: __ZSt12__niter_wrapIPiET_RKS1_S1_, symObjAddr: 0x63E0, symBinAddr: 0x10000954C, symSize: 0x18 }
  - { offsetInCU: 0xC54A, offset: 0xC54A, size: 0x8, addend: 0x0, symName: __ZSt14__copy_move_a1ILb0EPiS0_ET1_T0_S2_S1_, symObjAddr: 0x63B4, symBinAddr: 0x100009520, symSize: 0x2C }
  - { offsetInCU: 0xC5AE, offset: 0xC5AE, size: 0x8, addend: 0x0, symName: __ZNSt12_Destroy_auxILb1EE9__destroyIN9__gnu_cxx17__normal_iteratorIPiSt6vectorIiSaIiEEEEEEvT_S9_, symObjAddr: 0x639C, symBinAddr: 0x100009508, symSize: 0x18 }
  - { offsetInCU: 0xC5DF, offset: 0xC5DF, size: 0x8, addend: 0x0, symName: __ZSt12__niter_wrapIN9__gnu_cxx17__normal_iteratorIPiSt6vectorIiSaIiEEEES2_ET_S7_T0_, symObjAddr: 0x6360, symBinAddr: 0x1000094CC, symSize: 0x3C }
  - { offsetInCU: 0xC629, offset: 0xC629, size: 0x8, addend: 0x0, symName: __ZSt14__copy_move_a1ILb0EPKiPiET1_T0_S4_S3_, symObjAddr: 0x6334, symBinAddr: 0x1000094A0, symSize: 0x2C }
  - { offsetInCU: 0xC68D, offset: 0xC68D, size: 0x8, addend: 0x0, symName: __ZSt12__niter_baseIPiSt6vectorIiSaIiEEET_N9__gnu_cxx17__normal_iteratorIS4_T0_EE, symObjAddr: 0x6314, symBinAddr: 0x100009480, symSize: 0x20 }
  - { offsetInCU: 0xC6C7, offset: 0xC6C7, size: 0x8, addend: 0x0, symName: __ZSt12__niter_baseIPKiSt6vectorIiSaIiEEET_N9__gnu_cxx17__normal_iteratorIS5_T0_EE, symObjAddr: 0x62F4, symBinAddr: 0x100009460, symSize: 0x20 }
  - { offsetInCU: 0xC705, offset: 0xC705, size: 0x8, addend: 0x0, symName: __ZNSt6vectorIiSaIiEE14_M_move_assignEOS1_St17integral_constantIbLb1EE, symObjAddr: 0x6260, symBinAddr: 0x1000093CC, symSize: 0x94 }
  - { offsetInCU: 0xC7F0, offset: 0xC7F0, size: 0x8, addend: 0x0, symName: __ZNSt12_Vector_baseIiSaIiEE12_Vector_implC1EOS2_, symObjAddr: 0x61F4, symBinAddr: 0x100009360, symSize: 0x6C }
  - { offsetInCU: 0xC843, offset: 0xC843, size: 0x8, addend: 0x0, symName: __ZSt7forwardISt6vectorIiSaIiEEEOT_RNSt16remove_referenceIS3_E4typeE, symObjAddr: 0x61E0, symBinAddr: 0x10000934C, symSize: 0x14 }
  - { offsetInCU: 0xC879, offset: 0xC879, size: 0x8, addend: 0x0, symName: __ZSteqIPSt6vectorIiSaIiEEEbRKSt13move_iteratorIT_ES8_, symObjAddr: 0x61A0, symBinAddr: 0x10000930C, symSize: 0x40 }
  - { offsetInCU: 0xC8BA, offset: 0xC8BA, size: 0x8, addend: 0x0, symName: __ZNSt20__uninitialized_copyILb1EE13__uninit_copyIN9__gnu_cxx17__normal_iteratorIPKiSt6vectorIiSaIiEEEEPiEET0_T_SC_SB_, symObjAddr: 0x6174, symBinAddr: 0x1000092E0, symSize: 0x2C }
  - { offsetInCU: 0xC911, offset: 0xC911, size: 0x8, addend: 0x0, symName: __ZSt9__fill_a1IPiiEN9__gnu_cxx11__enable_ifIXsrSt11__is_scalarIT0_E7__valueEvE6__typeET_S8_RKS4_, symObjAddr: 0x611C, symBinAddr: 0x100009288, symSize: 0x58 }
  - { offsetInCU: 0xC97B, offset: 0xC97B, size: 0x8, addend: 0x0, symName: __ZNSt20__uninitialized_copyILb1EE13__uninit_copyIPSt5arrayIiLm2EES4_EET0_T_S6_S5_, symObjAddr: 0x60F0, symBinAddr: 0x10000925C, symSize: 0x2C }
  - { offsetInCU: 0xC9D2, offset: 0xC9D2, size: 0x8, addend: 0x0, symName: __ZSt12__niter_wrapIPSt5arrayIiLm2EEET_RKS3_S3_, symObjAddr: 0x60D8, symBinAddr: 0x100009244, symSize: 0x18 }
  - { offsetInCU: 0xCA0B, offset: 0xCA0B, size: 0x8, addend: 0x0, symName: __ZSt14__copy_move_a1ILb0EPSt5arrayIiLm2EES2_ET1_T0_S4_S3_, symObjAddr: 0x60AC, symBinAddr: 0x100009218, symSize: 0x2C }
  - { offsetInCU: 0xCA6F, offset: 0xCA6F, size: 0x8, addend: 0x0, symName: __ZNSt12_Destroy_auxILb1EE9__destroyIN9__gnu_cxx17__normal_iteratorIPSt5arrayIiLm2EESt6vectorIS5_SaIS5_EEEEEEvT_SB_, symObjAddr: 0x6094, symBinAddr: 0x100009200, symSize: 0x18 }
  - { offsetInCU: 0xCAA0, offset: 0xCAA0, size: 0x8, addend: 0x0, symName: __ZSt12__niter_wrapIN9__gnu_cxx17__normal_iteratorIPSt5arrayIiLm2EESt6vectorIS3_SaIS3_EEEES4_ET_S9_T0_, symObjAddr: 0x6058, symBinAddr: 0x1000091C4, symSize: 0x3C }
  - { offsetInCU: 0xCAEA, offset: 0xCAEA, size: 0x8, addend: 0x0, symName: __ZSt14__copy_move_a1ILb0EPKSt5arrayIiLm2EEPS1_ET1_T0_S6_S5_, symObjAddr: 0x602C, symBinAddr: 0x100009198, symSize: 0x2C }
  - { offsetInCU: 0xCB4E, offset: 0xCB4E, size: 0x8, addend: 0x0, symName: __ZSt12__niter_baseIPSt5arrayIiLm2EESt6vectorIS1_SaIS1_EEET_N9__gnu_cxx17__normal_iteratorIS6_T0_EE, symObjAddr: 0x600C, symBinAddr: 0x100009178, symSize: 0x20 }
  - { offsetInCU: 0xCB88, offset: 0xCB88, size: 0x8, addend: 0x0, symName: __ZSt12__niter_baseIPKSt5arrayIiLm2EESt6vectorIS1_SaIS1_EEET_N9__gnu_cxx17__normal_iteratorIS7_T0_EE, symObjAddr: 0x5FEC, symBinAddr: 0x100009158, symSize: 0x20 }
  - { offsetInCU: 0xCBC6, offset: 0xCBC6, size: 0x8, addend: 0x0, symName: __ZNSt6vectorISt5arrayIiLm2EESaIS1_EE14_M_move_assignEOS3_St17integral_constantIbLb1EE, symObjAddr: 0x5F58, symBinAddr: 0x1000090C4, symSize: 0x94 }
  - { offsetInCU: 0xCCC1, offset: 0xCCC1, size: 0x8, addend: 0x0, symName: __ZNSt12_Vector_baseISt5arrayIiLm2EESaIS1_EE12_Vector_implC1EOS4_, symObjAddr: 0x5EEC, symBinAddr: 0x100009058, symSize: 0x6C }
  - { offsetInCU: 0xCD04, offset: 0xCD04, size: 0x8, addend: 0x0, symName: __ZSt7forwardISt6vectorISt5arrayIiLm2EESaIS2_EEEOT_RNSt16remove_referenceIS5_E4typeE, symObjAddr: 0x5ED8, symBinAddr: 0x100009044, symSize: 0x14 }
  - { offsetInCU: 0xCD3A, offset: 0xCD3A, size: 0x8, addend: 0x0, symName: __ZSteqIPSt6vectorISt5arrayIiLm2EESaIS2_EEEbRKSt13move_iteratorIT_ESA_, symObjAddr: 0x5E98, symBinAddr: 0x100009004, symSize: 0x40 }
  - { offsetInCU: 0xCD7B, offset: 0xCD7B, size: 0x8, addend: 0x0, symName: __ZNSt20__uninitialized_copyILb1EE13__uninit_copyIN9__gnu_cxx17__normal_iteratorIPKSt5arrayIiLm2EESt6vectorIS5_SaIS5_EEEEPS5_EET0_T_SE_SD_, symObjAddr: 0x5E6C, symBinAddr: 0x100008FD8, symSize: 0x2C }
  - { offsetInCU: 0xCE06, offset: 0xCE06, size: 0x8, addend: 0x0, symName: __ZSt18uninitialized_copyIPiS0_ET0_T_S2_S1_, symObjAddr: 0x5E30, symBinAddr: 0x100008F9C, symSize: 0x3C }
  - { offsetInCU: 0xCE7B, offset: 0xCE7B, size: 0x8, addend: 0x0, symName: __ZSt13__copy_move_aILb0EPiS0_ET1_T0_S2_S1_, symObjAddr: 0x5DD0, symBinAddr: 0x100008F3C, symSize: 0x60 }
  - { offsetInCU: 0xCEDF, offset: 0xCEDF, size: 0x8, addend: 0x0, symName: __ZSt12__miter_baseIPiET_S1_, symObjAddr: 0x5DBC, symBinAddr: 0x100008F28, symSize: 0x14 }
  - { offsetInCU: 0xCF10, offset: 0xCF10, size: 0x8, addend: 0x0, symName: __ZSt8_DestroyIN9__gnu_cxx17__normal_iteratorIPiSt6vectorIiSaIiEEEEEvT_S7_, symObjAddr: 0x5D94, symBinAddr: 0x100008F00, symSize: 0x28 }
  - { offsetInCU: 0xCF4F, offset: 0xCF4F, size: 0x8, addend: 0x0, symName: __ZSt13__copy_move_aILb0EN9__gnu_cxx17__normal_iteratorIPKiSt6vectorIiSaIiEEEENS1_IPiS6_EEET1_T0_SB_SA_, symObjAddr: 0x5D34, symBinAddr: 0x100008EA0, symSize: 0x60 }
  - { offsetInCU: 0xCFB3, offset: 0xCFB3, size: 0x8, addend: 0x0, symName: __ZSt12__miter_baseIN9__gnu_cxx17__normal_iteratorIPKiSt6vectorIiSaIiEEEEET_S8_, symObjAddr: 0x5D20, symBinAddr: 0x100008E8C, symSize: 0x14 }
  - { offsetInCU: 0xD047, offset: 0xD047, size: 0x8, addend: 0x0, symName: __ZN9__gnu_cxx17__normal_iteratorIPiSt6vectorIiSaIiEEEC1ERKS1_, symObjAddr: 0x5CF8, symBinAddr: 0x100008E64, symSize: 0x28 }
  - { offsetInCU: 0xD039, offset: 0xD039, size: 0x8, addend: 0x0, symName: __ZNSt6vectorIiSaIiEEaSEOS1_, symObjAddr: 0x5CB4, symBinAddr: 0x100008E20, symSize: 0x44 }
  - { offsetInCU: 0xD083, offset: 0xD083, size: 0x8, addend: 0x0, symName: __ZSt4moveIRSt6vectorIiSaIiEEEONSt16remove_referenceIT_E4typeEOS5_, symObjAddr: 0x5CA0, symBinAddr: 0x100008E0C, symSize: 0x14 }
  - { offsetInCU: 0xD0B3, offset: 0xD0B3, size: 0x8, addend: 0x0, symName: __ZSt10_ConstructISt6vectorIiSaIiEEJS2_EEvPT_DpOT0_, symObjAddr: 0x5C54, symBinAddr: 0x100008DC0, symSize: 0x4C }
  - { offsetInCU: 0xD134, offset: 0xD134, size: 0x8, addend: 0x0, symName: __ZNSt6vectorIiSaIiEEC1EOS1_, symObjAddr: 0x5C2C, symBinAddr: 0x100008D98, symSize: 0x28 }
  - { offsetInCU: 0xD184, offset: 0xD184, size: 0x8, addend: 0x0, symName: __ZNSt12_Vector_baseIiSaIiEEC2EOS1_, symObjAddr: 0x5C04, symBinAddr: 0x100008D70, symSize: 0x28 }
  - { offsetInCU: 0xD191, offset: 0xD191, size: 0x8, addend: 0x0, symName: __ZNKSt13move_iteratorIPSt6vectorIiSaIiEEEdeEv, symObjAddr: 0x5BEC, symBinAddr: 0x100008D58, symSize: 0x18 }
  - { offsetInCU: 0xD1B9, offset: 0xD1B9, size: 0x8, addend: 0x0, symName: __ZNSt13move_iteratorIPSt6vectorIiSaIiEEEppEv, symObjAddr: 0x5BC4, symBinAddr: 0x100008D30, symSize: 0x28 }
  - { offsetInCU: 0xD1DD, offset: 0xD1DD, size: 0x8, addend: 0x0, symName: __ZStneIPSt6vectorIiSaIiEEEbRKSt13move_iteratorIT_ES8_, symObjAddr: 0x5B94, symBinAddr: 0x100008D00, symSize: 0x30 }
  - { offsetInCU: 0xD21E, offset: 0xD21E, size: 0x8, addend: 0x0, symName: __ZSt18uninitialized_copyIN9__gnu_cxx17__normal_iteratorIPKiSt6vectorIiSaIiEEEEPiET0_T_SA_S9_, symObjAddr: 0x5B58, symBinAddr: 0x100008CC4, symSize: 0x3C }
  - { offsetInCU: 0xD2F7, offset: 0xD2F7, size: 0x8, addend: 0x0, symName: __ZN9__gnu_cxx17__normal_iteratorIPKiSt6vectorIiSaIiEEEC1ERKS2_, symObjAddr: 0x5B30, symBinAddr: 0x100008C9C, symSize: 0x28 }
  - { offsetInCU: 0xD2F8, offset: 0xD2F8, size: 0x8, addend: 0x0, symName: __ZSt8__fill_aIPiiEvT_S1_RKT0_, symObjAddr: 0x5B00, symBinAddr: 0x100008C6C, symSize: 0x30 }
  - { offsetInCU: 0xD352, offset: 0xD352, size: 0x8, addend: 0x0, symName: __ZSt18uninitialized_copyIPSt5arrayIiLm2EES2_ET0_T_S4_S3_, symObjAddr: 0x5AC4, symBinAddr: 0x100008C30, symSize: 0x3C }
  - { offsetInCU: 0xD3C7, offset: 0xD3C7, size: 0x8, addend: 0x0, symName: __ZSt13__copy_move_aILb0EPSt5arrayIiLm2EES2_ET1_T0_S4_S3_, symObjAddr: 0x5A64, symBinAddr: 0x100008BD0, symSize: 0x60 }
  - { offsetInCU: 0xD42B, offset: 0xD42B, size: 0x8, addend: 0x0, symName: __ZSt12__miter_baseIPSt5arrayIiLm2EEET_S3_, symObjAddr: 0x5A50, symBinAddr: 0x100008BBC, symSize: 0x14 }
  - { offsetInCU: 0xD45C, offset: 0xD45C, size: 0x8, addend: 0x0, symName: __ZSt8_DestroyIN9__gnu_cxx17__normal_iteratorIPSt5arrayIiLm2EESt6vectorIS3_SaIS3_EEEEEvT_S9_, symObjAddr: 0x5A28, symBinAddr: 0x100008B94, symSize: 0x28 }
  - { offsetInCU: 0xD49B, offset: 0xD49B, size: 0x8, addend: 0x0, symName: __ZSt13__copy_move_aILb0EN9__gnu_cxx17__normal_iteratorIPKSt5arrayIiLm2EESt6vectorIS3_SaIS3_EEEENS1_IPS3_S8_EEET1_T0_SD_SC_, symObjAddr: 0x59C8, symBinAddr: 0x100008B34, symSize: 0x60 }
  - { offsetInCU: 0xD4FF, offset: 0xD4FF, size: 0x8, addend: 0x0, symName: __ZSt12__miter_baseIN9__gnu_cxx17__normal_iteratorIPKSt5arrayIiLm2EESt6vectorIS3_SaIS3_EEEEET_SA_, symObjAddr: 0x59B4, symBinAddr: 0x100008B20, symSize: 0x14 }
  - { offsetInCU: 0xD534, offset: 0xD534, size: 0x8, addend: 0x0, symName: __ZNSt6vectorISt5arrayIiLm2EESaIS1_EE15_M_erase_at_endEPS1_, symObjAddr: 0x592C, symBinAddr: 0x100008A98, symSize: 0x88 }
  - { offsetInCU: 0xD5C0, offset: 0xD5C0, size: 0x8, addend: 0x0, symName: __ZNSt6vectorISt5arrayIiLm2EESaIS1_EEaSEOS3_, symObjAddr: 0x58E8, symBinAddr: 0x100008A54, symSize: 0x44 }
  - { offsetInCU: 0xD60A, offset: 0xD60A, size: 0x8, addend: 0x0, symName: __ZSt4moveIRSt6vectorISt5arrayIiLm2EESaIS2_EEEONSt16remove_referenceIT_E4typeEOS7_, symObjAddr: 0x58D4, symBinAddr: 0x100008A40, symSize: 0x14 }
  - { offsetInCU: 0xD63A, offset: 0xD63A, size: 0x8, addend: 0x0, symName: __ZSt10_ConstructISt6vectorISt5arrayIiLm2EESaIS2_EEJS4_EEvPT_DpOT0_, symObjAddr: 0x5888, symBinAddr: 0x1000089F4, symSize: 0x4C }
  - { offsetInCU: 0xD6CB, offset: 0xD6CB, size: 0x8, addend: 0x0, symName: __ZNSt6vectorISt5arrayIiLm2EESaIS1_EEC1EOS3_, symObjAddr: 0x5860, symBinAddr: 0x1000089CC, symSize: 0x28 }
  - { offsetInCU: 0xD71B, offset: 0xD71B, size: 0x8, addend: 0x0, symName: __ZNSt12_Vector_baseISt5arrayIiLm2EESaIS1_EEC2EOS3_, symObjAddr: 0x5838, symBinAddr: 0x1000089A4, symSize: 0x28 }
  - { offsetInCU: 0xD718, offset: 0xD718, size: 0x8, addend: 0x0, symName: __ZNKSt13move_iteratorIPSt6vectorISt5arrayIiLm2EESaIS2_EEEdeEv, symObjAddr: 0x5820, symBinAddr: 0x10000898C, symSize: 0x18 }
  - { offsetInCU: 0xD740, offset: 0xD740, size: 0x8, addend: 0x0, symName: __ZNSt13move_iteratorIPSt6vectorISt5arrayIiLm2EESaIS2_EEEppEv, symObjAddr: 0x57F8, symBinAddr: 0x100008964, symSize: 0x28 }
  - { offsetInCU: 0xD764, offset: 0xD764, size: 0x8, addend: 0x0, symName: __ZStneIPSt6vectorISt5arrayIiLm2EESaIS2_EEEbRKSt13move_iteratorIT_ESA_, symObjAddr: 0x57C8, symBinAddr: 0x100008934, symSize: 0x30 }
  - { offsetInCU: 0xD7A5, offset: 0xD7A5, size: 0x8, addend: 0x0, symName: __ZSt18uninitialized_copyIN9__gnu_cxx17__normal_iteratorIPKSt5arrayIiLm2EESt6vectorIS3_SaIS3_EEEEPS3_ET0_T_SC_SB_, symObjAddr: 0x578C, symBinAddr: 0x1000088F8, symSize: 0x3C }
  - { offsetInCU: 0xD890, offset: 0xD890, size: 0x8, addend: 0x0, symName: __ZN9__gnu_cxx17__normal_iteratorIPKSt5arrayIiLm2EESt6vectorIS2_SaIS2_EEEC1ERKS4_, symObjAddr: 0x5764, symBinAddr: 0x1000088D0, symSize: 0x28 }
  - { offsetInCU: 0xD86F, offset: 0xD86F, size: 0x8, addend: 0x0, symName: __ZNSt12_Vector_baseISt5arrayIiLm2EESaIS1_EE17_M_create_storageEm, symObjAddr: 0x5704, symBinAddr: 0x100008870, symSize: 0x60 }
  - { offsetInCU: 0xD909, offset: 0xD909, size: 0x8, addend: 0x0, symName: __ZNSt12_Vector_baseISt5arrayIiLm2EESaIS1_EE12_Vector_implC1ERKS2_, symObjAddr: 0x56B8, symBinAddr: 0x100008824, symSize: 0x4C }
  - { offsetInCU: 0xD995, offset: 0xD995, size: 0x8, addend: 0x0, symName: __ZSt10_ConstructISt6vectorIiSaIiEEJRKS2_EEvPT_DpOT0_, symObjAddr: 0x563C, symBinAddr: 0x1000087A8, symSize: 0x7C }
  - { offsetInCU: 0xD9DD, offset: 0xD9DD, size: 0x8, addend: 0x0, symName: __ZSt22__uninitialized_copy_aIPiS0_iET0_T_S2_S1_RSaIT1_E, symObjAddr: 0x560C, symBinAddr: 0x100008778, symSize: 0x30 }
  - { offsetInCU: 0xDA48, offset: 0xDA48, size: 0x8, addend: 0x0, symName: __ZSt4copyIPiS0_ET0_T_S2_S1_, symObjAddr: 0x55C4, symBinAddr: 0x100008730, symSize: 0x48 }
  - { offsetInCU: 0xDADE, offset: 0xDADE, size: 0x8, addend: 0x0, symName: __ZNSt6vectorIiSaIiEE3endEv, symObjAddr: 0x559C, symBinAddr: 0x100008708, symSize: 0x28 }
  - { offsetInCU: 0xDB02, offset: 0xDB02, size: 0x8, addend: 0x0, symName: __ZSt4copyIN9__gnu_cxx17__normal_iteratorIPKiSt6vectorIiSaIiEEEENS1_IPiS6_EEET0_T_SB_SA_, symObjAddr: 0x5554, symBinAddr: 0x1000086C0, symSize: 0x48 }
  - { offsetInCU: 0xDB60, offset: 0xDB60, size: 0x8, addend: 0x0, symName: __ZNSt6vectorIiSaIiEE5beginEv, symObjAddr: 0x5530, symBinAddr: 0x10000869C, symSize: 0x24 }
  - { offsetInCU: 0xDB88, offset: 0xDB88, size: 0x8, addend: 0x0, symName: __ZNSt6vectorIiSaIiEE20_M_allocate_and_copyIN9__gnu_cxx17__normal_iteratorIPKiS1_EEEEPimT_S9_, symObjAddr: 0x54AC, symBinAddr: 0x100008618, symSize: 0x84 }
  - { offsetInCU: 0xDBF9, offset: 0xDBF9, size: 0x8, addend: 0x0, symName: __ZNKSt6vectorIiSaIiEE8capacityEv, symObjAddr: 0x5484, symBinAddr: 0x1000085F0, symSize: 0x28 }
  - { offsetInCU: 0xDC4B, offset: 0xDC4B, size: 0x8, addend: 0x0, symName: __ZNSt6vectorIiSaIiEE5clearEv, symObjAddr: 0x5458, symBinAddr: 0x1000085C4, symSize: 0x2C }
  - { offsetInCU: 0xDC80, offset: 0xDC80, size: 0x8, addend: 0x0, symName: __ZSt11__addressofIKSt6vectorIiSaIiEEEPT_RS4_, symObjAddr: 0x5444, symBinAddr: 0x1000085B0, symSize: 0x14 }
  - { offsetInCU: 0xDCB0, offset: 0xDCB0, size: 0x8, addend: 0x0, symName: __ZNSt20__copy_move_backwardILb1ELb0ESt26random_access_iterator_tagE13__copy_move_bIPSt6vectorIiSaIiEES6_EET0_T_S8_S7_, symObjAddr: 0x53BC, symBinAddr: 0x100008528, symSize: 0x88 }
  - { offsetInCU: 0xDD1A, offset: 0xDD1A, size: 0x8, addend: 0x0, symName: __ZSt16__do_uninit_copyISt13move_iteratorIPSt6vectorIiSaIiEEES4_ET0_T_S7_S6_, symObjAddr: 0x5310, symBinAddr: 0x10000847C, symSize: 0xAC }
  - { offsetInCU: 0xDD80, offset: 0xDD80, size: 0x8, addend: 0x0, symName: __ZSt22__uninitialized_copy_aIN9__gnu_cxx17__normal_iteratorIPKiSt6vectorIiSaIiEEEEPiiET0_T_SA_S9_RSaIT1_E, symObjAddr: 0x52E0, symBinAddr: 0x10000844C, symSize: 0x30 }
  - { offsetInCU: 0xDDEF, offset: 0xDDEF, size: 0x8, addend: 0x0, symName: __ZNKSt6vectorIiSaIiEE3endEv, symObjAddr: 0x52B8, symBinAddr: 0x100008424, symSize: 0x28 }
  - { offsetInCU: 0xDE17, offset: 0xDE17, size: 0x8, addend: 0x0, symName: __ZNKSt6vectorIiSaIiEE5beginEv, symObjAddr: 0x5294, symBinAddr: 0x100008400, symSize: 0x24 }
  - { offsetInCU: 0xDE4E, offset: 0xDE4E, size: 0x8, addend: 0x0, symName: __ZSt10__fill_n_aIPimiET_S1_T0_RKT1_St26random_access_iterator_tag, symObjAddr: 0x5230, symBinAddr: 0x10000839C, symSize: 0x64 }
  - { offsetInCU: 0xDEE2, offset: 0xDEE2, size: 0x8, addend: 0x0, symName: __ZSt10_ConstructISt6vectorISt5arrayIiLm2EESaIS2_EEJRKS4_EEvPT_DpOT0_, symObjAddr: 0x51B4, symBinAddr: 0x100008320, symSize: 0x7C }
  - { offsetInCU: 0xDF2A, offset: 0xDF2A, size: 0x8, addend: 0x0, symName: __ZSt22__uninitialized_copy_aIPSt5arrayIiLm2EES2_S1_ET0_T_S4_S3_RSaIT1_E, symObjAddr: 0x5184, symBinAddr: 0x1000082F0, symSize: 0x30 }
  - { offsetInCU: 0xDF95, offset: 0xDF95, size: 0x8, addend: 0x0, symName: __ZSt4copyIPSt5arrayIiLm2EES2_ET0_T_S4_S3_, symObjAddr: 0x513C, symBinAddr: 0x1000082A8, symSize: 0x48 }
  - { offsetInCU: 0xE027, offset: 0xE027, size: 0x8, addend: 0x0, symName: __ZSt4copyIN9__gnu_cxx17__normal_iteratorIPKSt5arrayIiLm2EESt6vectorIS3_SaIS3_EEEENS1_IPS3_S8_EEET0_T_SD_SC_, symObjAddr: 0x50F4, symBinAddr: 0x100008260, symSize: 0x48 }
  - { offsetInCU: 0xE085, offset: 0xE085, size: 0x8, addend: 0x0, symName: __ZNSt6vectorISt5arrayIiLm2EESaIS1_EE20_M_allocate_and_copyIN9__gnu_cxx17__normal_iteratorIPKS1_S3_EEEEPS1_mT_SB_, symObjAddr: 0x5070, symBinAddr: 0x1000081DC, symSize: 0x84 }
  - { offsetInCU: 0xE0F6, offset: 0xE0F6, size: 0x8, addend: 0x0, symName: __ZNKSt6vectorISt5arrayIiLm2EESaIS1_EE8capacityEv, symObjAddr: 0x5048, symBinAddr: 0x1000081B4, symSize: 0x28 }
  - { offsetInCU: 0xE148, offset: 0xE148, size: 0x8, addend: 0x0, symName: __ZNSt6vectorISt5arrayIiLm2EESaIS1_EE5clearEv, symObjAddr: 0x501C, symBinAddr: 0x100008188, symSize: 0x2C }
  - { offsetInCU: 0xE17D, offset: 0xE17D, size: 0x8, addend: 0x0, symName: __ZSt11__addressofIKSt6vectorISt5arrayIiLm2EESaIS2_EEEPT_RS6_, symObjAddr: 0x5008, symBinAddr: 0x100008174, symSize: 0x14 }
  - { offsetInCU: 0xE1AD, offset: 0xE1AD, size: 0x8, addend: 0x0, symName: __ZNSt20__copy_move_backwardILb1ELb0ESt26random_access_iterator_tagE13__copy_move_bIPSt6vectorISt5arrayIiLm2EESaIS5_EES8_EET0_T_SA_S9_, symObjAddr: 0x4F80, symBinAddr: 0x1000080EC, symSize: 0x88 }
  - { offsetInCU: 0xE217, offset: 0xE217, size: 0x8, addend: 0x0, symName: __ZSt16__do_uninit_copyISt13move_iteratorIPSt6vectorISt5arrayIiLm2EESaIS3_EEES6_ET0_T_S9_S8_, symObjAddr: 0x4ED4, symBinAddr: 0x100008040, symSize: 0xAC }
  - { offsetInCU: 0xE27D, offset: 0xE27D, size: 0x8, addend: 0x0, symName: __ZSt22__uninitialized_copy_aIN9__gnu_cxx17__normal_iteratorIPKSt5arrayIiLm2EESt6vectorIS3_SaIS3_EEEEPS3_S3_ET0_T_SC_SB_RSaIT1_E, symObjAddr: 0x4EA4, symBinAddr: 0x100008010, symSize: 0x30 }
  - { offsetInCU: 0xE2EC, offset: 0xE2EC, size: 0x8, addend: 0x0, symName: __ZNKSt6vectorISt5arrayIiLm2EESaIS1_EE3endEv, symObjAddr: 0x4E7C, symBinAddr: 0x100007FE8, symSize: 0x28 }
  - { offsetInCU: 0xE314, offset: 0xE314, size: 0x8, addend: 0x0, symName: __ZNKSt6vectorISt5arrayIiLm2EESaIS1_EE5beginEv, symObjAddr: 0x4E58, symBinAddr: 0x100007FC4, symSize: 0x24 }
  - { offsetInCU: 0xE39F, offset: 0xE39F, size: 0x8, addend: 0x0, symName: __ZNSt12_Vector_baseISt5arrayIiLm2EESaIS1_EEC2EmRKS2_, symObjAddr: 0x4E04, symBinAddr: 0x100007F70, symSize: 0x54 }
  - { offsetInCU: 0xE3B1, offset: 0xE3B1, size: 0x8, addend: 0x0, symName: __ZSt14__relocate_a_1ISt5arrayIiLm2EES1_ENSt9enable_ifIXsrSt24__is_bitwise_relocatableIT_vE5valueEPS4_E4typeES6_S6_S6_RSaIT0_E, symObjAddr: 0x4D9C, symBinAddr: 0x100007F08, symSize: 0x68 }
  - { offsetInCU: 0xE42B, offset: 0xE42B, size: 0x8, addend: 0x0, symName: __ZSt12__niter_baseIPSt5arrayIiLm2EEET_S3_, symObjAddr: 0x4D88, symBinAddr: 0x100007EF4, symSize: 0x14 }
  - { offsetInCU: 0xE460, offset: 0xE460, size: 0x8, addend: 0x0, symName: __ZNSt15__new_allocatorISt5arrayIiLm2EEE8allocateEmPKv, symObjAddr: 0x4D0C, symBinAddr: 0x100007E78, symSize: 0x7C }
  - { offsetInCU: 0xE4CE, offset: 0xE4CE, size: 0x8, addend: 0x0, symName: __ZNKSt12_Vector_baseISt5arrayIiLm2EESaIS1_EE19_M_get_Tp_allocatorEv, symObjAddr: 0x4CF8, symBinAddr: 0x100007E64, symSize: 0x14 }
  - { offsetInCU: 0xE4F2, offset: 0xE4F2, size: 0x8, addend: 0x0, symName: __ZNSt6vectorISt5arrayIiLm2EESaIS1_EE11_S_max_sizeERKS2_, symObjAddr: 0x4CA4, symBinAddr: 0x100007E10, symSize: 0x54 }
  - { offsetInCU: 0xE59F, offset: 0xE59F, size: 0x8, addend: 0x0, symName: __ZSt10_ConstructIiJEEvPT_DpOT0_, symObjAddr: 0x4C78, symBinAddr: 0x100007DE4, symSize: 0x2C }
  - { offsetInCU: 0xE5D8, offset: 0xE5D8, size: 0x8, addend: 0x0, symName: __ZSt11__addressofIiEPT_RS0_, symObjAddr: 0x4C64, symBinAddr: 0x100007DD0, symSize: 0x14 }
  - { offsetInCU: 0xE608, offset: 0xE608, size: 0x8, addend: 0x0, symName: __ZSt8_DestroyISt6vectorIiSaIiEEEvPT_, symObjAddr: 0x4C44, symBinAddr: 0x100007DB0, symSize: 0x20 }
  - { offsetInCU: 0xE660, offset: 0xE660, size: 0x8, addend: 0x0, symName: __ZSt18__do_uninit_fill_nIPSt6vectorIiSaIiEEmS2_ET_S4_T0_RKT1_, symObjAddr: 0x4BB4, symBinAddr: 0x100007D20, symSize: 0x90 }
  - { offsetInCU: 0xE6D7, offset: 0xE6D7, size: 0x8, addend: 0x0, symName: __ZNSt6vectorIiSaIiEEaSERKS1_, symObjAddr: 0x486C, symBinAddr: 0x1000079D8, symSize: 0x348 }
  - { offsetInCU: 0xE83F, offset: 0xE83F, size: 0x8, addend: 0x0, symName: __ZSt23__copy_move_backward_a2ILb1EPSt6vectorIiSaIiEES3_ET1_T0_S5_S4_, symObjAddr: 0x4840, symBinAddr: 0x1000079AC, symSize: 0x2C }
  - { offsetInCU: 0xE8A3, offset: 0xE8A3, size: 0x8, addend: 0x0, symName: __ZNSt20__uninitialized_copyILb0EE13__uninit_copyISt13move_iteratorIPSt6vectorIiSaIiEEES6_EET0_T_S9_S8_, symObjAddr: 0x4814, symBinAddr: 0x100007980, symSize: 0x2C }
  - { offsetInCU: 0xE93C, offset: 0xE93C, size: 0x8, addend: 0x0, symName: __ZNSt6vectorIiSaIiEEC1ERKS1_, symObjAddr: 0x4700, symBinAddr: 0x10000786C, symSize: 0x114 }
  - { offsetInCU: 0xEA21, offset: 0xEA21, size: 0x8, addend: 0x0, symName: __ZSt6fill_nIPimiET_S1_T0_RKT1_, symObjAddr: 0x46B8, symBinAddr: 0x100007824, symSize: 0x48 }
  - { offsetInCU: 0xEAB7, offset: 0xEAB7, size: 0x8, addend: 0x0, symName: __ZSt8_DestroyISt6vectorISt5arrayIiLm2EESaIS2_EEEvPT_, symObjAddr: 0x4698, symBinAddr: 0x100007804, symSize: 0x20 }
  - { offsetInCU: 0xEB0F, offset: 0xEB0F, size: 0x8, addend: 0x0, symName: __ZSt18__do_uninit_fill_nIPSt6vectorISt5arrayIiLm2EESaIS2_EEmS4_ET_S6_T0_RKT1_, symObjAddr: 0x4608, symBinAddr: 0x100007774, symSize: 0x90 }
  - { offsetInCU: 0xEB86, offset: 0xEB86, size: 0x8, addend: 0x0, symName: __ZNSt6vectorISt5arrayIiLm2EESaIS1_EEaSERKS3_, symObjAddr: 0x42C0, symBinAddr: 0x10000742C, symSize: 0x348 }
  - { offsetInCU: 0xECEE, offset: 0xECEE, size: 0x8, addend: 0x0, symName: __ZSt23__copy_move_backward_a2ILb1EPSt6vectorISt5arrayIiLm2EESaIS2_EES5_ET1_T0_S7_S6_, symObjAddr: 0x4294, symBinAddr: 0x100007400, symSize: 0x2C }
  - { offsetInCU: 0xED52, offset: 0xED52, size: 0x8, addend: 0x0, symName: __ZNSt20__uninitialized_copyILb0EE13__uninit_copyISt13move_iteratorIPSt6vectorISt5arrayIiLm2EESaIS5_EEES8_EET0_T_SB_SA_, symObjAddr: 0x4268, symBinAddr: 0x1000073D4, symSize: 0x2C }
  - { offsetInCU: 0xEDFB, offset: 0xEDFB, size: 0x8, addend: 0x0, symName: __ZNSt6vectorISt5arrayIiLm2EESaIS1_EEC1ERKS3_, symObjAddr: 0x4154, symBinAddr: 0x1000072C0, symSize: 0x114 }
  - { offsetInCU: 0xEED0, offset: 0xEED0, size: 0x8, addend: 0x0, symName: __ZSt12__relocate_aIPSt5arrayIiLm2EES2_SaIS1_EET0_T_S5_S4_RT1_, symObjAddr: 0x40F8, symBinAddr: 0x100007264, symSize: 0x5C }
  - { offsetInCU: 0xEF68, offset: 0xEF68, size: 0x8, addend: 0x0, symName: __ZNKSt6vectorISt5arrayIiLm2EESaIS1_EE4sizeEv, symObjAddr: 0x40D0, symBinAddr: 0x10000723C, symSize: 0x28 }
  - { offsetInCU: 0xEF90, offset: 0xEF90, size: 0x8, addend: 0x0, symName: __ZNKSt6vectorISt5arrayIiLm2EESaIS1_EE8max_sizeEv, symObjAddr: 0x40B0, symBinAddr: 0x10000721C, symSize: 0x20 }
  - { offsetInCU: 0xEFB4, offset: 0xEFB4, size: 0x8, addend: 0x0, symName: __ZSt14__relocate_a_1IiiENSt9enable_ifIXsrSt24__is_bitwise_relocatableIT_vE5valueEPS2_E4typeES4_S4_S4_RSaIT0_E, symObjAddr: 0x4048, symBinAddr: 0x1000071B4, symSize: 0x68 }
  - { offsetInCU: 0xF02E, offset: 0xF02E, size: 0x8, addend: 0x0, symName: __ZSt12__niter_baseIPiET_S1_, symObjAddr: 0x4034, symBinAddr: 0x1000071A0, symSize: 0x14 }
  - { offsetInCU: 0xF063, offset: 0xF063, size: 0x8, addend: 0x0, symName: __ZNSt15__new_allocatorIiE8allocateEmPKv, symObjAddr: 0x3FB8, symBinAddr: 0x100007124, symSize: 0x7C }
  - { offsetInCU: 0xF0CD, offset: 0xF0CD, size: 0x8, addend: 0x0, symName: __ZNSt27__uninitialized_default_n_1ILb1EE18__uninit_default_nIPimEET_S3_T0_, symObjAddr: 0x3F54, symBinAddr: 0x1000070C0, symSize: 0x64 }
  - { offsetInCU: 0xF13F, offset: 0xF13F, size: 0x8, addend: 0x0, symName: __ZNSt12_Destroy_auxILb0EE9__destroyIPSt6vectorIiSaIiEEEEvT_S6_, symObjAddr: 0x3F08, symBinAddr: 0x100007074, symSize: 0x4C }
  - { offsetInCU: 0xF182, offset: 0xF182, size: 0x8, addend: 0x0, symName: __ZNSt15__new_allocatorISt6vectorIiSaIiEEE8allocateEmPKv, symObjAddr: 0x3E78, symBinAddr: 0x100006FE4, symSize: 0x90 }
  - { offsetInCU: 0xF1F0, offset: 0xF1F0, size: 0x8, addend: 0x0, symName: __ZNKSt12_Vector_baseISt6vectorIiSaIiEESaIS2_EE19_M_get_Tp_allocatorEv, symObjAddr: 0x3E64, symBinAddr: 0x100006FD0, symSize: 0x14 }
  - { offsetInCU: 0xF214, offset: 0xF214, size: 0x8, addend: 0x0, symName: __ZNSt6vectorIS_IiSaIiEESaIS1_EE11_S_max_sizeERKS2_, symObjAddr: 0x3E08, symBinAddr: 0x100006F74, symSize: 0x5C }
  - { offsetInCU: 0xF2C1, offset: 0xF2C1, size: 0x8, addend: 0x0, symName: __ZNSt22__uninitialized_fill_nILb0EE15__uninit_fill_nIPSt6vectorIiSaIiEEmS4_EET_S6_T0_RKT1_, symObjAddr: 0x3DDC, symBinAddr: 0x100006F48, symSize: 0x2C }
  - { offsetInCU: 0xF324, offset: 0xF324, size: 0x8, addend: 0x0, symName: __ZSt9__fill_a1IPSt6vectorIiSaIiEES2_EN9__gnu_cxx11__enable_ifIXntsrSt11__is_scalarIT0_E7__valueEvE6__typeET_SB_RKS7_, symObjAddr: 0x3D8C, symBinAddr: 0x100006EF8, symSize: 0x50 }
  - { offsetInCU: 0xF37E, offset: 0xF37E, size: 0x8, addend: 0x0, symName: __ZSt12__niter_wrapIPSt6vectorIiSaIiEEET_RKS4_S4_, symObjAddr: 0x3D74, symBinAddr: 0x100006EE0, symSize: 0x18 }
  - { offsetInCU: 0xF3B7, offset: 0xF3B7, size: 0x8, addend: 0x0, symName: __ZSt23__copy_move_backward_a1ILb1EPSt6vectorIiSaIiEES3_ET1_T0_S5_S4_, symObjAddr: 0x3D48, symBinAddr: 0x100006EB4, symSize: 0x2C }
  - { offsetInCU: 0xF41B, offset: 0xF41B, size: 0x8, addend: 0x0, symName: __ZSt12__niter_baseIPSt6vectorIiSaIiEEET_S4_, symObjAddr: 0x3D34, symBinAddr: 0x100006EA0, symSize: 0x14 }
  - { offsetInCU: 0xF44C, offset: 0xF44C, size: 0x8, addend: 0x0, symName: __ZSt18uninitialized_copyISt13move_iteratorIPSt6vectorIiSaIiEEES4_ET0_T_S7_S6_, symObjAddr: 0x3D00, symBinAddr: 0x100006E6C, symSize: 0x34 }
  - { offsetInCU: 0xF51C, offset: 0xF51C, size: 0x8, addend: 0x0, symName: __ZNSt13move_iteratorIPSt6vectorIiSaIiEEEC1ES3_, symObjAddr: 0x3CD0, symBinAddr: 0x100006E3C, symSize: 0x30 }
  - { offsetInCU: 0xF525, offset: 0xF525, size: 0x8, addend: 0x0, symName: __ZSt4moveIRPSt6vectorIiSaIiEEEONSt16remove_referenceIT_E4typeEOS6_, symObjAddr: 0x3CBC, symBinAddr: 0x100006E28, symSize: 0x14 }
  - { offsetInCU: 0xF5BC, offset: 0xF5BC, size: 0x8, addend: 0x0, symName: __ZSt11__addressofISt6vectorIiSaIiEEEPT_RS3_, symObjAddr: 0x3CA8, symBinAddr: 0x100006E14, symSize: 0x14 }
  - { offsetInCU: 0xF5EC, offset: 0xF5EC, size: 0x8, addend: 0x0, symName: __ZNSt22__uninitialized_fill_nILb1EE15__uninit_fill_nIPimiEET_S3_T0_RKT1_, symObjAddr: 0x3C7C, symBinAddr: 0x100006DE8, symSize: 0x2C }
  - { offsetInCU: 0xF663, offset: 0xF663, size: 0x8, addend: 0x0, symName: __ZNSt12_Destroy_auxILb0EE9__destroyIPSt6vectorISt5arrayIiLm2EESaIS4_EEEEvT_S8_, symObjAddr: 0x3C30, symBinAddr: 0x100006D9C, symSize: 0x4C }
  - { offsetInCU: 0xF6A6, offset: 0xF6A6, size: 0x8, addend: 0x0, symName: __ZNSt15__new_allocatorISt6vectorISt5arrayIiLm2EESaIS2_EEE8allocateEmPKv, symObjAddr: 0x3BA0, symBinAddr: 0x100006D0C, symSize: 0x90 }
  - { offsetInCU: 0xF714, offset: 0xF714, size: 0x8, addend: 0x0, symName: __ZNKSt12_Vector_baseISt6vectorISt5arrayIiLm2EESaIS2_EESaIS4_EE19_M_get_Tp_allocatorEv, symObjAddr: 0x3B8C, symBinAddr: 0x100006CF8, symSize: 0x14 }
  - { offsetInCU: 0xF738, offset: 0xF738, size: 0x8, addend: 0x0, symName: __ZNSt6vectorIS_ISt5arrayIiLm2EESaIS1_EESaIS3_EE11_S_max_sizeERKS4_, symObjAddr: 0x3B30, symBinAddr: 0x100006C9C, symSize: 0x5C }
  - { offsetInCU: 0xF7E5, offset: 0xF7E5, size: 0x8, addend: 0x0, symName: __ZNSt22__uninitialized_fill_nILb0EE15__uninit_fill_nIPSt6vectorISt5arrayIiLm2EESaIS4_EEmS6_EET_S8_T0_RKT1_, symObjAddr: 0x3B04, symBinAddr: 0x100006C70, symSize: 0x2C }
  - { offsetInCU: 0xF848, offset: 0xF848, size: 0x8, addend: 0x0, symName: __ZSt9__fill_a1IPSt6vectorISt5arrayIiLm2EESaIS2_EES4_EN9__gnu_cxx11__enable_ifIXntsrSt11__is_scalarIT0_E7__valueEvE6__typeET_SD_RKS9_, symObjAddr: 0x3AB4, symBinAddr: 0x100006C20, symSize: 0x50 }
  - { offsetInCU: 0xF8A2, offset: 0xF8A2, size: 0x8, addend: 0x0, symName: __ZSt12__niter_wrapIPSt6vectorISt5arrayIiLm2EESaIS2_EEET_RKS6_S6_, symObjAddr: 0x3A9C, symBinAddr: 0x100006C08, symSize: 0x18 }
  - { offsetInCU: 0xF8DB, offset: 0xF8DB, size: 0x8, addend: 0x0, symName: __ZSt23__copy_move_backward_a1ILb1EPSt6vectorISt5arrayIiLm2EESaIS2_EES5_ET1_T0_S7_S6_, symObjAddr: 0x3A70, symBinAddr: 0x100006BDC, symSize: 0x2C }
  - { offsetInCU: 0xF93F, offset: 0xF93F, size: 0x8, addend: 0x0, symName: __ZSt12__niter_baseIPSt6vectorISt5arrayIiLm2EESaIS2_EEET_S6_, symObjAddr: 0x3A5C, symBinAddr: 0x100006BC8, symSize: 0x14 }
  - { offsetInCU: 0xF970, offset: 0xF970, size: 0x8, addend: 0x0, symName: __ZSt18uninitialized_copyISt13move_iteratorIPSt6vectorISt5arrayIiLm2EESaIS3_EEES6_ET0_T_S9_S8_, symObjAddr: 0x3A28, symBinAddr: 0x100006B94, symSize: 0x34 }
  - { offsetInCU: 0xFA50, offset: 0xFA50, size: 0x8, addend: 0x0, symName: __ZNSt13move_iteratorIPSt6vectorISt5arrayIiLm2EESaIS2_EEEC1ES5_, symObjAddr: 0x39F8, symBinAddr: 0x100006B64, symSize: 0x30 }
  - { offsetInCU: 0xFA49, offset: 0xFA49, size: 0x8, addend: 0x0, symName: __ZSt4moveIRPSt6vectorISt5arrayIiLm2EESaIS2_EEEONSt16remove_referenceIT_E4typeEOS8_, symObjAddr: 0x39E4, symBinAddr: 0x100006B50, symSize: 0x14 }
  - { offsetInCU: 0xFAE0, offset: 0xFAE0, size: 0x8, addend: 0x0, symName: __ZSt11__addressofISt6vectorISt5arrayIiLm2EESaIS2_EEEPT_RS5_, symObjAddr: 0x39D0, symBinAddr: 0x100006B3C, symSize: 0x14 }
  - { offsetInCU: 0xFB14, offset: 0xFB14, size: 0x8, addend: 0x0, symName: __ZNK9__gnu_cxx17__normal_iteratorIPSt5arrayIiLm2EESt6vectorIS2_SaIS2_EEEmiEl, symObjAddr: 0x398C, symBinAddr: 0x100006AF8, symSize: 0x44 }
  - { offsetInCU: 0xFB48, offset: 0xFB48, size: 0x8, addend: 0x0, symName: __ZNSt6vectorISt5arrayIiLm2EESaIS1_EE11_S_relocateEPS1_S4_S4_RS2_, symObjAddr: 0x3958, symBinAddr: 0x100006AC4, symSize: 0x34 }
  - { offsetInCU: 0xFBA4, offset: 0xFBA4, size: 0x8, addend: 0x0, symName: __ZNSt12_Vector_baseISt5arrayIiLm2EESaIS1_EE11_M_allocateEm, symObjAddr: 0x3908, symBinAddr: 0x100006A74, symSize: 0x50 }
  - { offsetInCU: 0xFC08, offset: 0xFC08, size: 0x8, addend: 0x0, symName: __ZN9__gnu_cxxmiIPSt5arrayIiLm2EESt6vectorIS2_SaIS2_EEEENS_17__normal_iteratorIT_T0_E15difference_typeERKSA_SD_, symObjAddr: 0x38C8, symBinAddr: 0x100006A34, symSize: 0x40 }
  - { offsetInCU: 0xFC56, offset: 0xFC56, size: 0x8, addend: 0x0, symName: __ZNKSt6vectorISt5arrayIiLm2EESaIS1_EE12_M_check_lenEmPKc, symObjAddr: 0x37F8, symBinAddr: 0x100006964, symSize: 0xD0 }
  - { offsetInCU: 0xFCE8, offset: 0xFCE8, size: 0x8, addend: 0x0, symName: __ZSt12__relocate_aIPiS0_SaIiEET0_T_S3_S2_RT1_, symObjAddr: 0x379C, symBinAddr: 0x100006908, symSize: 0x5C }
  - { offsetInCU: 0xFD7C, offset: 0xFD7C, size: 0x8, addend: 0x0, symName: __ZSt25__uninitialized_default_nIPimET_S1_T0_, symObjAddr: 0x3770, symBinAddr: 0x1000068DC, symSize: 0x2C }
  - { offsetInCU: 0xFDDA, offset: 0xFDDA, size: 0x8, addend: 0x0, symName: __ZNKSt12_Vector_baseIiSaIiEE19_M_get_Tp_allocatorEv, symObjAddr: 0x375C, symBinAddr: 0x1000068C8, symSize: 0x14 }
  - { offsetInCU: 0xFDFE, offset: 0xFDFE, size: 0x8, addend: 0x0, symName: __ZSt8_DestroyIPSt6vectorIiSaIiEEEvT_S4_, symObjAddr: 0x3734, symBinAddr: 0x1000068A0, symSize: 0x28 }
  - { offsetInCU: 0xFE3D, offset: 0xFE3D, size: 0x8, addend: 0x0, symName: __ZSt32__make_move_if_noexcept_iteratorISt6vectorIiSaIiEESt13move_iteratorIPS2_EET0_PT_, symObjAddr: 0x3710, symBinAddr: 0x10000687C, symSize: 0x24 }
  - { offsetInCU: 0xFE9C, offset: 0xFE9C, size: 0x8, addend: 0x0, symName: __ZNKSt6vectorIS_IiSaIiEESaIS1_EE8max_sizeEv, symObjAddr: 0x36F0, symBinAddr: 0x10000685C, symSize: 0x20 }
  - { offsetInCU: 0xFEC0, offset: 0xFEC0, size: 0x8, addend: 0x0, symName: __ZSt20uninitialized_fill_nIPSt6vectorIiSaIiEEmS2_ET_S4_T0_RKT1_, symObjAddr: 0x36C0, symBinAddr: 0x10000682C, symSize: 0x30 }
  - { offsetInCU: 0xFF33, offset: 0xFF33, size: 0x8, addend: 0x0, symName: __ZSt8__fill_aIPSt6vectorIiSaIiEES2_EvT_S4_RKT0_, symObjAddr: 0x3690, symBinAddr: 0x1000067FC, symSize: 0x30 }
  - { offsetInCU: 0xFF8D, offset: 0xFF8D, size: 0x8, addend: 0x0, symName: __ZSt22__copy_move_backward_aILb1EPSt6vectorIiSaIiEES3_ET1_T0_S5_S4_, symObjAddr: 0x3630, symBinAddr: 0x10000679C, symSize: 0x60 }
  - { offsetInCU: 0xFFF1, offset: 0xFFF1, size: 0x8, addend: 0x0, symName: __ZSt12__miter_baseIPSt6vectorIiSaIiEEET_S4_, symObjAddr: 0x361C, symBinAddr: 0x100006788, symSize: 0x14 }
  - { offsetInCU: 0x10022, offset: 0x10022, size: 0x8, addend: 0x0, symName: __ZSt22__uninitialized_copy_aISt13move_iteratorIPSt6vectorIiSaIiEEES4_S3_ET0_T_S7_S6_RSaIT1_E, symObjAddr: 0x35EC, symBinAddr: 0x100006758, symSize: 0x30 }
  - { offsetInCU: 0x1008D, offset: 0x1008D, size: 0x8, addend: 0x0, symName: __ZSt18make_move_iteratorIPSt6vectorIiSaIiEEESt13move_iteratorIT_ES5_, symObjAddr: 0x35C0, symBinAddr: 0x10000672C, symSize: 0x2C }
  - { offsetInCU: 0x1012F, offset: 0x1012F, size: 0x8, addend: 0x0, symName: __ZSt7forwardIRKSt6vectorIiSaIiEEEOT_RNSt16remove_referenceIS5_E4typeE, symObjAddr: 0x35AC, symBinAddr: 0x100006718, symSize: 0x14 }
  - { offsetInCU: 0x10163, offset: 0x10163, size: 0x8, addend: 0x0, symName: __ZNSt6vectorIS_IiSaIiEESaIS1_EE16_Temporary_value6_M_ptrEv, symObjAddr: 0x358C, symBinAddr: 0x1000066F8, symSize: 0x20 }
  - { offsetInCU: 0x101E7, offset: 0x101E7, size: 0x8, addend: 0x0, symName: __ZNSt6vectorIS_IiSaIiEESaIS1_EE16_Temporary_value8_StorageD1Ev, symObjAddr: 0x3578, symBinAddr: 0x1000066E4, symSize: 0x14 }
  - { offsetInCU: 0x10223, offset: 0x10223, size: 0x8, addend: 0x0, symName: __ZNSt6vectorIS_IiSaIiEESaIS1_EE16_Temporary_value8_StorageC1Ev, symObjAddr: 0x355C, symBinAddr: 0x1000066C8, symSize: 0x1C }
  - { offsetInCU: 0x10208, offset: 0x10208, size: 0x8, addend: 0x0, symName: __ZNSt12_Destroy_auxILb1EE9__destroyIPiEEvT_S3_, symObjAddr: 0x3544, symBinAddr: 0x1000066B0, symSize: 0x18 }
  - { offsetInCU: 0x10239, offset: 0x10239, size: 0x8, addend: 0x0, symName: __ZSt20uninitialized_fill_nIPimiET_S1_T0_RKT1_, symObjAddr: 0x3510, symBinAddr: 0x10000667C, symSize: 0x34 }
  - { offsetInCU: 0x102C5, offset: 0x102C5, size: 0x8, addend: 0x0, symName: __ZSt3minImERKT_S2_S2_, symObjAddr: 0x34D8, symBinAddr: 0x100006644, symSize: 0x38 }
  - { offsetInCU: 0x10318, offset: 0x10318, size: 0x8, addend: 0x0, symName: __ZSt8_DestroyIPSt6vectorISt5arrayIiLm2EESaIS2_EEEvT_S6_, symObjAddr: 0x34B0, symBinAddr: 0x10000661C, symSize: 0x28 }
  - { offsetInCU: 0x10357, offset: 0x10357, size: 0x8, addend: 0x0, symName: __ZSt32__make_move_if_noexcept_iteratorISt6vectorISt5arrayIiLm2EESaIS2_EESt13move_iteratorIPS4_EET0_PT_, symObjAddr: 0x348C, symBinAddr: 0x1000065F8, symSize: 0x24 }
  - { offsetInCU: 0x103B2, offset: 0x103B2, size: 0x8, addend: 0x0, symName: __ZSt3maxImERKT_S2_S2_, symObjAddr: 0x3454, symBinAddr: 0x1000065C0, symSize: 0x38 }
  - { offsetInCU: 0x103F7, offset: 0x103F7, size: 0x8, addend: 0x0, symName: __ZNKSt6vectorIS_ISt5arrayIiLm2EESaIS1_EESaIS3_EE8max_sizeEv, symObjAddr: 0x3434, symBinAddr: 0x1000065A0, symSize: 0x20 }
  - { offsetInCU: 0x1041B, offset: 0x1041B, size: 0x8, addend: 0x0, symName: __ZSt20uninitialized_fill_nIPSt6vectorISt5arrayIiLm2EESaIS2_EEmS4_ET_S6_T0_RKT1_, symObjAddr: 0x3404, symBinAddr: 0x100006570, symSize: 0x30 }
  - { offsetInCU: 0x1048E, offset: 0x1048E, size: 0x8, addend: 0x0, symName: __ZSt8__fill_aIPSt6vectorISt5arrayIiLm2EESaIS2_EES4_EvT_S6_RKT0_, symObjAddr: 0x33D4, symBinAddr: 0x100006540, symSize: 0x30 }
  - { offsetInCU: 0x104E8, offset: 0x104E8, size: 0x8, addend: 0x0, symName: __ZSt22__copy_move_backward_aILb1EPSt6vectorISt5arrayIiLm2EESaIS2_EES5_ET1_T0_S7_S6_, symObjAddr: 0x3374, symBinAddr: 0x1000064E0, symSize: 0x60 }
  - { offsetInCU: 0x1054C, offset: 0x1054C, size: 0x8, addend: 0x0, symName: __ZSt12__miter_baseIPSt6vectorISt5arrayIiLm2EESaIS2_EEET_S6_, symObjAddr: 0x3360, symBinAddr: 0x1000064CC, symSize: 0x14 }
  - { offsetInCU: 0x1057D, offset: 0x1057D, size: 0x8, addend: 0x0, symName: __ZSt22__uninitialized_copy_aISt13move_iteratorIPSt6vectorISt5arrayIiLm2EESaIS3_EEES6_S5_ET0_T_S9_S8_RSaIT1_E, symObjAddr: 0x3330, symBinAddr: 0x10000649C, symSize: 0x30 }
  - { offsetInCU: 0x105E8, offset: 0x105E8, size: 0x8, addend: 0x0, symName: __ZSt18make_move_iteratorIPSt6vectorISt5arrayIiLm2EESaIS2_EEESt13move_iteratorIT_ES7_, symObjAddr: 0x3304, symBinAddr: 0x100006470, symSize: 0x2C }
  - { offsetInCU: 0x1068A, offset: 0x1068A, size: 0x8, addend: 0x0, symName: __ZSt7forwardIRKSt6vectorISt5arrayIiLm2EESaIS2_EEEOT_RNSt16remove_referenceIS7_E4typeE, symObjAddr: 0x32F0, symBinAddr: 0x10000645C, symSize: 0x14 }
  - { offsetInCU: 0x106BE, offset: 0x106BE, size: 0x8, addend: 0x0, symName: __ZNSt6vectorIS_ISt5arrayIiLm2EESaIS1_EESaIS3_EE16_Temporary_value6_M_ptrEv, symObjAddr: 0x32D0, symBinAddr: 0x10000643C, symSize: 0x20 }
  - { offsetInCU: 0x10752, offset: 0x10752, size: 0x8, addend: 0x0, symName: __ZNSt6vectorIS_ISt5arrayIiLm2EESaIS1_EESaIS3_EE16_Temporary_value8_StorageD1Ev, symObjAddr: 0x32BC, symBinAddr: 0x100006428, symSize: 0x14 }
  - { offsetInCU: 0x1078E, offset: 0x1078E, size: 0x8, addend: 0x0, symName: __ZNSt6vectorIS_ISt5arrayIiLm2EESaIS1_EESaIS3_EE16_Temporary_value8_StorageC1Ev, symObjAddr: 0x32A0, symBinAddr: 0x10000640C, symSize: 0x1C }
  - { offsetInCU: 0x10763, offset: 0x10763, size: 0x8, addend: 0x0, symName: __ZNSt12_Destroy_auxILb1EE9__destroyIPSt5arrayIiLm2EEEEvT_S5_, symObjAddr: 0x3288, symBinAddr: 0x1000063F4, symSize: 0x18 }
  - { offsetInCU: 0x10798, offset: 0x10798, size: 0x8, addend: 0x0, symName: __ZNSt15__new_allocatorISt5arrayIiLm2EEE10deallocateEPS1_m, symObjAddr: 0x3258, symBinAddr: 0x1000063C4, symSize: 0x30 }
  - { offsetInCU: 0x107DE, offset: 0x107DE, size: 0x8, addend: 0x0, symName: __ZNSt15__new_allocatorIiE10deallocateEPim, symObjAddr: 0x3228, symBinAddr: 0x100006394, symSize: 0x30 }
  - { offsetInCU: 0x10824, offset: 0x10824, size: 0x8, addend: 0x0, symName: __ZNSt15__new_allocatorISt6vectorIiSaIiEEE10deallocateEPS2_m, symObjAddr: 0x31EC, symBinAddr: 0x100006358, symSize: 0x3C }
  - { offsetInCU: 0x1086A, offset: 0x1086A, size: 0x8, addend: 0x0, symName: __ZNSt15__new_allocatorISt6vectorISt5arrayIiLm2EESaIS2_EEE10deallocateEPS4_m, symObjAddr: 0x31B0, symBinAddr: 0x10000631C, symSize: 0x3C }
  - { offsetInCU: 0x108B0, offset: 0x108B0, size: 0x8, addend: 0x0, symName: __ZNSt6vectorISt5arrayIiLm2EESaIS1_EE4backEv, symObjAddr: 0x3178, symBinAddr: 0x1000062E4, symSize: 0x38 }
  - { offsetInCU: 0x108D8, offset: 0x108D8, size: 0x8, addend: 0x0, symName: __ZNSt6vectorISt5arrayIiLm2EESaIS1_EE17_M_realloc_insertIJS1_EEEvN9__gnu_cxx17__normal_iteratorIPS1_S3_EEDpOT_, symObjAddr: 0x2FB8, symBinAddr: 0x100006124, symSize: 0x1C0 }
  - { offsetInCU: 0x10A38, offset: 0x10A38, size: 0x8, addend: 0x0, symName: __ZSt7forwardISt5arrayIiLm2EEEOT_RNSt16remove_referenceIS2_E4typeE, symObjAddr: 0x2FA4, symBinAddr: 0x100006110, symSize: 0x14 }
  - { offsetInCU: 0x10A68, offset: 0x10A68, size: 0x8, addend: 0x0, symName: __ZNSt6vectorIiSaIiEE11_S_relocateEPiS2_S2_RS0_, symObjAddr: 0x2F70, symBinAddr: 0x1000060DC, symSize: 0x34 }
  - { offsetInCU: 0x10AC4, offset: 0x10AC4, size: 0x8, addend: 0x0, symName: __ZNSt12_Vector_baseIiSaIiEE11_M_allocateEm, symObjAddr: 0x2F20, symBinAddr: 0x10000608C, symSize: 0x50 }
  - { offsetInCU: 0x10B26, offset: 0x10B26, size: 0x8, addend: 0x0, symName: __ZNKSt6vectorIiSaIiEE12_M_check_lenEmPKc, symObjAddr: 0x2E50, symBinAddr: 0x100005FBC, symSize: 0xD0 }
  - { offsetInCU: 0x10B7A, offset: 0x10B7A, size: 0x8, addend: 0x0, symName: __ZSt27__uninitialized_default_n_aIPimiET_S1_T0_RSaIT1_E, symObjAddr: 0x2E28, symBinAddr: 0x100005F94, symSize: 0x28 }
  - { offsetInCU: 0x10BD9, offset: 0x10BD9, size: 0x8, addend: 0x0, symName: __ZNKSt6vectorIiSaIiEE8max_sizeEv, symObjAddr: 0x2E08, symBinAddr: 0x100005F74, symSize: 0x20 }
  - { offsetInCU: 0x10C6E, offset: 0x10C6E, size: 0x8, addend: 0x0, symName: __ZN9__gnu_cxx17__normal_iteratorIPSt6vectorIiSaIiEES1_IS3_SaIS3_EEEC1ERKS4_, symObjAddr: 0x2DE0, symBinAddr: 0x100005F4C, symSize: 0x28 }
  - { offsetInCU: 0x10C86, offset: 0x10C86, size: 0x8, addend: 0x0, symName: __ZSt34__uninitialized_move_if_noexcept_aIPSt6vectorIiSaIiEES3_SaIS2_EET0_T_S6_S5_RT1_, symObjAddr: 0x2D90, symBinAddr: 0x100005EFC, symSize: 0x50 }
  - { offsetInCU: 0x10CFD, offset: 0x10CFD, size: 0x8, addend: 0x0, symName: __ZNSt12_Vector_baseISt6vectorIiSaIiEESaIS2_EE11_M_allocateEm, symObjAddr: 0x2D40, symBinAddr: 0x100005EAC, symSize: 0x50 }
  - { offsetInCU: 0x10D5F, offset: 0x10D5F, size: 0x8, addend: 0x0, symName: __ZNKSt6vectorIS_IiSaIiEESaIS1_EE12_M_check_lenEmPKc, symObjAddr: 0x2C70, symBinAddr: 0x100005DDC, symSize: 0xD0 }
  - { offsetInCU: 0x10DB3, offset: 0x10DB3, size: 0x8, addend: 0x0, symName: __ZSt24__uninitialized_fill_n_aIPSt6vectorIiSaIiEEmS2_S2_ET_S4_T0_RKT1_RSaIT2_E, symObjAddr: 0x2C40, symBinAddr: 0x100005DAC, symSize: 0x30 }
  - { offsetInCU: 0x10E27, offset: 0x10E27, size: 0x8, addend: 0x0, symName: __ZSt4fillIPSt6vectorIiSaIiEES2_EvT_S4_RKT0_, symObjAddr: 0x2C10, symBinAddr: 0x100005D7C, symSize: 0x30 }
  - { offsetInCU: 0x10E81, offset: 0x10E81, size: 0x8, addend: 0x0, symName: __ZSt13move_backwardIPSt6vectorIiSaIiEES3_ET0_T_S5_S4_, symObjAddr: 0x2BC8, symBinAddr: 0x100005D34, symSize: 0x48 }
  - { offsetInCU: 0x10EDF, offset: 0x10EDF, size: 0x8, addend: 0x0, symName: __ZNK9__gnu_cxx17__normal_iteratorIPSt6vectorIiSaIiEES1_IS3_SaIS3_EEE4baseEv, symObjAddr: 0x2BB4, symBinAddr: 0x100005D20, symSize: 0x14 }
  - { offsetInCU: 0x10F03, offset: 0x10F03, size: 0x8, addend: 0x0, symName: __ZSt22__uninitialized_move_aIPSt6vectorIiSaIiEES3_SaIS2_EET0_T_S6_S5_RT1_, symObjAddr: 0x2B64, symBinAddr: 0x100005CD0, symSize: 0x50 }
  - { offsetInCU: 0x10F7A, offset: 0x10F7A, size: 0x8, addend: 0x0, symName: __ZNSt12_Vector_baseISt6vectorIiSaIiEESaIS2_EE19_M_get_Tp_allocatorEv, symObjAddr: 0x2B50, symBinAddr: 0x100005CBC, symSize: 0x14 }
  - { offsetInCU: 0x10FA4, offset: 0x10FA4, size: 0x8, addend: 0x0, symName: __ZN9__gnu_cxxmiIPSt6vectorIiSaIiEES1_IS3_SaIS3_EEEENS_17__normal_iteratorIT_T0_E15difference_typeERKSA_SD_, symObjAddr: 0x2B04, symBinAddr: 0x100005C70, symSize: 0x4C }
  - { offsetInCU: 0x10FF2, offset: 0x10FF2, size: 0x8, addend: 0x0, symName: __ZNSt6vectorIS_IiSaIiEESaIS1_EE16_Temporary_value6_M_valEv, symObjAddr: 0x2AEC, symBinAddr: 0x100005C58, symSize: 0x18 }
  - { offsetInCU: 0x1106D, offset: 0x1106D, size: 0x8, addend: 0x0, symName: __ZNSt6vectorIS_IiSaIiEESaIS1_EE16_Temporary_valueD1Ev, symObjAddr: 0x2A84, symBinAddr: 0x100005BF0, symSize: 0x68 }
  - { offsetInCU: 0x11132, offset: 0x11132, size: 0x8, addend: 0x0, symName: __ZNSt6vectorIS_IiSaIiEESaIS1_EE16_Temporary_valueC1IJRKS1_EEEPS3_DpOT_, symObjAddr: 0x2988, symBinAddr: 0x100005AF4, symSize: 0xFC }
  - { offsetInCU: 0x11193, offset: 0x11193, size: 0x8, addend: 0x0, symName: __ZSt8_DestroyIPiEvT_S1_, symObjAddr: 0x2960, symBinAddr: 0x100005ACC, symSize: 0x28 }
  - { offsetInCU: 0x111D2, offset: 0x111D2, size: 0x8, addend: 0x0, symName: __ZSt24__uninitialized_fill_n_aIPimiiET_S1_T0_RKT1_RSaIT2_E, symObjAddr: 0x2930, symBinAddr: 0x100005A9C, symSize: 0x30 }
  - { offsetInCU: 0x1124A, offset: 0x1124A, size: 0x8, addend: 0x0, symName: __ZNSt12_Vector_baseIiSaIiEE17_M_create_storageEm, symObjAddr: 0x28D0, symBinAddr: 0x100005A3C, symSize: 0x60 }
  - { offsetInCU: 0x112D4, offset: 0x112D4, size: 0x8, addend: 0x0, symName: __ZNSt12_Vector_baseIiSaIiEE12_Vector_implC1ERKS0_, symObjAddr: 0x2884, symBinAddr: 0x1000059F0, symSize: 0x4C }
  - { offsetInCU: 0x11340, offset: 0x11340, size: 0x8, addend: 0x0, symName: __ZNSt6vectorIiSaIiEE11_S_max_sizeERKS0_, symObjAddr: 0x2830, symBinAddr: 0x10000599C, symSize: 0x54 }
  - { offsetInCU: 0x1146E, offset: 0x1146E, size: 0x8, addend: 0x0, symName: __ZN9__gnu_cxx17__normal_iteratorIPSt6vectorISt5arrayIiLm2EESaIS3_EES1_IS5_SaIS5_EEEC1ERKS6_, symObjAddr: 0x2808, symBinAddr: 0x100005974, symSize: 0x28 }
  - { offsetInCU: 0x11476, offset: 0x11476, size: 0x8, addend: 0x0, symName: __ZSt34__uninitialized_move_if_noexcept_aIPSt6vectorISt5arrayIiLm2EESaIS2_EES5_SaIS4_EET0_T_S8_S7_RT1_, symObjAddr: 0x27B8, symBinAddr: 0x100005924, symSize: 0x50 }
  - { offsetInCU: 0x114ED, offset: 0x114ED, size: 0x8, addend: 0x0, symName: __ZNSt12_Vector_baseISt6vectorISt5arrayIiLm2EESaIS2_EESaIS4_EE11_M_allocateEm, symObjAddr: 0x2768, symBinAddr: 0x1000058D4, symSize: 0x50 }
  - { offsetInCU: 0x1154F, offset: 0x1154F, size: 0x8, addend: 0x0, symName: __ZNKSt6vectorIS_ISt5arrayIiLm2EESaIS1_EESaIS3_EE12_M_check_lenEmPKc, symObjAddr: 0x2698, symBinAddr: 0x100005804, symSize: 0xD0 }
  - { offsetInCU: 0x115A3, offset: 0x115A3, size: 0x8, addend: 0x0, symName: __ZSt24__uninitialized_fill_n_aIPSt6vectorISt5arrayIiLm2EESaIS2_EEmS4_S4_ET_S6_T0_RKT1_RSaIT2_E, symObjAddr: 0x2668, symBinAddr: 0x1000057D4, symSize: 0x30 }
  - { offsetInCU: 0x11617, offset: 0x11617, size: 0x8, addend: 0x0, symName: __ZSt4fillIPSt6vectorISt5arrayIiLm2EESaIS2_EES4_EvT_S6_RKT0_, symObjAddr: 0x2638, symBinAddr: 0x1000057A4, symSize: 0x30 }
  - { offsetInCU: 0x11671, offset: 0x11671, size: 0x8, addend: 0x0, symName: __ZSt13move_backwardIPSt6vectorISt5arrayIiLm2EESaIS2_EES5_ET0_T_S7_S6_, symObjAddr: 0x25F0, symBinAddr: 0x10000575C, symSize: 0x48 }
  - { offsetInCU: 0x116CF, offset: 0x116CF, size: 0x8, addend: 0x0, symName: __ZNK9__gnu_cxx17__normal_iteratorIPSt6vectorISt5arrayIiLm2EESaIS3_EES1_IS5_SaIS5_EEE4baseEv, symObjAddr: 0x25DC, symBinAddr: 0x100005748, symSize: 0x14 }
  - { offsetInCU: 0x116F3, offset: 0x116F3, size: 0x8, addend: 0x0, symName: __ZSt22__uninitialized_move_aIPSt6vectorISt5arrayIiLm2EESaIS2_EES5_SaIS4_EET0_T_S8_S7_RT1_, symObjAddr: 0x258C, symBinAddr: 0x1000056F8, symSize: 0x50 }
  - { offsetInCU: 0x1176A, offset: 0x1176A, size: 0x8, addend: 0x0, symName: __ZNSt12_Vector_baseISt6vectorISt5arrayIiLm2EESaIS2_EESaIS4_EE19_M_get_Tp_allocatorEv, symObjAddr: 0x2578, symBinAddr: 0x1000056E4, symSize: 0x14 }
  - { offsetInCU: 0x11794, offset: 0x11794, size: 0x8, addend: 0x0, symName: __ZN9__gnu_cxxmiIPSt6vectorISt5arrayIiLm2EESaIS3_EES1_IS5_SaIS5_EEEENS_17__normal_iteratorIT_T0_E15difference_typeERKSC_SF_, symObjAddr: 0x252C, symBinAddr: 0x100005698, symSize: 0x4C }
  - { offsetInCU: 0x117E2, offset: 0x117E2, size: 0x8, addend: 0x0, symName: __ZNSt6vectorIS_ISt5arrayIiLm2EESaIS1_EESaIS3_EE16_Temporary_value6_M_valEv, symObjAddr: 0x2514, symBinAddr: 0x100005680, symSize: 0x18 }
  - { offsetInCU: 0x1186D, offset: 0x1186D, size: 0x8, addend: 0x0, symName: __ZNSt6vectorIS_ISt5arrayIiLm2EESaIS1_EESaIS3_EE16_Temporary_valueD1Ev, symObjAddr: 0x24AC, symBinAddr: 0x100005618, symSize: 0x68 }
  - { offsetInCU: 0x11932, offset: 0x11932, size: 0x8, addend: 0x0, symName: __ZNSt6vectorIS_ISt5arrayIiLm2EESaIS1_EESaIS3_EE16_Temporary_valueC1IJRKS3_EEEPS5_DpOT_, symObjAddr: 0x23B0, symBinAddr: 0x10000551C, symSize: 0xFC }
  - { offsetInCU: 0x11983, offset: 0x11983, size: 0x8, addend: 0x0, symName: __ZSt8_DestroyIPSt5arrayIiLm2EEEvT_S3_, symObjAddr: 0x2388, symBinAddr: 0x1000054F4, symSize: 0x28 }
  - { offsetInCU: 0x11ABA, offset: 0x11ABA, size: 0x8, addend: 0x0, symName: __ZNSt6vectorISt5arrayIiLm2EESaIS1_EE12emplace_backIJS1_EEERS1_DpOT_, symObjAddr: 0x22A0, symBinAddr: 0x10000540C, symSize: 0xE8 }
  - { offsetInCU: 0x11B5F, offset: 0x11B5F, size: 0x8, addend: 0x0, symName: __ZSt4moveIRSt5arrayIiLm2EEEONSt16remove_referenceIT_E4typeEOS4_, symObjAddr: 0x228C, symBinAddr: 0x1000053F8, symSize: 0x14 }
  - { offsetInCU: 0x11B93, offset: 0x11B93, size: 0x8, addend: 0x0, symName: __ZNSt6vectorIiSaIiEE15_M_erase_at_endEPi, symObjAddr: 0x2204, symBinAddr: 0x100005370, symSize: 0x88 }
  - { offsetInCU: 0x11C1F, offset: 0x11C1F, size: 0x8, addend: 0x0, symName: __ZNSt6vectorIiSaIiEE17_M_default_appendEm, symObjAddr: 0x2004, symBinAddr: 0x100005170, symSize: 0x200 }
  - { offsetInCU: 0x11CC5, offset: 0x11CC5, size: 0x8, addend: 0x0, symName: __ZNKSt6vectorIiSaIiEE4sizeEv, symObjAddr: 0x1FDC, symBinAddr: 0x100005148, symSize: 0x28 }
  - { offsetInCU: 0x11CED, offset: 0x11CED, size: 0x8, addend: 0x0, symName: __ZNSt6vectorIS_IiSaIiEESaIS1_EE15_M_erase_at_endEPS1_, symObjAddr: 0x1F48, symBinAddr: 0x1000050B4, symSize: 0x94 }
  - { offsetInCU: 0x11D79, offset: 0x11D79, size: 0x8, addend: 0x0, symName: __ZNSt6vectorIS_IiSaIiEESaIS1_EE3endEv, symObjAddr: 0x1F20, symBinAddr: 0x10000508C, symSize: 0x28 }
  - { offsetInCU: 0x11DA1, offset: 0x11DA1, size: 0x8, addend: 0x0, symName: __ZNSt6vectorIS_IiSaIiEESaIS1_EE14_M_fill_insertEN9__gnu_cxx17__normal_iteratorIPS1_S3_EEmRKS1_, symObjAddr: 0x1A24, symBinAddr: 0x100004B90, symSize: 0x4FC }
  - { offsetInCU: 0x11F5D, offset: 0x11F5D, size: 0x8, addend: 0x0, symName: __ZNKSt6vectorIS_IiSaIiEESaIS1_EE4sizeEv, symObjAddr: 0x19F0, symBinAddr: 0x100004B5C, symSize: 0x34 }
  - { offsetInCU: 0x11FBD, offset: 0x11FBD, size: 0x8, addend: 0x0, symName: __ZNSt12_Vector_baseIiSaIiEE19_M_get_Tp_allocatorEv, symObjAddr: 0x19DC, symBinAddr: 0x100004B48, symSize: 0x14 }
  - { offsetInCU: 0x11FE5, offset: 0x11FE5, size: 0x8, addend: 0x0, symName: __ZNSt6vectorIiSaIiEE18_M_fill_initializeEmRKi, symObjAddr: 0x1984, symBinAddr: 0x100004AF0, symSize: 0x58 }
  - { offsetInCU: 0x12080, offset: 0x12080, size: 0x8, addend: 0x0, symName: __ZNSt12_Vector_baseIiSaIiEEC2EmRKS0_, symObjAddr: 0x1930, symBinAddr: 0x100004A9C, symSize: 0x54 }
  - { offsetInCU: 0x1208F, offset: 0x1208F, size: 0x8, addend: 0x0, symName: __ZNSt6vectorIiSaIiEE17_S_check_init_lenEmRKS0_, symObjAddr: 0x18AC, symBinAddr: 0x100004A18, symSize: 0x84 }
  - { offsetInCU: 0x1214E, offset: 0x1214E, size: 0x8, addend: 0x0, symName: __ZNSt6vectorIS_ISt5arrayIiLm2EESaIS1_EESaIS3_EE15_M_erase_at_endEPS3_, symObjAddr: 0x1818, symBinAddr: 0x100004984, symSize: 0x94 }
  - { offsetInCU: 0x121DA, offset: 0x121DA, size: 0x8, addend: 0x0, symName: __ZNSt6vectorIS_ISt5arrayIiLm2EESaIS1_EESaIS3_EE3endEv, symObjAddr: 0x17F0, symBinAddr: 0x10000495C, symSize: 0x28 }
  - { offsetInCU: 0x12202, offset: 0x12202, size: 0x8, addend: 0x0, symName: __ZNSt6vectorIS_ISt5arrayIiLm2EESaIS1_EESaIS3_EE14_M_fill_insertEN9__gnu_cxx17__normal_iteratorIPS3_S5_EEmRKS3_, symObjAddr: 0x12F4, symBinAddr: 0x100004460, symSize: 0x4FC }
  - { offsetInCU: 0x123BE, offset: 0x123BE, size: 0x8, addend: 0x0, symName: __ZNKSt6vectorIS_ISt5arrayIiLm2EESaIS1_EESaIS3_EE4sizeEv, symObjAddr: 0x12C0, symBinAddr: 0x10000442C, symSize: 0x34 }
  - { offsetInCU: 0x1241E, offset: 0x1241E, size: 0x8, addend: 0x0, symName: __ZNSt12_Vector_baseISt5arrayIiLm2EESaIS1_EE19_M_get_Tp_allocatorEv, symObjAddr: 0x12AC, symBinAddr: 0x100004418, symSize: 0x14 }
  - { offsetInCU: 0x12446, offset: 0x12446, size: 0x8, addend: 0x0, symName: __ZNSt12_Vector_baseISt5arrayIiLm2EESaIS1_EE13_M_deallocateEPS1_m, symObjAddr: 0x1254, symBinAddr: 0x1000043C0, symSize: 0x58 }
  - { offsetInCU: 0x12509, offset: 0x12509, size: 0x8, addend: 0x0, symName: __ZNSt15__new_allocatorISt5arrayIiLm2EEED2Ev, symObjAddr: 0x1240, symBinAddr: 0x1000043AC, symSize: 0x14 }
  - { offsetInCU: 0x1255C, offset: 0x1255C, size: 0x8, addend: 0x0, symName: __ZNSt12_Vector_baseISt5arrayIiLm2EESaIS1_EE17_Vector_impl_dataC1Ev, symObjAddr: 0x1214, symBinAddr: 0x100004380, symSize: 0x2C }
  - { offsetInCU: 0x12584, offset: 0x12584, size: 0x8, addend: 0x0, symName: __ZNSt12_Vector_baseISt5arrayIiLm2EESaIS1_EE17_Vector_impl_dataC2Ev, symObjAddr: 0x11E8, symBinAddr: 0x100004354, symSize: 0x2C }
  - { offsetInCU: 0x1257D, offset: 0x1257D, size: 0x8, addend: 0x0, symName: __ZNK9__gnu_cxx17__normal_iteratorIPSt5arrayIiLm2EESt6vectorIS2_SaIS2_EEE4baseEv, symObjAddr: 0x11D4, symBinAddr: 0x100004340, symSize: 0x14 }
  - { offsetInCU: 0x12616, offset: 0x12616, size: 0x8, addend: 0x0, symName: __ZN9__gnu_cxx17__normal_iteratorIPSt5arrayIiLm2EESt6vectorIS2_SaIS2_EEEC1ERKS3_, symObjAddr: 0x11AC, symBinAddr: 0x100004318, symSize: 0x28 }
  - { offsetInCU: 0x125F6, offset: 0x125F6, size: 0x8, addend: 0x0, symName: __ZNSt12_Vector_baseIiSaIiEE13_M_deallocateEPim, symObjAddr: 0x1154, symBinAddr: 0x1000042C0, symSize: 0x58 }
  - { offsetInCU: 0x126AB, offset: 0x126AB, size: 0x8, addend: 0x0, symName: __ZNSt15__new_allocatorIiED2Ev, symObjAddr: 0x1140, symBinAddr: 0x1000042AC, symSize: 0x14 }
  - { offsetInCU: 0x126FC, offset: 0x126FC, size: 0x8, addend: 0x0, symName: __ZNSt12_Vector_baseIiSaIiEE17_Vector_impl_dataC1Ev, symObjAddr: 0x1114, symBinAddr: 0x100004280, symSize: 0x2C }
  - { offsetInCU: 0x12724, offset: 0x12724, size: 0x8, addend: 0x0, symName: __ZNSt12_Vector_baseIiSaIiEE17_Vector_impl_dataC2Ev, symObjAddr: 0x10E8, symBinAddr: 0x100004254, symSize: 0x2C }
  - { offsetInCU: 0x12719, offset: 0x12719, size: 0x8, addend: 0x0, symName: __ZNSt12_Vector_baseISt6vectorIiSaIiEESaIS2_EE13_M_deallocateEPS2_m, symObjAddr: 0x1090, symBinAddr: 0x1000041FC, symSize: 0x58 }
  - { offsetInCU: 0x127DE, offset: 0x127DE, size: 0x8, addend: 0x0, symName: __ZNSt15__new_allocatorISt6vectorIiSaIiEEED2Ev, symObjAddr: 0x107C, symBinAddr: 0x1000041E8, symSize: 0x14 }
  - { offsetInCU: 0x12831, offset: 0x12831, size: 0x8, addend: 0x0, symName: __ZNSt12_Vector_baseISt6vectorIiSaIiEESaIS2_EE17_Vector_impl_dataC2Ev, symObjAddr: 0x1050, symBinAddr: 0x1000041BC, symSize: 0x2C }
  - { offsetInCU: 0x12828, offset: 0x12828, size: 0x8, addend: 0x0, symName: __ZNSt12_Vector_baseISt6vectorISt5arrayIiLm2EESaIS2_EESaIS4_EE13_M_deallocateEPS4_m, symObjAddr: 0xFF8, symBinAddr: 0x100004164, symSize: 0x58 }
  - { offsetInCU: 0x128FD, offset: 0x128FD, size: 0x8, addend: 0x0, symName: __ZNSt15__new_allocatorISt6vectorISt5arrayIiLm2EESaIS2_EEED2Ev, symObjAddr: 0xFE4, symBinAddr: 0x100004150, symSize: 0x14 }
  - { offsetInCU: 0x12950, offset: 0x12950, size: 0x8, addend: 0x0, symName: __ZNSt12_Vector_baseISt6vectorISt5arrayIiLm2EESaIS2_EESaIS4_EE17_Vector_impl_dataC2Ev, symObjAddr: 0xFB8, symBinAddr: 0x100004124, symSize: 0x2C }
  - { offsetInCU: 0x12937, offset: 0x12937, size: 0x8, addend: 0x0, symName: __ZNSt6vectorISt5arrayIiLm2EESaIS1_EE9push_backEOS1_, symObjAddr: 0xF88, symBinAddr: 0x1000040F4, symSize: 0x30 }
  - { offsetInCU: 0x1296F, offset: 0x1296F, size: 0x8, addend: 0x0, symName: __ZNSt6vectorIiSaIiEE6resizeEm, symObjAddr: 0xED8, symBinAddr: 0x100004044, symSize: 0xB0 }
  - { offsetInCU: 0x129A7, offset: 0x129A7, size: 0x8, addend: 0x0, symName: __ZNSt6vectorIS_IiSaIiEESaIS1_EE6resizeEmRKS1_, symObjAddr: 0xDFC, symBinAddr: 0x100003F68, symSize: 0xDC }
  - { offsetInCU: 0x12A25, offset: 0x12A25, size: 0x8, addend: 0x0, symName: __ZNSt6vectorIiSaIiEED1Ev, symObjAddr: 0xDA0, symBinAddr: 0x100003F0C, symSize: 0x5C }
  - { offsetInCU: 0x12AC2, offset: 0x12AC2, size: 0x8, addend: 0x0, symName: __ZNSt6vectorIiSaIiEEC1EmRKiRKS0_, symObjAddr: 0xD30, symBinAddr: 0x100003E9C, symSize: 0x70 }
  - { offsetInCU: 0x12AF5, offset: 0x12AF5, size: 0x8, addend: 0x0, symName: __ZNSt6vectorIS_ISt5arrayIiLm2EESaIS1_EESaIS3_EE6resizeEmRKS3_, symObjAddr: 0xC54, symBinAddr: 0x100003DC0, symSize: 0xDC }
  - { offsetInCU: 0x12B83, offset: 0x12B83, size: 0x8, addend: 0x0, symName: __ZNSt6vectorISt5arrayIiLm2EESaIS1_EED1Ev, symObjAddr: 0xBF8, symBinAddr: 0x100003D64, symSize: 0x5C }
  - { offsetInCU: 0x12C01, offset: 0x12C01, size: 0x8, addend: 0x0, symName: __ZNSt12_Vector_baseISt5arrayIiLm2EESaIS1_EED2Ev, symObjAddr: 0xBA8, symBinAddr: 0x100003D14, symSize: 0x50 }
  - { offsetInCU: 0x12C68, offset: 0x12C68, size: 0x8, addend: 0x0, symName: __ZNSt12_Vector_baseISt5arrayIiLm2EESaIS1_EE12_Vector_implC1Ev, symObjAddr: 0xB70, symBinAddr: 0x100003CDC, symSize: 0x38 }
  - { offsetInCU: 0x12C90, offset: 0x12C90, size: 0x8, addend: 0x0, symName: __ZSt3maxIiERKT_S2_S2_, symObjAddr: 0xB38, symBinAddr: 0x100003CA4, symSize: 0x38 }
  - { offsetInCU: 0x12CD5, offset: 0x12CD5, size: 0x8, addend: 0x0, symName: __ZNSt6vectorIS_IiSaIiEESaIS1_EEixEm, symObjAddr: 0xB04, symBinAddr: 0x100003C70, symSize: 0x34 }
  - { offsetInCU: 0x12D09, offset: 0x12D09, size: 0x8, addend: 0x0, symName: __ZSt3minIiERKT_S2_S2_, symObjAddr: 0xACC, symBinAddr: 0x100003C38, symSize: 0x38 }
  - { offsetInCU: 0x12D4C, offset: 0x12D4C, size: 0x8, addend: 0x0, symName: __ZNSt6vectorIiSaIiEEixEm, symObjAddr: 0xAA4, symBinAddr: 0x100003C10, symSize: 0x28 }
  - { offsetInCU: 0x12D84, offset: 0x12D84, size: 0x8, addend: 0x0, symName: __ZNK9__gnu_cxx17__normal_iteratorIPSt5arrayIiLm2EESt6vectorIS2_SaIS2_EEEdeEv, symObjAddr: 0xA8C, symBinAddr: 0x100003BF8, symSize: 0x18 }
  - { offsetInCU: 0x12DAC, offset: 0x12DAC, size: 0x8, addend: 0x0, symName: __ZN9__gnu_cxx17__normal_iteratorIPSt5arrayIiLm2EESt6vectorIS2_SaIS2_EEEppEv, symObjAddr: 0xA64, symBinAddr: 0x100003BD0, symSize: 0x28 }
  - { offsetInCU: 0x12DD0, offset: 0x12DD0, size: 0x8, addend: 0x0, symName: __ZN9__gnu_cxxneIPSt5arrayIiLm2EESt6vectorIS2_SaIS2_EEEEbRKNS_17__normal_iteratorIT_T0_EESC_, symObjAddr: 0xA20, symBinAddr: 0x100003B8C, symSize: 0x44 }
  - { offsetInCU: 0x12E1E, offset: 0x12E1E, size: 0x8, addend: 0x0, symName: __ZNSt6vectorISt5arrayIiLm2EESaIS1_EE3endEv, symObjAddr: 0x9F8, symBinAddr: 0x100003B64, symSize: 0x28 }
  - { offsetInCU: 0x12E46, offset: 0x12E46, size: 0x8, addend: 0x0, symName: __ZNSt6vectorISt5arrayIiLm2EESaIS1_EE5beginEv, symObjAddr: 0x9D4, symBinAddr: 0x100003B40, symSize: 0x24 }
  - { offsetInCU: 0x12E6E, offset: 0x12E6E, size: 0x8, addend: 0x0, symName: __ZNSt6vectorIS_ISt5arrayIiLm2EESaIS1_EESaIS3_EEixEm, symObjAddr: 0x9A0, symBinAddr: 0x100003B0C, symSize: 0x34 }
  - { offsetInCU: 0x12EE3, offset: 0x12EE3, size: 0x8, addend: 0x0, symName: __ZNSt12_Vector_baseIiSaIiEED2Ev, symObjAddr: 0x950, symBinAddr: 0x100003ABC, symSize: 0x50 }
  - { offsetInCU: 0x12F4A, offset: 0x12F4A, size: 0x8, addend: 0x0, symName: __ZNSt12_Vector_baseIiSaIiEE12_Vector_implC1Ev, symObjAddr: 0x918, symBinAddr: 0x100003A84, symSize: 0x38 }
  - { offsetInCU: 0x12FD5, offset: 0x12FD5, size: 0x8, addend: 0x0, symName: __ZNSt12_Vector_baseISt6vectorIiSaIiEESaIS2_EED2Ev, symObjAddr: 0x8BC, symBinAddr: 0x100003A28, symSize: 0x5C }
  - { offsetInCU: 0x1303C, offset: 0x1303C, size: 0x8, addend: 0x0, symName: __ZNSt12_Vector_baseISt6vectorIiSaIiEESaIS2_EE12_Vector_implC1Ev, symObjAddr: 0x884, symBinAddr: 0x1000039F0, symSize: 0x38 }
  - { offsetInCU: 0x130C5, offset: 0x130C5, size: 0x8, addend: 0x0, symName: __ZNSt12_Vector_baseISt6vectorISt5arrayIiLm2EESaIS2_EESaIS4_EED2Ev, symObjAddr: 0x828, symBinAddr: 0x100003994, symSize: 0x5C }
  - { offsetInCU: 0x1312C, offset: 0x1312C, size: 0x8, addend: 0x0, symName: __ZNSt12_Vector_baseISt6vectorISt5arrayIiLm2EESaIS2_EESaIS4_EE12_Vector_implC1Ev, symObjAddr: 0x7F0, symBinAddr: 0x10000395C, symSize: 0x38 }
  - { offsetInCU: 0x1314B, offset: 0x1314B, size: 0x8, addend: 0x0, symName: _main, symObjAddr: 0x528, symBinAddr: 0x100003694, symSize: 0x2C8 }
  - { offsetInCU: 0x13281, offset: 0x13281, size: 0x8, addend: 0x0, symName: __ZNSt6vectorISt5arrayIiLm2EESaIS1_EEC1Ev, symObjAddr: 0x508, symBinAddr: 0x100003674, symSize: 0x20 }
  - { offsetInCU: 0x132C4, offset: 0x132C4, size: 0x8, addend: 0x0, symName: __ZNSt12_Vector_baseISt5arrayIiLm2EESaIS1_EEC2Ev, symObjAddr: 0x4E8, symBinAddr: 0x100003654, symSize: 0x20 }
  - { offsetInCU: 0x1331B, offset: 0x1331B, size: 0x8, addend: 0x0, symName: __ZNSt12_Vector_baseISt5arrayIiLm2EESaIS1_EE12_Vector_implD1Ev, symObjAddr: 0x4BC, symBinAddr: 0x100003628, symSize: 0x2C }
  - { offsetInCU: 0x1332F, offset: 0x1332F, size: 0x8, addend: 0x0, symName: __Z3dfsii, symObjAddr: 0x208, symBinAddr: 0x100003374, symSize: 0x2B4 }
  - { offsetInCU: 0x13410, offset: 0x13410, size: 0x8, addend: 0x0, symName: __ZSt3getILm1EiLm2EERT0_RSt5arrayIS0_XT1_EE, symObjAddr: 0x1F0, symBinAddr: 0x10000335C, symSize: 0x18 }
  - { offsetInCU: 0x13455, offset: 0x13455, size: 0x8, addend: 0x0, symName: __ZSt3getILm1EiLm2EEOT0_OSt5arrayIS0_XT1_EE, symObjAddr: 0x1D0, symBinAddr: 0x10000333C, symSize: 0x20 }
  - { offsetInCU: 0x134A0, offset: 0x134A0, size: 0x8, addend: 0x0, symName: __ZSt4moveIRiEONSt16remove_referenceIT_E4typeEOS2_, symObjAddr: 0x1BC, symBinAddr: 0x100003328, symSize: 0x14 }
  - { offsetInCU: 0x134D0, offset: 0x134D0, size: 0x8, addend: 0x0, symName: __ZSt3getILm0EiLm2EERT0_RSt5arrayIS0_XT1_EE, symObjAddr: 0x1A8, symBinAddr: 0x100003314, symSize: 0x14 }
  - { offsetInCU: 0x13515, offset: 0x13515, size: 0x8, addend: 0x0, symName: __ZSt3getILm0EiLm2EEOT0_OSt5arrayIS0_XT1_EE, symObjAddr: 0x188, symBinAddr: 0x1000032F4, symSize: 0x20 }
  - { offsetInCU: 0x1358B, offset: 0x1358B, size: 0x8, addend: 0x0, symName: __ZNSt6vectorIiSaIiEEC1Ev, symObjAddr: 0x168, symBinAddr: 0x1000032D4, symSize: 0x20 }
  - { offsetInCU: 0x135CE, offset: 0x135CE, size: 0x8, addend: 0x0, symName: __ZNSt12_Vector_baseIiSaIiEEC2Ev, symObjAddr: 0x148, symBinAddr: 0x1000032B4, symSize: 0x20 }
  - { offsetInCU: 0x13625, offset: 0x13625, size: 0x8, addend: 0x0, symName: __ZNSt12_Vector_baseIiSaIiEE12_Vector_implD1Ev, symObjAddr: 0x11C, symBinAddr: 0x100003288, symSize: 0x2C }
  - { offsetInCU: 0x13678, offset: 0x13678, size: 0x8, addend: 0x0, symName: __ZNSt6vectorIS_IiSaIiEESaIS1_EEC1Ev, symObjAddr: 0xFC, symBinAddr: 0x100003268, symSize: 0x20 }
  - { offsetInCU: 0x136C2, offset: 0x136C2, size: 0x8, addend: 0x0, symName: __ZNSt12_Vector_baseISt6vectorIiSaIiEESaIS2_EEC2Ev, symObjAddr: 0xDC, symBinAddr: 0x100003248, symSize: 0x20 }
  - { offsetInCU: 0x13719, offset: 0x13719, size: 0x8, addend: 0x0, symName: __ZNSt12_Vector_baseISt6vectorIiSaIiEESaIS2_EE12_Vector_implD1Ev, symObjAddr: 0xB0, symBinAddr: 0x10000321C, symSize: 0x2C }
  - { offsetInCU: 0x1376A, offset: 0x1376A, size: 0x8, addend: 0x0, symName: __ZNSt6vectorIS_ISt5arrayIiLm2EESaIS1_EESaIS3_EEC1Ev, symObjAddr: 0x90, symBinAddr: 0x1000031FC, symSize: 0x20 }
  - { offsetInCU: 0x137B4, offset: 0x137B4, size: 0x8, addend: 0x0, symName: __ZNSt12_Vector_baseISt6vectorISt5arrayIiLm2EESaIS2_EESaIS4_EEC2Ev, symObjAddr: 0x70, symBinAddr: 0x1000031DC, symSize: 0x20 }
  - { offsetInCU: 0x1380B, offset: 0x1380B, size: 0x8, addend: 0x0, symName: __ZNSt12_Vector_baseISt6vectorISt5arrayIiLm2EESaIS2_EESaIS4_EE12_Vector_implD1Ev, symObjAddr: 0x44, symBinAddr: 0x1000031B0, symSize: 0x2C }
  - { offsetInCU: 0x1380D, offset: 0x1380D, size: 0x8, addend: 0x0, symName: __ZdlPvS_, symObjAddr: 0x2C, symBinAddr: 0x100003198, symSize: 0x18 }
  - { offsetInCU: 0x13840, offset: 0x13840, size: 0x8, addend: 0x0, symName: __ZnwmPv, symObjAddr: 0x14, symBinAddr: 0x100003180, symSize: 0x18 }
  - { offsetInCU: 0x1386B, offset: 0x1386B, size: 0x8, addend: 0x0, symName: __ZSt17__size_to_integerm, symObjAddr: 0x0, symBinAddr: 0x10000316C, symSize: 0x14 }
...
