---
triple:          'arm64-apple-darwin'
binary-path:     '/Users/dingkai/Code/IOI2024/Atcoder/Cabc308.gout'
relocations:
  - { offsetInCU: 0xBD, offset: 0xBD, size: 0x8, addend: 0x0, symName: __ZN9__gnu_cxx5__ops16__iter_less_iterEv, symObjAddr: 0x0, symBinAddr: 0x100004098, symSize: 0x8 }
  - { offsetInCU: 0x49E9, offset: 0x49E9, size: 0x8, addend: 0x0, symName: __ZStL8__ioinit, symObjAddr: 0x24C48, symBinAddr: 0x10000C058, symSize: 0x0 }
  - { offsetInCU: 0x4B2A, offset: 0x4B2A, size: 0x8, addend: 0x0, symName: _rate, symObjAddr: 0x24C50, symBinAddr: 0x10000C060, symSize: 0x0 }
  - { offsetInCU: 0x4CBC, offset: 0x4CBC, size: 0x8, addend: 0x0, symName: __GLOBAL__sub_I_Cabc308.cpp, symObjAddr: 0x233C, symBinAddr: 0x1000063D4, symSize: 0x14 }
  - { offsetInCU: 0x4D01, offset: 0x4D01, size: 0x8, addend: 0x0, symName: __ZNSt6vectorISt4pairIdiESaIS1_EED1Ev, symObjAddr: 0x22E0, symBinAddr: 0x100006378, symSize: 0x5C }
  - { offsetInCU: 0x4D59, offset: 0x4D59, size: 0x8, addend: 0x0, symName: __Z41__static_initialization_and_destruction_0v, symObjAddr: 0x227C, symBinAddr: 0x100006314, symSize: 0x64 }
  - { offsetInCU: 0x4D4F, offset: 0x4D4F, size: 0x8, addend: 0x0, symName: __ZSt4moveIRiEONSt16remove_referenceIT_E4typeEOS2_, symObjAddr: 0x2268, symBinAddr: 0x100006300, symSize: 0x14 }
  - { offsetInCU: 0x4D85, offset: 0x4D85, size: 0x8, addend: 0x0, symName: __ZSt4moveIRdEONSt16remove_referenceIT_E4typeEOS2_, symObjAddr: 0x2254, symBinAddr: 0x1000062EC, symSize: 0x14 }
  - { offsetInCU: 0x4DB5, offset: 0x4DB5, size: 0x8, addend: 0x0, symName: __ZNSt20__copy_move_backwardILb1ELb0ESt26random_access_iterator_tagE13__copy_move_bIPSt4pairIdiES5_EET0_T_S7_S6_, symObjAddr: 0x21D8, symBinAddr: 0x100006270, symSize: 0x7C }
  - { offsetInCU: 0x4E1F, offset: 0x4E1F, size: 0x8, addend: 0x0, symName: __ZSt4swapIiENSt9enable_ifIXsrSt6__and_IJSt6__not_ISt15__is_tuple_likeIT_EESt21is_move_constructibleIS4_ESt18is_move_assignableIS4_EEE5valueEvE4typeERS4_SE_, symObjAddr: 0x2184, symBinAddr: 0x10000621C, symSize: 0x54 }
  - { offsetInCU: 0x4E6D, offset: 0x4E6D, size: 0x8, addend: 0x0, symName: __ZSt4swapIdENSt9enable_ifIXsrSt6__and_IJSt6__not_ISt15__is_tuple_likeIT_EESt21is_move_constructibleIS4_ESt18is_move_assignableIS4_EEE5valueEvE4typeERS4_SE_, symObjAddr: 0x2130, symBinAddr: 0x1000061C8, symSize: 0x54 }
  - { offsetInCU: 0x4ECA, offset: 0x4ECA, size: 0x8, addend: 0x0, symName: __ZNK9__gnu_cxx5__ops14_Iter_less_valclINS_17__normal_iteratorIPSt4pairIdiESt6vectorIS5_SaIS5_EEEES5_EEbT_RT0_, symObjAddr: 0x2100, symBinAddr: 0x100006198, symSize: 0x30 }
  - { offsetInCU: 0x4F1E, offset: 0x4F1E, size: 0x8, addend: 0x0, symName: __ZSt23__copy_move_backward_a2ILb1EPSt4pairIdiES2_ET1_T0_S4_S3_, symObjAddr: 0x20D4, symBinAddr: 0x10000616C, symSize: 0x2C }
  - { offsetInCU: 0x4F86, offset: 0x4F86, size: 0x8, addend: 0x0, symName: __ZNSt4pairIdiE4swapERS0_, symObjAddr: 0x2090, symBinAddr: 0x100006128, symSize: 0x44 }
  - { offsetInCU: 0x4FBF, offset: 0x4FBF, size: 0x8, addend: 0x0, symName: __ZSt11__push_heapIN9__gnu_cxx17__normal_iteratorIPSt4pairIdiESt6vectorIS3_SaIS3_EEEElS3_NS0_5__ops14_Iter_less_valEEvT_T0_SC_T1_RT2_, symObjAddr: 0x1F60, symBinAddr: 0x100005FF8, symSize: 0x130 }
  - { offsetInCU: 0x5063, offset: 0x5063, size: 0x8, addend: 0x0, symName: __ZSt4moveIRN9__gnu_cxx5__ops15_Iter_less_iterEEONSt16remove_referenceIT_E4typeEOS5_, symObjAddr: 0x1F4C, symBinAddr: 0x100005FE4, symSize: 0x14 }
  - { offsetInCU: 0x5100, offset: 0x5100, size: 0x8, addend: 0x0, symName: __ZSt7forwardISt4pairIdiEEOT_RNSt16remove_referenceIS2_E4typeE, symObjAddr: 0x1F38, symBinAddr: 0x100005FD0, symSize: 0x14 }
  - { offsetInCU: 0x5130, offset: 0x5130, size: 0x8, addend: 0x0, symName: __ZSt12__niter_wrapIN9__gnu_cxx17__normal_iteratorIPSt4pairIdiESt6vectorIS3_SaIS3_EEEES4_ET_S9_T0_, symObjAddr: 0x1EFC, symBinAddr: 0x100005F94, symSize: 0x3C }
  - { offsetInCU: 0x517A, offset: 0x517A, size: 0x8, addend: 0x0, symName: __ZSt23__copy_move_backward_a1ILb1EPSt4pairIdiES2_ET1_T0_S4_S3_, symObjAddr: 0x1ED0, symBinAddr: 0x100005F68, symSize: 0x2C }
  - { offsetInCU: 0x51DE, offset: 0x51DE, size: 0x8, addend: 0x0, symName: __ZSt12__niter_baseIPSt4pairIdiESt6vectorIS1_SaIS1_EEET_N9__gnu_cxx17__normal_iteratorIS6_T0_EE, symObjAddr: 0x1EB0, symBinAddr: 0x100005F48, symSize: 0x20 }
  - { offsetInCU: 0x5218, offset: 0x5218, size: 0x8, addend: 0x0, symName: __ZSt4swapIdiENSt9enable_ifIXsrSt6__and_IJSt14__is_swappableIT_ES2_IT0_EEE5valueEvE4typeERSt4pairIS3_S5_ESC_, symObjAddr: 0x1E88, symBinAddr: 0x100005F20, symSize: 0x28 }
  - { offsetInCU: 0x5262, offset: 0x5262, size: 0x8, addend: 0x0, symName: __ZSt13__adjust_heapIN9__gnu_cxx17__normal_iteratorIPSt4pairIdiESt6vectorIS3_SaIS3_EEEElS3_NS0_5__ops15_Iter_less_iterEEvT_T0_SC_T1_T2_, symObjAddr: 0x1CAC, symBinAddr: 0x100005D44, symSize: 0x1DC }
  - { offsetInCU: 0x53CA, offset: 0x53CA, size: 0x8, addend: 0x0, symName: __ZNSt4pairIdiEC1IdiLb1EEEv, symObjAddr: 0x1C88, symBinAddr: 0x100005D20, symSize: 0x24 }
  - { offsetInCU: 0x53F4, offset: 0x53F4, size: 0x8, addend: 0x0, symName: __ZNK9__gnu_cxx5__ops14_Val_less_iterclISt4pairIdiENS_17__normal_iteratorIPS4_St6vectorIS4_SaIS4_EEEEEEbRT_T0_, symObjAddr: 0x1C54, symBinAddr: 0x100005CEC, symSize: 0x34 }
  - { offsetInCU: 0x544E, offset: 0x544E, size: 0x8, addend: 0x0, symName: __ZSt7forwardIiEOT_RNSt16remove_referenceIS0_E4typeE, symObjAddr: 0x1C40, symBinAddr: 0x100005CD8, symSize: 0x14 }
  - { offsetInCU: 0x5484, offset: 0x5484, size: 0x8, addend: 0x0, symName: __ZSt7forwardIdEOT_RNSt16remove_referenceIS0_E4typeE, symObjAddr: 0x1C2C, symBinAddr: 0x100005CC4, symSize: 0x14 }
  - { offsetInCU: 0x54B4, offset: 0x54B4, size: 0x8, addend: 0x0, symName: __ZSt22__copy_move_backward_aILb1EN9__gnu_cxx17__normal_iteratorIPSt4pairIdiESt6vectorIS3_SaIS3_EEEES8_ET1_T0_SA_S9_, symObjAddr: 0x1BCC, symBinAddr: 0x100005C64, symSize: 0x60 }
  - { offsetInCU: 0x5518, offset: 0x5518, size: 0x8, addend: 0x0, symName: __ZSt12__miter_baseIN9__gnu_cxx17__normal_iteratorIPSt4pairIdiESt6vectorIS3_SaIS3_EEEEET_S9_, symObjAddr: 0x1BB8, symBinAddr: 0x100005C50, symSize: 0x14 }
  - { offsetInCU: 0x5549, offset: 0x5549, size: 0x8, addend: 0x0, symName: __ZStltIdiEbRKSt4pairIT_T0_ES5_, symObjAddr: 0x1B38, symBinAddr: 0x100005BD0, symSize: 0x80 }
  - { offsetInCU: 0x5593, offset: 0x5593, size: 0x8, addend: 0x0, symName: __ZSt9iter_swapIN9__gnu_cxx17__normal_iteratorIPSt4pairIdiESt6vectorIS3_SaIS3_EEEES8_EvT_T0_, symObjAddr: 0x1AF4, symBinAddr: 0x100005B8C, symSize: 0x44 }
  - { offsetInCU: 0x55DF, offset: 0x55DF, size: 0x8, addend: 0x0, symName: __ZN9__gnu_cxx17__normal_iteratorIPSt4pairIdiESt6vectorIS2_SaIS2_EEEmmEv, symObjAddr: 0x1ACC, symBinAddr: 0x100005B64, symSize: 0x28 }
  - { offsetInCU: 0x5603, offset: 0x5603, size: 0x8, addend: 0x0, symName: __ZSt10__pop_heapIN9__gnu_cxx17__normal_iteratorIPSt4pairIdiESt6vectorIS3_SaIS3_EEEENS0_5__ops15_Iter_less_iterEEvT_SB_SB_RT0_, symObjAddr: 0x1A3C, symBinAddr: 0x100005AD4, symSize: 0x90 }
  - { offsetInCU: 0x5699, offset: 0x5699, size: 0x8, addend: 0x0, symName: __ZN9__gnu_cxxltIPSt4pairIdiESt6vectorIS2_SaIS2_EEEEbRKNS_17__normal_iteratorIT_T0_EESC_, symObjAddr: 0x19F8, symBinAddr: 0x100005A90, symSize: 0x44 }
  - { offsetInCU: 0x56E3, offset: 0x56E3, size: 0x8, addend: 0x0, symName: __ZSt11__make_heapIN9__gnu_cxx17__normal_iteratorIPSt4pairIdiESt6vectorIS3_SaIS3_EEEENS0_5__ops15_Iter_less_iterEEvT_SB_RT0_, symObjAddr: 0x191C, symBinAddr: 0x1000059B4, symSize: 0xDC }
  - { offsetInCU: 0x5793, offset: 0x5793, size: 0x8, addend: 0x0, symName: __ZSt19__relocate_object_aISt4pairIdiES1_SaIS1_EEvPT_PT0_RT1_, symObjAddr: 0x1858, symBinAddr: 0x1000058F0, symSize: 0xC4 }
  - { offsetInCU: 0x58C7, offset: 0x58C7, size: 0x8, addend: 0x0, symName: __ZSt10_ConstructISt4pairIdiEJEEvPT_DpOT0_, symObjAddr: 0x182C, symBinAddr: 0x1000058C4, symSize: 0x2C }
  - { offsetInCU: 0x5900, offset: 0x5900, size: 0x8, addend: 0x0, symName: __ZSt11__addressofISt4pairIdiEEPT_RS2_, symObjAddr: 0x1818, symBinAddr: 0x1000058B0, symSize: 0x14 }
  - { offsetInCU: 0x5944, offset: 0x5944, size: 0x8, addend: 0x0, symName: __ZSt25__unguarded_linear_insertIN9__gnu_cxx17__normal_iteratorIPSt4pairIdiESt6vectorIS3_SaIS3_EEEENS0_5__ops14_Val_less_iterEEvT_T0_, symObjAddr: 0x1760, symBinAddr: 0x1000057F8, symSize: 0xB8 }
  - { offsetInCU: 0x59B2, offset: 0x59B2, size: 0x8, addend: 0x0, symName: __ZNSt4pairIdiEaSEOS0_, symObjAddr: 0x1718, symBinAddr: 0x1000057B0, symSize: 0x48 }
  - { offsetInCU: 0x59E6, offset: 0x59E6, size: 0x8, addend: 0x0, symName: __ZSt13move_backwardIN9__gnu_cxx17__normal_iteratorIPSt4pairIdiESt6vectorIS3_SaIS3_EEEES8_ET0_T_SA_S9_, symObjAddr: 0x16D0, symBinAddr: 0x100005768, symSize: 0x48 }
  - { offsetInCU: 0x5A46, offset: 0x5A46, size: 0x8, addend: 0x0, symName: __ZSt4moveIRSt4pairIdiEEONSt16remove_referenceIT_E4typeEOS4_, symObjAddr: 0x16BC, symBinAddr: 0x100005754, symSize: 0x14 }
  - { offsetInCU: 0x5A85, offset: 0x5A85, size: 0x8, addend: 0x0, symName: __ZNK9__gnu_cxx5__ops15_Iter_less_iterclINS_17__normal_iteratorIPSt4pairIdiESt6vectorIS5_SaIS5_EEEESA_EEbT_T0_, symObjAddr: 0x1674, symBinAddr: 0x10000570C, symSize: 0x48 }
  - { offsetInCU: 0x5AD9, offset: 0x5AD9, size: 0x8, addend: 0x0, symName: __ZN9__gnu_cxxeqIPSt4pairIdiESt6vectorIS2_SaIS2_EEEEbRKNS_17__normal_iteratorIT_T0_EESC_, symObjAddr: 0x1630, symBinAddr: 0x1000056C8, symSize: 0x44 }
  - { offsetInCU: 0x5B23, offset: 0x5B23, size: 0x8, addend: 0x0, symName: __ZSt21__unguarded_partitionIN9__gnu_cxx17__normal_iteratorIPSt4pairIdiESt6vectorIS3_SaIS3_EEEENS0_5__ops15_Iter_less_iterEET_SB_SB_SB_T0_, symObjAddr: 0x156C, symBinAddr: 0x100005604, symSize: 0xC4 }
  - { offsetInCU: 0x5B8D, offset: 0x5B8D, size: 0x8, addend: 0x0, symName: __ZSt22__move_median_to_firstIN9__gnu_cxx17__normal_iteratorIPSt4pairIdiESt6vectorIS3_SaIS3_EEEENS0_5__ops15_Iter_less_iterEEvT_SB_SB_SB_T0_, symObjAddr: 0x1448, symBinAddr: 0x1000054E0, symSize: 0x124 }
  - { offsetInCU: 0x5C06, offset: 0x5C06, size: 0x8, addend: 0x0, symName: __ZNK9__gnu_cxx17__normal_iteratorIPSt4pairIdiESt6vectorIS2_SaIS2_EEEmiEl, symObjAddr: 0x1404, symBinAddr: 0x10000549C, symSize: 0x44 }
  - { offsetInCU: 0x5C3A, offset: 0x5C3A, size: 0x8, addend: 0x0, symName: __ZSt11__sort_heapIN9__gnu_cxx17__normal_iteratorIPSt4pairIdiESt6vectorIS3_SaIS3_EEEENS0_5__ops15_Iter_less_iterEEvT_SB_RT0_, symObjAddr: 0x139C, symBinAddr: 0x100005434, symSize: 0x68 }
  - { offsetInCU: 0x5C94, offset: 0x5C94, size: 0x8, addend: 0x0, symName: __ZSt13__heap_selectIN9__gnu_cxx17__normal_iteratorIPSt4pairIdiESt6vectorIS3_SaIS3_EEEENS0_5__ops15_Iter_less_iterEEvT_SB_SB_T0_, symObjAddr: 0x12F8, symBinAddr: 0x100005390, symSize: 0xA4 }
  - { offsetInCU: 0x5D20, offset: 0x5D20, size: 0x8, addend: 0x0, symName: __ZSt13__countl_zeroImEiT_, symObjAddr: 0x12A4, symBinAddr: 0x10000533C, symSize: 0x54 }
  - { offsetInCU: 0x5DAD, offset: 0x5DAD, size: 0x8, addend: 0x0, symName: __ZNSt12_Destroy_auxILb1EE9__destroyIPSt4pairIdiEEEvT_S5_, symObjAddr: 0x128C, symBinAddr: 0x100005324, symSize: 0x18 }
  - { offsetInCU: 0x5DDE, offset: 0x5DDE, size: 0x8, addend: 0x0, symName: __ZSt14__relocate_a_1IPSt4pairIdiES2_SaIS1_EET0_T_S5_S4_RT1_, symObjAddr: 0x1208, symBinAddr: 0x1000052A0, symSize: 0x84 }
  - { offsetInCU: 0x5E61, offset: 0x5E61, size: 0x8, addend: 0x0, symName: __ZSt12__niter_baseIPSt4pairIdiEET_S3_, symObjAddr: 0x11F4, symBinAddr: 0x10000528C, symSize: 0x14 }
  - { offsetInCU: 0x5E96, offset: 0x5E96, size: 0x8, addend: 0x0, symName: __ZNSt15__new_allocatorISt4pairIdiEE8allocateEmPKv, symObjAddr: 0x1178, symBinAddr: 0x100005210, symSize: 0x7C }
  - { offsetInCU: 0x5F00, offset: 0x5F00, size: 0x8, addend: 0x0, symName: __ZNSt27__uninitialized_default_n_1ILb0EE18__uninit_default_nIPSt4pairIdiEmEET_S5_T0_, symObjAddr: 0x10F0, symBinAddr: 0x100005188, symSize: 0x88 }
  - { offsetInCU: 0x5F5A, offset: 0x5F5A, size: 0x8, addend: 0x0, symName: __ZSt3minImERKT_S2_S2_, symObjAddr: 0x10B8, symBinAddr: 0x100005150, symSize: 0x38 }
  - { offsetInCU: 0x5FAD, offset: 0x5FAD, size: 0x8, addend: 0x0, symName: __ZSt26__unguarded_insertion_sortIN9__gnu_cxx17__normal_iteratorIPSt4pairIdiESt6vectorIS3_SaIS3_EEEENS0_5__ops15_Iter_less_iterEEvT_SB_T0_, symObjAddr: 0x1048, symBinAddr: 0x1000050E0, symSize: 0x70 }
  - { offsetInCU: 0x6029, offset: 0x6029, size: 0x8, addend: 0x0, symName: __ZSt16__insertion_sortIN9__gnu_cxx17__normal_iteratorIPSt4pairIdiESt6vectorIS3_SaIS3_EEEENS0_5__ops15_Iter_less_iterEEvT_SB_T0_, symObjAddr: 0xF3C, symBinAddr: 0x100004FD4, symSize: 0x10C }
  - { offsetInCU: 0x60CB, offset: 0x60CB, size: 0x8, addend: 0x0, symName: __ZNK9__gnu_cxx17__normal_iteratorIPSt4pairIdiESt6vectorIS2_SaIS2_EEEplEl, symObjAddr: 0xEFC, symBinAddr: 0x100004F94, symSize: 0x40 }
  - { offsetInCU: 0x60FF, offset: 0x60FF, size: 0x8, addend: 0x0, symName: __ZSt27__unguarded_partition_pivotIN9__gnu_cxx17__normal_iteratorIPSt4pairIdiESt6vectorIS3_SaIS3_EEEENS0_5__ops15_Iter_less_iterEET_SB_SB_T0_, symObjAddr: 0xE58, symBinAddr: 0x100004EF0, symSize: 0xA4 }
  - { offsetInCU: 0x6169, offset: 0x6169, size: 0x8, addend: 0x0, symName: __ZSt14__partial_sortIN9__gnu_cxx17__normal_iteratorIPSt4pairIdiESt6vectorIS3_SaIS3_EEEENS0_5__ops15_Iter_less_iterEEvT_SB_SB_T0_, symObjAddr: 0xE0C, symBinAddr: 0x100004EA4, symSize: 0x4C }
  - { offsetInCU: 0x61D3, offset: 0x61D3, size: 0x8, addend: 0x0, symName: __ZSt11__bit_widthImEiT_, symObjAddr: 0xDDC, symBinAddr: 0x100004E74, symSize: 0x30 }
  - { offsetInCU: 0x6214, offset: 0x6214, size: 0x8, addend: 0x0, symName: __ZSt8_DestroyIPSt4pairIdiEEvT_S3_, symObjAddr: 0xDB4, symBinAddr: 0x100004E4C, symSize: 0x28 }
  - { offsetInCU: 0x6253, offset: 0x6253, size: 0x8, addend: 0x0, symName: __ZSt12__relocate_aIPSt4pairIdiES2_SaIS1_EET0_T_S5_S4_RT1_, symObjAddr: 0xD58, symBinAddr: 0x100004DF0, symSize: 0x5C }
  - { offsetInCU: 0x62E7, offset: 0x62E7, size: 0x8, addend: 0x0, symName: __ZSt3maxImERKT_S2_S2_, symObjAddr: 0xD20, symBinAddr: 0x100004DB8, symSize: 0x38 }
  - { offsetInCU: 0x6328, offset: 0x6328, size: 0x8, addend: 0x0, symName: __ZSt25__uninitialized_default_nIPSt4pairIdiEmET_S3_T0_, symObjAddr: 0xCF4, symBinAddr: 0x100004D8C, symSize: 0x2C }
  - { offsetInCU: 0x6386, offset: 0x6386, size: 0x8, addend: 0x0, symName: __ZNKSt12_Vector_baseISt4pairIdiESaIS1_EE19_M_get_Tp_allocatorEv, symObjAddr: 0xCE0, symBinAddr: 0x100004D78, symSize: 0x14 }
  - { offsetInCU: 0x63AA, offset: 0x63AA, size: 0x8, addend: 0x0, symName: __ZNSt6vectorISt4pairIdiESaIS1_EE11_S_max_sizeERKS2_, symObjAddr: 0xC8C, symBinAddr: 0x100004D24, symSize: 0x54 }
  - { offsetInCU: 0x645B, offset: 0x645B, size: 0x8, addend: 0x0, symName: __ZNSt15__new_allocatorISt4pairIdiEE10deallocateEPS1_m, symObjAddr: 0xC5C, symBinAddr: 0x100004CF4, symSize: 0x30 }
  - { offsetInCU: 0x649D, offset: 0x649D, size: 0x8, addend: 0x0, symName: __ZSt22__final_insertion_sortIN9__gnu_cxx17__normal_iteratorIPSt4pairIdiESt6vectorIS3_SaIS3_EEEENS0_5__ops15_Iter_less_iterEEvT_SB_T0_, symObjAddr: 0xBC0, symBinAddr: 0x100004C58, symSize: 0x9C }
  - { offsetInCU: 0x64F7, offset: 0x64F7, size: 0x8, addend: 0x0, symName: __ZSt16__introsort_loopIN9__gnu_cxx17__normal_iteratorIPSt4pairIdiESt6vectorIS3_SaIS3_EEEElNS0_5__ops15_Iter_less_iterEEvT_SB_T0_T1_, symObjAddr: 0xB08, symBinAddr: 0x100004BA0, symSize: 0xB8 }
  - { offsetInCU: 0x658C, offset: 0x658C, size: 0x8, addend: 0x0, symName: __ZSt4__lgIlET_S0_, symObjAddr: 0xAE4, symBinAddr: 0x100004B7C, symSize: 0x24 }
  - { offsetInCU: 0x65BD, offset: 0x65BD, size: 0x8, addend: 0x0, symName: __ZN9__gnu_cxxmiIPSt4pairIdiESt6vectorIS2_SaIS2_EEEENS_17__normal_iteratorIT_T0_E15difference_typeERKSA_SD_, symObjAddr: 0xAA4, symBinAddr: 0x100004B3C, symSize: 0x40 }
  - { offsetInCU: 0x663F, offset: 0x663F, size: 0x8, addend: 0x0, symName: __ZNSt6vectorISt4pairIdiESaIS1_EE11_S_relocateEPS1_S4_S4_RS2_, symObjAddr: 0xA70, symBinAddr: 0x100004B08, symSize: 0x34 }
  - { offsetInCU: 0x669B, offset: 0x669B, size: 0x8, addend: 0x0, symName: __ZNSt12_Vector_baseISt4pairIdiESaIS1_EE11_M_allocateEm, symObjAddr: 0xA20, symBinAddr: 0x100004AB8, symSize: 0x50 }
  - { offsetInCU: 0x66FD, offset: 0x66FD, size: 0x8, addend: 0x0, symName: __ZNKSt6vectorISt4pairIdiESaIS1_EE12_M_check_lenEmPKc, symObjAddr: 0x950, symBinAddr: 0x1000049E8, symSize: 0xD0 }
  - { offsetInCU: 0x6751, offset: 0x6751, size: 0x8, addend: 0x0, symName: __ZSt27__uninitialized_default_n_aIPSt4pairIdiEmS1_ET_S3_T0_RSaIT1_E, symObjAddr: 0x928, symBinAddr: 0x1000049C0, symSize: 0x28 }
  - { offsetInCU: 0x67B0, offset: 0x67B0, size: 0x8, addend: 0x0, symName: __ZNSt12_Vector_baseISt4pairIdiESaIS1_EE19_M_get_Tp_allocatorEv, symObjAddr: 0x914, symBinAddr: 0x1000049AC, symSize: 0x14 }
  - { offsetInCU: 0x67D8, offset: 0x67D8, size: 0x8, addend: 0x0, symName: __ZNKSt6vectorISt4pairIdiESaIS1_EE8max_sizeEv, symObjAddr: 0x8F4, symBinAddr: 0x10000498C, symSize: 0x20 }
  - { offsetInCU: 0x6842, offset: 0x6842, size: 0x8, addend: 0x0, symName: __ZNK9__gnu_cxx17__normal_iteratorIPSt4pairIdiESt6vectorIS2_SaIS2_EEE4baseEv, symObjAddr: 0x8E0, symBinAddr: 0x100004978, symSize: 0x14 }
  - { offsetInCU: 0x6866, offset: 0x6866, size: 0x8, addend: 0x0, symName: __ZSt6__sortIN9__gnu_cxx17__normal_iteratorIPSt4pairIdiESt6vectorIS3_SaIS3_EEEENS0_5__ops15_Iter_less_iterEEvT_SB_T0_, symObjAddr: 0x864, symBinAddr: 0x1000048FC, symSize: 0x7C }
  - { offsetInCU: 0x6931, offset: 0x6931, size: 0x8, addend: 0x0, symName: __ZN9__gnu_cxx17__normal_iteratorIPSt4pairIdiESt6vectorIS2_SaIS2_EEEC1ERKS3_, symObjAddr: 0x83C, symBinAddr: 0x1000048D4, symSize: 0x28 }
  - { offsetInCU: 0x6915, offset: 0x6915, size: 0x8, addend: 0x0, symName: __ZNSt6vectorISt4pairIdiESaIS1_EE15_M_erase_at_endEPS1_, symObjAddr: 0x7B4, symBinAddr: 0x10000484C, symSize: 0x88 }
  - { offsetInCU: 0x69A1, offset: 0x69A1, size: 0x8, addend: 0x0, symName: __ZNSt6vectorISt4pairIdiESaIS1_EE17_M_default_appendEm, symObjAddr: 0x5B4, symBinAddr: 0x10000464C, symSize: 0x200 }
  - { offsetInCU: 0x6A45, offset: 0x6A45, size: 0x8, addend: 0x0, symName: __ZNKSt6vectorISt4pairIdiESaIS1_EE4sizeEv, symObjAddr: 0x58C, symBinAddr: 0x100004624, symSize: 0x28 }
  - { offsetInCU: 0x6A6D, offset: 0x6A6D, size: 0x8, addend: 0x0, symName: __ZNSt12_Vector_baseISt4pairIdiESaIS1_EE13_M_deallocateEPS1_m, symObjAddr: 0x534, symBinAddr: 0x1000045CC, symSize: 0x58 }
  - { offsetInCU: 0x6B2C, offset: 0x6B2C, size: 0x8, addend: 0x0, symName: __ZNSt15__new_allocatorISt4pairIdiEED2Ev, symObjAddr: 0x520, symBinAddr: 0x1000045B8, symSize: 0x14 }
  - { offsetInCU: 0x6B7F, offset: 0x6B7F, size: 0x8, addend: 0x0, symName: __ZNSt12_Vector_baseISt4pairIdiESaIS1_EE17_Vector_impl_dataC2Ev, symObjAddr: 0x4F4, symBinAddr: 0x10000458C, symSize: 0x2C }
  - { offsetInCU: 0x6B7C, offset: 0x6B7C, size: 0x8, addend: 0x0, symName: __ZNK9__gnu_cxx17__normal_iteratorIPSt4pairIdiESt6vectorIS2_SaIS2_EEEdeEv, symObjAddr: 0x4DC, symBinAddr: 0x100004574, symSize: 0x18 }
  - { offsetInCU: 0x6BA4, offset: 0x6BA4, size: 0x8, addend: 0x0, symName: __ZN9__gnu_cxx17__normal_iteratorIPSt4pairIdiESt6vectorIS2_SaIS2_EEEppEv, symObjAddr: 0x4B4, symBinAddr: 0x10000454C, symSize: 0x28 }
  - { offsetInCU: 0x6BC8, offset: 0x6BC8, size: 0x8, addend: 0x0, symName: __ZN9__gnu_cxxneIPSt4pairIdiESt6vectorIS2_SaIS2_EEEEbRKNS_17__normal_iteratorIT_T0_EESC_, symObjAddr: 0x470, symBinAddr: 0x100004508, symSize: 0x44 }
  - { offsetInCU: 0x6C12, offset: 0x6C12, size: 0x8, addend: 0x0, symName: __ZSt4sortIN9__gnu_cxx17__normal_iteratorIPSt4pairIdiESt6vectorIS3_SaIS3_EEEEEvT_S9_, symObjAddr: 0x438, symBinAddr: 0x1000044D0, symSize: 0x38 }
  - { offsetInCU: 0x6C57, offset: 0x6C57, size: 0x8, addend: 0x0, symName: __ZNSt6vectorISt4pairIdiESaIS1_EE3endEv, symObjAddr: 0x410, symBinAddr: 0x1000044A8, symSize: 0x28 }
  - { offsetInCU: 0x6C7F, offset: 0x6C7F, size: 0x8, addend: 0x0, symName: __ZNSt6vectorISt4pairIdiESaIS1_EE5beginEv, symObjAddr: 0x3EC, symBinAddr: 0x100004484, symSize: 0x24 }
  - { offsetInCU: 0x6CA7, offset: 0x6CA7, size: 0x8, addend: 0x0, symName: __ZNSt6vectorISt4pairIdiESaIS1_EEixEm, symObjAddr: 0x3C4, symBinAddr: 0x10000445C, symSize: 0x28 }
  - { offsetInCU: 0x6CDF, offset: 0x6CDF, size: 0x8, addend: 0x0, symName: __ZNSt6vectorISt4pairIdiESaIS1_EE6resizeEm, symObjAddr: 0x314, symBinAddr: 0x1000043AC, symSize: 0xB0 }
  - { offsetInCU: 0x6D60, offset: 0x6D60, size: 0x8, addend: 0x0, symName: __ZNSt12_Vector_baseISt4pairIdiESaIS1_EED2Ev, symObjAddr: 0x2C4, symBinAddr: 0x10000435C, symSize: 0x50 }
  - { offsetInCU: 0x6DC7, offset: 0x6DC7, size: 0x8, addend: 0x0, symName: __ZNSt12_Vector_baseISt4pairIdiESaIS1_EE12_Vector_implC1Ev, symObjAddr: 0x28C, symBinAddr: 0x100004324, symSize: 0x38 }
  - { offsetInCU: 0x6DFC, offset: 0x6DFC, size: 0x8, addend: 0x0, symName: _main, symObjAddr: 0xBC, symBinAddr: 0x100004154, symSize: 0x1D0 }
  - { offsetInCU: 0x6EF8, offset: 0x6EF8, size: 0x8, addend: 0x0, symName: __ZNSt6vectorISt4pairIdiESaIS1_EEC1Ev, symObjAddr: 0x9C, symBinAddr: 0x100004134, symSize: 0x20 }
  - { offsetInCU: 0x6F3B, offset: 0x6F3B, size: 0x8, addend: 0x0, symName: __ZNSt12_Vector_baseISt4pairIdiESaIS1_EEC2Ev, symObjAddr: 0x7C, symBinAddr: 0x100004114, symSize: 0x20 }
  - { offsetInCU: 0x6F92, offset: 0x6F92, size: 0x8, addend: 0x0, symName: __ZNSt12_Vector_baseISt4pairIdiESaIS1_EE12_Vector_implD1Ev, symObjAddr: 0x50, symBinAddr: 0x1000040E8, symSize: 0x2C }
  - { offsetInCU: 0x6FAD, offset: 0x6FAD, size: 0x8, addend: 0x0, symName: __ZnwmPv, symObjAddr: 0x38, symBinAddr: 0x1000040D0, symSize: 0x18 }
  - { offsetInCU: 0x6FD8, offset: 0x6FD8, size: 0x8, addend: 0x0, symName: __ZN9__gnu_cxx5__ops15__val_comp_iterENS0_15_Iter_less_iterE, symObjAddr: 0x20, symBinAddr: 0x1000040B8, symSize: 0x18 }
  - { offsetInCU: 0x7052, offset: 0x7052, size: 0x8, addend: 0x0, symName: __ZN9__gnu_cxx5__ops14_Iter_less_valC1ENS0_15_Iter_less_iterE, symObjAddr: 0x8, symBinAddr: 0x1000040A0, symSize: 0x18 }
  - { offsetInCU: 0x7042, offset: 0x7042, size: 0x8, addend: 0x0, symName: __ZN9__gnu_cxx5__ops16__iter_less_iterEv, symObjAddr: 0x0, symBinAddr: 0x100004098, symSize: 0x8 }
...
