---
triple:          'arm64-apple-darwin'
binary-path:     '/Users/dingkai/Code/IOI2024/NZOI/2019-2-3.gout'
relocations:
  - { offsetInCU: 0xBB, offset: 0xBB, size: 0x8, addend: 0x0, symName: __ZSt23__is_constant_evaluatedv, symObjAddr: 0x0, symBinAddr: 0x100004064, symSize: 0x8 }
  - { offsetInCU: 0x5C92, offset: 0x5C92, size: 0x8, addend: 0x0, symName: __ZStL8__ioinit, symObjAddr: 0x2BA80, symBinAddr: 0x10000C048, symSize: 0x0 }
  - { offsetInCU: 0x5D1C, offset: 0x5D1C, size: 0x8, addend: 0x0, symName: _n, symObjAddr: 0x2BA88, symBinAddr: 0x10000C050, symSize: 0x0 }
  - { offsetInCU: 0x5D33, offset: 0x5D33, size: 0x8, addend: 0x0, symName: _ps, symObjAddr: 0x2BA90, symBinAddr: 0x10000C058, symSize: 0x0 }
  - { offsetInCU: 0x5D49, offset: 0x5D49, size: 0x8, addend: 0x0, symName: _as, symObjAddr: 0x2BA98, symBinAddr: 0x10000C060, symSize: 0x0 }
  - { offsetInCU: 0x5D5F, offset: 0x5D5F, size: 0x8, addend: 0x0, symName: _hs, symObjAddr: 0x2BAA0, symBinAddr: 0x10000C068, symSize: 0x0 }
  - { offsetInCU: 0x5F0D, offset: 0x5F0D, size: 0x8, addend: 0x0, symName: _pah, symObjAddr: 0x2BAA8, symBinAddr: 0x10000C070, symSize: 0x0 }
  - { offsetInCU: 0x61A4, offset: 0x61A4, size: 0x8, addend: 0x0, symName: __GLOBAL__sub_I_2019_2_3.cpp, symObjAddr: 0x2174, symBinAddr: 0x1000061D8, symSize: 0x14 }
  - { offsetInCU: 0x61C9, offset: 0x61C9, size: 0x8, addend: 0x0, symName: __Z41__static_initialization_and_destruction_0v, symObjAddr: 0x2110, symBinAddr: 0x100006174, symSize: 0x64 }
  - { offsetInCU: 0x6216, offset: 0x6216, size: 0x8, addend: 0x0, symName: __ZNSt3mapIxSt5arrayIxLm2EESt4lessIxESaISt4pairIKxS1_EEED1Ev, symObjAddr: 0x20F0, symBinAddr: 0x100006154, symSize: 0x20 }
  - { offsetInCU: 0x61FE, offset: 0x61FE, size: 0x8, addend: 0x0, symName: __ZNSt10_Head_baseILm0ERKxLb0EE7_M_headERS2_, symObjAddr: 0x20D8, symBinAddr: 0x10000613C, symSize: 0x18 }
  - { offsetInCU: 0x6225, offset: 0x6225, size: 0x8, addend: 0x0, symName: __ZNSt11_Tuple_implILm0EJRKxEE7_M_headERS2_, symObjAddr: 0x20BC, symBinAddr: 0x100006120, symSize: 0x1C }
  - { offsetInCU: 0x624D, offset: 0x624D, size: 0x8, addend: 0x0, symName: __ZSt12__get_helperILm0ERKxJEERT0_RSt11_Tuple_implIXT_EJS2_DpT1_EE, symObjAddr: 0x20A0, symBinAddr: 0x100006104, symSize: 0x1C }
  - { offsetInCU: 0x6293, offset: 0x6293, size: 0x8, addend: 0x0, symName: __ZSt7forwardIRKxEOT_RNSt16remove_referenceIS2_E4typeE, symObjAddr: 0x208C, symBinAddr: 0x1000060F0, symSize: 0x14 }
  - { offsetInCU: 0x62C3, offset: 0x62C3, size: 0x8, addend: 0x0, symName: __ZSt3getILm0EJRKxEERNSt13tuple_elementIXT_ESt5tupleIJDpT0_EEE4typeERS6_, symObjAddr: 0x2070, symBinAddr: 0x1000060D4, symSize: 0x1C }
  - { offsetInCU: 0x63DD, offset: 0x63DD, size: 0x8, addend: 0x0, symName: __ZNSt4pairIKxSt5arrayIxLm2EEEC1IJRS0_EJLm0EEJEJEEERSt5tupleIJDpT_EERS6_IJDpT1_EESt12_Index_tupleIJXspT0_EEESF_IJXspT2_EEE, symObjAddr: 0x200C, symBinAddr: 0x100006070, symSize: 0x64 }
  - { offsetInCU: 0x63CE, offset: 0x63CE, size: 0x8, addend: 0x0, symName: __ZSt8__memcmpIxxEiPKT_PKT0_m, symObjAddr: 0x1FD8, symBinAddr: 0x10000603C, symSize: 0x34 }
  - { offsetInCU: 0x64CC, offset: 0x64CC, size: 0x8, addend: 0x0, symName: __ZNSt4pairIKxSt5arrayIxLm2EEEC1IJRS0_EJEEESt21piecewise_construct_tSt5tupleIJDpT_EES7_IJDpT0_EE, symObjAddr: 0x1F9C, symBinAddr: 0x100006000, symSize: 0x3C }
  - { offsetInCU: 0x6503, offset: 0x6503, size: 0x8, addend: 0x0, symName: __ZNSt11_Tuple_implILm0EJRKxEEC2EOS2_, symObjAddr: 0x1F74, symBinAddr: 0x100005FD8, symSize: 0x28 }
  - { offsetInCU: 0x651E, offset: 0x651E, size: 0x8, addend: 0x0, symName: __ZNSt7__equalILb1EE5equalIxEEbPKT_S4_S4_, symObjAddr: 0x1F14, symBinAddr: 0x100005F78, symSize: 0x60 }
  - { offsetInCU: 0x659A, offset: 0x659A, size: 0x8, addend: 0x0, symName: __ZNK9__gnu_cxx16__aligned_membufISt4pairIKxSt5arrayIxLm2EEEE7_M_addrEv, symObjAddr: 0x1F00, symBinAddr: 0x100005F64, symSize: 0x14 }
  - { offsetInCU: 0x6652, offset: 0x6652, size: 0x8, addend: 0x0, symName: __ZNSt5tupleIJRKxEEC1EOS2_, symObjAddr: 0x1ED8, symBinAddr: 0x100005F3C, symSize: 0x28 }
  - { offsetInCU: 0x6668, offset: 0x6668, size: 0x8, addend: 0x0, symName: __ZNSt15__new_allocatorISt13_Rb_tree_nodeISt4pairIKxSt5arrayIxLm2EEEEE8allocateEmPKv, symObjAddr: 0x1E38, symBinAddr: 0x100005E9C, symSize: 0xA0 }
  - { offsetInCU: 0x66D2, offset: 0x66D2, size: 0x8, addend: 0x0, symName: __ZSt12__equal_aux1IPKxS1_EbT_S2_T0_, symObjAddr: 0x1E00, symBinAddr: 0x100005E64, symSize: 0x38 }
  - { offsetInCU: 0x673C, offset: 0x673C, size: 0x8, addend: 0x0, symName: __ZSt12__niter_baseIPKxET_S2_, symObjAddr: 0x1DEC, symBinAddr: 0x100005E50, symSize: 0x14 }
  - { offsetInCU: 0x6771, offset: 0x6771, size: 0x8, addend: 0x0, symName: __ZNK9__gnu_cxx16__aligned_membufISt4pairIKxSt5arrayIxLm2EEEE6_M_ptrEv, symObjAddr: 0x1DD0, symBinAddr: 0x100005E34, symSize: 0x1C }
  - { offsetInCU: 0x67A1, offset: 0x67A1, size: 0x8, addend: 0x0, symName: __ZSt7forwardIRPSt13_Rb_tree_nodeISt4pairIKxSt5arrayIxLm2EEEEEOT_RNSt16remove_referenceIS9_E4typeE, symObjAddr: 0x1DBC, symBinAddr: 0x100005E20, symSize: 0x14 }
  - { offsetInCU: 0x684B, offset: 0x684B, size: 0x8, addend: 0x0, symName: __ZNSt15__new_allocatorISt13_Rb_tree_nodeISt4pairIKxSt5arrayIxLm2EEEEE10deallocateEPS6_m, symObjAddr: 0x1D80, symBinAddr: 0x100005DE4, symSize: 0x3C }
  - { offsetInCU: 0x68B6, offset: 0x68B6, size: 0x8, addend: 0x0, symName: __ZSt11__equal_auxIPKxS1_EbT_S2_T0_, symObjAddr: 0x1D28, symBinAddr: 0x100005D8C, symSize: 0x58 }
  - { offsetInCU: 0x6914, offset: 0x6914, size: 0x8, addend: 0x0, symName: __ZNKSt5arrayIxLm2EE4dataEv, symObjAddr: 0x1D14, symBinAddr: 0x100005D78, symSize: 0x14 }
  - { offsetInCU: 0x693C, offset: 0x693C, size: 0x8, addend: 0x0, symName: __ZNKSt10_Select1stISt4pairIKxSt5arrayIxLm2EEEEclERKS4_, symObjAddr: 0x1CFC, symBinAddr: 0x100005D60, symSize: 0x18 }
  - { offsetInCU: 0x6974, offset: 0x6974, size: 0x8, addend: 0x0, symName: __ZNKSt13_Rb_tree_nodeISt4pairIKxSt5arrayIxLm2EEEE9_M_valptrEv, symObjAddr: 0x1CDC, symBinAddr: 0x100005D40, symSize: 0x20 }
  - { offsetInCU: 0x699E, offset: 0x699E, size: 0x8, addend: 0x0, symName: __ZSt7forwardIRPSt18_Rb_tree_node_baseEOT_RNSt16remove_referenceIS3_E4typeE, symObjAddr: 0x1CC8, symBinAddr: 0x100005D2C, symSize: 0x14 }
  - { offsetInCU: 0x6A77, offset: 0x6A77, size: 0x8, addend: 0x0, symName: __ZNSt4pairIPSt18_Rb_tree_node_baseS1_EC1IRPSt13_Rb_tree_nodeIS_IKxSt5arrayIxLm2EEEERS1_Lb1EEEOT_OT0_, symObjAddr: 0x1C80, symBinAddr: 0x100005CE4, symSize: 0x48 }
  - { offsetInCU: 0x6A5C, offset: 0x6A5C, size: 0x8, addend: 0x0, symName: __ZNSt8_Rb_treeIxSt4pairIKxSt5arrayIxLm2EEESt10_Select1stIS4_ESt4lessIxESaIS4_EE17_M_construct_nodeIJRKSt21piecewise_construct_tSt5tupleIJRS1_EESF_IJEEEEEvPSt13_Rb_tree_nodeIS4_EDpOT_, symObjAddr: 0x1B04, symBinAddr: 0x100005B68, symSize: 0x17C }
  - { offsetInCU: 0x6B4D, offset: 0x6B4D, size: 0x8, addend: 0x0, symName: __ZNSt8_Rb_treeIxSt4pairIKxSt5arrayIxLm2EEESt10_Select1stIS4_ESt4lessIxESaIS4_EE11_M_get_nodeEv, symObjAddr: 0x1AC8, symBinAddr: 0x100005B2C, symSize: 0x3C }
  - { offsetInCU: 0x6BF8, offset: 0x6BF8, size: 0x8, addend: 0x0, symName: __ZNSt8_Rb_treeIxSt4pairIKxSt5arrayIxLm2EEESt10_Select1stIS4_ESt4lessIxESaIS4_EE21_M_get_Node_allocatorEv, symObjAddr: 0x1AB4, symBinAddr: 0x100005B18, symSize: 0x14 }
  - { offsetInCU: 0x6C1C, offset: 0x6C1C, size: 0x8, addend: 0x0, symName: __ZSt5equalIPKxS1_EbT_S2_T0_, symObjAddr: 0x1A84, symBinAddr: 0x100005AE8, symSize: 0x30 }
  - { offsetInCU: 0x6C7A, offset: 0x6C7A, size: 0x8, addend: 0x0, symName: __ZNKSt5arrayIxLm2EE3endEv, symObjAddr: 0x1A64, symBinAddr: 0x100005AC8, symSize: 0x20 }
  - { offsetInCU: 0x6CA2, offset: 0x6CA2, size: 0x8, addend: 0x0, symName: __ZNKSt5arrayIxLm2EE5beginEv, symObjAddr: 0x1A48, symBinAddr: 0x100005AAC, symSize: 0x1C }
  - { offsetInCU: 0x6CCF, offset: 0x6CCF, size: 0x8, addend: 0x0, symName: __ZN9__gnu_cxx16__aligned_membufISt4pairIKxSt5arrayIxLm2EEEE7_M_addrEv, symObjAddr: 0x1A34, symBinAddr: 0x100005A98, symSize: 0x14 }
  - { offsetInCU: 0x6CF6, offset: 0x6CF6, size: 0x8, addend: 0x0, symName: __ZNSt8_Rb_treeIxSt4pairIKxSt5arrayIxLm2EEESt10_Select1stIS4_ESt4lessIxESaIS4_EE14_M_insert_nodeEPSt18_Rb_tree_node_baseSC_PSt13_Rb_tree_nodeIS4_E, symObjAddr: 0x1960, symBinAddr: 0x1000059C4, symSize: 0xD4 }
  - { offsetInCU: 0x6D5A, offset: 0x6D5A, size: 0x8, addend: 0x0, symName: __ZNSt8_Rb_treeIxSt4pairIKxSt5arrayIxLm2EEESt10_Select1stIS4_ESt4lessIxESaIS4_EE6_S_keyEPKSt13_Rb_tree_nodeIS4_E, symObjAddr: 0x1938, symBinAddr: 0x10000599C, symSize: 0x28 }
  - { offsetInCU: 0x6D86, offset: 0x6D86, size: 0x8, addend: 0x0, symName: __ZNSt17_Rb_tree_iteratorISt4pairIKxSt5arrayIxLm2EEEEmmEv, symObjAddr: 0x1908, symBinAddr: 0x10000596C, symSize: 0x30 }
  - { offsetInCU: 0x6E2C, offset: 0x6E2C, size: 0x8, addend: 0x0, symName: __ZNSt4pairIPSt18_Rb_tree_node_baseS1_EC1IRS1_S4_Lb1EEEOT_OT0_, symObjAddr: 0x18C0, symBinAddr: 0x100005924, symSize: 0x48 }
  - { offsetInCU: 0x6E38, offset: 0x6E38, size: 0x8, addend: 0x0, symName: __ZNSt8_Rb_treeIxSt4pairIKxSt5arrayIxLm2EEESt10_Select1stIS4_ESt4lessIxESaIS4_EE11_M_leftmostEv, symObjAddr: 0x18A8, symBinAddr: 0x10000590C, symSize: 0x18 }
  - { offsetInCU: 0x6E60, offset: 0x6E60, size: 0x8, addend: 0x0, symName: __ZNSt8_Rb_treeIxSt4pairIKxSt5arrayIxLm2EEESt10_Select1stIS4_ESt4lessIxESaIS4_EE24_M_get_insert_unique_posERS1_, symObjAddr: 0x1748, symBinAddr: 0x1000057AC, symSize: 0x160 }
  - { offsetInCU: 0x6F5B, offset: 0x6F5B, size: 0x8, addend: 0x0, symName: __ZNSt4pairIPSt18_Rb_tree_node_baseS1_EC1IS1_S1_Lb1EEERKS1_S5_, symObjAddr: 0x170C, symBinAddr: 0x100005770, symSize: 0x3C }
  - { offsetInCU: 0x6F67, offset: 0x6F67, size: 0x8, addend: 0x0, symName: __ZNSt8_Rb_treeIxSt4pairIKxSt5arrayIxLm2EEESt10_Select1stIS4_ESt4lessIxESaIS4_EE12_M_rightmostEv, symObjAddr: 0x16F4, symBinAddr: 0x100005758, symSize: 0x18 }
  - { offsetInCU: 0x6F8F, offset: 0x6F8F, size: 0x8, addend: 0x0, symName: __ZNKSt23_Rb_tree_const_iteratorISt4pairIKxSt5arrayIxLm2EEEE13_M_const_castEv, symObjAddr: 0x16CC, symBinAddr: 0x100005730, symSize: 0x28 }
  - { offsetInCU: 0x6FB7, offset: 0x6FB7, size: 0x8, addend: 0x0, symName: __ZNSt8_Rb_treeIxSt4pairIKxSt5arrayIxLm2EEESt10_Select1stIS4_ESt4lessIxESaIS4_EE14_M_create_nodeIJRKSt21piecewise_construct_tSt5tupleIJRS1_EESF_IJEEEEEPSt13_Rb_tree_nodeIS4_EDpOT_, symObjAddr: 0x165C, symBinAddr: 0x1000056C0, symSize: 0x70 }
  - { offsetInCU: 0x7068, offset: 0x7068, size: 0x8, addend: 0x0, symName: __ZNSt10_Head_baseILm0ERKxLb0EEC2ES1_, symObjAddr: 0x1638, symBinAddr: 0x10000569C, symSize: 0x24 }
  - { offsetInCU: 0x7073, offset: 0x7073, size: 0x8, addend: 0x0, symName: __ZNSt8_Rb_treeIxSt4pairIKxSt5arrayIxLm2EEESt10_Select1stIS4_ESt4lessIxESaIS4_EE11_M_put_nodeEPSt13_Rb_tree_nodeIS4_E, symObjAddr: 0x15EC, symBinAddr: 0x100005650, symSize: 0x4C }
  - { offsetInCU: 0x70DE, offset: 0x70DE, size: 0x8, addend: 0x0, symName: __ZNSt8_Rb_treeIxSt4pairIKxSt5arrayIxLm2EEESt10_Select1stIS4_ESt4lessIxESaIS4_EE15_M_destroy_nodeEPSt13_Rb_tree_nodeIS4_E, symObjAddr: 0x1594, symBinAddr: 0x1000055F8, symSize: 0x58 }
  - { offsetInCU: 0x716E, offset: 0x716E, size: 0x8, addend: 0x0, symName: __ZSteqIxLm2EEbRKSt5arrayIT_XT0_EES4_, symObjAddr: 0x1540, symBinAddr: 0x1000055A4, symSize: 0x54 }
  - { offsetInCU: 0x71BD, offset: 0x71BD, size: 0x8, addend: 0x0, symName: __ZNSt8_Rb_treeIxSt4pairIKxSt5arrayIxLm2EEESt10_Select1stIS4_ESt4lessIxESaIS4_EE12_M_erase_auxESt23_Rb_tree_const_iteratorIS4_E, symObjAddr: 0x14E8, symBinAddr: 0x10000554C, symSize: 0x58 }
  - { offsetInCU: 0x7205, offset: 0x7205, size: 0x8, addend: 0x0, symName: __ZN9__gnu_cxx16__aligned_membufISt4pairIKxSt5arrayIxLm2EEEE6_M_ptrEv, symObjAddr: 0x14CC, symBinAddr: 0x100005530, symSize: 0x1C }
  - { offsetInCU: 0x722F, offset: 0x722F, size: 0x8, addend: 0x0, symName: __ZSt9__advanceISt17_Rb_tree_iteratorISt4pairIKxSt5arrayIxLm2EEEElEvRT_T0_St26bidirectional_iterator_tag, symObjAddr: 0x1440, symBinAddr: 0x1000054A4, symSize: 0x8C }
  - { offsetInCU: 0x729A, offset: 0x729A, size: 0x8, addend: 0x0, symName: __ZNSt8_Rb_treeIxSt4pairIKxSt5arrayIxLm2EEESt10_Select1stIS4_ESt4lessIxESaIS4_EE6_S_keyEPKSt18_Rb_tree_node_base, symObjAddr: 0x1424, symBinAddr: 0x100005488, symSize: 0x1C }
  - { offsetInCU: 0x72C6, offset: 0x72C6, size: 0x8, addend: 0x0, symName: __ZNSt8_Rb_treeIxSt4pairIKxSt5arrayIxLm2EEESt10_Select1stIS4_ESt4lessIxESaIS4_EE14_M_lower_boundEPSt13_Rb_tree_nodeIS4_EPSt18_Rb_tree_node_baseRS1_, symObjAddr: 0x1384, symBinAddr: 0x1000053E8, symSize: 0xA0 }
  - { offsetInCU: 0x731E, offset: 0x731E, size: 0x8, addend: 0x0, symName: __ZNSt8_Rb_treeIxSt4pairIKxSt5arrayIxLm2EEESt10_Select1stIS4_ESt4lessIxESaIS4_EE6_M_endEv, symObjAddr: 0x136C, symBinAddr: 0x1000053D0, symSize: 0x18 }
  - { offsetInCU: 0x73B6, offset: 0x73B6, size: 0x8, addend: 0x0, symName: __ZNSt17_Rb_tree_iteratorISt4pairIKxSt5arrayIxLm2EEEEC1EPSt18_Rb_tree_node_base, symObjAddr: 0x1348, symBinAddr: 0x1000053AC, symSize: 0x24 }
  - { offsetInCU: 0x7397, offset: 0x7397, size: 0x8, addend: 0x0, symName: __ZNSt8_Rb_treeIxSt4pairIKxSt5arrayIxLm2EEESt10_Select1stIS4_ESt4lessIxESaIS4_EE10_Auto_node9_M_insertES0_IPSt18_Rb_tree_node_baseSD_E, symObjAddr: 0x12FC, symBinAddr: 0x100005360, symSize: 0x4C }
  - { offsetInCU: 0x73DF, offset: 0x73DF, size: 0x8, addend: 0x0, symName: __ZNKSt8_Rb_treeIxSt4pairIKxSt5arrayIxLm2EEESt10_Select1stIS4_ESt4lessIxESaIS4_EE10_Auto_node6_M_keyEv, symObjAddr: 0x12DC, symBinAddr: 0x100005340, symSize: 0x20 }
  - { offsetInCU: 0x7407, offset: 0x7407, size: 0x8, addend: 0x0, symName: __ZNSt8_Rb_treeIxSt4pairIKxSt5arrayIxLm2EEESt10_Select1stIS4_ESt4lessIxESaIS4_EE29_M_get_insert_hint_unique_posESt23_Rb_tree_const_iteratorIS4_ERS1_, symObjAddr: 0xFA4, symBinAddr: 0x100005008, symSize: 0x338 }
  - { offsetInCU: 0x7526, offset: 0x7526, size: 0x8, addend: 0x0, symName: __ZNSt8_Rb_treeIxSt4pairIKxSt5arrayIxLm2EEESt10_Select1stIS4_ESt4lessIxESaIS4_EE10_Auto_nodeD1Ev, symObjAddr: 0xF60, symBinAddr: 0x100004FC4, symSize: 0x44 }
  - { offsetInCU: 0x75D8, offset: 0x75D8, size: 0x8, addend: 0x0, symName: __ZNSt8_Rb_treeIxSt4pairIKxSt5arrayIxLm2EEESt10_Select1stIS4_ESt4lessIxESaIS4_EE10_Auto_nodeC1IJRKSt21piecewise_construct_tSt5tupleIJRS1_EESG_IJEEEEERSA_DpOT_, symObjAddr: 0xEE4, symBinAddr: 0x100004F48, symSize: 0x7C }
  - { offsetInCU: 0x75A0, offset: 0x75A0, size: 0x8, addend: 0x0, symName: __ZSt7forwardISt5tupleIJEEEOT_RNSt16remove_referenceIS2_E4typeE, symObjAddr: 0xED0, symBinAddr: 0x100004F34, symSize: 0x14 }
  - { offsetInCU: 0x75D6, offset: 0x75D6, size: 0x8, addend: 0x0, symName: __ZSt7forwardISt5tupleIJRKxEEEOT_RNSt16remove_referenceIS4_E4typeE, symObjAddr: 0xEBC, symBinAddr: 0x100004F20, symSize: 0x14 }
  - { offsetInCU: 0x760C, offset: 0x760C, size: 0x8, addend: 0x0, symName: __ZSt7forwardIRKSt21piecewise_construct_tEOT_RNSt16remove_referenceIS3_E4typeE, symObjAddr: 0xEA8, symBinAddr: 0x100004F0C, symSize: 0x14 }
  - { offsetInCU: 0x7685, offset: 0x7685, size: 0x8, addend: 0x0, symName: __ZNSt11_Tuple_implILm0EJRKxEEC2ES1_, symObjAddr: 0xE80, symBinAddr: 0x100004EE4, symSize: 0x28 }
  - { offsetInCU: 0x7691, offset: 0x7691, size: 0x8, addend: 0x0, symName: __ZNKSt8_Rb_treeIxSt4pairIKxSt5arrayIxLm2EEESt10_Select1stIS4_ESt4lessIxESaIS4_EE8key_compEv, symObjAddr: 0xE68, symBinAddr: 0x100004ECC, symSize: 0x18 }
  - { offsetInCU: 0x76B9, offset: 0x76B9, size: 0x8, addend: 0x0, symName: __ZNSt8_Rb_treeIxSt4pairIKxSt5arrayIxLm2EEESt10_Select1stIS4_ESt4lessIxESaIS4_EE11lower_boundERS1_, symObjAddr: 0xE20, symBinAddr: 0x100004E84, symSize: 0x48 }
  - { offsetInCU: 0x76F1, offset: 0x76F1, size: 0x8, addend: 0x0, symName: __ZNKSt8_Rb_treeIxSt4pairIKxSt5arrayIxLm2EEESt10_Select1stIS4_ESt4lessIxESaIS4_EE9_M_mbeginEv, symObjAddr: 0xE08, symBinAddr: 0x100004E6C, symSize: 0x18 }
  - { offsetInCU: 0x7719, offset: 0x7719, size: 0x8, addend: 0x0, symName: __ZNSt8_Rb_treeIxSt4pairIKxSt5arrayIxLm2EEESt10_Select1stIS4_ESt4lessIxESaIS4_EE12_M_drop_nodeEPSt13_Rb_tree_nodeIS4_E, symObjAddr: 0xDD4, symBinAddr: 0x100004E38, symSize: 0x34 }
  - { offsetInCU: 0x774D, offset: 0x774D, size: 0x8, addend: 0x0, symName: __ZNSt8_Rb_treeIxSt4pairIKxSt5arrayIxLm2EEESt10_Select1stIS4_ESt4lessIxESaIS4_EE7_S_leftEPSt18_Rb_tree_node_base, symObjAddr: 0xDBC, symBinAddr: 0x100004E20, symSize: 0x18 }
  - { offsetInCU: 0x7775, offset: 0x7775, size: 0x8, addend: 0x0, symName: __ZNSt8_Rb_treeIxSt4pairIKxSt5arrayIxLm2EEESt10_Select1stIS4_ESt4lessIxESaIS4_EE8_S_rightEPSt18_Rb_tree_node_base, symObjAddr: 0xDA4, symBinAddr: 0x100004E08, symSize: 0x18 }
  - { offsetInCU: 0x77B1, offset: 0x77B1, size: 0x8, addend: 0x0, symName: __ZSteqIKxSt5arrayIxLm2EEEbRKSt4pairIT_T0_ES8_, symObjAddr: 0xD3C, symBinAddr: 0x100004DA0, symSize: 0x68 }
  - { offsetInCU: 0x77FF, offset: 0x77FF, size: 0x8, addend: 0x0, symName: __ZNKSt8_Rb_treeIxSt4pairIKxSt5arrayIxLm2EEESt10_Select1stIS4_ESt4lessIxESaIS4_EE4sizeEv, symObjAddr: 0xD24, symBinAddr: 0x100004D88, symSize: 0x18 }
  - { offsetInCU: 0x7827, offset: 0x7827, size: 0x8, addend: 0x0, symName: __ZNSt8_Rb_treeIxSt4pairIKxSt5arrayIxLm2EEESt10_Select1stIS4_ESt4lessIxESaIS4_EE3endEv, symObjAddr: 0xCFC, symBinAddr: 0x100004D60, symSize: 0x28 }
  - { offsetInCU: 0x784F, offset: 0x784F, size: 0x8, addend: 0x0, symName: __ZNSt8_Rb_treeIxSt4pairIKxSt5arrayIxLm2EEESt10_Select1stIS4_ESt4lessIxESaIS4_EE5eraseB5cxx11ESt17_Rb_tree_iteratorIS4_E, symObjAddr: 0xC60, symBinAddr: 0x100004CC4, symSize: 0x9C }
  - { offsetInCU: 0x7897, offset: 0x7897, size: 0x8, addend: 0x0, symName: __ZNSt13_Rb_tree_nodeISt4pairIKxSt5arrayIxLm2EEEE9_M_valptrEv, symObjAddr: 0xC40, symBinAddr: 0x100004CA4, symSize: 0x20 }
  - { offsetInCU: 0x78FC, offset: 0x78FC, size: 0x8, addend: 0x0, symName: __ZNSt8_Rb_treeIxSt4pairIKxSt5arrayIxLm2EEESt10_Select1stIS4_ESt4lessIxESaIS4_EE5beginEv, symObjAddr: 0xC18, symBinAddr: 0x100004C7C, symSize: 0x28 }
  - { offsetInCU: 0x7924, offset: 0x7924, size: 0x8, addend: 0x0, symName: __ZNSt8_Rb_treeIxSt4pairIKxSt5arrayIxLm2EEESt10_Select1stIS4_ESt4lessIxESaIS4_EE4findERS1_, symObjAddr: 0xB68, symBinAddr: 0x100004BCC, symSize: 0xB0 }
  - { offsetInCU: 0x796C, offset: 0x796C, size: 0x8, addend: 0x0, symName: __ZNSt8_Rb_treeIxSt4pairIKxSt5arrayIxLm2EEESt10_Select1stIS4_ESt4lessIxESaIS4_EE22_M_emplace_hint_uniqueIJRKSt21piecewise_construct_tSt5tupleIJRS1_EESF_IJEEEEESt17_Rb_tree_iteratorIS4_ESt23_Rb_tree_const_iteratorIS4_EDpOT_, symObjAddr: 0xA90, symBinAddr: 0x100004AF4, symSize: 0xD8 }
  - { offsetInCU: 0x7A76, offset: 0x7A76, size: 0x8, addend: 0x0, symName: __ZNSt23_Rb_tree_const_iteratorISt4pairIKxSt5arrayIxLm2EEEEC1ERKSt17_Rb_tree_iteratorIS4_E, symObjAddr: 0xA68, symBinAddr: 0x100004ACC, symSize: 0x28 }
  - { offsetInCU: 0x7A9A, offset: 0x7A9A, size: 0x8, addend: 0x0, symName: __ZNSt5tupleIJRKxEEC1ILb1ELb1EEES1_, symObjAddr: 0xA40, symBinAddr: 0x100004AA4, symSize: 0x28 }
  - { offsetInCU: 0x7AB1, offset: 0x7AB1, size: 0x8, addend: 0x0, symName: __ZNKSt4lessIxEclERKxS2_, symObjAddr: 0xA0C, symBinAddr: 0x100004A70, symSize: 0x34 }
  - { offsetInCU: 0x7AF9, offset: 0x7AF9, size: 0x8, addend: 0x0, symName: __ZNKSt3mapIxSt5arrayIxLm2EESt4lessIxESaISt4pairIKxS1_EEE8key_compEv, symObjAddr: 0x9E0, symBinAddr: 0x100004A44, symSize: 0x2C }
  - { offsetInCU: 0x7B23, offset: 0x7B23, size: 0x8, addend: 0x0, symName: __ZSteqRKSt17_Rb_tree_iteratorISt4pairIKxSt5arrayIxLm2EEEES7_, symObjAddr: 0x9B0, symBinAddr: 0x100004A14, symSize: 0x30 }
  - { offsetInCU: 0x7B5F, offset: 0x7B5F, size: 0x8, addend: 0x0, symName: __ZNSt3mapIxSt5arrayIxLm2EESt4lessIxESaISt4pairIKxS1_EEE11lower_boundERS5_, symObjAddr: 0x98C, symBinAddr: 0x1000049F0, symSize: 0x24 }
  - { offsetInCU: 0x7B97, offset: 0x7B97, size: 0x8, addend: 0x0, symName: __ZNSt8_Rb_treeIxSt4pairIKxSt5arrayIxLm2EEESt10_Select1stIS4_ESt4lessIxESaIS4_EE8_M_beginEv, symObjAddr: 0x970, symBinAddr: 0x1000049D4, symSize: 0x1C }
  - { offsetInCU: 0x7BBF, offset: 0x7BBF, size: 0x8, addend: 0x0, symName: __ZNSt8_Rb_treeIxSt4pairIKxSt5arrayIxLm2EEESt10_Select1stIS4_ESt4lessIxESaIS4_EE8_M_eraseEPSt13_Rb_tree_nodeIS4_E, symObjAddr: 0x90C, symBinAddr: 0x100004970, symSize: 0x64 }
  - { offsetInCU: 0x7C80, offset: 0x7C80, size: 0x8, addend: 0x0, symName: __ZNSt15__new_allocatorISt13_Rb_tree_nodeISt4pairIKxSt5arrayIxLm2EEEEED2Ev, symObjAddr: 0x8F8, symBinAddr: 0x10000495C, symSize: 0x14 }
  - { offsetInCU: 0x7C9E, offset: 0x7C9E, size: 0x8, addend: 0x0, symName: __ZNSt20_Rb_tree_key_compareISt4lessIxEEC2Ev, symObjAddr: 0x8E4, symBinAddr: 0x100004948, symSize: 0x14 }
  - { offsetInCU: 0x7CAA, offset: 0x7CAA, size: 0x8, addend: 0x0, symName: __ZStneIKxSt5arrayIxLm2EEEbRKSt4pairIT_T0_ES8_, symObjAddr: 0x8B4, symBinAddr: 0x100004918, symSize: 0x30 }
  - { offsetInCU: 0x7CF8, offset: 0x7CF8, size: 0x8, addend: 0x0, symName: __ZNKSt17_Rb_tree_iteratorISt4pairIKxSt5arrayIxLm2EEEEdeEv, symObjAddr: 0x894, symBinAddr: 0x1000048F8, symSize: 0x20 }
  - { offsetInCU: 0x7D20, offset: 0x7D20, size: 0x8, addend: 0x0, symName: __ZNSt17_Rb_tree_iteratorISt4pairIKxSt5arrayIxLm2EEEEppEv, symObjAddr: 0x864, symBinAddr: 0x1000048C8, symSize: 0x30 }
  - { offsetInCU: 0x7D48, offset: 0x7D48, size: 0x8, addend: 0x0, symName: __ZNKSt3mapIxSt5arrayIxLm2EESt4lessIxESaISt4pairIKxS1_EEE4sizeEv, symObjAddr: 0x848, symBinAddr: 0x1000048AC, symSize: 0x1C }
  - { offsetInCU: 0x7D70, offset: 0x7D70, size: 0x8, addend: 0x0, symName: __ZNSt3mapIxSt5arrayIxLm2EESt4lessIxESaISt4pairIKxS1_EEE3endEv, symObjAddr: 0x82C, symBinAddr: 0x100004890, symSize: 0x1C }
  - { offsetInCU: 0x7DC0, offset: 0x7DC0, size: 0x8, addend: 0x0, symName: __ZNSt3mapIxSt5arrayIxLm2EESt4lessIxESaISt4pairIKxS1_EEE5eraseB5cxx11ESt17_Rb_tree_iteratorIS6_E, symObjAddr: 0x808, symBinAddr: 0x10000486C, symSize: 0x24 }
  - { offsetInCU: 0x7DF8, offset: 0x7DF8, size: 0x8, addend: 0x0, symName: __ZNSt5arrayIxLm2EEixEm, symObjAddr: 0x7E4, symBinAddr: 0x100004848, symSize: 0x24 }
  - { offsetInCU: 0x7E2F, offset: 0x7E2F, size: 0x8, addend: 0x0, symName: __ZNKSt17_Rb_tree_iteratorISt4pairIKxSt5arrayIxLm2EEEEptEv, symObjAddr: 0x7C4, symBinAddr: 0x100004828, symSize: 0x20 }
  - { offsetInCU: 0x7E7B, offset: 0x7E7B, size: 0x8, addend: 0x0, symName: __ZStneRKSt17_Rb_tree_iteratorISt4pairIKxSt5arrayIxLm2EEEES7_, symObjAddr: 0x794, symBinAddr: 0x1000047F8, symSize: 0x30 }
  - { offsetInCU: 0x7EB7, offset: 0x7EB7, size: 0x8, addend: 0x0, symName: __ZNSt3mapIxSt5arrayIxLm2EESt4lessIxESaISt4pairIKxS1_EEE5beginEv, symObjAddr: 0x778, symBinAddr: 0x1000047DC, symSize: 0x1C }
  - { offsetInCU: 0x7EDF, offset: 0x7EDF, size: 0x8, addend: 0x0, symName: __ZNSt3mapIxSt5arrayIxLm2EESt4lessIxESaISt4pairIKxS1_EEE4findERS5_, symObjAddr: 0x754, symBinAddr: 0x1000047B8, symSize: 0x24 }
  - { offsetInCU: 0x7F17, offset: 0x7F17, size: 0x8, addend: 0x0, symName: __ZNSt3mapIxSt5arrayIxLm2EESt4lessIxESaISt4pairIKxS1_EEEixERS5_, symObjAddr: 0x660, symBinAddr: 0x1000046C4, symSize: 0xF4 }
  - { offsetInCU: 0x7FD0, offset: 0x7FD0, size: 0x8, addend: 0x0, symName: __ZNSt8_Rb_treeIxSt4pairIKxSt5arrayIxLm2EEESt10_Select1stIS4_ESt4lessIxESaIS4_EED1Ev, symObjAddr: 0x62C, symBinAddr: 0x100004690, symSize: 0x34 }
  - { offsetInCU: 0x8041, offset: 0x8041, size: 0x8, addend: 0x0, symName: __ZNSt8_Rb_treeIxSt4pairIKxSt5arrayIxLm2EEESt10_Select1stIS4_ESt4lessIxESaIS4_EE13_Rb_tree_implIS8_Lb1EEC1Ev, symObjAddr: 0x5E8, symBinAddr: 0x10000464C, symSize: 0x44 }
  - { offsetInCU: 0x8046, offset: 0x8046, size: 0x8, addend: 0x0, symName: _main, symObjAddr: 0x108, symBinAddr: 0x10000416C, symSize: 0x4E0 }
  - { offsetInCU: 0x82A8, offset: 0x82A8, size: 0x8, addend: 0x0, symName: __ZNSt3mapIxSt5arrayIxLm2EESt4lessIxESaISt4pairIKxS1_EEEC1Ev, symObjAddr: 0xE8, symBinAddr: 0x10000414C, symSize: 0x20 }
  - { offsetInCU: 0x82FC, offset: 0x82FC, size: 0x8, addend: 0x0, symName: __ZNSt8_Rb_treeIxSt4pairIKxSt5arrayIxLm2EEESt10_Select1stIS4_ESt4lessIxESaIS4_EEC1Ev, symObjAddr: 0xC8, symBinAddr: 0x10000412C, symSize: 0x20 }
  - { offsetInCU: 0x835E, offset: 0x835E, size: 0x8, addend: 0x0, symName: __ZNSt8_Rb_treeIxSt4pairIKxSt5arrayIxLm2EEESt10_Select1stIS4_ESt4lessIxESaIS4_EE13_Rb_tree_implIS8_Lb1EED1Ev, symObjAddr: 0x9C, symBinAddr: 0x100004100, symSize: 0x2C }
  - { offsetInCU: 0x833D, offset: 0x833D, size: 0x8, addend: 0x0, symName: __ZNSt15_Rb_tree_header8_M_resetEv, symObjAddr: 0x60, symBinAddr: 0x1000040C4, symSize: 0x3C }
  - { offsetInCU: 0x8394, offset: 0x8394, size: 0x8, addend: 0x0, symName: __ZNSt15_Rb_tree_headerC2Ev, symObjAddr: 0x38, symBinAddr: 0x10000409C, symSize: 0x28 }
  - { offsetInCU: 0x83AA, offset: 0x83AA, size: 0x8, addend: 0x0, symName: __ZdlPvS_, symObjAddr: 0x20, symBinAddr: 0x100004084, symSize: 0x18 }
  - { offsetInCU: 0x83DD, offset: 0x83DD, size: 0x8, addend: 0x0, symName: __ZnwmPv, symObjAddr: 0x8, symBinAddr: 0x10000406C, symSize: 0x18 }
  - { offsetInCU: 0x8409, offset: 0x8409, size: 0x8, addend: 0x0, symName: __ZSt23__is_constant_evaluatedv, symObjAddr: 0x0, symBinAddr: 0x100004064, symSize: 0x8 }
...
