---
triple:          'arm64-apple-darwin'
binary-path:     '/Users/dingkai/USACO/Bronze/load_balancing/load_balancing'
relocations:
  - { offsetInCU: 0xDD54, offset: 0xDD54, size: 0x8, addend: 0x0, symName: __ZNSt3__1neB7v160006IP5PointEEbRKNS_11__wrap_iterIT_EES7_, symObjAddr: 0x868, symBinAddr: 0x100002304, symSize: 0x34 }
  - { offsetInCU: 0xDD97, offset: 0xDD97, size: 0x8, addend: 0x0, symName: __ZNSt3__13maxB7v160006IiEERKT_S3_S3_, symObjAddr: 0x8D4, symBinAddr: 0x100002370, symSize: 0x2C }
  - { offsetInCU: 0xDDDA, offset: 0xDDDA, size: 0x8, addend: 0x0, symName: __ZNSt3__14endlB7v160006IcNS_11char_traitsIcEEEERNS_13basic_ostreamIT_T0_EES7_, symObjAddr: 0x92C, symBinAddr: 0x1000023C8, symSize: 0x58 }
  - { offsetInCU: 0xDE30, offset: 0xDE30, size: 0x8, addend: 0x0, symName: __ZNSt3__1eqB7v160006IP5PointEEbRKNS_11__wrap_iterIT_EES7_, symObjAddr: 0xA30, symBinAddr: 0x1000024CC, symSize: 0x48 }
  - { offsetInCU: 0xDE73, offset: 0xDE73, size: 0x8, addend: 0x0, symName: __ZNSt3__13maxB7v160006IiNS_6__lessIiiEEEERKT_S5_S5_T0_, symObjAddr: 0xA90, symBinAddr: 0x10000252C, symSize: 0x54 }
  - { offsetInCU: 0xDF08, offset: 0xDF08, size: 0x8, addend: 0x0, symName: __ZNSt3__122__make_exception_guardB7v160006INS_6vectorI5PointNS_9allocatorIS2_EEE16__destroy_vectorEEENS_28__exception_guard_exceptionsIT_EES8_, symObjAddr: 0xF24, symBinAddr: 0x1000029C0, symSize: 0x40 }
  - { offsetInCU: 0xDF3D, offset: 0xDF3D, size: 0x8, addend: 0x0, symName: __ZNSt3__119__debug_db_insert_cB7v160006INS_6vectorI5PointNS_9allocatorIS2_EEEEEEvPT_, symObjAddr: 0xF98, symBinAddr: 0x100002A34, symSize: 0x10 }
  - { offsetInCU: 0xDF6E, offset: 0xDF6E, size: 0x8, addend: 0x0, symName: __ZNSt3__119__allocate_at_leastB7v160006INS_9allocatorI5PointEEEENS_19__allocation_resultINS_16allocator_traitsIT_E7pointerEEERS6_m, symObjAddr: 0x1320, symBinAddr: 0x100002DBC, symSize: 0x40 }
  - { offsetInCU: 0xDFB1, offset: 0xDFB1, size: 0x8, addend: 0x0, symName: __ZNSt3__13minB7v160006ImEERKT_S3_S3_, symObjAddr: 0x145C, symBinAddr: 0x100002EF8, symSize: 0x2C }
  - { offsetInCU: 0xE1DE, offset: 0xE1DE, size: 0x8, addend: 0x0, symName: __ZNSt3__13minB7v160006ImNS_6__lessImmEEEERKT_S5_S5_T0_, symObjAddr: 0x14F4, symBinAddr: 0x100002F90, symSize: 0x54 }
  - { offsetInCU: 0xE273, offset: 0xE273, size: 0x8, addend: 0x0, symName: __ZNSt3__120__throw_length_errorB7v160006EPKc, symObjAddr: 0x15D0, symBinAddr: 0x10000306C, symSize: 0x64 }
  - { offsetInCU: 0xE29B, offset: 0xE29B, size: 0x8, addend: 0x0, symName: __ZNSt3__117__libcpp_allocateB7v160006Emm, symObjAddr: 0x1740, symBinAddr: 0x1000031DC, symSize: 0x60 }
  - { offsetInCU: 0xE2F5, offset: 0xE2F5, size: 0x8, addend: 0x0, symName: __ZNSt3__124__is_overaligned_for_newB7v160006Em, symObjAddr: 0x17A0, symBinAddr: 0x10000323C, symSize: 0x20 }
  - { offsetInCU: 0xE323, offset: 0xE323, size: 0x8, addend: 0x0, symName: __ZNSt3__121__libcpp_operator_newB7v160006IJmSt11align_val_tEEEPvDpT_, symObjAddr: 0x17C0, symBinAddr: 0x10000325C, symSize: 0x2C }
  - { offsetInCU: 0xE370, offset: 0xE370, size: 0x8, addend: 0x0, symName: __ZNSt3__121__libcpp_operator_newB7v160006IJmEEEPvDpT_, symObjAddr: 0x17EC, symBinAddr: 0x100003288, symSize: 0x24 }
  - { offsetInCU: 0xE3A9, offset: 0xE3A9, size: 0x8, addend: 0x0, symName: __ZNSt3__112__to_addressB7v160006I5PointEEPT_S3_, symObjAddr: 0x1908, symBinAddr: 0x1000033A4, symSize: 0x14 }
  - { offsetInCU: 0xE3DE, offset: 0xE3DE, size: 0x8, addend: 0x0, symName: __ZNSt3__118__debug_db_erase_cB7v160006INS_6vectorI5PointNS_9allocatorIS2_EEEEEEvPT_, symObjAddr: 0x1C34, symBinAddr: 0x1000036D0, symSize: 0x10 }
  - { offsetInCU: 0xE40F, offset: 0xE40F, size: 0x8, addend: 0x0, symName: __ZNSt3__119__libcpp_deallocateB7v160006EPvmm, symObjAddr: 0x1DD4, symBinAddr: 0x100003870, symSize: 0x60 }
  - { offsetInCU: 0xE474, offset: 0xE474, size: 0x8, addend: 0x0, symName: __ZNSt3__127__do_deallocate_handle_sizeB7v160006IJSt11align_val_tEEEvPvmDpT_, symObjAddr: 0x1E34, symBinAddr: 0x1000038D0, symSize: 0x30 }
  - { offsetInCU: 0xE4C7, offset: 0xE4C7, size: 0x8, addend: 0x0, symName: __ZNSt3__127__do_deallocate_handle_sizeB7v160006IJEEEvPvmDpT_, symObjAddr: 0x1E64, symBinAddr: 0x100003900, symSize: 0x28 }
  - { offsetInCU: 0xE505, offset: 0xE505, size: 0x8, addend: 0x0, symName: __ZNSt3__124__libcpp_operator_deleteB7v160006IJPvSt11align_val_tEEEvDpT_, symObjAddr: 0x1E8C, symBinAddr: 0x100003928, symSize: 0x2C }
  - { offsetInCU: 0xE54E, offset: 0xE54E, size: 0x8, addend: 0x0, symName: __ZNSt3__124__libcpp_operator_deleteB7v160006IJPvEEEvDpT_, symObjAddr: 0x1EB8, symBinAddr: 0x100003954, symSize: 0x24 }
  - { offsetInCU: 0xE583, offset: 0xE583, size: 0x8, addend: 0x0, symName: __ZNSt3__19use_facetB7v160006INS_5ctypeIcEEEERKT_RKNS_6localeE, symObjAddr: 0x2038, symBinAddr: 0x100003AD4, symSize: 0x2C }
  - { offsetInCU: 0xEEF4, offset: 0xEEF4, size: 0x8, addend: 0x0, symName: __ZSt28__throw_bad_array_new_lengthB7v160006v, symObjAddr: 0x170C, symBinAddr: 0x1000031A8, symSize: 0x34 }
  - { offsetInCU: 0x118F0, offset: 0x118F0, size: 0x8, addend: 0x0, symName: _main, symObjAddr: 0x0, symBinAddr: 0x100001A9C, symSize: 0x4FC }
  - { offsetInCU: 0x11D0C, offset: 0x11D0C, size: 0x8, addend: 0x0, symName: __ZNSt3__114basic_ifstreamIcNS_11char_traitsIcEEEC1EPKcj, symObjAddr: 0x4FC, symBinAddr: 0x100001F98, symSize: 0x16C }
  - { offsetInCU: 0x11D6F, offset: 0x11D6F, size: 0x8, addend: 0x0, symName: __ZNSt3__114basic_ofstreamIcNS_11char_traitsIcEEEC1EPKcj, symObjAddr: 0x668, symBinAddr: 0x100002104, symSize: 0x16C }
  - { offsetInCU: 0x11DB9, offset: 0x11DB9, size: 0x8, addend: 0x0, symName: __ZNSt3__16vectorI5PointNS_9allocatorIS1_EEEC1Em, symObjAddr: 0x7D4, symBinAddr: 0x100002270, symSize: 0x34 }
  - { offsetInCU: 0x11DF4, offset: 0x11DF4, size: 0x8, addend: 0x0, symName: __ZNSt3__16vectorI5PointNS_9allocatorIS1_EEE5beginB7v160006Ev, symObjAddr: 0x808, symBinAddr: 0x1000022A4, symSize: 0x30 }
  - { offsetInCU: 0x11E1C, offset: 0x11E1C, size: 0x8, addend: 0x0, symName: __ZNSt3__16vectorI5PointNS_9allocatorIS1_EEE3endB7v160006Ev, symObjAddr: 0x838, symBinAddr: 0x1000022D4, symSize: 0x30 }
  - { offsetInCU: 0x11E44, offset: 0x11E44, size: 0x8, addend: 0x0, symName: __ZNKSt3__111__wrap_iterIP5PointEdeB7v160006Ev, symObjAddr: 0x89C, symBinAddr: 0x100002338, symSize: 0x18 }
  - { offsetInCU: 0x11E6A, offset: 0x11E6A, size: 0x8, addend: 0x0, symName: __ZNSt3__111__wrap_iterIP5PointEppB7v160006Ev, symObjAddr: 0x8B4, symBinAddr: 0x100002350, symSize: 0x20 }
  - { offsetInCU: 0x11E90, offset: 0x11E90, size: 0x8, addend: 0x0, symName: __ZNSt3__113basic_ostreamIcNS_11char_traitsIcEEElsB7v160006EPFRS3_S4_E, symObjAddr: 0x900, symBinAddr: 0x10000239C, symSize: 0x2C }
  - { offsetInCU: 0x11EC4, offset: 0x11EC4, size: 0x8, addend: 0x0, symName: __ZNSt3__16vectorI5PointNS_9allocatorIS1_EEED1B7v160006Ev, symObjAddr: 0x984, symBinAddr: 0x100002420, symSize: 0x2C }
  - { offsetInCU: 0x11EF3, offset: 0x11EF3, size: 0x8, addend: 0x0, symName: __ZNSt3__114basic_ofstreamIcNS_11char_traitsIcEEED1Ev, symObjAddr: 0x9B0, symBinAddr: 0x10000244C, symSize: 0x40 }
  - { offsetInCU: 0x11F25, offset: 0x11F25, size: 0x8, addend: 0x0, symName: __ZNSt3__114basic_ifstreamIcNS_11char_traitsIcEEED1Ev, symObjAddr: 0x9F0, symBinAddr: 0x10000248C, symSize: 0x40 }
  - { offsetInCU: 0x11F52, offset: 0x11F52, size: 0x8, addend: 0x0, symName: __ZNKSt3__111__wrap_iterIP5PointE4baseB7v160006Ev, symObjAddr: 0xA78, symBinAddr: 0x100002514, symSize: 0x18 }
  - { offsetInCU: 0x11F87, offset: 0x11F87, size: 0x8, addend: 0x0, symName: __ZNKSt3__16__lessIiiEclB7v160006ERKiS3_, symObjAddr: 0xAE4, symBinAddr: 0x100002580, symSize: 0x34 }
  - { offsetInCU: 0x11FC9, offset: 0x11FC9, size: 0x8, addend: 0x0, symName: __ZNSt3__114basic_ofstreamIcNS_11char_traitsIcEEED2Ev, symObjAddr: 0xB18, symBinAddr: 0x1000025B4, symSize: 0x64 }
  - { offsetInCU: 0x12003, offset: 0x12003, size: 0x8, addend: 0x0, symName: __ZTv0_n24_NSt3__114basic_ofstreamIcNS_11char_traitsIcEEED1Ev, symObjAddr: 0xB7C, symBinAddr: 0x100002618, symSize: 0x28 }
  - { offsetInCU: 0x1201A, offset: 0x1201A, size: 0x8, addend: 0x0, symName: __ZNSt3__114basic_ifstreamIcNS_11char_traitsIcEEED2Ev, symObjAddr: 0xBA4, symBinAddr: 0x100002640, symSize: 0x64 }
  - { offsetInCU: 0x12054, offset: 0x12054, size: 0x8, addend: 0x0, symName: __ZTv0_n24_NSt3__114basic_ifstreamIcNS_11char_traitsIcEEED1Ev, symObjAddr: 0xC08, symBinAddr: 0x1000026A4, symSize: 0x28 }
  - { offsetInCU: 0x1206B, offset: 0x1206B, size: 0x8, addend: 0x0, symName: __ZNSt3__19basic_iosIcNS_11char_traitsIcEEEC2B7v160006Ev, symObjAddr: 0xC30, symBinAddr: 0x1000026CC, symSize: 0x44 }
  - { offsetInCU: 0x12095, offset: 0x12095, size: 0x8, addend: 0x0, symName: __ZNSt3__113basic_istreamIcNS_11char_traitsIcEEEC2B7v160006EPNS_15basic_streambufIcS2_EE, symObjAddr: 0xC74, symBinAddr: 0x100002710, symSize: 0x64 }
  - { offsetInCU: 0x120DA, offset: 0x120DA, size: 0x8, addend: 0x0, symName: __ZNSt3__19basic_iosIcNS_11char_traitsIcEEE8setstateB7v160006Ej, symObjAddr: 0xCD8, symBinAddr: 0x100002774, symSize: 0x2C }
  - { offsetInCU: 0x1210F, offset: 0x1210F, size: 0x8, addend: 0x0, symName: __ZNSt3__18ios_baseC2B7v160006Ev, symObjAddr: 0xD04, symBinAddr: 0x1000027A0, symSize: 0x24 }
  - { offsetInCU: 0x12139, offset: 0x12139, size: 0x8, addend: 0x0, symName: __ZNSt3__19basic_iosIcNS_11char_traitsIcEEE4initB7v160006EPNS_15basic_streambufIcS2_EE, symObjAddr: 0xD28, symBinAddr: 0x1000027C4, symSize: 0x44 }
  - { offsetInCU: 0x12170, offset: 0x12170, size: 0x8, addend: 0x0, symName: __ZNSt3__111char_traitsIcE3eofEv, symObjAddr: 0xD6C, symBinAddr: 0x100002808, symSize: 0x8 }
  - { offsetInCU: 0x12184, offset: 0x12184, size: 0x8, addend: 0x0, symName: __ZNSt3__18ios_base8setstateB7v160006Ej, symObjAddr: 0xD74, symBinAddr: 0x100002810, symSize: 0x34 }
  - { offsetInCU: 0x121BB, offset: 0x121BB, size: 0x8, addend: 0x0, symName: __ZNSt3__113basic_ostreamIcNS_11char_traitsIcEEEC2B7v160006EPNS_15basic_streambufIcS2_EE, symObjAddr: 0xDA8, symBinAddr: 0x100002844, symSize: 0x60 }
  - { offsetInCU: 0x12200, offset: 0x12200, size: 0x8, addend: 0x0, symName: __ZNSt3__16vectorI5PointNS_9allocatorIS1_EEEC2Em, symObjAddr: 0xE08, symBinAddr: 0x1000028A4, symSize: 0xE0 }
  - { offsetInCU: 0x1225B, offset: 0x1225B, size: 0x8, addend: 0x0, symName: __ZNSt3__117__compressed_pairIP5PointNS_9allocatorIS1_EEEC1B7v160006IDnNS_18__default_init_tagEEEOT_OT0_, symObjAddr: 0xEE8, symBinAddr: 0x100002984, symSize: 0x3C }
  - { offsetInCU: 0x122B3, offset: 0x122B3, size: 0x8, addend: 0x0, symName: __ZNSt3__16vectorI5PointNS_9allocatorIS1_EEE16__destroy_vectorC1ERS4_, symObjAddr: 0xF64, symBinAddr: 0x100002A00, symSize: 0x34 }
  - { offsetInCU: 0x122EC, offset: 0x122EC, size: 0x8, addend: 0x0, symName: __ZNSt3__16vectorI5PointNS_9allocatorIS1_EEE11__vallocateB7v160006Em, symObjAddr: 0xFA8, symBinAddr: 0x100002A44, symSize: 0xAC }
  - { offsetInCU: 0x12330, offset: 0x12330, size: 0x8, addend: 0x0, symName: __ZNSt3__16vectorI5PointNS_9allocatorIS1_EEE18__construct_at_endEm, symObjAddr: 0x1054, symBinAddr: 0x100002AF0, symSize: 0xC8 }
  - { offsetInCU: 0x123A2, offset: 0x123A2, size: 0x8, addend: 0x0, symName: __ZNSt3__128__exception_guard_exceptionsINS_6vectorI5PointNS_9allocatorIS2_EEE16__destroy_vectorEE10__completeB7v160006Ev, symObjAddr: 0x111C, symBinAddr: 0x100002BB8, symSize: 0x1C }
  - { offsetInCU: 0x123C8, offset: 0x123C8, size: 0x8, addend: 0x0, symName: __ZNSt3__128__exception_guard_exceptionsINS_6vectorI5PointNS_9allocatorIS2_EEE16__destroy_vectorEED1B7v160006Ev, symObjAddr: 0x1138, symBinAddr: 0x100002BD4, symSize: 0x2C }
  - { offsetInCU: 0x123F2, offset: 0x123F2, size: 0x8, addend: 0x0, symName: __ZNSt3__117__compressed_pairIP5PointNS_9allocatorIS1_EEEC2B7v160006IDnNS_18__default_init_tagEEEOT_OT0_, symObjAddr: 0x1164, symBinAddr: 0x100002C00, symSize: 0x40 }
  - { offsetInCU: 0x1244A, offset: 0x1244A, size: 0x8, addend: 0x0, symName: __ZNSt3__122__compressed_pair_elemIP5PointLi0ELb0EEC2B7v160006IDnvEEOT_, symObjAddr: 0x11A4, symBinAddr: 0x100002C40, symSize: 0x1C }
  - { offsetInCU: 0x1248C, offset: 0x1248C, size: 0x8, addend: 0x0, symName: __ZNSt3__122__compressed_pair_elemINS_9allocatorI5PointEELi1ELb1EEC2B7v160006ENS_18__default_init_tagE, symObjAddr: 0x11C0, symBinAddr: 0x100002C5C, symSize: 0x2C }
  - { offsetInCU: 0x124C1, offset: 0x124C1, size: 0x8, addend: 0x0, symName: __ZNSt3__19allocatorI5PointEC2B7v160006Ev, symObjAddr: 0x11EC, symBinAddr: 0x100002C88, symSize: 0x2C }
  - { offsetInCU: 0x124EB, offset: 0x124EB, size: 0x8, addend: 0x0, symName: __ZNSt3__116__non_trivial_ifILb1ENS_9allocatorI5PointEEEC2B7v160006Ev, symObjAddr: 0x1218, symBinAddr: 0x100002CB4, symSize: 0x14 }
  - { offsetInCU: 0x12515, offset: 0x12515, size: 0x8, addend: 0x0, symName: __ZNSt3__128__exception_guard_exceptionsINS_6vectorI5PointNS_9allocatorIS2_EEE16__destroy_vectorEEC1B7v160006ES6_, symObjAddr: 0x122C, symBinAddr: 0x100002CC8, symSize: 0x34 }
  - { offsetInCU: 0x1254D, offset: 0x1254D, size: 0x8, addend: 0x0, symName: __ZNSt3__128__exception_guard_exceptionsINS_6vectorI5PointNS_9allocatorIS2_EEE16__destroy_vectorEEC2B7v160006ES6_, symObjAddr: 0x1260, symBinAddr: 0x100002CFC, symSize: 0x24 }
  - { offsetInCU: 0x12585, offset: 0x12585, size: 0x8, addend: 0x0, symName: __ZNSt3__16vectorI5PointNS_9allocatorIS1_EEE16__destroy_vectorC2ERS4_, symObjAddr: 0x1284, symBinAddr: 0x100002D20, symSize: 0x20 }
  - { offsetInCU: 0x125BE, offset: 0x125BE, size: 0x8, addend: 0x0, symName: __ZNKSt3__16vectorI5PointNS_9allocatorIS1_EEE8max_sizeEv, symObjAddr: 0x12A4, symBinAddr: 0x100002D40, symSize: 0x60 }
  - { offsetInCU: 0x125E6, offset: 0x125E6, size: 0x8, addend: 0x0, symName: __ZNKSt3__16vectorI5PointNS_9allocatorIS1_EEE20__throw_length_errorB7v160006Ev, symObjAddr: 0x1304, symBinAddr: 0x100002DA0, symSize: 0x1C }
  - { offsetInCU: 0x1260C, offset: 0x1260C, size: 0x8, addend: 0x0, symName: __ZNSt3__16vectorI5PointNS_9allocatorIS1_EEE7__allocB7v160006Ev, symObjAddr: 0x1360, symBinAddr: 0x100002DFC, symSize: 0x28 }
  - { offsetInCU: 0x12632, offset: 0x12632, size: 0x8, addend: 0x0, symName: __ZNSt3__16vectorI5PointNS_9allocatorIS1_EEE9__end_capB7v160006Ev, symObjAddr: 0x1388, symBinAddr: 0x100002E24, symSize: 0x28 }
  - { offsetInCU: 0x12658, offset: 0x12658, size: 0x8, addend: 0x0, symName: __ZNKSt3__16vectorI5PointNS_9allocatorIS1_EEE14__annotate_newB7v160006Em, symObjAddr: 0x13B0, symBinAddr: 0x100002E4C, symSize: 0xAC }
  - { offsetInCU: 0x12697, offset: 0x12697, size: 0x8, addend: 0x0, symName: __ZNSt3__116allocator_traitsINS_9allocatorI5PointEEE8max_sizeB7v160006IS3_vEEmRKS3_, symObjAddr: 0x1488, symBinAddr: 0x100002F24, symSize: 0x24 }
  - { offsetInCU: 0x126C5, offset: 0x126C5, size: 0x8, addend: 0x0, symName: __ZNKSt3__16vectorI5PointNS_9allocatorIS1_EEE7__allocB7v160006Ev, symObjAddr: 0x14AC, symBinAddr: 0x100002F48, symSize: 0x28 }
  - { offsetInCU: 0x126EB, offset: 0x126EB, size: 0x8, addend: 0x0, symName: __ZNSt3__114numeric_limitsIlE3maxB7v160006Ev, symObjAddr: 0x14D4, symBinAddr: 0x100002F70, symSize: 0x14 }
  - { offsetInCU: 0x12713, offset: 0x12713, size: 0x8, addend: 0x0, symName: __ZNKSt3__16__lessImmEclB7v160006ERKmS3_, symObjAddr: 0x1548, symBinAddr: 0x100002FE4, symSize: 0x34 }
  - { offsetInCU: 0x12755, offset: 0x12755, size: 0x8, addend: 0x0, symName: __ZNKSt3__19allocatorI5PointE8max_sizeB7v160006Ev, symObjAddr: 0x157C, symBinAddr: 0x100003018, symSize: 0x14 }
  - { offsetInCU: 0x1277B, offset: 0x1277B, size: 0x8, addend: 0x0, symName: __ZNKSt3__117__compressed_pairIP5PointNS_9allocatorIS1_EEE6secondB7v160006Ev, symObjAddr: 0x1590, symBinAddr: 0x10000302C, symSize: 0x24 }
  - { offsetInCU: 0x127A1, offset: 0x127A1, size: 0x8, addend: 0x0, symName: __ZNKSt3__122__compressed_pair_elemINS_9allocatorI5PointEELi1ELb1EE5__getB7v160006Ev, symObjAddr: 0x15B4, symBinAddr: 0x100003050, symSize: 0x14 }
  - { offsetInCU: 0x127C7, offset: 0x127C7, size: 0x8, addend: 0x0, symName: __ZNSt3__123__libcpp_numeric_limitsIlLb1EE3maxB7v160006Ev, symObjAddr: 0x15C8, symBinAddr: 0x100003064, symSize: 0x8 }
  - { offsetInCU: 0x127DB, offset: 0x127DB, size: 0x8, addend: 0x0, symName: __ZNSt12length_errorC1B7v160006EPKc, symObjAddr: 0x1634, symBinAddr: 0x1000030D0, symSize: 0x34 }
  - { offsetInCU: 0x12813, offset: 0x12813, size: 0x8, addend: 0x0, symName: __ZNSt12length_errorC2B7v160006EPKc, symObjAddr: 0x1668, symBinAddr: 0x100003104, symSize: 0x4C }
  - { offsetInCU: 0x1284B, offset: 0x1284B, size: 0x8, addend: 0x0, symName: __ZNSt3__19allocatorI5PointE8allocateB7v160006Em, symObjAddr: 0x16B4, symBinAddr: 0x100003150, symSize: 0x58 }
  - { offsetInCU: 0x1287F, offset: 0x1287F, size: 0x8, addend: 0x0, symName: __ZNSt3__117__compressed_pairIP5PointNS_9allocatorIS1_EEE6secondB7v160006Ev, symObjAddr: 0x1810, symBinAddr: 0x1000032AC, symSize: 0x24 }
  - { offsetInCU: 0x128A5, offset: 0x128A5, size: 0x8, addend: 0x0, symName: __ZNSt3__122__compressed_pair_elemINS_9allocatorI5PointEELi1ELb1EE5__getB7v160006Ev, symObjAddr: 0x1834, symBinAddr: 0x1000032D0, symSize: 0x14 }
  - { offsetInCU: 0x128CB, offset: 0x128CB, size: 0x8, addend: 0x0, symName: __ZNSt3__117__compressed_pairIP5PointNS_9allocatorIS1_EEE5firstB7v160006Ev, symObjAddr: 0x1848, symBinAddr: 0x1000032E4, symSize: 0x24 }
  - { offsetInCU: 0x128F1, offset: 0x128F1, size: 0x8, addend: 0x0, symName: __ZNSt3__122__compressed_pair_elemIP5PointLi0ELb0EE5__getB7v160006Ev, symObjAddr: 0x186C, symBinAddr: 0x100003308, symSize: 0x14 }
  - { offsetInCU: 0x12917, offset: 0x12917, size: 0x8, addend: 0x0, symName: __ZNKSt3__16vectorI5PointNS_9allocatorIS1_EEE31__annotate_contiguous_containerB7v160006EPKvS6_S6_S6_, symObjAddr: 0x1880, symBinAddr: 0x10000331C, symSize: 0x20 }
  - { offsetInCU: 0x1296D, offset: 0x1296D, size: 0x8, addend: 0x0, symName: __ZNKSt3__16vectorI5PointNS_9allocatorIS1_EEE4dataB7v160006Ev, symObjAddr: 0x18A0, symBinAddr: 0x10000333C, symSize: 0x28 }
  - { offsetInCU: 0x12993, offset: 0x12993, size: 0x8, addend: 0x0, symName: __ZNKSt3__16vectorI5PointNS_9allocatorIS1_EEE8capacityB7v160006Ev, symObjAddr: 0x18C8, symBinAddr: 0x100003364, symSize: 0x40 }
  - { offsetInCU: 0x129B9, offset: 0x129B9, size: 0x8, addend: 0x0, symName: __ZNKSt3__16vectorI5PointNS_9allocatorIS1_EEE9__end_capB7v160006Ev, symObjAddr: 0x191C, symBinAddr: 0x1000033B8, symSize: 0x28 }
  - { offsetInCU: 0x129DF, offset: 0x129DF, size: 0x8, addend: 0x0, symName: __ZNKSt3__117__compressed_pairIP5PointNS_9allocatorIS1_EEE5firstB7v160006Ev, symObjAddr: 0x1944, symBinAddr: 0x1000033E0, symSize: 0x24 }
  - { offsetInCU: 0x12A05, offset: 0x12A05, size: 0x8, addend: 0x0, symName: __ZNKSt3__122__compressed_pair_elemIP5PointLi0ELb0EE5__getB7v160006Ev, symObjAddr: 0x1968, symBinAddr: 0x100003404, symSize: 0x14 }
  - { offsetInCU: 0x12A44, offset: 0x12A44, size: 0x8, addend: 0x0, symName: __ZNSt3__16vectorI5PointNS_9allocatorIS1_EEE21_ConstructTransactionC1B7v160006ERS4_m, symObjAddr: 0x197C, symBinAddr: 0x100003418, symSize: 0x3C }
  - { offsetInCU: 0x12A8C, offset: 0x12A8C, size: 0x8, addend: 0x0, symName: __ZNSt3__116allocator_traitsINS_9allocatorI5PointEEE9constructB7v160006IS2_JEvEEvRS3_PT_DpOT0_, symObjAddr: 0x19B8, symBinAddr: 0x100003454, symSize: 0x2C }
  - { offsetInCU: 0x12ACE, offset: 0x12ACE, size: 0x8, addend: 0x0, symName: __ZNSt3__16vectorI5PointNS_9allocatorIS1_EEE21_ConstructTransactionD1B7v160006Ev, symObjAddr: 0x19E4, symBinAddr: 0x100003480, symSize: 0x2C }
  - { offsetInCU: 0x12AF8, offset: 0x12AF8, size: 0x8, addend: 0x0, symName: __ZNSt3__16vectorI5PointNS_9allocatorIS1_EEE21_ConstructTransactionC2B7v160006ERS4_m, symObjAddr: 0x1A10, symBinAddr: 0x1000034AC, symSize: 0x44 }
  - { offsetInCU: 0x12B40, offset: 0x12B40, size: 0x8, addend: 0x0, symName: __ZNSt3__19allocatorI5PointE9constructB7v160006IS1_JEEEvPT_DpOT0_, symObjAddr: 0x1A54, symBinAddr: 0x1000034F0, symSize: 0x1C }
  - { offsetInCU: 0x12B82, offset: 0x12B82, size: 0x8, addend: 0x0, symName: __ZNSt3__16vectorI5PointNS_9allocatorIS1_EEE21_ConstructTransactionD2B7v160006Ev, symObjAddr: 0x1A70, symBinAddr: 0x10000350C, symSize: 0x20 }
  - { offsetInCU: 0x12BAC, offset: 0x12BAC, size: 0x8, addend: 0x0, symName: __ZNSt3__128__exception_guard_exceptionsINS_6vectorI5PointNS_9allocatorIS2_EEE16__destroy_vectorEED2B7v160006Ev, symObjAddr: 0x1A90, symBinAddr: 0x10000352C, symSize: 0x50 }
  - { offsetInCU: 0x12BD6, offset: 0x12BD6, size: 0x8, addend: 0x0, symName: __ZNSt3__16vectorI5PointNS_9allocatorIS1_EEE16__destroy_vectorclB7v160006Ev, symObjAddr: 0x1AE0, symBinAddr: 0x10000357C, symSize: 0x9C }
  - { offsetInCU: 0x12BFC, offset: 0x12BFC, size: 0x8, addend: 0x0, symName: __ZNKSt3__16vectorI5PointNS_9allocatorIS1_EEE17__annotate_deleteB7v160006Ev, symObjAddr: 0x1B7C, symBinAddr: 0x100003618, symSize: 0xB8 }
  - { offsetInCU: 0x12C22, offset: 0x12C22, size: 0x8, addend: 0x0, symName: __ZNSt3__16vectorI5PointNS_9allocatorIS1_EEE7__clearB7v160006Ev, symObjAddr: 0x1C44, symBinAddr: 0x1000036E0, symSize: 0x28 }
  - { offsetInCU: 0x12C48, offset: 0x12C48, size: 0x8, addend: 0x0, symName: __ZNSt3__116allocator_traitsINS_9allocatorI5PointEEE10deallocateB7v160006ERS3_PS2_m, symObjAddr: 0x1C6C, symBinAddr: 0x100003708, symSize: 0x34 }
  - { offsetInCU: 0x12C8A, offset: 0x12C8A, size: 0x8, addend: 0x0, symName: __ZNKSt3__16vectorI5PointNS_9allocatorIS1_EEE4sizeB7v160006Ev, symObjAddr: 0x1CA0, symBinAddr: 0x10000373C, symSize: 0x28 }
  - { offsetInCU: 0x12CB0, offset: 0x12CB0, size: 0x8, addend: 0x0, symName: __ZNSt3__16vectorI5PointNS_9allocatorIS1_EEE22__base_destruct_at_endB7v160006EPS1_, symObjAddr: 0x1CC8, symBinAddr: 0x100003764, symSize: 0x8C }
  - { offsetInCU: 0x12CF4, offset: 0x12CF4, size: 0x8, addend: 0x0, symName: __ZNSt3__116allocator_traitsINS_9allocatorI5PointEEE7destroyB7v160006IS2_vEEvRS3_PT_, symObjAddr: 0x1D54, symBinAddr: 0x1000037F0, symSize: 0x2C }
  - { offsetInCU: 0x12D31, offset: 0x12D31, size: 0x8, addend: 0x0, symName: __ZNSt3__19allocatorI5PointE7destroyB7v160006EPS1_, symObjAddr: 0x1D80, symBinAddr: 0x10000381C, symSize: 0x14 }
  - { offsetInCU: 0x12D65, offset: 0x12D65, size: 0x8, addend: 0x0, symName: __ZNSt3__19allocatorI5PointE10deallocateB7v160006EPS1_m, symObjAddr: 0x1D94, symBinAddr: 0x100003830, symSize: 0x40 }
  - { offsetInCU: 0x12DA7, offset: 0x12DA7, size: 0x8, addend: 0x0, symName: __ZNSt3__16vectorI5PointNS_9allocatorIS1_EEED2B7v160006Ev, symObjAddr: 0x1EDC, symBinAddr: 0x100003978, symSize: 0x44 }
  - { offsetInCU: 0x12DD1, offset: 0x12DD1, size: 0x8, addend: 0x0, symName: __ZNSt3__16vectorI5PointNS_9allocatorIS1_EEE11__make_iterB7v160006EPS1_, symObjAddr: 0x1F20, symBinAddr: 0x1000039BC, symSize: 0x34 }
  - { offsetInCU: 0x12E06, offset: 0x12E06, size: 0x8, addend: 0x0, symName: __ZNSt3__111__wrap_iterIP5PointEC1B7v160006EPKvS2_, symObjAddr: 0x1F54, symBinAddr: 0x1000039F0, symSize: 0x3C }
  - { offsetInCU: 0x12E4C, offset: 0x12E4C, size: 0x8, addend: 0x0, symName: __ZNSt3__111__wrap_iterIP5PointEC2B7v160006EPKvS2_, symObjAddr: 0x1F90, symBinAddr: 0x100003A2C, symSize: 0x24 }
  - { offsetInCU: 0x12E92, offset: 0x12E92, size: 0x8, addend: 0x0, symName: __ZNKSt3__19basic_iosIcNS_11char_traitsIcEEE5widenB7v160006Ec, symObjAddr: 0x1FB4, symBinAddr: 0x100003A50, symSize: 0x84 }
  - { offsetInCU: 0x12F00, offset: 0x12F00, size: 0x8, addend: 0x0, symName: __ZNKSt3__15ctypeIcE5widenB7v160006Ec, symObjAddr: 0x2064, symBinAddr: 0x100003B00, symSize: 0x38 }
...
