---
triple:          'arm64-apple-darwin'
binary-path:     '/Users/dingkai/Code/IOI2024/NZOI/2023-3-4.gout'
relocations:
  - { offsetInCU: 0xBB, offset: 0xBB, size: 0x8, addend: 0x0, symName: __ZN9__gnu_cxx5__ops16__iter_less_iterEv, symObjAddr: 0x0, symBinAddr: 0x1000046C4, symSize: 0x8 }
  - { offsetInCU: 0xF0FD, offset: 0xF0FD, size: 0x8, addend: 0x0, symName: __ZStL8__ioinit, symObjAddr: 0x73E30, symBinAddr: 0x1000181DC, symSize: 0x0 }
  - { offsetInCU: 0xF17B, offset: 0xF17B, size: 0x8, addend: 0x0, symName: _n, symObjAddr: 0x73E38, symBinAddr: 0x1000181E0, symSize: 0x0 }
  - { offsetInCU: 0xF191, offset: 0xF191, size: 0x8, addend: 0x0, symName: _x, symObjAddr: 0x73E3C, symBinAddr: 0x1000181E4, symSize: 0x0 }
  - { offsetInCU: 0xF1A7, offset: 0xF1A7, size: 0x8, addend: 0x0, symName: _m, symObjAddr: 0x73E40, symBinAddr: 0x1000181E8, symSize: 0x0 }
  - { offsetInCU: 0xF2CD, offset: 0xF2CD, size: 0x8, addend: 0x0, symName: _k, symObjAddr: 0x73E48, symBinAddr: 0x1000181F0, symSize: 0x0 }
  - { offsetInCU: 0xF400, offset: 0xF400, size: 0x8, addend: 0x0, symName: _hdi, symObjAddr: 0x73E60, symBinAddr: 0x100018208, symSize: 0x0 }
  - { offsetInCU: 0xF578, offset: 0xF578, size: 0x8, addend: 0x0, symName: _stK, symObjAddr: 0x73E78, symBinAddr: 0x100018220, symSize: 0x0 }
  - { offsetInCU: 0xF708, offset: 0xF708, size: 0x8, addend: 0x0, symName: _mpItH, symObjAddr: 0x73EA8, symBinAddr: 0x100018250, symSize: 0x0 }
  - { offsetInCU: 0xF71E, offset: 0xF71E, size: 0x8, addend: 0x0, symName: _mpHtI, symObjAddr: 0x73ED8, symBinAddr: 0x100018280, symSize: 0x0 }
  - { offsetInCU: 0xFD28, offset: 0xFD28, size: 0x8, addend: 0x0, symName: __GLOBAL__sub_I_2023_3_4.cpp, symObjAddr: 0x85B0, symBinAddr: 0x10000CC74, symSize: 0x14 }
  - { offsetInCU: 0xFD70, offset: 0xFD70, size: 0x8, addend: 0x0, symName: __ZNSt6vectorISt5arrayIiLm3EESaIS1_EED1Ev, symObjAddr: 0x8554, symBinAddr: 0x10000CC18, symSize: 0x5C }
  - { offsetInCU: 0xFDC4, offset: 0xFDC4, size: 0x8, addend: 0x0, symName: __Z41__static_initialization_and_destruction_0v, symObjAddr: 0x8450, symBinAddr: 0x10000CB14, symSize: 0x104 }
  - { offsetInCU: 0xFE01, offset: 0xFE01, size: 0x8, addend: 0x0, symName: __ZNSt3mapIiiSt4lessIiESaISt4pairIKiiEEED1Ev, symObjAddr: 0x8430, symBinAddr: 0x10000CAF4, symSize: 0x20 }
  - { offsetInCU: 0xFE4E, offset: 0xFE4E, size: 0x8, addend: 0x0, symName: __ZNSt3setISt6vectorIiSaIiEESt4lessIS2_ESaIS2_EED1Ev, symObjAddr: 0x8410, symBinAddr: 0x10000CAD4, symSize: 0x20 }
  - { offsetInCU: 0xFE3E, offset: 0xFE3E, size: 0x8, addend: 0x0, symName: __ZNSt11__copy_moveILb0ELb0ESt26random_access_iterator_tagE12__assign_oneIPSt5tupleIJSt6vectorIiSaIiEEiS6_EES8_EEvPT_PT0_, symObjAddr: 0x83E8, symBinAddr: 0x10000CAAC, symSize: 0x28 }
  - { offsetInCU: 0xFE8E, offset: 0xFE8E, size: 0x8, addend: 0x0, symName: __ZSt4moveIRiEONSt16remove_referenceIT_E4typeEOS2_, symObjAddr: 0x83D4, symBinAddr: 0x10000CA98, symSize: 0x14 }
  - { offsetInCU: 0xFEBE, offset: 0xFEBE, size: 0x8, addend: 0x0, symName: __ZNSt20__copy_move_backwardILb0ELb1ESt26random_access_iterator_tagE13__copy_move_bIPSt5tupleIJSt6vectorIiSaIiEEiS6_EES8_EEPT0_PT_SC_SA_, symObjAddr: 0x8328, symBinAddr: 0x10000C9EC, symSize: 0xAC }
  - { offsetInCU: 0xFF28, offset: 0xFF28, size: 0x8, addend: 0x0, symName: __ZNSt11__copy_moveILb0ELb1ESt26random_access_iterator_tagE8__copy_mIPSt5tupleIJSt6vectorIiSaIiEEiS6_EES8_EEPT0_PT_SC_SA_, symObjAddr: 0x8298, symBinAddr: 0x10000C95C, symSize: 0x90 }
  - { offsetInCU: 0xFF92, offset: 0xFF92, size: 0x8, addend: 0x0, symName: __ZSt4swapIiENSt9enable_ifIXsrSt6__and_IJSt6__not_ISt15__is_tuple_likeIT_EESt21is_move_constructibleIS4_ESt18is_move_assignableIS4_EEE5valueEvE4typeERS4_SE_, symObjAddr: 0x8244, symBinAddr: 0x10000C908, symSize: 0x54 }
  - { offsetInCU: 0xFFEF, offset: 0xFFEF, size: 0x8, addend: 0x0, symName: __ZNK9__gnu_cxx5__ops15_Iter_less_iterclIPKiS4_EEbT_T0_, symObjAddr: 0x8210, symBinAddr: 0x10000C8D4, symSize: 0x34 }
  - { offsetInCU: 0x10043, offset: 0x10043, size: 0x8, addend: 0x0, symName: __ZNSt8__lc_raiISt26random_access_iterator_tagS0_E6__cnd2IPKiEEbT_S5_, symObjAddr: 0x81F8, symBinAddr: 0x10000C8BC, symSize: 0x18 }
  - { offsetInCU: 0x10074, offset: 0x10074, size: 0x8, addend: 0x0, symName: __ZNSt8__lc_raiISt26random_access_iterator_tagS0_E10__newlast1IPKiS4_EET_S5_S5_T0_S6_, symObjAddr: 0x818C, symBinAddr: 0x10000C850, symSize: 0x6C }
  - { offsetInCU: 0x100FE, offset: 0x100FE, size: 0x8, addend: 0x0, symName: __ZSt23__copy_move_backward_a2ILb0EPPSt5tupleIJSt6vectorIiSaIiEEiS3_EES6_ET1_T0_S8_S7_, symObjAddr: 0x8160, symBinAddr: 0x10000C824, symSize: 0x2C }
  - { offsetInCU: 0x10162, offset: 0x10162, size: 0x8, addend: 0x0, symName: __ZSt14__copy_move_a2ILb0EPPSt5tupleIJSt6vectorIiSaIiEEiS3_EES6_ET1_T0_S8_S7_, symObjAddr: 0x8134, symBinAddr: 0x10000C7F8, symSize: 0x2C }
  - { offsetInCU: 0x101C6, offset: 0x101C6, size: 0x8, addend: 0x0, symName: __ZNSt11__copy_moveILb1ELb0ESt26random_access_iterator_tagE12__assign_oneISt5arrayIiLm3EES4_EEvPT_PT0_, symObjAddr: 0x80F8, symBinAddr: 0x10000C7BC, symSize: 0x3C }
  - { offsetInCU: 0x10210, offset: 0x10210, size: 0x8, addend: 0x0, symName: __ZSt9iter_swapIPiS0_EvT_T0_, symObjAddr: 0x80D0, symBinAddr: 0x10000C794, symSize: 0x28 }
  - { offsetInCU: 0x10280, offset: 0x10280, size: 0x8, addend: 0x0, symName: __ZSt30__lexicographical_compare_implIPKiS1_N9__gnu_cxx5__ops15_Iter_less_iterEEbT_S5_T0_S6_T1_, symObjAddr: 0x7FB4, symBinAddr: 0x10000C678, symSize: 0x11C }
  - { offsetInCU: 0x10303, offset: 0x10303, size: 0x8, addend: 0x0, symName: __ZSt23__copy_move_backward_a1ILb0EPPSt5tupleIJSt6vectorIiSaIiEEiS3_EES6_ET1_T0_S8_S7_, symObjAddr: 0x7F88, symBinAddr: 0x10000C64C, symSize: 0x2C }
  - { offsetInCU: 0x10367, offset: 0x10367, size: 0x8, addend: 0x0, symName: __ZSt12__niter_wrapIPPSt5tupleIJSt6vectorIiSaIiEEiS3_EEET_RKS7_S7_, symObjAddr: 0x7F70, symBinAddr: 0x10000C634, symSize: 0x18 }
  - { offsetInCU: 0x103A0, offset: 0x103A0, size: 0x8, addend: 0x0, symName: __ZSt14__copy_move_a1ILb0EPPSt5tupleIJSt6vectorIiSaIiEEiS3_EES6_ET1_T0_S8_S7_, symObjAddr: 0x7F44, symBinAddr: 0x10000C608, symSize: 0x2C }
  - { offsetInCU: 0x10404, offset: 0x10404, size: 0x8, addend: 0x0, symName: __ZSt12__niter_baseIPPSt5tupleIJSt6vectorIiSaIiEEiS3_EEET_S7_, symObjAddr: 0x7F30, symBinAddr: 0x10000C5F4, symSize: 0x14 }
  - { offsetInCU: 0x10435, offset: 0x10435, size: 0x8, addend: 0x0, symName: __ZNSt20__copy_move_backwardILb1ELb1ESt26random_access_iterator_tagE13__copy_move_bISt5arrayIiLm3EES4_EEPT0_PT_S8_S6_, symObjAddr: 0x7E54, symBinAddr: 0x10000C518, symSize: 0xDC }
  - { offsetInCU: 0x1049F, offset: 0x1049F, size: 0x8, addend: 0x0, symName: __ZSt12__niter_baseIPKiET_S2_, symObjAddr: 0x7E40, symBinAddr: 0x10000C504, symSize: 0x14 }
  - { offsetInCU: 0x104D0, offset: 0x104D0, size: 0x8, addend: 0x0, symName: __ZSt11swap_rangesIPiS0_ET0_T_S2_S1_, symObjAddr: 0x7DE8, symBinAddr: 0x10000C4AC, symSize: 0x58 }
  - { offsetInCU: 0x1052B, offset: 0x1052B, size: 0x8, addend: 0x0, symName: __ZNSt5arrayIiLm3EE3endEv, symObjAddr: 0x7DC8, symBinAddr: 0x10000C48C, symSize: 0x20 }
  - { offsetInCU: 0x10574, offset: 0x10574, size: 0x8, addend: 0x0, symName: __ZNSt5arrayIiLm3EE5beginEv, symObjAddr: 0x7DAC, symBinAddr: 0x10000C470, symSize: 0x1C }
  - { offsetInCU: 0x105C8, offset: 0x105C8, size: 0x8, addend: 0x0, symName: __ZNK9__gnu_cxx5__ops14_Iter_less_valclINS_17__normal_iteratorIPSt5arrayIiLm3EESt6vectorIS5_SaIS5_EEEES5_EEbT_RT0_, symObjAddr: 0x7D7C, symBinAddr: 0x10000C440, symSize: 0x30 }
  - { offsetInCU: 0x1061C, offset: 0x1061C, size: 0x8, addend: 0x0, symName: __ZSt9__fill_a1IPSt5arrayIiLm3EES1_EN9__gnu_cxx11__enable_ifIXntsrSt11__is_scalarIT0_E7__valueEvE6__typeET_SA_RKS6_, symObjAddr: 0x7D24, symBinAddr: 0x10000C3E8, symSize: 0x58 }
  - { offsetInCU: 0x10676, offset: 0x10676, size: 0x8, addend: 0x0, symName: __ZSt9__fill_a1IPiiEN9__gnu_cxx11__enable_ifIXsrSt11__is_scalarIT0_E7__valueEvE6__typeET_S8_RKS4_, symObjAddr: 0x7CCC, symBinAddr: 0x10000C390, symSize: 0x58 }
  - { offsetInCU: 0x10722, offset: 0x10722, size: 0x8, addend: 0x0, symName: __ZNSt15__new_allocatorISt13_Rb_tree_nodeISt6vectorIiSaIiEEEE8allocateEmPKv, symObjAddr: 0x7C2C, symBinAddr: 0x10000C2F0, symSize: 0xA0 }
  - { offsetInCU: 0x1078E, offset: 0x1078E, size: 0x8, addend: 0x0, symName: __ZNSt25__lexicographical_compareILb0EE4__lcIPKiS3_EEbT_S4_T0_S5_, symObjAddr: 0x7BE4, symBinAddr: 0x10000C2A8, symSize: 0x48 }
  - { offsetInCU: 0x107F8, offset: 0x107F8, size: 0x8, addend: 0x0, symName: __ZSt22__copy_move_backward_aILb0EPPSt5tupleIJSt6vectorIiSaIiEEiS3_EES6_ET1_T0_S8_S7_, symObjAddr: 0x7B84, symBinAddr: 0x10000C248, symSize: 0x60 }
  - { offsetInCU: 0x1085C, offset: 0x1085C, size: 0x8, addend: 0x0, symName: __ZSt13__copy_move_aILb0EPPSt5tupleIJSt6vectorIiSaIiEEiS3_EES6_ET1_T0_S8_S7_, symObjAddr: 0x7B24, symBinAddr: 0x10000C1E8, symSize: 0x60 }
  - { offsetInCU: 0x108C0, offset: 0x108C0, size: 0x8, addend: 0x0, symName: __ZSt12__miter_baseIPPSt5tupleIJSt6vectorIiSaIiEEiS3_EEET_S7_, symObjAddr: 0x7B10, symBinAddr: 0x10000C1D4, symSize: 0x14 }
  - { offsetInCU: 0x10919, offset: 0x10919, size: 0x8, addend: 0x0, symName: __ZSt23__copy_move_backward_a2ILb1EPSt5arrayIiLm3EES2_ET1_T0_S4_S3_, symObjAddr: 0x7AE4, symBinAddr: 0x10000C1A8, symSize: 0x2C }
  - { offsetInCU: 0x1097D, offset: 0x1097D, size: 0x8, addend: 0x0, symName: __ZSt29__lexicographical_compare_auxIPKiS1_EbT_S2_T0_S3_, symObjAddr: 0x7A70, symBinAddr: 0x10000C134, symSize: 0x74 }
  - { offsetInCU: 0x109EB, offset: 0x109EB, size: 0x8, addend: 0x0, symName: __ZNKSt5arrayIiLm3EE4dataEv, symObjAddr: 0x7A5C, symBinAddr: 0x10000C120, symSize: 0x14 }
  - { offsetInCU: 0x10A13, offset: 0x10A13, size: 0x8, addend: 0x0, symName: __ZNSt5arrayIiLm3EE4swapERS0_, symObjAddr: 0x7A08, symBinAddr: 0x10000C0CC, symSize: 0x54 }
  - { offsetInCU: 0x10A4C, offset: 0x10A4C, size: 0x8, addend: 0x0, symName: __ZSt11__push_heapIN9__gnu_cxx17__normal_iteratorIPSt5arrayIiLm3EESt6vectorIS3_SaIS3_EEEElS3_NS0_5__ops14_Iter_less_valEEvT_T0_SC_T1_RT2_, symObjAddr: 0x78AC, symBinAddr: 0x10000BF70, symSize: 0x15C }
  - { offsetInCU: 0x10AF0, offset: 0x10AF0, size: 0x8, addend: 0x0, symName: __ZSt4moveIRN9__gnu_cxx5__ops15_Iter_less_iterEEONSt16remove_referenceIT_E4typeEOS5_, symObjAddr: 0x7898, symBinAddr: 0x10000BF5C, symSize: 0x14 }
  - { offsetInCU: 0x10B20, offset: 0x10B20, size: 0x8, addend: 0x0, symName: __ZSt8__fill_aIPSt5arrayIiLm3EES1_EvT_S3_RKT0_, symObjAddr: 0x7868, symBinAddr: 0x10000BF2C, symSize: 0x30 }
  - { offsetInCU: 0x10B7A, offset: 0x10B7A, size: 0x8, addend: 0x0, symName: __ZSt8__fill_aIPiiEvT_S1_RKT0_, symObjAddr: 0x7838, symBinAddr: 0x10000BEFC, symSize: 0x30 }
  - { offsetInCU: 0x10C3C, offset: 0x10C3C, size: 0x8, addend: 0x0, symName: __ZSt30__lexicographical_compare_aux1IPKiS1_EbT_S2_T0_S3_, symObjAddr: 0x77FC, symBinAddr: 0x10000BEC0, symSize: 0x3C }
  - { offsetInCU: 0x10CBF, offset: 0x10CBF, size: 0x8, addend: 0x0, symName: __ZNK9__gnu_cxx16__aligned_membufISt6vectorIiSaIiEEE7_M_addrEv, symObjAddr: 0x77E8, symBinAddr: 0x10000BEAC, symSize: 0x14 }
  - { offsetInCU: 0x10CE3, offset: 0x10CE3, size: 0x8, addend: 0x0, symName: __ZNSt11__copy_moveILb0ELb0ESt26random_access_iterator_tagE12__assign_oneIiiEEvPT_PT0_, symObjAddr: 0x77C0, symBinAddr: 0x10000BE84, symSize: 0x28 }
  - { offsetInCU: 0x10D2D, offset: 0x10D2D, size: 0x8, addend: 0x0, symName: __ZNSt11__copy_moveILb0ELb0ESt26random_access_iterator_tagE12__assign_oneIiKiEEvPT_PT0_, symObjAddr: 0x7798, symBinAddr: 0x10000BE5C, symSize: 0x28 }
  - { offsetInCU: 0x10D77, offset: 0x10D77, size: 0x8, addend: 0x0, symName: __ZSt13copy_backwardIPPSt5tupleIJSt6vectorIiSaIiEEiS3_EES6_ET0_T_S8_S7_, symObjAddr: 0x7750, symBinAddr: 0x10000BE14, symSize: 0x48 }
  - { offsetInCU: 0x10DD1, offset: 0x10DD1, size: 0x8, addend: 0x0, symName: __ZSt4copyIPPSt5tupleIJSt6vectorIiSaIiEEiS3_EES6_ET0_T_S8_S7_, symObjAddr: 0x7708, symBinAddr: 0x10000BDCC, symSize: 0x48 }
  - { offsetInCU: 0x10E9B, offset: 0x10E9B, size: 0x8, addend: 0x0, symName: __ZNSt12_Vector_baseIiSaIiEE17_Vector_impl_dataC2EOS2_, symObjAddr: 0x7698, symBinAddr: 0x10000BD5C, symSize: 0x70 }
  - { offsetInCU: 0x10E9D, offset: 0x10E9D, size: 0x8, addend: 0x0, symName: __ZSt4moveIRNSt12_Vector_baseIiSaIiEE12_Vector_implEEONSt16remove_referenceIT_E4typeEOS6_, symObjAddr: 0x7684, symBinAddr: 0x10000BD48, symSize: 0x14 }
  - { offsetInCU: 0x10ECD, offset: 0x10ECD, size: 0x8, addend: 0x0, symName: __ZSt8_DestroyISt5tupleIJSt6vectorIiSaIiEEiS3_EEEvPT_, symObjAddr: 0x7664, symBinAddr: 0x10000BD28, symSize: 0x20 }
  - { offsetInCU: 0x10EFD, offset: 0x10EFD, size: 0x8, addend: 0x0, symName: __ZSt11__addressofISt5tupleIJSt6vectorIiSaIiEEiS3_EEEPT_RS5_, symObjAddr: 0x7650, symBinAddr: 0x10000BD14, symSize: 0x14 }
  - { offsetInCU: 0x10F31, offset: 0x10F31, size: 0x8, addend: 0x0, symName: __ZNSt15__new_allocatorISt5tupleIJSt6vectorIiSaIiEEiS3_EEE8allocateEmPKv, symObjAddr: 0x75B0, symBinAddr: 0x10000BC74, symSize: 0xA0 }
  - { offsetInCU: 0x10FB1, offset: 0x10FB1, size: 0x8, addend: 0x0, symName: __ZSt12__niter_wrapIN9__gnu_cxx17__normal_iteratorIPSt5arrayIiLm3EESt6vectorIS3_SaIS3_EEEES4_ET_S9_T0_, symObjAddr: 0x7568, symBinAddr: 0x10000BC2C, symSize: 0x48 }
  - { offsetInCU: 0x10FFB, offset: 0x10FFB, size: 0x8, addend: 0x0, symName: __ZSt23__copy_move_backward_a1ILb1EPSt5arrayIiLm3EES2_ET1_T0_S4_S3_, symObjAddr: 0x753C, symBinAddr: 0x10000BC00, symSize: 0x2C }
  - { offsetInCU: 0x1105F, offset: 0x1105F, size: 0x8, addend: 0x0, symName: __ZSt12__niter_baseIPSt5arrayIiLm3EESt6vectorIS1_SaIS1_EEET_N9__gnu_cxx17__normal_iteratorIS6_T0_EE, symObjAddr: 0x751C, symBinAddr: 0x10000BBE0, symSize: 0x20 }
  - { offsetInCU: 0x11099, offset: 0x11099, size: 0x8, addend: 0x0, symName: __ZSt23lexicographical_compareIPKiS1_EbT_S2_T0_S3_, symObjAddr: 0x74E4, symBinAddr: 0x10000BBA8, symSize: 0x38 }
  - { offsetInCU: 0x11107, offset: 0x11107, size: 0x8, addend: 0x0, symName: __ZNKSt5arrayIiLm3EE3endEv, symObjAddr: 0x74C4, symBinAddr: 0x10000BB88, symSize: 0x20 }
  - { offsetInCU: 0x1112F, offset: 0x1112F, size: 0x8, addend: 0x0, symName: __ZNKSt5arrayIiLm3EE5beginEv, symObjAddr: 0x74A8, symBinAddr: 0x10000BB6C, symSize: 0x1C }
  - { offsetInCU: 0x11153, offset: 0x11153, size: 0x8, addend: 0x0, symName: __ZSt4swapIiLm3EENSt9enable_ifIXsrNSt14__array_traitsIT_XT0_EE13_Is_swappableE5valueEvE4typeERSt5arrayIS2_XT0_EES9_, symObjAddr: 0x7480, symBinAddr: 0x10000BB44, symSize: 0x28 }
  - { offsetInCU: 0x1119E, offset: 0x1119E, size: 0x8, addend: 0x0, symName: __ZSt13__adjust_heapIN9__gnu_cxx17__normal_iteratorIPSt5arrayIiLm3EESt6vectorIS3_SaIS3_EEEElS3_NS0_5__ops15_Iter_less_iterEEvT_T0_SC_T1_T2_, symObjAddr: 0x726C, symBinAddr: 0x10000B930, symSize: 0x214 }
  - { offsetInCU: 0x11257, offset: 0x11257, size: 0x8, addend: 0x0, symName: __ZSt10__fill_n_aIPSt5arrayIiLm3EEmS1_ET_S3_T0_RKT1_St26random_access_iterator_tag, symObjAddr: 0x71E8, symBinAddr: 0x10000B8AC, symSize: 0x84 }
  - { offsetInCU: 0x112D8, offset: 0x112D8, size: 0x8, addend: 0x0, symName: __ZSt10__fill_n_aIPimiET_S1_T0_RKT1_St26random_access_iterator_tag, symObjAddr: 0x7184, symBinAddr: 0x10000B848, symSize: 0x64 }
  - { offsetInCU: 0x11362, offset: 0x11362, size: 0x8, addend: 0x0, symName: __ZN9__gnu_cxx16__aligned_membufISt4pairIKiiEE7_M_addrEv, symObjAddr: 0x7170, symBinAddr: 0x10000B834, symSize: 0x14 }
  - { offsetInCU: 0x1138F, offset: 0x1138F, size: 0x8, addend: 0x0, symName: __ZN9__gnu_cxx16__aligned_membufISt6vectorIiSaIiEEE7_M_addrEv, symObjAddr: 0x715C, symBinAddr: 0x10000B820, symSize: 0x14 }
  - { offsetInCU: 0x113B7, offset: 0x113B7, size: 0x8, addend: 0x0, symName: __ZNSt8_Rb_treeISt6vectorIiSaIiEES2_St9_IdentityIS2_ESt4lessIS2_ESaIS2_EE17_M_construct_nodeIJRKS2_EEEvPSt13_Rb_tree_nodeIS2_EDpOT_, symObjAddr: 0x7058, symBinAddr: 0x10000B71C, symSize: 0x104 }
  - { offsetInCU: 0x11468, offset: 0x11468, size: 0x8, addend: 0x0, symName: __ZNSt8_Rb_treeISt6vectorIiSaIiEES2_St9_IdentityIS2_ESt4lessIS2_ESaIS2_EE11_M_get_nodeEv, symObjAddr: 0x701C, symBinAddr: 0x10000B6E0, symSize: 0x3C }
  - { offsetInCU: 0x114B6, offset: 0x114B6, size: 0x8, addend: 0x0, symName: __ZSt29__lexicographical_compare_auxIN9__gnu_cxx17__normal_iteratorIPKiSt6vectorIiSaIiEEEES7_EbT_S8_T0_S9_, symObjAddr: 0x6FA8, symBinAddr: 0x10000B66C, symSize: 0x74 }
  - { offsetInCU: 0x11524, offset: 0x11524, size: 0x8, addend: 0x0, symName: __ZNK9__gnu_cxx16__aligned_membufISt6vectorIiSaIiEEE6_M_ptrEv, symObjAddr: 0x6F8C, symBinAddr: 0x10000B650, symSize: 0x1C }
  - { offsetInCU: 0x11548, offset: 0x11548, size: 0x8, addend: 0x0, symName: __ZNSt11__copy_moveILb0ELb1ESt26random_access_iterator_tagE8__copy_mIiiEEPT0_PT_S6_S4_, symObjAddr: 0x6EFC, symBinAddr: 0x10000B5C0, symSize: 0x90 }
  - { offsetInCU: 0x115B2, offset: 0x115B2, size: 0x8, addend: 0x0, symName: __ZNSt11__copy_moveILb0ELb1ESt26random_access_iterator_tagE8__copy_mIKiiEEPT0_PT_S7_S5_, symObjAddr: 0x6E6C, symBinAddr: 0x10000B530, symSize: 0x90 }
  - { offsetInCU: 0x1161C, offset: 0x1161C, size: 0x8, addend: 0x0, symName: __ZSt13__copy_move_aILb0EN9__gnu_cxx17__normal_iteratorIPKiSt6vectorIiSaIiEEEEPiET1_T0_SA_S9_, symObjAddr: 0x6E0C, symBinAddr: 0x10000B4D0, symSize: 0x60 }
  - { offsetInCU: 0x11684, offset: 0x11684, size: 0x8, addend: 0x0, symName: __ZNSt5dequeISt5tupleIJSt6vectorIiSaIiEEiS3_EESaIS4_EE17_M_reallocate_mapEmb, symObjAddr: 0x6BCC, symBinAddr: 0x10000B290, symSize: 0x240 }
  - { offsetInCU: 0x1172C, offset: 0x1172C, size: 0x8, addend: 0x0, symName: __ZNSt5dequeISt5tupleIJSt6vectorIiSaIiEEiS3_EESaIS4_EE11_S_max_sizeERKS5_, symObjAddr: 0x6B6C, symBinAddr: 0x10000B230, symSize: 0x60 }
  - { offsetInCU: 0x117DF, offset: 0x117DF, size: 0x8, addend: 0x0, symName: __ZStmiRKSt15_Deque_iteratorISt5tupleIJSt6vectorIiSaIiEEiS3_EERS4_PS4_ES9_, symObjAddr: 0x6AB0, symBinAddr: 0x10000B174, symSize: 0xBC }
  - { offsetInCU: 0x1186C, offset: 0x1186C, size: 0x8, addend: 0x0, symName: __ZNSt12_Vector_baseIiSaIiEE12_Vector_implC1EOS2_, symObjAddr: 0x6A44, symBinAddr: 0x10000B108, symSize: 0x6C }
  - { offsetInCU: 0x11912, offset: 0x11912, size: 0x8, addend: 0x0, symName: __ZNSt11_Tuple_implILm2EJSt6vectorIiSaIiEEEEC2EOS3_, symObjAddr: 0x6A1C, symBinAddr: 0x10000B0E0, symSize: 0x28 }
  - { offsetInCU: 0x1195C, offset: 0x1195C, size: 0x8, addend: 0x0, symName: __ZNSt10_Head_baseILm2ESt6vectorIiSaIiEELb0EEC2EOS3_, symObjAddr: 0x69F4, symBinAddr: 0x10000B0B8, symSize: 0x28 }
  - { offsetInCU: 0x11954, offset: 0x11954, size: 0x8, addend: 0x0, symName: __ZNSt12_Destroy_auxILb0EE9__destroyIPSt5tupleIJSt6vectorIiSaIiEEiS5_EEEEvT_S8_, symObjAddr: 0x69A8, symBinAddr: 0x10000B06C, symSize: 0x4C }
  - { offsetInCU: 0x119AB, offset: 0x119AB, size: 0x8, addend: 0x0, symName: __ZNSt15__new_allocatorISt5tupleIJSt6vectorIiSaIiEEiS3_EEE10deallocateEPS4_m, symObjAddr: 0x696C, symBinAddr: 0x10000B030, symSize: 0x3C }
  - { offsetInCU: 0x11A15, offset: 0x11A15, size: 0x8, addend: 0x0, symName: __ZNSt15__new_allocatorIPSt5tupleIJSt6vectorIiSaIiEEiS3_EEE8allocateEmPKv, symObjAddr: 0x68F0, symBinAddr: 0x10000AFB4, symSize: 0x7C }
  - { offsetInCU: 0x11A90, offset: 0x11A90, size: 0x8, addend: 0x0, symName: __ZNK9__gnu_cxx5__ops14_Val_less_iterclISt5arrayIiLm3EENS_17__normal_iteratorIPS4_St6vectorIS4_SaIS4_EEEEEEbRT_T0_, symObjAddr: 0x68BC, symBinAddr: 0x10000AF80, symSize: 0x34 }
  - { offsetInCU: 0x11AE4, offset: 0x11AE4, size: 0x8, addend: 0x0, symName: __ZSt22__copy_move_backward_aILb1EN9__gnu_cxx17__normal_iteratorIPSt5arrayIiLm3EESt6vectorIS3_SaIS3_EEEES8_ET1_T0_SA_S9_, symObjAddr: 0x685C, symBinAddr: 0x10000AF20, symSize: 0x60 }
  - { offsetInCU: 0x11B48, offset: 0x11B48, size: 0x8, addend: 0x0, symName: __ZSt12__miter_baseIN9__gnu_cxx17__normal_iteratorIPSt5arrayIiLm3EESt6vectorIS3_SaIS3_EEEEET_S9_, symObjAddr: 0x6848, symBinAddr: 0x10000AF0C, symSize: 0x14 }
  - { offsetInCU: 0x11B79, offset: 0x11B79, size: 0x8, addend: 0x0, symName: __ZStltIiLm3EEbRKSt5arrayIT_XT0_EES4_, symObjAddr: 0x67DC, symBinAddr: 0x10000AEA0, symSize: 0x6C }
  - { offsetInCU: 0x11BC4, offset: 0x11BC4, size: 0x8, addend: 0x0, symName: __ZSt9iter_swapIN9__gnu_cxx17__normal_iteratorIPSt5arrayIiLm3EESt6vectorIS3_SaIS3_EEEES8_EvT_T0_, symObjAddr: 0x6798, symBinAddr: 0x10000AE5C, symSize: 0x44 }
  - { offsetInCU: 0x11C10, offset: 0x11C10, size: 0x8, addend: 0x0, symName: __ZN9__gnu_cxx17__normal_iteratorIPSt5arrayIiLm3EESt6vectorIS2_SaIS2_EEEmmEv, symObjAddr: 0x6770, symBinAddr: 0x10000AE34, symSize: 0x28 }
  - { offsetInCU: 0x11C34, offset: 0x11C34, size: 0x8, addend: 0x0, symName: __ZSt10__pop_heapIN9__gnu_cxx17__normal_iteratorIPSt5arrayIiLm3EESt6vectorIS3_SaIS3_EEEENS0_5__ops15_Iter_less_iterEEvT_SB_SB_RT0_, symObjAddr: 0x66B8, symBinAddr: 0x10000AD7C, symSize: 0xB8 }
  - { offsetInCU: 0x11CCA, offset: 0x11CCA, size: 0x8, addend: 0x0, symName: __ZN9__gnu_cxxltIPSt5arrayIiLm3EESt6vectorIS2_SaIS2_EEEEbRKNS_17__normal_iteratorIT_T0_EESC_, symObjAddr: 0x6674, symBinAddr: 0x10000AD38, symSize: 0x44 }
  - { offsetInCU: 0x11D14, offset: 0x11D14, size: 0x8, addend: 0x0, symName: __ZSt11__make_heapIN9__gnu_cxx17__normal_iteratorIPSt5arrayIiLm3EESt6vectorIS3_SaIS3_EEEENS0_5__ops15_Iter_less_iterEEvT_SB_RT0_, symObjAddr: 0x657C, symBinAddr: 0x10000AC40, symSize: 0xF8 }
  - { offsetInCU: 0x11DD9, offset: 0x11DD9, size: 0x8, addend: 0x0, symName: __ZSt6fill_nIPSt5arrayIiLm3EEmS1_ET_S3_T0_RKT1_, symObjAddr: 0x6534, symBinAddr: 0x10000ABF8, symSize: 0x48 }
  - { offsetInCU: 0x11E5C, offset: 0x11E5C, size: 0x8, addend: 0x0, symName: __ZSt10_ConstructISt5arrayIiLm3EEJEEvPT_DpOT0_, symObjAddr: 0x64F0, symBinAddr: 0x10000ABB4, symSize: 0x44 }
  - { offsetInCU: 0x11E96, offset: 0x11E96, size: 0x8, addend: 0x0, symName: __ZSt11__addressofISt5arrayIiLm3EEEPT_RS2_, symObjAddr: 0x64DC, symBinAddr: 0x10000ABA0, symSize: 0x14 }
  - { offsetInCU: 0x11EEE, offset: 0x11EEE, size: 0x8, addend: 0x0, symName: __ZSt6fill_nIPimiET_S1_T0_RKT1_, symObjAddr: 0x6494, symBinAddr: 0x10000AB58, symSize: 0x48 }
  - { offsetInCU: 0x11F71, offset: 0x11F71, size: 0x8, addend: 0x0, symName: __ZSt10_ConstructIiJEEvPT_DpOT0_, symObjAddr: 0x6468, symBinAddr: 0x10000AB2C, symSize: 0x2C }
  - { offsetInCU: 0x11FAB, offset: 0x11FAB, size: 0x8, addend: 0x0, symName: __ZSt11__addressofIiEPT_RS0_, symObjAddr: 0x6454, symBinAddr: 0x10000AB18, symSize: 0x14 }
  - { offsetInCU: 0x11FDF, offset: 0x11FDF, size: 0x8, addend: 0x0, symName: __ZNSt15__new_allocatorISt13_Rb_tree_nodeISt4pairIKiiEEE10deallocateEPS4_m, symObjAddr: 0x6418, symBinAddr: 0x10000AADC, symSize: 0x3C }
  - { offsetInCU: 0x1204E, offset: 0x1204E, size: 0x8, addend: 0x0, symName: __ZN9__gnu_cxx16__aligned_membufISt4pairIKiiEE6_M_ptrEv, symObjAddr: 0x63FC, symBinAddr: 0x10000AAC0, symSize: 0x1C }
  - { offsetInCU: 0x12076, offset: 0x12076, size: 0x8, addend: 0x0, symName: __ZNSt15__new_allocatorISt13_Rb_tree_nodeISt6vectorIiSaIiEEEE10deallocateEPS4_m, symObjAddr: 0x63C0, symBinAddr: 0x10000AA84, symSize: 0x3C }
  - { offsetInCU: 0x120E5, offset: 0x120E5, size: 0x8, addend: 0x0, symName: __ZN9__gnu_cxx16__aligned_membufISt6vectorIiSaIiEEE6_M_ptrEv, symObjAddr: 0x63A4, symBinAddr: 0x10000AA68, symSize: 0x1C }
  - { offsetInCU: 0x12183, offset: 0x12183, size: 0x8, addend: 0x0, symName: __ZNSt10_Head_baseILm2ESt6vectorIiSaIiEELb0EEC2IRS2_EEOT_, symObjAddr: 0x6368, symBinAddr: 0x10000AA2C, symSize: 0x3C }
  - { offsetInCU: 0x12183, offset: 0x12183, size: 0x8, addend: 0x0, symName: __ZNSt8_Rb_treeISt6vectorIiSaIiEES2_St9_IdentityIS2_ESt4lessIS2_ESaIS2_EE14_M_create_nodeIJRKS2_EEEPSt13_Rb_tree_nodeIS2_EDpOT_, symObjAddr: 0x6328, symBinAddr: 0x10000A9EC, symSize: 0x40 }
  - { offsetInCU: 0x121D7, offset: 0x121D7, size: 0x8, addend: 0x0, symName: __ZSt7forwardIRPSt18_Rb_tree_node_baseEOT_RNSt16remove_referenceIS3_E4typeE, symObjAddr: 0x6314, symBinAddr: 0x10000A9D8, symSize: 0x14 }
  - { offsetInCU: 0x12213, offset: 0x12213, size: 0x8, addend: 0x0, symName: __ZSt7forwardIRPSt13_Rb_tree_nodeISt6vectorIiSaIiEEEEOT_RNSt16remove_referenceIS7_E4typeE, symObjAddr: 0x6300, symBinAddr: 0x10000A9C4, symSize: 0x14 }
  - { offsetInCU: 0x12243, offset: 0x12243, size: 0x8, addend: 0x0, symName: __ZSt23lexicographical_compareIN9__gnu_cxx17__normal_iteratorIPKiSt6vectorIiSaIiEEEES7_EbT_S8_T0_S9_, symObjAddr: 0x62C8, symBinAddr: 0x10000A98C, symSize: 0x38 }
  - { offsetInCU: 0x122B1, offset: 0x122B1, size: 0x8, addend: 0x0, symName: __ZNKSt13_Rb_tree_nodeISt6vectorIiSaIiEEE9_M_valptrEv, symObjAddr: 0x62A8, symBinAddr: 0x10000A96C, symSize: 0x20 }
  - { offsetInCU: 0x122D5, offset: 0x122D5, size: 0x8, addend: 0x0, symName: __ZSt14__copy_move_a2ILb0EPiS0_ET1_T0_S2_S1_, symObjAddr: 0x627C, symBinAddr: 0x10000A940, symSize: 0x2C }
  - { offsetInCU: 0x1233D, offset: 0x1233D, size: 0x8, addend: 0x0, symName: __ZNK9__gnu_cxx17__normal_iteratorIPiSt6vectorIiSaIiEEEplEl, symObjAddr: 0x623C, symBinAddr: 0x10000A900, symSize: 0x40 }
  - { offsetInCU: 0x12371, offset: 0x12371, size: 0x8, addend: 0x0, symName: __ZSt14__copy_move_a2ILb0EPKiPiET1_T0_S4_S3_, symObjAddr: 0x6210, symBinAddr: 0x10000A8D4, symSize: 0x2C }
  - { offsetInCU: 0x123D9, offset: 0x123D9, size: 0x8, addend: 0x0, symName: __ZNK9__gnu_cxx17__normal_iteratorIPKiSt6vectorIiSaIiEEE4baseEv, symObjAddr: 0x61FC, symBinAddr: 0x10000A8C0, symSize: 0x14 }
  - { offsetInCU: 0x123FD, offset: 0x123FD, size: 0x8, addend: 0x0, symName: __ZSt4copyIN9__gnu_cxx17__normal_iteratorIPKiSt6vectorIiSaIiEEEEPiET0_T_SA_S9_, symObjAddr: 0x61B4, symBinAddr: 0x10000A878, symSize: 0x48 }
  - { offsetInCU: 0x1245B, offset: 0x1245B, size: 0x8, addend: 0x0, symName: __ZNSt5dequeISt5tupleIJSt6vectorIiSaIiEEiS3_EESaIS4_EE22_M_reserve_map_at_backEm, symObjAddr: 0x6154, symBinAddr: 0x10000A818, symSize: 0x60 }
  - { offsetInCU: 0x12493, offset: 0x12493, size: 0x8, addend: 0x0, symName: __ZNKSt5dequeISt5tupleIJSt6vectorIiSaIiEEiS3_EESaIS4_EE8max_sizeEv, symObjAddr: 0x6134, symBinAddr: 0x10000A7F8, symSize: 0x20 }
  - { offsetInCU: 0x124BB, offset: 0x124BB, size: 0x8, addend: 0x0, symName: __ZNKSt5dequeISt5tupleIJSt6vectorIiSaIiEEiS3_EESaIS4_EE4sizeEv, symObjAddr: 0x6104, symBinAddr: 0x10000A7C8, symSize: 0x30 }
  - { offsetInCU: 0x12566, offset: 0x12566, size: 0x8, addend: 0x0, symName: __ZNSt5tupleIJSt6vectorIiSaIiEEiS2_EEC1EOS3_, symObjAddr: 0x60DC, symBinAddr: 0x10000A7A0, symSize: 0x28 }
  - { offsetInCU: 0x125BA, offset: 0x125BA, size: 0x8, addend: 0x0, symName: __ZNSt11_Tuple_implILm0EJSt6vectorIiSaIiEEiS2_EEC2EOS3_, symObjAddr: 0x6098, symBinAddr: 0x10000A75C, symSize: 0x44 }
  - { offsetInCU: 0x12600, offset: 0x12600, size: 0x8, addend: 0x0, symName: __ZNSt10_Head_baseILm0ESt6vectorIiSaIiEELb0EEC2EOS3_, symObjAddr: 0x6070, symBinAddr: 0x10000A734, symSize: 0x28 }
  - { offsetInCU: 0x12631, offset: 0x12631, size: 0x8, addend: 0x0, symName: __ZNSt6vectorIiSaIiEEC1EOS1_, symObjAddr: 0x6048, symBinAddr: 0x10000A70C, symSize: 0x28 }
  - { offsetInCU: 0x12681, offset: 0x12681, size: 0x8, addend: 0x0, symName: __ZNSt12_Vector_baseIiSaIiEEC2EOS1_, symObjAddr: 0x6020, symBinAddr: 0x10000A6E4, symSize: 0x28 }
  - { offsetInCU: 0x126DB, offset: 0x126DB, size: 0x8, addend: 0x0, symName: __ZNSt11_Tuple_implILm1EJiSt6vectorIiSaIiEEEEC2EOS3_, symObjAddr: 0x5FE8, symBinAddr: 0x10000A6AC, symSize: 0x38 }
  - { offsetInCU: 0x1272C, offset: 0x1272C, size: 0x8, addend: 0x0, symName: __ZNSt10_Head_baseILm2ESt6vectorIiSaIiEELb0EEC2ERKS2_, symObjAddr: 0x5FC0, symBinAddr: 0x10000A684, symSize: 0x28 }
  - { offsetInCU: 0x12723, offset: 0x12723, size: 0x8, addend: 0x0, symName: __ZSt8_DestroyIPSt5tupleIJSt6vectorIiSaIiEEiS3_EEEvT_S6_, symObjAddr: 0x5F98, symBinAddr: 0x10000A65C, symSize: 0x28 }
  - { offsetInCU: 0x12766, offset: 0x12766, size: 0x8, addend: 0x0, symName: __ZNSt15__new_allocatorIPSt5tupleIJSt6vectorIiSaIiEEiS3_EEE10deallocateEPS5_m, symObjAddr: 0x5F68, symBinAddr: 0x10000A62C, symSize: 0x30 }
  - { offsetInCU: 0x12808, offset: 0x12808, size: 0x8, addend: 0x0, symName: __ZNSt15__new_allocatorIPSt5tupleIJSt6vectorIiSaIiEEiS3_EEED2Ev, symObjAddr: 0x5F54, symBinAddr: 0x10000A618, symSize: 0x14 }
  - { offsetInCU: 0x12813, offset: 0x12813, size: 0x8, addend: 0x0, symName: __ZNKSt11_Deque_baseISt5tupleIJSt6vectorIiSaIiEEiS3_EESaIS4_EE19_M_get_Tp_allocatorEv, symObjAddr: 0x5F40, symBinAddr: 0x10000A604, symSize: 0x14 }
  - { offsetInCU: 0x1286A, offset: 0x1286A, size: 0x8, addend: 0x0, symName: __ZNSt15_Deque_iteratorISt5tupleIJSt6vectorIiSaIiEEiS3_EERS4_PS4_E14_S_buffer_sizeEv, symObjAddr: 0x5F28, symBinAddr: 0x10000A5EC, symSize: 0x18 }
  - { offsetInCU: 0x12885, offset: 0x12885, size: 0x8, addend: 0x0, symName: __ZNSt11_Deque_baseISt5tupleIJSt6vectorIiSaIiEEiS3_EESaIS4_EE16_M_allocate_nodeEv, symObjAddr: 0x5EE4, symBinAddr: 0x10000A5A8, symSize: 0x44 }
  - { offsetInCU: 0x12955, offset: 0x12955, size: 0x8, addend: 0x0, symName: __ZNSt15_Deque_iteratorISt5tupleIJSt6vectorIiSaIiEEiS3_EERS4_PS4_EC1Ev, symObjAddr: 0x5EB0, symBinAddr: 0x10000A574, symSize: 0x34 }
  - { offsetInCU: 0x12947, offset: 0x12947, size: 0x8, addend: 0x0, symName: __ZSt25__unguarded_linear_insertIN9__gnu_cxx17__normal_iteratorIPSt5arrayIiLm3EESt6vectorIS3_SaIS3_EEEENS0_5__ops14_Val_less_iterEEvT_T0_, symObjAddr: 0x5DD0, symBinAddr: 0x10000A494, symSize: 0xE0 }
  - { offsetInCU: 0x129B1, offset: 0x129B1, size: 0x8, addend: 0x0, symName: __ZSt13move_backwardIN9__gnu_cxx17__normal_iteratorIPSt5arrayIiLm3EESt6vectorIS3_SaIS3_EEEES8_ET0_T_SA_S9_, symObjAddr: 0x5D88, symBinAddr: 0x10000A44C, symSize: 0x48 }
  - { offsetInCU: 0x12A11, offset: 0x12A11, size: 0x8, addend: 0x0, symName: __ZSt4moveIRSt5arrayIiLm3EEEONSt16remove_referenceIT_E4typeEOS4_, symObjAddr: 0x5D74, symBinAddr: 0x10000A438, symSize: 0x14 }
  - { offsetInCU: 0x12A45, offset: 0x12A45, size: 0x8, addend: 0x0, symName: __ZNK9__gnu_cxx17__normal_iteratorIPSt5arrayIiLm3EESt6vectorIS2_SaIS2_EEEdeEv, symObjAddr: 0x5D5C, symBinAddr: 0x10000A420, symSize: 0x18 }
  - { offsetInCU: 0x12A6D, offset: 0x12A6D, size: 0x8, addend: 0x0, symName: __ZNK9__gnu_cxx5__ops15_Iter_less_iterclINS_17__normal_iteratorIPSt5arrayIiLm3EESt6vectorIS5_SaIS5_EEEESA_EEbT_T0_, symObjAddr: 0x5D14, symBinAddr: 0x10000A3D8, symSize: 0x48 }
  - { offsetInCU: 0x12AC5, offset: 0x12AC5, size: 0x8, addend: 0x0, symName: __ZN9__gnu_cxx17__normal_iteratorIPSt5arrayIiLm3EESt6vectorIS2_SaIS2_EEEppEv, symObjAddr: 0x5CEC, symBinAddr: 0x10000A3B0, symSize: 0x28 }
  - { offsetInCU: 0x12AE9, offset: 0x12AE9, size: 0x8, addend: 0x0, symName: __ZN9__gnu_cxxeqIPSt5arrayIiLm3EESt6vectorIS2_SaIS2_EEEEbRKNS_17__normal_iteratorIT_T0_EESC_, symObjAddr: 0x5CA8, symBinAddr: 0x10000A36C, symSize: 0x44 }
  - { offsetInCU: 0x12B33, offset: 0x12B33, size: 0x8, addend: 0x0, symName: __ZSt21__unguarded_partitionIN9__gnu_cxx17__normal_iteratorIPSt5arrayIiLm3EESt6vectorIS3_SaIS3_EEEENS0_5__ops15_Iter_less_iterEET_SB_SB_SB_T0_, symObjAddr: 0x5BE4, symBinAddr: 0x10000A2A8, symSize: 0xC4 }
  - { offsetInCU: 0x12B9D, offset: 0x12B9D, size: 0x8, addend: 0x0, symName: __ZSt22__move_median_to_firstIN9__gnu_cxx17__normal_iteratorIPSt5arrayIiLm3EESt6vectorIS3_SaIS3_EEEENS0_5__ops15_Iter_less_iterEEvT_SB_SB_SB_T0_, symObjAddr: 0x5AC0, symBinAddr: 0x10000A184, symSize: 0x124 }
  - { offsetInCU: 0x12C16, offset: 0x12C16, size: 0x8, addend: 0x0, symName: __ZNK9__gnu_cxx17__normal_iteratorIPSt5arrayIiLm3EESt6vectorIS2_SaIS2_EEEmiEl, symObjAddr: 0x5A70, symBinAddr: 0x10000A134, symSize: 0x50 }
  - { offsetInCU: 0x12C4A, offset: 0x12C4A, size: 0x8, addend: 0x0, symName: __ZSt11__sort_heapIN9__gnu_cxx17__normal_iteratorIPSt5arrayIiLm3EESt6vectorIS3_SaIS3_EEEENS0_5__ops15_Iter_less_iterEEvT_SB_RT0_, symObjAddr: 0x5A08, symBinAddr: 0x10000A0CC, symSize: 0x68 }
  - { offsetInCU: 0x12CA4, offset: 0x12CA4, size: 0x8, addend: 0x0, symName: __ZSt13__heap_selectIN9__gnu_cxx17__normal_iteratorIPSt5arrayIiLm3EESt6vectorIS3_SaIS3_EEEENS0_5__ops15_Iter_less_iterEEvT_SB_SB_T0_, symObjAddr: 0x5964, symBinAddr: 0x10000A028, symSize: 0xA4 }
  - { offsetInCU: 0x12D31, offset: 0x12D31, size: 0x8, addend: 0x0, symName: __ZSt13__countl_zeroImEiT_, symObjAddr: 0x5910, symBinAddr: 0x100009FD4, symSize: 0x54 }
  - { offsetInCU: 0x12DC4, offset: 0x12DC4, size: 0x8, addend: 0x0, symName: __ZNSt12_Destroy_auxILb1EE9__destroyIPSt5arrayIiLm3EEEEvT_S5_, symObjAddr: 0x58F8, symBinAddr: 0x100009FBC, symSize: 0x18 }
  - { offsetInCU: 0x12DF5, offset: 0x12DF5, size: 0x8, addend: 0x0, symName: __ZSt14__relocate_a_1ISt5arrayIiLm3EES1_ENSt9enable_ifIXsrSt24__is_bitwise_relocatableIT_vE5valueEPS4_E4typeES6_S6_S6_RSaIT0_E, symObjAddr: 0x5868, symBinAddr: 0x100009F2C, symSize: 0x90 }
  - { offsetInCU: 0x12E6F, offset: 0x12E6F, size: 0x8, addend: 0x0, symName: __ZSt12__niter_baseIPSt5arrayIiLm3EEET_S3_, symObjAddr: 0x5854, symBinAddr: 0x100009F18, symSize: 0x14 }
  - { offsetInCU: 0x12EA4, offset: 0x12EA4, size: 0x8, addend: 0x0, symName: __ZNSt15__new_allocatorISt5arrayIiLm3EEE8allocateEmPKv, symObjAddr: 0x57C4, symBinAddr: 0x100009E88, symSize: 0x90 }
  - { offsetInCU: 0x12F10, offset: 0x12F10, size: 0x8, addend: 0x0, symName: __ZNSt27__uninitialized_default_n_1ILb1EE18__uninit_default_nIPSt5arrayIiLm3EEmEET_S5_T0_, symObjAddr: 0x5760, symBinAddr: 0x100009E24, symSize: 0x64 }
  - { offsetInCU: 0x12F99, offset: 0x12F99, size: 0x8, addend: 0x0, symName: __ZSt14__relocate_a_1IiiENSt9enable_ifIXsrSt24__is_bitwise_relocatableIT_vE5valueEPS2_E4typeES4_S4_S4_RSaIT0_E, symObjAddr: 0x56F8, symBinAddr: 0x100009DBC, symSize: 0x68 }
  - { offsetInCU: 0x13017, offset: 0x13017, size: 0x8, addend: 0x0, symName: __ZNSt15__new_allocatorIiE8allocateEmPKv, symObjAddr: 0x567C, symBinAddr: 0x100009D40, symSize: 0x7C }
  - { offsetInCU: 0x13083, offset: 0x13083, size: 0x8, addend: 0x0, symName: __ZNSt27__uninitialized_default_n_1ILb1EE18__uninit_default_nIPimEET_S3_T0_, symObjAddr: 0x5618, symBinAddr: 0x100009CDC, symSize: 0x64 }
  - { offsetInCU: 0x13159, offset: 0x13159, size: 0x8, addend: 0x0, symName: __ZNSt13_Rb_tree_nodeISt4pairIKiiEE9_M_valptrEv, symObjAddr: 0x55F8, symBinAddr: 0x100009CBC, symSize: 0x20 }
  - { offsetInCU: 0x13181, offset: 0x13181, size: 0x8, addend: 0x0, symName: __ZNSt8_Rb_treeIiSt4pairIKiiESt10_Select1stIS2_ESt4lessIiESaIS2_EE21_M_get_Node_allocatorEv, symObjAddr: 0x55E4, symBinAddr: 0x100009CA8, symSize: 0x14 }
  - { offsetInCU: 0x13208, offset: 0x13208, size: 0x8, addend: 0x0, symName: __ZNSt13_Rb_tree_nodeISt6vectorIiSaIiEEE9_M_valptrEv, symObjAddr: 0x55C4, symBinAddr: 0x100009C88, symSize: 0x20 }
  - { offsetInCU: 0x13230, offset: 0x13230, size: 0x8, addend: 0x0, symName: __ZNSt8_Rb_treeISt6vectorIiSaIiEES2_St9_IdentityIS2_ESt4lessIS2_ESaIS2_EE21_M_get_Node_allocatorEv, symObjAddr: 0x55B0, symBinAddr: 0x100009C74, symSize: 0x14 }
  - { offsetInCU: 0x1326D, offset: 0x1326D, size: 0x8, addend: 0x0, symName: __ZSt3minImERKT_S2_S2_, symObjAddr: 0x5578, symBinAddr: 0x100009C3C, symSize: 0x38 }
  - { offsetInCU: 0x13316, offset: 0x13316, size: 0x8, addend: 0x0, symName: __ZNSt10_Head_baseILm1EiLb0EEC2IRiEEOT_, symObjAddr: 0x5548, symBinAddr: 0x100009C0C, symSize: 0x30 }
  - { offsetInCU: 0x1338B, offset: 0x1338B, size: 0x8, addend: 0x0, symName: __ZNSt11_Tuple_implILm2EJSt6vectorIiSaIiEEEEC2IRS2_EEOT_, symObjAddr: 0x550C, symBinAddr: 0x100009BD0, symSize: 0x3C }
  - { offsetInCU: 0x1338E, offset: 0x1338E, size: 0x8, addend: 0x0, symName: __ZSt7forwardIbEOT_RNSt16remove_referenceIS0_E4typeE, symObjAddr: 0x54F8, symBinAddr: 0x100009BBC, symSize: 0x14 }
  - { offsetInCU: 0x133C4, offset: 0x133C4, size: 0x8, addend: 0x0, symName: __ZSt7forwardISt17_Rb_tree_iteratorISt6vectorIiSaIiEEEEOT_RNSt16remove_referenceIS5_E4typeE, symObjAddr: 0x54E4, symBinAddr: 0x100009BA8, symSize: 0x14 }
  - { offsetInCU: 0x13403, offset: 0x13403, size: 0x8, addend: 0x0, symName: __ZNKSt8_Rb_treeISt6vectorIiSaIiEES2_St9_IdentityIS2_ESt4lessIS2_ESaIS2_EE11_Alloc_nodeclIRKS2_EEPSt13_Rb_tree_nodeIS2_EOT_, symObjAddr: 0x54A8, symBinAddr: 0x100009B6C, symSize: 0x3C }
  - { offsetInCU: 0x134C4, offset: 0x134C4, size: 0x8, addend: 0x0, symName: __ZNSt4pairIPSt18_Rb_tree_node_baseS1_EC1IS1_S1_Lb1EEERKS1_S5_, symObjAddr: 0x546C, symBinAddr: 0x100009B30, symSize: 0x3C }
  - { offsetInCU: 0x134D0, offset: 0x134D0, size: 0x8, addend: 0x0, symName: __ZNSt17_Rb_tree_iteratorISt6vectorIiSaIiEEEmmEv, symObjAddr: 0x543C, symBinAddr: 0x100009B00, symSize: 0x30 }
  - { offsetInCU: 0x1359B, offset: 0x1359B, size: 0x8, addend: 0x0, symName: __ZNSt4pairIPSt18_Rb_tree_node_baseS1_EC1IRPSt13_Rb_tree_nodeISt6vectorIiSaIiEEERS1_Lb1EEEOT_OT0_, symObjAddr: 0x53F4, symBinAddr: 0x100009AB8, symSize: 0x48 }
  - { offsetInCU: 0x13586, offset: 0x13586, size: 0x8, addend: 0x0, symName: __ZSteqRKSt17_Rb_tree_iteratorISt6vectorIiSaIiEEES5_, symObjAddr: 0x53C4, symBinAddr: 0x100009A88, symSize: 0x30 }
  - { offsetInCU: 0x135C2, offset: 0x135C2, size: 0x8, addend: 0x0, symName: __ZNSt8_Rb_treeISt6vectorIiSaIiEES2_St9_IdentityIS2_ESt4lessIS2_ESaIS2_EE5beginEv, symObjAddr: 0x539C, symBinAddr: 0x100009A60, symSize: 0x28 }
  - { offsetInCU: 0x135EA, offset: 0x135EA, size: 0x8, addend: 0x0, symName: __ZNSt8_Rb_treeISt6vectorIiSaIiEES2_St9_IdentityIS2_ESt4lessIS2_ESaIS2_EE6_M_endEv, symObjAddr: 0x5384, symBinAddr: 0x100009A48, symSize: 0x18 }
  - { offsetInCU: 0x1360E, offset: 0x1360E, size: 0x8, addend: 0x0, symName: __ZStltIiSaIiEEbRKSt6vectorIT_T0_ES6_, symObjAddr: 0x5318, symBinAddr: 0x1000099DC, symSize: 0x6C }
  - { offsetInCU: 0x13658, offset: 0x13658, size: 0x8, addend: 0x0, symName: __ZNSt8_Rb_treeISt6vectorIiSaIiEES2_St9_IdentityIS2_ESt4lessIS2_ESaIS2_EE8_S_rightEPKSt18_Rb_tree_node_base, symObjAddr: 0x5300, symBinAddr: 0x1000099C4, symSize: 0x18 }
  - { offsetInCU: 0x13680, offset: 0x13680, size: 0x8, addend: 0x0, symName: __ZNSt8_Rb_treeISt6vectorIiSaIiEES2_St9_IdentityIS2_ESt4lessIS2_ESaIS2_EE7_S_leftEPKSt18_Rb_tree_node_base, symObjAddr: 0x52E8, symBinAddr: 0x1000099AC, symSize: 0x18 }
  - { offsetInCU: 0x136A8, offset: 0x136A8, size: 0x8, addend: 0x0, symName: __ZNSt8_Rb_treeISt6vectorIiSaIiEES2_St9_IdentityIS2_ESt4lessIS2_ESaIS2_EE6_S_keyEPKSt13_Rb_tree_nodeIS2_E, symObjAddr: 0x52C0, symBinAddr: 0x100009984, symSize: 0x28 }
  - { offsetInCU: 0x136D0, offset: 0x136D0, size: 0x8, addend: 0x0, symName: __ZNSt20__uninitialized_copyILb1EE13__uninit_copyIPiS2_EET0_T_S4_S3_, symObjAddr: 0x5294, symBinAddr: 0x100009958, symSize: 0x2C }
  - { offsetInCU: 0x13727, offset: 0x13727, size: 0x8, addend: 0x0, symName: __ZSt12__niter_wrapIPiET_RKS1_S1_, symObjAddr: 0x527C, symBinAddr: 0x100009940, symSize: 0x18 }
  - { offsetInCU: 0x13760, offset: 0x13760, size: 0x8, addend: 0x0, symName: __ZSt14__copy_move_a1ILb0EPiS0_ET1_T0_S2_S1_, symObjAddr: 0x5250, symBinAddr: 0x100009914, symSize: 0x2C }
  - { offsetInCU: 0x137C4, offset: 0x137C4, size: 0x8, addend: 0x0, symName: __ZSt12__niter_baseIPiET_S1_, symObjAddr: 0x523C, symBinAddr: 0x100009900, symSize: 0x14 }
  - { offsetInCU: 0x137F5, offset: 0x137F5, size: 0x8, addend: 0x0, symName: __ZNSt12_Destroy_auxILb1EE9__destroyIN9__gnu_cxx17__normal_iteratorIPiSt6vectorIiSaIiEEEEEEvT_S9_, symObjAddr: 0x5224, symBinAddr: 0x1000098E8, symSize: 0x18 }
  - { offsetInCU: 0x13826, offset: 0x13826, size: 0x8, addend: 0x0, symName: __ZSt12__niter_wrapIN9__gnu_cxx17__normal_iteratorIPiSt6vectorIiSaIiEEEES2_ET_S7_T0_, symObjAddr: 0x51E8, symBinAddr: 0x1000098AC, symSize: 0x3C }
  - { offsetInCU: 0x13870, offset: 0x13870, size: 0x8, addend: 0x0, symName: __ZSt14__copy_move_a1ILb0EPKiPiET1_T0_S4_S3_, symObjAddr: 0x51BC, symBinAddr: 0x100009880, symSize: 0x2C }
  - { offsetInCU: 0x138D4, offset: 0x138D4, size: 0x8, addend: 0x0, symName: __ZSt12__niter_baseIPiSt6vectorIiSaIiEEET_N9__gnu_cxx17__normal_iteratorIS4_T0_EE, symObjAddr: 0x519C, symBinAddr: 0x100009860, symSize: 0x20 }
  - { offsetInCU: 0x1390E, offset: 0x1390E, size: 0x8, addend: 0x0, symName: __ZSt12__niter_baseIPKiSt6vectorIiSaIiEEET_N9__gnu_cxx17__normal_iteratorIS5_T0_EE, symObjAddr: 0x517C, symBinAddr: 0x100009840, symSize: 0x20 }
  - { offsetInCU: 0x13971, offset: 0x13971, size: 0x8, addend: 0x0, symName: __ZNSt20__uninitialized_copyILb1EE13__uninit_copyIN9__gnu_cxx17__normal_iteratorIPKiSt6vectorIiSaIiEEEEPiEET0_T_SC_SB_, symObjAddr: 0x5150, symBinAddr: 0x100009814, symSize: 0x2C }
  - { offsetInCU: 0x139CC, offset: 0x139CC, size: 0x8, addend: 0x0, symName: __ZNSt5dequeISt5tupleIJSt6vectorIiSaIiEEiS3_EESaIS4_EE16_M_push_back_auxIJS4_EEEvDpOT_, symObjAddr: 0x502C, symBinAddr: 0x1000096F0, symSize: 0x124 }
  - { offsetInCU: 0x13AB8, offset: 0x13AB8, size: 0x8, addend: 0x0, symName: __ZSt7forwardISt5tupleIJSt6vectorIiSaIiEEiS3_EEEOT_RNSt16remove_referenceIS5_E4typeE, symObjAddr: 0x5018, symBinAddr: 0x1000096DC, symSize: 0x14 }
  - { offsetInCU: 0x13B2F, offset: 0x13B2F, size: 0x8, addend: 0x0, symName: __ZNSt10_Head_baseILm1EiLb0EEC2ERKi, symObjAddr: 0x4FF0, symBinAddr: 0x1000096B4, symSize: 0x28 }
  - { offsetInCU: 0x13B92, offset: 0x13B92, size: 0x8, addend: 0x0, symName: __ZNSt11_Tuple_implILm2EJSt6vectorIiSaIiEEEEC2ERKS2_, symObjAddr: 0x4FC8, symBinAddr: 0x10000968C, symSize: 0x28 }
  - { offsetInCU: 0x13BC6, offset: 0x13BC6, size: 0x8, addend: 0x0, symName: __ZNSt5dequeISt5tupleIJSt6vectorIiSaIiEEiS3_EESaIS4_EE14_S_buffer_sizeEv, symObjAddr: 0x4FB0, symBinAddr: 0x100009674, symSize: 0x18 }
  - { offsetInCU: 0x13C30, offset: 0x13C30, size: 0x8, addend: 0x0, symName: __ZNKSt11_Deque_baseISt5tupleIJSt6vectorIiSaIiEEiS3_EESaIS4_EE20_M_get_map_allocatorEv, symObjAddr: 0x4F68, symBinAddr: 0x10000962C, symSize: 0x48 }
  - { offsetInCU: 0x13CA3, offset: 0x13CA3, size: 0x8, addend: 0x0, symName: __ZNSt11_Deque_baseISt5tupleIJSt6vectorIiSaIiEEiS3_EESaIS4_EE18_M_deallocate_nodeEPS4_, symObjAddr: 0x4F10, symBinAddr: 0x1000095D4, symSize: 0x58 }
  - { offsetInCU: 0x13D0D, offset: 0x13D0D, size: 0x8, addend: 0x0, symName: __ZNSt15_Deque_iteratorISt5tupleIJSt6vectorIiSaIiEEiS3_EERS4_PS4_E11_M_set_nodeEPS6_, symObjAddr: 0x4EA4, symBinAddr: 0x100009568, symSize: 0x6C }
  - { offsetInCU: 0x13D45, offset: 0x13D45, size: 0x8, addend: 0x0, symName: __ZNSt11_Deque_baseISt5tupleIJSt6vectorIiSaIiEEiS3_EESaIS4_EE15_M_create_nodesEPPS4_S8_, symObjAddr: 0x4E18, symBinAddr: 0x1000094DC, symSize: 0x8C }
  - { offsetInCU: 0x13D9D, offset: 0x13D9D, size: 0x8, addend: 0x0, symName: __ZNSt11_Deque_baseISt5tupleIJSt6vectorIiSaIiEEiS3_EESaIS4_EE15_M_allocate_mapEm, symObjAddr: 0x4D98, symBinAddr: 0x10000945C, symSize: 0x80 }
  - { offsetInCU: 0x13EA8, offset: 0x13EA8, size: 0x8, addend: 0x0, symName: __ZNSt15__new_allocatorISt5tupleIJSt6vectorIiSaIiEEiS3_EEED2Ev, symObjAddr: 0x4D84, symBinAddr: 0x100009448, symSize: 0x14 }
  - { offsetInCU: 0x13EF9, offset: 0x13EF9, size: 0x8, addend: 0x0, symName: __ZNSt11_Deque_baseISt5tupleIJSt6vectorIiSaIiEEiS3_EESaIS4_EE16_Deque_impl_dataC2Ev, symObjAddr: 0x4D44, symBinAddr: 0x100009408, symSize: 0x40 }
  - { offsetInCU: 0x13EDE, offset: 0x13EDE, size: 0x8, addend: 0x0, symName: __ZNSt12_Destroy_auxILb1EE9__destroyIPiEEvT_S3_, symObjAddr: 0x4D2C, symBinAddr: 0x1000093F0, symSize: 0x18 }
  - { offsetInCU: 0x13F0F, offset: 0x13F0F, size: 0x8, addend: 0x0, symName: __ZSt26__unguarded_insertion_sortIN9__gnu_cxx17__normal_iteratorIPSt5arrayIiLm3EESt6vectorIS3_SaIS3_EEEENS0_5__ops15_Iter_less_iterEEvT_SB_T0_, symObjAddr: 0x4CBC, symBinAddr: 0x100009380, symSize: 0x70 }
  - { offsetInCU: 0x13F8C, offset: 0x13F8C, size: 0x8, addend: 0x0, symName: __ZSt16__insertion_sortIN9__gnu_cxx17__normal_iteratorIPSt5arrayIiLm3EESt6vectorIS3_SaIS3_EEEENS0_5__ops15_Iter_less_iterEEvT_SB_T0_, symObjAddr: 0x4B94, symBinAddr: 0x100009258, symSize: 0x128 }
  - { offsetInCU: 0x14030, offset: 0x14030, size: 0x8, addend: 0x0, symName: __ZNK9__gnu_cxx17__normal_iteratorIPSt5arrayIiLm3EESt6vectorIS2_SaIS2_EEEplEl, symObjAddr: 0x4B48, symBinAddr: 0x10000920C, symSize: 0x4C }
  - { offsetInCU: 0x14064, offset: 0x14064, size: 0x8, addend: 0x0, symName: __ZSt27__unguarded_partition_pivotIN9__gnu_cxx17__normal_iteratorIPSt5arrayIiLm3EESt6vectorIS3_SaIS3_EEEENS0_5__ops15_Iter_less_iterEET_SB_SB_T0_, symObjAddr: 0x4AA4, symBinAddr: 0x100009168, symSize: 0xA4 }
  - { offsetInCU: 0x140CE, offset: 0x140CE, size: 0x8, addend: 0x0, symName: __ZSt14__partial_sortIN9__gnu_cxx17__normal_iteratorIPSt5arrayIiLm3EESt6vectorIS3_SaIS3_EEEENS0_5__ops15_Iter_less_iterEEvT_SB_SB_T0_, symObjAddr: 0x4A58, symBinAddr: 0x10000911C, symSize: 0x4C }
  - { offsetInCU: 0x14138, offset: 0x14138, size: 0x8, addend: 0x0, symName: __ZSt11__bit_widthImEiT_, symObjAddr: 0x4A28, symBinAddr: 0x1000090EC, symSize: 0x30 }
  - { offsetInCU: 0x1417E, offset: 0x1417E, size: 0x8, addend: 0x0, symName: __ZNK9__gnu_cxx17__normal_iteratorIPSt5arrayIiLm3EESt6vectorIS2_SaIS2_EEE4baseEv, symObjAddr: 0x4A14, symBinAddr: 0x1000090D8, symSize: 0x14 }
  - { offsetInCU: 0x141A2, offset: 0x141A2, size: 0x8, addend: 0x0, symName: __ZSt8_DestroyIPSt5arrayIiLm3EEEvT_S3_, symObjAddr: 0x49EC, symBinAddr: 0x1000090B0, symSize: 0x28 }
  - { offsetInCU: 0x141E1, offset: 0x141E1, size: 0x8, addend: 0x0, symName: __ZSt12__relocate_aIPSt5arrayIiLm3EES2_SaIS1_EET0_T_S5_S4_RT1_, symObjAddr: 0x4990, symBinAddr: 0x100009054, symSize: 0x5C }
  - { offsetInCU: 0x14278, offset: 0x14278, size: 0x8, addend: 0x0, symName: __ZSt25__uninitialized_default_nIPSt5arrayIiLm3EEmET_S3_T0_, symObjAddr: 0x4964, symBinAddr: 0x100009028, symSize: 0x2C }
  - { offsetInCU: 0x142D7, offset: 0x142D7, size: 0x8, addend: 0x0, symName: __ZNKSt12_Vector_baseISt5arrayIiLm3EESaIS1_EE19_M_get_Tp_allocatorEv, symObjAddr: 0x4950, symBinAddr: 0x100009014, symSize: 0x14 }
  - { offsetInCU: 0x142FB, offset: 0x142FB, size: 0x8, addend: 0x0, symName: __ZNSt6vectorISt5arrayIiLm3EESaIS1_EE11_S_max_sizeERKS2_, symObjAddr: 0x48F4, symBinAddr: 0x100008FB8, symSize: 0x5C }
  - { offsetInCU: 0x143A8, offset: 0x143A8, size: 0x8, addend: 0x0, symName: __ZSt12__relocate_aIPiS0_SaIiEET0_T_S3_S2_RT1_, symObjAddr: 0x4898, symBinAddr: 0x100008F5C, symSize: 0x5C }
  - { offsetInCU: 0x1443F, offset: 0x1443F, size: 0x8, addend: 0x0, symName: __ZSt3maxImERKT_S2_S2_, symObjAddr: 0x4860, symBinAddr: 0x100008F24, symSize: 0x38 }
  - { offsetInCU: 0x14480, offset: 0x14480, size: 0x8, addend: 0x0, symName: __ZSt25__uninitialized_default_nIPimET_S1_T0_, symObjAddr: 0x4834, symBinAddr: 0x100008EF8, symSize: 0x2C }
  - { offsetInCU: 0x144DF, offset: 0x144DF, size: 0x8, addend: 0x0, symName: __ZNSt8_Rb_treeIiSt4pairIKiiESt10_Select1stIS2_ESt4lessIiESaIS2_EE11_M_put_nodeEPSt13_Rb_tree_nodeIS2_E, symObjAddr: 0x47E8, symBinAddr: 0x100008EAC, symSize: 0x4C }
  - { offsetInCU: 0x14549, offset: 0x14549, size: 0x8, addend: 0x0, symName: __ZNSt8_Rb_treeIiSt4pairIKiiESt10_Select1stIS2_ESt4lessIiESaIS2_EE15_M_destroy_nodeEPSt13_Rb_tree_nodeIS2_E, symObjAddr: 0x4790, symBinAddr: 0x100008E54, symSize: 0x58 }
  - { offsetInCU: 0x145D5, offset: 0x145D5, size: 0x8, addend: 0x0, symName: __ZNSt8_Rb_treeISt6vectorIiSaIiEES2_St9_IdentityIS2_ESt4lessIS2_ESaIS2_EE11_M_put_nodeEPSt13_Rb_tree_nodeIS2_E, symObjAddr: 0x4744, symBinAddr: 0x100008E08, symSize: 0x4C }
  - { offsetInCU: 0x1463F, offset: 0x1463F, size: 0x8, addend: 0x0, symName: __ZNSt8_Rb_treeISt6vectorIiSaIiEES2_St9_IdentityIS2_ESt4lessIS2_ESaIS2_EE15_M_destroy_nodeEPSt13_Rb_tree_nodeIS2_E, symObjAddr: 0x46E4, symBinAddr: 0x100008DA8, symSize: 0x60 }
  - { offsetInCU: 0x146CB, offset: 0x146CB, size: 0x8, addend: 0x0, symName: __ZNSt15__new_allocatorISt5arrayIiLm3EEE10deallocateEPS1_m, symObjAddr: 0x46A8, symBinAddr: 0x100008D6C, symSize: 0x3C }
  - { offsetInCU: 0x14711, offset: 0x14711, size: 0x8, addend: 0x0, symName: __ZNSt15__new_allocatorIiE10deallocateEPim, symObjAddr: 0x4678, symBinAddr: 0x100008D3C, symSize: 0x30 }
  - { offsetInCU: 0x14773, offset: 0x14773, size: 0x8, addend: 0x0, symName: __ZNSt6vectorIiSaIiEE11_S_max_sizeERKS0_, symObjAddr: 0x4624, symBinAddr: 0x100008CE8, symSize: 0x54 }
  - { offsetInCU: 0x14886, offset: 0x14886, size: 0x8, addend: 0x0, symName: __ZNSt10_Head_baseILm0ESt6vectorIiSaIiEELb0EEC2IRS2_EEOT_, symObjAddr: 0x45E8, symBinAddr: 0x100008CAC, symSize: 0x3C }
  - { offsetInCU: 0x1490C, offset: 0x1490C, size: 0x8, addend: 0x0, symName: __ZNSt11_Tuple_implILm1EJiSt6vectorIiSaIiEEEEC2IRiJRS2_EvEEOT_DpOT0_, symObjAddr: 0x458C, symBinAddr: 0x100008C50, symSize: 0x5C }
  - { offsetInCU: 0x1491D, offset: 0x1491D, size: 0x8, addend: 0x0, symName: __ZN9__gnu_cxxmiIPiSt6vectorIiSaIiEEEENS_17__normal_iteratorIT_T0_E15difference_typeERKS8_SB_, symObjAddr: 0x454C, symBinAddr: 0x100008C10, symSize: 0x40 }
  - { offsetInCU: 0x149AB, offset: 0x149AB, size: 0x8, addend: 0x0, symName: __ZSt7forwardIRKiEOT_RNSt16remove_referenceIS2_E4typeE, symObjAddr: 0x4538, symBinAddr: 0x100008BFC, symSize: 0x14 }
  - { offsetInCU: 0x14A52, offset: 0x14A52, size: 0x8, addend: 0x0, symName: __ZNSt23_Rb_tree_const_iteratorISt6vectorIiSaIiEEEC1ERKSt17_Rb_tree_iteratorIS2_E, symObjAddr: 0x4510, symBinAddr: 0x100008BD4, symSize: 0x28 }
  - { offsetInCU: 0x14A33, offset: 0x14A33, size: 0x8, addend: 0x0, symName: __ZSt7forwardIRbEOT_RNSt16remove_referenceIS1_E4typeE, symObjAddr: 0x44FC, symBinAddr: 0x100008BC0, symSize: 0x14 }
  - { offsetInCU: 0x14A69, offset: 0x14A69, size: 0x8, addend: 0x0, symName: __ZSt7forwardIRSt17_Rb_tree_iteratorISt6vectorIiSaIiEEEEOT_RNSt16remove_referenceIS6_E4typeE, symObjAddr: 0x44E8, symBinAddr: 0x100008BAC, symSize: 0x14 }
  - { offsetInCU: 0x14B05, offset: 0x14B05, size: 0x8, addend: 0x0, symName: __ZNSt17_Rb_tree_iteratorISt6vectorIiSaIiEEEC1EPSt18_Rb_tree_node_base, symObjAddr: 0x44C4, symBinAddr: 0x100008B88, symSize: 0x24 }
  - { offsetInCU: 0x14B7B, offset: 0x14B7B, size: 0x8, addend: 0x0, symName: __ZNSt4pairISt17_Rb_tree_iteratorISt6vectorIiSaIiEEEbEC1IS4_bLb1EEEOT_OT0_, symObjAddr: 0x4478, symBinAddr: 0x100008B3C, symSize: 0x4C }
  - { offsetInCU: 0x14B81, offset: 0x14B81, size: 0x8, addend: 0x0, symName: __ZNSt8_Rb_treeISt6vectorIiSaIiEES2_St9_IdentityIS2_ESt4lessIS2_ESaIS2_EE10_M_insert_IRKS2_NS8_11_Alloc_nodeEEESt17_Rb_tree_iteratorIS2_EPSt18_Rb_tree_node_baseSG_OT_RT0_, symObjAddr: 0x4384, symBinAddr: 0x100008A48, symSize: 0xF4 }
  - { offsetInCU: 0x14C1E, offset: 0x14C1E, size: 0x8, addend: 0x0, symName: __ZSt7forwardIRKSt6vectorIiSaIiEEEOT_RNSt16remove_referenceIS5_E4typeE, symObjAddr: 0x4370, symBinAddr: 0x100008A34, symSize: 0x14 }
  - { offsetInCU: 0x14CD1, offset: 0x14CD1, size: 0x8, addend: 0x0, symName: __ZNSt8_Rb_treeISt6vectorIiSaIiEES2_St9_IdentityIS2_ESt4lessIS2_ESaIS2_EE11_Alloc_nodeC1ERS8_, symObjAddr: 0x434C, symBinAddr: 0x100008A10, symSize: 0x24 }
  - { offsetInCU: 0x14CA4, offset: 0x14CA4, size: 0x8, addend: 0x0, symName: __ZNKSt9_IdentityISt6vectorIiSaIiEEEclERKS2_, symObjAddr: 0x4334, symBinAddr: 0x1000089F8, symSize: 0x18 }
  - { offsetInCU: 0x14CDC, offset: 0x14CDC, size: 0x8, addend: 0x0, symName: __ZNSt8_Rb_treeISt6vectorIiSaIiEES2_St9_IdentityIS2_ESt4lessIS2_ESaIS2_EE24_M_get_insert_unique_posERKS2_, symObjAddr: 0x41D0, symBinAddr: 0x100008894, symSize: 0x164 }
  - { offsetInCU: 0x14DC8, offset: 0x14DC8, size: 0x8, addend: 0x0, symName: __ZNSt23_Rb_tree_const_iteratorISt6vectorIiSaIiEEEC1EPKSt18_Rb_tree_node_base, symObjAddr: 0x41AC, symBinAddr: 0x100008870, symSize: 0x24 }
  - { offsetInCU: 0x14DAB, offset: 0x14DAB, size: 0x8, addend: 0x0, symName: __ZNKSt4lessISt6vectorIiSaIiEEEclERKS2_S5_, symObjAddr: 0x4180, symBinAddr: 0x100008844, symSize: 0x2C }
  - { offsetInCU: 0x14DEF, offset: 0x14DEF, size: 0x8, addend: 0x0, symName: __ZNSt8_Rb_treeISt6vectorIiSaIiEES2_St9_IdentityIS2_ESt4lessIS2_ESaIS2_EE6_S_keyEPKSt18_Rb_tree_node_base, symObjAddr: 0x4164, symBinAddr: 0x100008828, symSize: 0x1C }
  - { offsetInCU: 0x14E1B, offset: 0x14E1B, size: 0x8, addend: 0x0, symName: __ZNKSt8_Rb_treeISt6vectorIiSaIiEES2_St9_IdentityIS2_ESt4lessIS2_ESaIS2_EE14_M_lower_boundEPKSt13_Rb_tree_nodeIS2_EPKSt18_Rb_tree_node_baseRKS2_, symObjAddr: 0x40C4, symBinAddr: 0x100008788, symSize: 0xA0 }
  - { offsetInCU: 0x14E73, offset: 0x14E73, size: 0x8, addend: 0x0, symName: __ZNKSt8_Rb_treeISt6vectorIiSaIiEES2_St9_IdentityIS2_ESt4lessIS2_ESaIS2_EE6_M_endEv, symObjAddr: 0x40AC, symBinAddr: 0x100008770, symSize: 0x18 }
  - { offsetInCU: 0x14E9B, offset: 0x14E9B, size: 0x8, addend: 0x0, symName: __ZNKSt8_Rb_treeISt6vectorIiSaIiEES2_St9_IdentityIS2_ESt4lessIS2_ESaIS2_EE8_M_beginEv, symObjAddr: 0x4094, symBinAddr: 0x100008758, symSize: 0x18 }
  - { offsetInCU: 0x14EBF, offset: 0x14EBF, size: 0x8, addend: 0x0, symName: __ZSt18uninitialized_copyIPiS0_ET0_T_S2_S1_, symObjAddr: 0x4058, symBinAddr: 0x10000871C, symSize: 0x3C }
  - { offsetInCU: 0x14F34, offset: 0x14F34, size: 0x8, addend: 0x0, symName: __ZSt13__copy_move_aILb0EPiS0_ET1_T0_S2_S1_, symObjAddr: 0x3FF8, symBinAddr: 0x1000086BC, symSize: 0x60 }
  - { offsetInCU: 0x14F98, offset: 0x14F98, size: 0x8, addend: 0x0, symName: __ZSt12__miter_baseIPiET_S1_, symObjAddr: 0x3FE4, symBinAddr: 0x1000086A8, symSize: 0x14 }
  - { offsetInCU: 0x14FC9, offset: 0x14FC9, size: 0x8, addend: 0x0, symName: __ZSt8_DestroyIN9__gnu_cxx17__normal_iteratorIPiSt6vectorIiSaIiEEEEEvT_S7_, symObjAddr: 0x3FBC, symBinAddr: 0x100008680, symSize: 0x28 }
  - { offsetInCU: 0x15008, offset: 0x15008, size: 0x8, addend: 0x0, symName: __ZSt13__copy_move_aILb0EN9__gnu_cxx17__normal_iteratorIPKiSt6vectorIiSaIiEEEENS1_IPiS6_EEET1_T0_SB_SA_, symObjAddr: 0x3F5C, symBinAddr: 0x100008620, symSize: 0x60 }
  - { offsetInCU: 0x1506C, offset: 0x1506C, size: 0x8, addend: 0x0, symName: __ZSt12__miter_baseIN9__gnu_cxx17__normal_iteratorIPKiSt6vectorIiSaIiEEEEET_S8_, symObjAddr: 0x3F48, symBinAddr: 0x10000860C, symSize: 0x14 }
  - { offsetInCU: 0x150A1, offset: 0x150A1, size: 0x8, addend: 0x0, symName: __ZNSt5dequeISt5tupleIJSt6vectorIiSaIiEEiS3_EESaIS4_EE15_M_pop_back_auxEv, symObjAddr: 0x3EA8, symBinAddr: 0x10000856C, symSize: 0xA0 }
  - { offsetInCU: 0x15146, offset: 0x15146, size: 0x8, addend: 0x0, symName: __ZSt18uninitialized_copyIN9__gnu_cxx17__normal_iteratorIPKiSt6vectorIiSaIiEEEEPiET0_T_SA_S9_, symObjAddr: 0x3E6C, symBinAddr: 0x100008530, symSize: 0x3C }
  - { offsetInCU: 0x15220, offset: 0x15220, size: 0x8, addend: 0x0, symName: __ZN9__gnu_cxx17__normal_iteratorIPKiSt6vectorIiSaIiEEEC1ERKS2_, symObjAddr: 0x3E44, symBinAddr: 0x100008508, symSize: 0x28 }
  - { offsetInCU: 0x15211, offset: 0x15211, size: 0x8, addend: 0x0, symName: __ZNSt12_Vector_baseIiSaIiEE17_M_create_storageEm, symObjAddr: 0x3DE4, symBinAddr: 0x1000084A8, symSize: 0x60 }
  - { offsetInCU: 0x1529B, offset: 0x1529B, size: 0x8, addend: 0x0, symName: __ZNSt12_Vector_baseIiSaIiEE12_Vector_implC1ERKS0_, symObjAddr: 0x3D98, symBinAddr: 0x10000845C, symSize: 0x4C }
  - { offsetInCU: 0x15301, offset: 0x15301, size: 0x8, addend: 0x0, symName: __ZNKSt15_Deque_iteratorISt5tupleIJSt6vectorIiSaIiEEiS3_EERS4_PS4_EdeEv, symObjAddr: 0x3D80, symBinAddr: 0x100008444, symSize: 0x18 }
  - { offsetInCU: 0x15329, offset: 0x15329, size: 0x8, addend: 0x0, symName: __ZNSt15_Deque_iteratorISt5tupleIJSt6vectorIiSaIiEEiS3_EERS4_PS4_EmmEv, symObjAddr: 0x3D14, symBinAddr: 0x1000083D8, symSize: 0x6C }
  - { offsetInCU: 0x1534D, offset: 0x1534D, size: 0x8, addend: 0x0, symName: __ZSteqRKSt15_Deque_iteratorISt5tupleIJSt6vectorIiSaIiEEiS3_EERS4_PS4_ES9_, symObjAddr: 0x3CE4, symBinAddr: 0x1000083A8, symSize: 0x30 }
  - { offsetInCU: 0x15389, offset: 0x15389, size: 0x8, addend: 0x0, symName: __ZNSt5dequeISt5tupleIJSt6vectorIiSaIiEEiS3_EESaIS4_EE12emplace_backIJS4_EEERS4_DpOT_, symObjAddr: 0x3C04, symBinAddr: 0x1000082C8, symSize: 0xE0 }
  - { offsetInCU: 0x15481, offset: 0x15481, size: 0x8, addend: 0x0, symName: __ZNSt10_Head_baseILm0ESt6vectorIiSaIiEELb0EEC2ERKS2_, symObjAddr: 0x3BDC, symBinAddr: 0x1000082A0, symSize: 0x28 }
  - { offsetInCU: 0x154E4, offset: 0x154E4, size: 0x8, addend: 0x0, symName: __ZNSt11_Tuple_implILm1EJiSt6vectorIiSaIiEEEEC2ERKiRKS2_, symObjAddr: 0x3BA0, symBinAddr: 0x100008264, symSize: 0x3C }
  - { offsetInCU: 0x154E4, offset: 0x154E4, size: 0x8, addend: 0x0, symName: __ZNSt5dequeISt5tupleIJSt6vectorIiSaIiEEiS3_EESaIS4_EE19_M_destroy_data_auxESt15_Deque_iteratorIS4_RS4_PS4_ESA_, symObjAddr: 0x3A40, symBinAddr: 0x100008104, symSize: 0x160 }
  - { offsetInCU: 0x1568B, offset: 0x1568B, size: 0x8, addend: 0x0, symName: __ZNSt15_Deque_iteratorISt5tupleIJSt6vectorIiSaIiEEiS3_EERS4_PS4_EC1ERKS7_, symObjAddr: 0x39E8, symBinAddr: 0x1000080AC, symSize: 0x58 }
  - { offsetInCU: 0x15671, offset: 0x15671, size: 0x8, addend: 0x0, symName: __ZNSt11_Deque_baseISt5tupleIJSt6vectorIiSaIiEEiS3_EESaIS4_EE17_M_deallocate_mapEPPS4_m, symObjAddr: 0x3988, symBinAddr: 0x10000804C, symSize: 0x60 }
  - { offsetInCU: 0x15719, offset: 0x15719, size: 0x8, addend: 0x0, symName: __ZNSt11_Deque_baseISt5tupleIJSt6vectorIiSaIiEEiS3_EESaIS4_EE16_M_destroy_nodesEPPS4_S8_, symObjAddr: 0x3928, symBinAddr: 0x100007FEC, symSize: 0x60 }
  - { offsetInCU: 0x15784, offset: 0x15784, size: 0x8, addend: 0x0, symName: __ZNSt11_Deque_baseISt5tupleIJSt6vectorIiSaIiEEiS3_EESaIS4_EE17_M_initialize_mapEm, symObjAddr: 0x3790, symBinAddr: 0x100007E54, symSize: 0x198 }
  - { offsetInCU: 0x1586B, offset: 0x1586B, size: 0x8, addend: 0x0, symName: __ZNSt11_Deque_baseISt5tupleIJSt6vectorIiSaIiEEiS3_EESaIS4_EE11_Deque_implC1Ev, symObjAddr: 0x3758, symBinAddr: 0x100007E1C, symSize: 0x38 }
  - { offsetInCU: 0x15884, offset: 0x15884, size: 0x8, addend: 0x0, symName: __ZSt8_DestroyIPiEvT_S1_, symObjAddr: 0x3730, symBinAddr: 0x100007DF4, symSize: 0x28 }
  - { offsetInCU: 0x158C3, offset: 0x158C3, size: 0x8, addend: 0x0, symName: __ZSt22__final_insertion_sortIN9__gnu_cxx17__normal_iteratorIPSt5arrayIiLm3EESt6vectorIS3_SaIS3_EEEENS0_5__ops15_Iter_less_iterEEvT_SB_T0_, symObjAddr: 0x3694, symBinAddr: 0x100007D58, symSize: 0x9C }
  - { offsetInCU: 0x1591D, offset: 0x1591D, size: 0x8, addend: 0x0, symName: __ZSt16__introsort_loopIN9__gnu_cxx17__normal_iteratorIPSt5arrayIiLm3EESt6vectorIS3_SaIS3_EEEElNS0_5__ops15_Iter_less_iterEEvT_SB_T0_T1_, symObjAddr: 0x35DC, symBinAddr: 0x100007CA0, symSize: 0xB8 }
  - { offsetInCU: 0x159B3, offset: 0x159B3, size: 0x8, addend: 0x0, symName: __ZSt4__lgIlET_S0_, symObjAddr: 0x35B8, symBinAddr: 0x100007C7C, symSize: 0x24 }
  - { offsetInCU: 0x159E4, offset: 0x159E4, size: 0x8, addend: 0x0, symName: __ZN9__gnu_cxxmiIPSt5arrayIiLm3EESt6vectorIS2_SaIS2_EEEENS_17__normal_iteratorIT_T0_E15difference_typeERKSA_SD_, symObjAddr: 0x356C, symBinAddr: 0x100007C30, symSize: 0x4C }
  - { offsetInCU: 0x15A2E, offset: 0x15A2E, size: 0x8, addend: 0x0, symName: __ZN9__gnu_cxxneIPSt5arrayIiLm3EESt6vectorIS2_SaIS2_EEEEbRKNS_17__normal_iteratorIT_T0_EESC_, symObjAddr: 0x3528, symBinAddr: 0x100007BEC, symSize: 0x44 }
  - { offsetInCU: 0x15AB3, offset: 0x15AB3, size: 0x8, addend: 0x0, symName: __ZNSt6vectorISt5arrayIiLm3EESaIS1_EE11_S_relocateEPS1_S4_S4_RS2_, symObjAddr: 0x34F4, symBinAddr: 0x100007BB8, symSize: 0x34 }
  - { offsetInCU: 0x15B0F, offset: 0x15B0F, size: 0x8, addend: 0x0, symName: __ZNSt12_Vector_baseISt5arrayIiLm3EESaIS1_EE11_M_allocateEm, symObjAddr: 0x34A4, symBinAddr: 0x100007B68, symSize: 0x50 }
  - { offsetInCU: 0x15B71, offset: 0x15B71, size: 0x8, addend: 0x0, symName: __ZNKSt6vectorISt5arrayIiLm3EESaIS1_EE12_M_check_lenEmPKc, symObjAddr: 0x33D4, symBinAddr: 0x100007A98, symSize: 0xD0 }
  - { offsetInCU: 0x15BC5, offset: 0x15BC5, size: 0x8, addend: 0x0, symName: __ZSt27__uninitialized_default_n_aIPSt5arrayIiLm3EEmS1_ET_S3_T0_RSaIT1_E, symObjAddr: 0x33AC, symBinAddr: 0x100007A70, symSize: 0x28 }
  - { offsetInCU: 0x15C24, offset: 0x15C24, size: 0x8, addend: 0x0, symName: __ZNSt12_Vector_baseISt5arrayIiLm3EESaIS1_EE19_M_get_Tp_allocatorEv, symObjAddr: 0x3398, symBinAddr: 0x100007A5C, symSize: 0x14 }
  - { offsetInCU: 0x15C4C, offset: 0x15C4C, size: 0x8, addend: 0x0, symName: __ZNKSt6vectorISt5arrayIiLm3EESaIS1_EE8max_sizeEv, symObjAddr: 0x3378, symBinAddr: 0x100007A3C, symSize: 0x20 }
  - { offsetInCU: 0x15C70, offset: 0x15C70, size: 0x8, addend: 0x0, symName: __ZNSt6vectorIiSaIiEE11_S_relocateEPiS2_S2_RS0_, symObjAddr: 0x3344, symBinAddr: 0x100007A08, symSize: 0x34 }
  - { offsetInCU: 0x15CCC, offset: 0x15CCC, size: 0x8, addend: 0x0, symName: __ZNSt12_Vector_baseIiSaIiEE11_M_allocateEm, symObjAddr: 0x32F4, symBinAddr: 0x1000079B8, symSize: 0x50 }
  - { offsetInCU: 0x15D2E, offset: 0x15D2E, size: 0x8, addend: 0x0, symName: __ZNKSt6vectorIiSaIiEE12_M_check_lenEmPKc, symObjAddr: 0x3224, symBinAddr: 0x1000078E8, symSize: 0xD0 }
  - { offsetInCU: 0x15D82, offset: 0x15D82, size: 0x8, addend: 0x0, symName: __ZSt27__uninitialized_default_n_aIPimiET_S1_T0_RSaIT1_E, symObjAddr: 0x31FC, symBinAddr: 0x1000078C0, symSize: 0x28 }
  - { offsetInCU: 0x15DE1, offset: 0x15DE1, size: 0x8, addend: 0x0, symName: __ZNKSt6vectorIiSaIiEE8max_sizeEv, symObjAddr: 0x31DC, symBinAddr: 0x1000078A0, symSize: 0x20 }
  - { offsetInCU: 0x15E09, offset: 0x15E09, size: 0x8, addend: 0x0, symName: __ZNKSt8_Rb_treeIiSt4pairIKiiESt10_Select1stIS2_ESt4lessIiESaIS2_EE9_M_mbeginEv, symObjAddr: 0x31C4, symBinAddr: 0x100007888, symSize: 0x18 }
  - { offsetInCU: 0x15E31, offset: 0x15E31, size: 0x8, addend: 0x0, symName: __ZNSt8_Rb_treeIiSt4pairIKiiESt10_Select1stIS2_ESt4lessIiESaIS2_EE12_M_drop_nodeEPSt13_Rb_tree_nodeIS2_E, symObjAddr: 0x3190, symBinAddr: 0x100007854, symSize: 0x34 }
  - { offsetInCU: 0x15E65, offset: 0x15E65, size: 0x8, addend: 0x0, symName: __ZNSt8_Rb_treeIiSt4pairIKiiESt10_Select1stIS2_ESt4lessIiESaIS2_EE7_S_leftEPSt18_Rb_tree_node_base, symObjAddr: 0x3178, symBinAddr: 0x10000783C, symSize: 0x18 }
  - { offsetInCU: 0x15E8D, offset: 0x15E8D, size: 0x8, addend: 0x0, symName: __ZNSt8_Rb_treeIiSt4pairIKiiESt10_Select1stIS2_ESt4lessIiESaIS2_EE8_S_rightEPSt18_Rb_tree_node_base, symObjAddr: 0x3160, symBinAddr: 0x100007824, symSize: 0x18 }
  - { offsetInCU: 0x15ECD, offset: 0x15ECD, size: 0x8, addend: 0x0, symName: __ZNKSt8_Rb_treeISt6vectorIiSaIiEES2_St9_IdentityIS2_ESt4lessIS2_ESaIS2_EE9_M_mbeginEv, symObjAddr: 0x3148, symBinAddr: 0x10000780C, symSize: 0x18 }
  - { offsetInCU: 0x15EF5, offset: 0x15EF5, size: 0x8, addend: 0x0, symName: __ZNSt8_Rb_treeISt6vectorIiSaIiEES2_St9_IdentityIS2_ESt4lessIS2_ESaIS2_EE12_M_drop_nodeEPSt13_Rb_tree_nodeIS2_E, symObjAddr: 0x3114, symBinAddr: 0x1000077D8, symSize: 0x34 }
  - { offsetInCU: 0x15F29, offset: 0x15F29, size: 0x8, addend: 0x0, symName: __ZNSt8_Rb_treeISt6vectorIiSaIiEES2_St9_IdentityIS2_ESt4lessIS2_ESaIS2_EE7_S_leftEPSt18_Rb_tree_node_base, symObjAddr: 0x30FC, symBinAddr: 0x1000077C0, symSize: 0x18 }
  - { offsetInCU: 0x15F51, offset: 0x15F51, size: 0x8, addend: 0x0, symName: __ZNSt8_Rb_treeISt6vectorIiSaIiEES2_St9_IdentityIS2_ESt4lessIS2_ESaIS2_EE8_S_rightEPSt18_Rb_tree_node_base, symObjAddr: 0x30E4, symBinAddr: 0x1000077A8, symSize: 0x18 }
  - { offsetInCU: 0x16009, offset: 0x16009, size: 0x8, addend: 0x0, symName: __ZNK9__gnu_cxx17__normal_iteratorIPiSt6vectorIiSaIiEEE4baseEv, symObjAddr: 0x30D0, symBinAddr: 0x100007794, symSize: 0x14 }
  - { offsetInCU: 0x16091, offset: 0x16091, size: 0x8, addend: 0x0, symName: __ZN9__gnu_cxx17__normal_iteratorIPiSt6vectorIiSaIiEEEC1ERKS1_, symObjAddr: 0x30A8, symBinAddr: 0x10000776C, symSize: 0x28 }
  - { offsetInCU: 0x16083, offset: 0x16083, size: 0x8, addend: 0x0, symName: __ZNSt6vectorIiSaIiEE21_M_default_initializeEm, symObjAddr: 0x3058, symBinAddr: 0x10000771C, symSize: 0x50 }
  - { offsetInCU: 0x160B7, offset: 0x160B7, size: 0x8, addend: 0x0, symName: __ZNSt6vectorIiSaIiEE17_S_check_init_lenEmRKS0_, symObjAddr: 0x2FD4, symBinAddr: 0x100007698, symSize: 0x84 }
  - { offsetInCU: 0x1620E, offset: 0x1620E, size: 0x8, addend: 0x0, symName: __ZNSt11_Tuple_implILm0EJSt6vectorIiSaIiEEiS2_EEC2IRS2_JRiS5_EvEEOT_DpOT0_, symObjAddr: 0x2F50, symBinAddr: 0x100007614, symSize: 0x84 }
  - { offsetInCU: 0x16226, offset: 0x16226, size: 0x8, addend: 0x0, symName: __ZSt7forwardIRiEOT_RNSt16remove_referenceIS1_E4typeE, symObjAddr: 0x2F3C, symBinAddr: 0x100007600, symSize: 0x14 }
  - { offsetInCU: 0x1625C, offset: 0x1625C, size: 0x8, addend: 0x0, symName: __ZSt7forwardIRSt6vectorIiSaIiEEEOT_RNSt16remove_referenceIS4_E4typeE, symObjAddr: 0x2F28, symBinAddr: 0x1000075EC, symSize: 0x14 }
  - { offsetInCU: 0x16290, offset: 0x16290, size: 0x8, addend: 0x0, symName: __ZNSt6vectorIiSaIiEE17_M_realloc_insertIJRKiEEEvN9__gnu_cxx17__normal_iteratorIPiS1_EEDpOT_, symObjAddr: 0x2D68, symBinAddr: 0x10000742C, symSize: 0x1C0 }
  - { offsetInCU: 0x1649C, offset: 0x1649C, size: 0x8, addend: 0x0, symName: __ZNSt4pairISt23_Rb_tree_const_iteratorISt6vectorIiSaIiEEEbEC1IRSt17_Rb_tree_iteratorIS3_ERbLb1EEEOT_OT0_, symObjAddr: 0x2D14, symBinAddr: 0x1000073D8, symSize: 0x54 }
  - { offsetInCU: 0x1647D, offset: 0x1647D, size: 0x8, addend: 0x0, symName: __ZNSt8_Rb_treeISt6vectorIiSaIiEES2_St9_IdentityIS2_ESt4lessIS2_ESaIS2_EE16_M_insert_uniqueIRKS2_EESt4pairISt17_Rb_tree_iteratorIS2_EbEOT_, symObjAddr: 0x2C48, symBinAddr: 0x10000730C, symSize: 0xCC }
  - { offsetInCU: 0x164F7, offset: 0x164F7, size: 0x8, addend: 0x0, symName: __ZSteqRKSt23_Rb_tree_const_iteratorISt6vectorIiSaIiEEES5_, symObjAddr: 0x2C18, symBinAddr: 0x1000072DC, symSize: 0x30 }
  - { offsetInCU: 0x16533, offset: 0x16533, size: 0x8, addend: 0x0, symName: __ZNKSt8_Rb_treeISt6vectorIiSaIiEES2_St9_IdentityIS2_ESt4lessIS2_ESaIS2_EE3endEv, symObjAddr: 0x2BF0, symBinAddr: 0x1000072B4, symSize: 0x28 }
  - { offsetInCU: 0x1655B, offset: 0x1655B, size: 0x8, addend: 0x0, symName: __ZNKSt8_Rb_treeISt6vectorIiSaIiEES2_St9_IdentityIS2_ESt4lessIS2_ESaIS2_EE4findERKS2_, symObjAddr: 0x2B40, symBinAddr: 0x100007204, symSize: 0xB0 }
  - { offsetInCU: 0x1659F, offset: 0x1659F, size: 0x8, addend: 0x0, symName: __ZSt22__uninitialized_copy_aIPiS0_iET0_T_S2_S1_RSaIT1_E, symObjAddr: 0x2B10, symBinAddr: 0x1000071D4, symSize: 0x30 }
  - { offsetInCU: 0x1660A, offset: 0x1660A, size: 0x8, addend: 0x0, symName: __ZSt4copyIPiS0_ET0_T_S2_S1_, symObjAddr: 0x2AC8, symBinAddr: 0x10000718C, symSize: 0x48 }
  - { offsetInCU: 0x1669F, offset: 0x1669F, size: 0x8, addend: 0x0, symName: __ZSt4copyIN9__gnu_cxx17__normal_iteratorIPKiSt6vectorIiSaIiEEEENS1_IPiS6_EEET0_T_SB_SA_, symObjAddr: 0x2A80, symBinAddr: 0x100007144, symSize: 0x48 }
  - { offsetInCU: 0x166FD, offset: 0x166FD, size: 0x8, addend: 0x0, symName: __ZNSt6vectorIiSaIiEE20_M_allocate_and_copyIN9__gnu_cxx17__normal_iteratorIPKiS1_EEEEPimT_S9_, symObjAddr: 0x29FC, symBinAddr: 0x1000070C0, symSize: 0x84 }
  - { offsetInCU: 0x1676E, offset: 0x1676E, size: 0x8, addend: 0x0, symName: __ZNKSt6vectorIiSaIiEE8capacityEv, symObjAddr: 0x29D4, symBinAddr: 0x100007098, symSize: 0x28 }
  - { offsetInCU: 0x167C3, offset: 0x167C3, size: 0x8, addend: 0x0, symName: __ZNSt6vectorIiSaIiEE5clearEv, symObjAddr: 0x29A8, symBinAddr: 0x10000706C, symSize: 0x2C }
  - { offsetInCU: 0x167F9, offset: 0x167F9, size: 0x8, addend: 0x0, symName: __ZSt11__addressofIKSt6vectorIiSaIiEEEPT_RS4_, symObjAddr: 0x2994, symBinAddr: 0x100007058, symSize: 0x14 }
  - { offsetInCU: 0x1682D, offset: 0x1682D, size: 0x8, addend: 0x0, symName: __ZNSt5dequeISt5tupleIJSt6vectorIiSaIiEEiS3_EESaIS4_EE8pop_backEv, symObjAddr: 0x2908, symBinAddr: 0x100006FCC, symSize: 0x8C }
  - { offsetInCU: 0x168A5, offset: 0x168A5, size: 0x8, addend: 0x0, symName: __ZSt22__uninitialized_copy_aIN9__gnu_cxx17__normal_iteratorIPKiSt6vectorIiSaIiEEEEPiiET0_T_SA_S9_RSaIT1_E, symObjAddr: 0x28D8, symBinAddr: 0x100006F9C, symSize: 0x30 }
  - { offsetInCU: 0x16914, offset: 0x16914, size: 0x8, addend: 0x0, symName: __ZNKSt6vectorIiSaIiEE3endEv, symObjAddr: 0x28B0, symBinAddr: 0x100006F74, symSize: 0x28 }
  - { offsetInCU: 0x1693C, offset: 0x1693C, size: 0x8, addend: 0x0, symName: __ZNKSt6vectorIiSaIiEE5beginEv, symObjAddr: 0x288C, symBinAddr: 0x100006F50, symSize: 0x24 }
  - { offsetInCU: 0x169B9, offset: 0x169B9, size: 0x8, addend: 0x0, symName: __ZNSt12_Vector_baseIiSaIiEEC2EmRKS0_, symObjAddr: 0x2838, symBinAddr: 0x100006EFC, symSize: 0x54 }
  - { offsetInCU: 0x169E0, offset: 0x169E0, size: 0x8, addend: 0x0, symName: __ZNKSt12_Vector_baseIiSaIiEE19_M_get_Tp_allocatorEv, symObjAddr: 0x2824, symBinAddr: 0x100006EE8, symSize: 0x14 }
  - { offsetInCU: 0x16A08, offset: 0x16A08, size: 0x8, addend: 0x0, symName: __ZNSt5dequeISt5tupleIJSt6vectorIiSaIiEEiS3_EESaIS4_EE4backEv, symObjAddr: 0x27F0, symBinAddr: 0x100006EB4, symSize: 0x34 }
  - { offsetInCU: 0x16A40, offset: 0x16A40, size: 0x8, addend: 0x0, symName: __ZNKSt5dequeISt5tupleIJSt6vectorIiSaIiEEiS3_EESaIS4_EE5emptyEv, symObjAddr: 0x27BC, symBinAddr: 0x100006E80, symSize: 0x34 }
  - { offsetInCU: 0x16A68, offset: 0x16A68, size: 0x8, addend: 0x0, symName: __ZNSt5dequeISt5tupleIJSt6vectorIiSaIiEEiS3_EESaIS4_EE9push_backEOS4_, symObjAddr: 0x278C, symBinAddr: 0x100006E50, symSize: 0x30 }
  - { offsetInCU: 0x16AA2, offset: 0x16AA2, size: 0x8, addend: 0x0, symName: __ZSt4moveIRSt5tupleIJSt6vectorIiSaIiEEiS3_EEEONSt16remove_referenceIT_E4typeEOS7_, symObjAddr: 0x2778, symBinAddr: 0x100006E3C, symSize: 0x14 }
  - { offsetInCU: 0x16B52, offset: 0x16B52, size: 0x8, addend: 0x0, symName: __ZNSt11_Tuple_implILm0EJSt6vectorIiSaIiEEiS2_EEC2ERKS2_RKiS5_, symObjAddr: 0x2718, symBinAddr: 0x100006DDC, symSize: 0x60 }
  - { offsetInCU: 0x16B54, offset: 0x16B54, size: 0x8, addend: 0x0, symName: __ZNSt5dequeISt5tupleIJSt6vectorIiSaIiEEiS3_EESaIS4_EE15_M_destroy_dataESt15_Deque_iteratorIS4_RS4_PS4_ESA_RKS5_, symObjAddr: 0x26C4, symBinAddr: 0x100006D88, symSize: 0x54 }
  - { offsetInCU: 0x16BAA, offset: 0x16BAA, size: 0x8, addend: 0x0, symName: __ZNSt11_Deque_baseISt5tupleIJSt6vectorIiSaIiEEiS3_EESaIS4_EE19_M_get_Tp_allocatorEv, symObjAddr: 0x26B0, symBinAddr: 0x100006D74, symSize: 0x14 }
  - { offsetInCU: 0x16BD2, offset: 0x16BD2, size: 0x8, addend: 0x0, symName: __ZNSt5dequeISt5tupleIJSt6vectorIiSaIiEEiS3_EESaIS4_EE3endEv, symObjAddr: 0x2678, symBinAddr: 0x100006D3C, symSize: 0x38 }
  - { offsetInCU: 0x16BFA, offset: 0x16BFA, size: 0x8, addend: 0x0, symName: __ZNSt5dequeISt5tupleIJSt6vectorIiSaIiEEiS3_EESaIS4_EE5beginEv, symObjAddr: 0x2640, symBinAddr: 0x100006D04, symSize: 0x38 }
  - { offsetInCU: 0x16C80, offset: 0x16C80, size: 0x8, addend: 0x0, symName: __ZNSt11_Deque_baseISt5tupleIJSt6vectorIiSaIiEEiS3_EESaIS4_EED2Ev, symObjAddr: 0x25D4, symBinAddr: 0x100006C98, symSize: 0x6C }
  - { offsetInCU: 0x16CBC, offset: 0x16CBC, size: 0x8, addend: 0x0, symName: __ZNSt11_Deque_baseISt5tupleIJSt6vectorIiSaIiEEiS3_EESaIS4_EEC2Ev, symObjAddr: 0x258C, symBinAddr: 0x100006C50, symSize: 0x48 }
  - { offsetInCU: 0x16D13, offset: 0x16D13, size: 0x8, addend: 0x0, symName: __ZNSt11_Deque_baseISt5tupleIJSt6vectorIiSaIiEEiS3_EESaIS4_EE11_Deque_implD1Ev, symObjAddr: 0x2560, symBinAddr: 0x100006C24, symSize: 0x2C }
  - { offsetInCU: 0x16D4A, offset: 0x16D4A, size: 0x8, addend: 0x0, symName: __ZNSt12_Vector_baseIiSaIiEE19_M_get_Tp_allocatorEv, symObjAddr: 0x254C, symBinAddr: 0x100006C10, symSize: 0x14 }
  - { offsetInCU: 0x16D6E, offset: 0x16D6E, size: 0x8, addend: 0x0, symName: __ZSt6__sortIN9__gnu_cxx17__normal_iteratorIPSt5arrayIiLm3EESt6vectorIS3_SaIS3_EEEENS0_5__ops15_Iter_less_iterEEvT_SB_T0_, symObjAddr: 0x24D0, symBinAddr: 0x100006B94, symSize: 0x7C }
  - { offsetInCU: 0x16E3E, offset: 0x16E3E, size: 0x8, addend: 0x0, symName: __ZN9__gnu_cxx17__normal_iteratorIPSt5arrayIiLm3EESt6vectorIS2_SaIS2_EEEC1ERKS3_, symObjAddr: 0x24A8, symBinAddr: 0x100006B6C, symSize: 0x28 }
  - { offsetInCU: 0x16E1E, offset: 0x16E1E, size: 0x8, addend: 0x0, symName: __ZNSt6vectorISt5arrayIiLm3EESaIS1_EE15_M_erase_at_endEPS1_, symObjAddr: 0x2414, symBinAddr: 0x100006AD8, symSize: 0x94 }
  - { offsetInCU: 0x16EAB, offset: 0x16EAB, size: 0x8, addend: 0x0, symName: __ZNSt6vectorISt5arrayIiLm3EESaIS1_EE17_M_default_appendEm, symObjAddr: 0x21CC, symBinAddr: 0x100006890, symSize: 0x248 }
  - { offsetInCU: 0x16F51, offset: 0x16F51, size: 0x8, addend: 0x0, symName: __ZNKSt6vectorISt5arrayIiLm3EESaIS1_EE4sizeEv, symObjAddr: 0x2198, symBinAddr: 0x10000685C, symSize: 0x34 }
  - { offsetInCU: 0x16F79, offset: 0x16F79, size: 0x8, addend: 0x0, symName: __ZNSt6vectorIiSaIiEE15_M_erase_at_endEPi, symObjAddr: 0x2110, symBinAddr: 0x1000067D4, symSize: 0x88 }
  - { offsetInCU: 0x17006, offset: 0x17006, size: 0x8, addend: 0x0, symName: __ZNSt6vectorIiSaIiEE17_M_default_appendEm, symObjAddr: 0x1F10, symBinAddr: 0x1000065D4, symSize: 0x200 }
  - { offsetInCU: 0x170AC, offset: 0x170AC, size: 0x8, addend: 0x0, symName: __ZNSt8_Rb_treeIiSt4pairIKiiESt10_Select1stIS2_ESt4lessIiESaIS2_EE8_M_beginEv, symObjAddr: 0x1EF4, symBinAddr: 0x1000065B8, symSize: 0x1C }
  - { offsetInCU: 0x170D4, offset: 0x170D4, size: 0x8, addend: 0x0, symName: __ZNSt8_Rb_treeIiSt4pairIKiiESt10_Select1stIS2_ESt4lessIiESaIS2_EE8_M_eraseEPSt13_Rb_tree_nodeIS2_E, symObjAddr: 0x1E90, symBinAddr: 0x100006554, symSize: 0x64 }
  - { offsetInCU: 0x17188, offset: 0x17188, size: 0x8, addend: 0x0, symName: __ZNSt15__new_allocatorISt13_Rb_tree_nodeISt4pairIKiiEEED2Ev, symObjAddr: 0x1E7C, symBinAddr: 0x100006540, symSize: 0x14 }
  - { offsetInCU: 0x171B4, offset: 0x171B4, size: 0x8, addend: 0x0, symName: __ZNSt20_Rb_tree_key_compareISt4lessIiEEC2Ev, symObjAddr: 0x1E68, symBinAddr: 0x10000652C, symSize: 0x14 }
  - { offsetInCU: 0x171C4, offset: 0x171C4, size: 0x8, addend: 0x0, symName: __ZNSt8_Rb_treeISt6vectorIiSaIiEES2_St9_IdentityIS2_ESt4lessIS2_ESaIS2_EE8_M_beginEv, symObjAddr: 0x1E4C, symBinAddr: 0x100006510, symSize: 0x1C }
  - { offsetInCU: 0x171EC, offset: 0x171EC, size: 0x8, addend: 0x0, symName: __ZNSt8_Rb_treeISt6vectorIiSaIiEES2_St9_IdentityIS2_ESt4lessIS2_ESaIS2_EE8_M_eraseEPSt13_Rb_tree_nodeIS2_E, symObjAddr: 0x1DE8, symBinAddr: 0x1000064AC, symSize: 0x64 }
  - { offsetInCU: 0x172A5, offset: 0x172A5, size: 0x8, addend: 0x0, symName: __ZNSt15__new_allocatorISt13_Rb_tree_nodeISt6vectorIiSaIiEEEED2Ev, symObjAddr: 0x1DD4, symBinAddr: 0x100006498, symSize: 0x14 }
  - { offsetInCU: 0x172DC, offset: 0x172DC, size: 0x8, addend: 0x0, symName: __ZNSt20_Rb_tree_key_compareISt4lessISt6vectorIiSaIiEEEEC2Ev, symObjAddr: 0x1DC0, symBinAddr: 0x100006484, symSize: 0x14 }
  - { offsetInCU: 0x172DC, offset: 0x172DC, size: 0x8, addend: 0x0, symName: __ZNSt12_Vector_baseISt5arrayIiLm3EESaIS1_EE13_M_deallocateEPS1_m, symObjAddr: 0x1D68, symBinAddr: 0x10000642C, symSize: 0x58 }
  - { offsetInCU: 0x1739F, offset: 0x1739F, size: 0x8, addend: 0x0, symName: __ZNSt15__new_allocatorISt5arrayIiLm3EEED2Ev, symObjAddr: 0x1D54, symBinAddr: 0x100006418, symSize: 0x14 }
  - { offsetInCU: 0x173F2, offset: 0x173F2, size: 0x8, addend: 0x0, symName: __ZNSt12_Vector_baseISt5arrayIiLm3EESaIS1_EE17_Vector_impl_dataC2Ev, symObjAddr: 0x1D28, symBinAddr: 0x1000063EC, symSize: 0x2C }
  - { offsetInCU: 0x173EB, offset: 0x173EB, size: 0x8, addend: 0x0, symName: __ZNSt12_Vector_baseIiSaIiEE13_M_deallocateEPim, symObjAddr: 0x1CD0, symBinAddr: 0x100006394, symSize: 0x58 }
  - { offsetInCU: 0x174A0, offset: 0x174A0, size: 0x8, addend: 0x0, symName: __ZNSt15__new_allocatorIiED2Ev, symObjAddr: 0x1CBC, symBinAddr: 0x100006380, symSize: 0x14 }
  - { offsetInCU: 0x174F1, offset: 0x174F1, size: 0x8, addend: 0x0, symName: __ZNSt12_Vector_baseIiSaIiEE17_Vector_impl_dataC2Ev, symObjAddr: 0x1C90, symBinAddr: 0x100006354, symSize: 0x2C }
  - { offsetInCU: 0x174E6, offset: 0x174E6, size: 0x8, addend: 0x0, symName: __ZNK9__gnu_cxx17__normal_iteratorIPiSt6vectorIiSaIiEEEdeEv, symObjAddr: 0x1C78, symBinAddr: 0x10000633C, symSize: 0x18 }
  - { offsetInCU: 0x1750E, offset: 0x1750E, size: 0x8, addend: 0x0, symName: __ZN9__gnu_cxx17__normal_iteratorIPiSt6vectorIiSaIiEEEppEv, symObjAddr: 0x1C50, symBinAddr: 0x100006314, symSize: 0x28 }
  - { offsetInCU: 0x17532, offset: 0x17532, size: 0x8, addend: 0x0, symName: __ZN9__gnu_cxxneIPiSt6vectorIiSaIiEEEEbRKNS_17__normal_iteratorIT_T0_EESA_, symObjAddr: 0x1C0C, symBinAddr: 0x1000062D0, symSize: 0x44 }
  - { offsetInCU: 0x17580, offset: 0x17580, size: 0x8, addend: 0x0, symName: __ZNSt6vectorIiSaIiEE3endEv, symObjAddr: 0x1BE4, symBinAddr: 0x1000062A8, symSize: 0x28 }
  - { offsetInCU: 0x175A8, offset: 0x175A8, size: 0x8, addend: 0x0, symName: __ZNSt6vectorIiSaIiEE5beginEv, symObjAddr: 0x1BC0, symBinAddr: 0x100006284, symSize: 0x24 }
  - { offsetInCU: 0x1761E, offset: 0x1761E, size: 0x8, addend: 0x0, symName: __ZNSt6vectorIiSaIiEEC1EmRKS0_, symObjAddr: 0x1B58, symBinAddr: 0x10000621C, symSize: 0x68 }
  - { offsetInCU: 0x1764C, offset: 0x1764C, size: 0x8, addend: 0x0, symName: __ZNKSt6vectorIiSaIiEE4sizeEv, symObjAddr: 0x1B30, symBinAddr: 0x1000061F4, symSize: 0x28 }
  - { offsetInCU: 0x176FF, offset: 0x176FF, size: 0x8, addend: 0x0, symName: __ZNSt5tupleIJSt6vectorIiSaIiEEiS2_EEC1IJRS2_RiS5_ELb1ELb1EEEDpOT_, symObjAddr: 0x1AC4, symBinAddr: 0x100006188, symSize: 0x6C }
  - { offsetInCU: 0x17723, offset: 0x17723, size: 0x8, addend: 0x0, symName: __ZNSt6vectorIiSaIiEE9push_backERKi, symObjAddr: 0x19F0, symBinAddr: 0x1000060B4, symSize: 0xD4 }
  - { offsetInCU: 0x177BF, offset: 0x177BF, size: 0x8, addend: 0x0, symName: __ZNSt3setISt6vectorIiSaIiEESt4lessIS2_ESaIS2_EE6insertERKS2_, symObjAddr: 0x19B0, symBinAddr: 0x100006074, symSize: 0x40 }
  - { offsetInCU: 0x17807, offset: 0x17807, size: 0x8, addend: 0x0, symName: __ZNKSt3setISt6vectorIiSaIiEESt4lessIS2_ESaIS2_EE5countERKS2_, symObjAddr: 0x1954, symBinAddr: 0x100006018, symSize: 0x5C }
  - { offsetInCU: 0x1783F, offset: 0x1783F, size: 0x8, addend: 0x0, symName: __ZNSt6vectorIiSaIiEEaSERKS1_, symObjAddr: 0x160C, symBinAddr: 0x100005CD0, symSize: 0x348 }
  - { offsetInCU: 0x179AD, offset: 0x179AD, size: 0x8, addend: 0x0, symName: __ZNSt5stackISt5tupleIJSt6vectorIiSaIiEEiS3_EESt5dequeIS4_SaIS4_EEE3popEv, symObjAddr: 0x15EC, symBinAddr: 0x100005CB0, symSize: 0x20 }
  - { offsetInCU: 0x17A14, offset: 0x17A14, size: 0x8, addend: 0x0, symName: __ZNSt6vectorIiSaIiEEC1ERKS1_, symObjAddr: 0x14D8, symBinAddr: 0x100005B9C, symSize: 0x114 }
  - { offsetInCU: 0x17AFF, offset: 0x17AFF, size: 0x8, addend: 0x0, symName: __ZNSt5stackISt5tupleIJSt6vectorIiSaIiEEiS3_EESt5dequeIS4_SaIS4_EEE3topEv, symObjAddr: 0x14BC, symBinAddr: 0x100005B80, symSize: 0x1C }
  - { offsetInCU: 0x17B27, offset: 0x17B27, size: 0x8, addend: 0x0, symName: __ZNKSt5stackISt5tupleIJSt6vectorIiSaIiEEiS3_EESt5dequeIS4_SaIS4_EEE5emptyEv, symObjAddr: 0x149C, symBinAddr: 0x100005B60, symSize: 0x20 }
  - { offsetInCU: 0x17B4F, offset: 0x17B4F, size: 0x8, addend: 0x0, symName: __ZNSt5stackISt5tupleIJSt6vectorIiSaIiEEiS3_EESt5dequeIS4_SaIS4_EEE4pushEOS4_, symObjAddr: 0x1460, symBinAddr: 0x100005B24, symSize: 0x3C }
  - { offsetInCU: 0x17C0C, offset: 0x17C0C, size: 0x8, addend: 0x0, symName: __ZNSt5tupleIJSt6vectorIiSaIiEEiS2_EEC1ILb1ELb1EEERKS2_RKiS6_, symObjAddr: 0x1428, symBinAddr: 0x100005AEC, symSize: 0x38 }
  - { offsetInCU: 0x17C70, offset: 0x17C70, size: 0x8, addend: 0x0, symName: __ZNSt5dequeISt5tupleIJSt6vectorIiSaIiEEiS3_EESaIS4_EED1Ev, symObjAddr: 0x13C0, symBinAddr: 0x100005A84, symSize: 0x68 }
  - { offsetInCU: 0x17CCE, offset: 0x17CCE, size: 0x8, addend: 0x0, symName: __ZNSt5stackISt5tupleIJSt6vectorIiSaIiEEiS3_EESt5dequeIS4_SaIS4_EEEC1IS7_vEEv, symObjAddr: 0x138C, symBinAddr: 0x100005A50, symSize: 0x34 }
  - { offsetInCU: 0x17D05, offset: 0x17D05, size: 0x8, addend: 0x0, symName: __ZNSt5dequeISt5tupleIJSt6vectorIiSaIiEEiS3_EESaIS4_EEC1Ev, symObjAddr: 0x136C, symBinAddr: 0x100005A30, symSize: 0x20 }
  - { offsetInCU: 0x17D29, offset: 0x17D29, size: 0x8, addend: 0x0, symName: __ZNSt6vectorIiSaIiEED1Ev, symObjAddr: 0x1310, symBinAddr: 0x1000059D4, symSize: 0x5C }
  - { offsetInCU: 0x17D66, offset: 0x17D66, size: 0x8, addend: 0x0, symName: __ZSt4sortIN9__gnu_cxx17__normal_iteratorIPSt5arrayIiLm3EESt6vectorIS3_SaIS3_EEEEEvT_S9_, symObjAddr: 0x12D8, symBinAddr: 0x10000599C, symSize: 0x38 }
  - { offsetInCU: 0x17DAB, offset: 0x17DAB, size: 0x8, addend: 0x0, symName: __ZNSt6vectorISt5arrayIiLm3EESaIS1_EE3endEv, symObjAddr: 0x12B0, symBinAddr: 0x100005974, symSize: 0x28 }
  - { offsetInCU: 0x17DD3, offset: 0x17DD3, size: 0x8, addend: 0x0, symName: __ZNSt6vectorISt5arrayIiLm3EESaIS1_EE5beginEv, symObjAddr: 0x128C, symBinAddr: 0x100005950, symSize: 0x24 }
  - { offsetInCU: 0x17DFB, offset: 0x17DFB, size: 0x8, addend: 0x0, symName: __ZNSt5arrayIiLm3EEixEm, symObjAddr: 0x1268, symBinAddr: 0x10000592C, symSize: 0x24 }
  - { offsetInCU: 0x17E32, offset: 0x17E32, size: 0x8, addend: 0x0, symName: __ZNSt6vectorISt5arrayIiLm3EESaIS1_EEixEm, symObjAddr: 0x1234, symBinAddr: 0x1000058F8, symSize: 0x34 }
  - { offsetInCU: 0x17E6A, offset: 0x17E6A, size: 0x8, addend: 0x0, symName: __ZNSt6vectorISt5arrayIiLm3EESaIS1_EE6resizeEm, symObjAddr: 0x1178, symBinAddr: 0x10000583C, symSize: 0xBC }
  - { offsetInCU: 0x17EA2, offset: 0x17EA2, size: 0x8, addend: 0x0, symName: __ZNSt6vectorIiSaIiEEixEm, symObjAddr: 0x1150, symBinAddr: 0x100005814, symSize: 0x28 }
  - { offsetInCU: 0x17EDA, offset: 0x17EDA, size: 0x8, addend: 0x0, symName: __ZNSt6vectorIiSaIiEE6resizeEm, symObjAddr: 0x10A0, symBinAddr: 0x100005764, symSize: 0xB0 }
  - { offsetInCU: 0x17F75, offset: 0x17F75, size: 0x8, addend: 0x0, symName: __ZNSt8_Rb_treeIiSt4pairIKiiESt10_Select1stIS2_ESt4lessIiESaIS2_EED1Ev, symObjAddr: 0x106C, symBinAddr: 0x100005730, symSize: 0x34 }
  - { offsetInCU: 0x17FE6, offset: 0x17FE6, size: 0x8, addend: 0x0, symName: __ZNSt8_Rb_treeIiSt4pairIKiiESt10_Select1stIS2_ESt4lessIiESaIS2_EE13_Rb_tree_implIS6_Lb1EEC1Ev, symObjAddr: 0x1028, symBinAddr: 0x1000056EC, symSize: 0x44 }
  - { offsetInCU: 0x1805D, offset: 0x1805D, size: 0x8, addend: 0x0, symName: __ZNSt8_Rb_treeISt6vectorIiSaIiEES2_St9_IdentityIS2_ESt4lessIS2_ESaIS2_EED1Ev, symObjAddr: 0xFF4, symBinAddr: 0x1000056B8, symSize: 0x34 }
  - { offsetInCU: 0x180CE, offset: 0x180CE, size: 0x8, addend: 0x0, symName: __ZNSt8_Rb_treeISt6vectorIiSaIiEES2_St9_IdentityIS2_ESt4lessIS2_ESaIS2_EE13_Rb_tree_implIS6_Lb1EEC1Ev, symObjAddr: 0xFB0, symBinAddr: 0x100005674, symSize: 0x44 }
  - { offsetInCU: 0x18121, offset: 0x18121, size: 0x8, addend: 0x0, symName: __ZNSt12_Vector_baseISt5arrayIiLm3EESaIS1_EED2Ev, symObjAddr: 0xF54, symBinAddr: 0x100005618, symSize: 0x5C }
  - { offsetInCU: 0x18188, offset: 0x18188, size: 0x8, addend: 0x0, symName: __ZNSt12_Vector_baseISt5arrayIiLm3EESaIS1_EE12_Vector_implC1Ev, symObjAddr: 0xF1C, symBinAddr: 0x1000055E0, symSize: 0x38 }
  - { offsetInCU: 0x181F1, offset: 0x181F1, size: 0x8, addend: 0x0, symName: __ZNSt12_Vector_baseIiSaIiEED2Ev, symObjAddr: 0xECC, symBinAddr: 0x100005590, symSize: 0x50 }
  - { offsetInCU: 0x18258, offset: 0x18258, size: 0x8, addend: 0x0, symName: __ZNSt12_Vector_baseIiSaIiEE12_Vector_implC1Ev, symObjAddr: 0xE94, symBinAddr: 0x100005558, symSize: 0x38 }
  - { offsetInCU: 0x18299, offset: 0x18299, size: 0x8, addend: 0x0, symName: _main, symObjAddr: 0x658, symBinAddr: 0x100004D1C, symSize: 0x83C }
  - { offsetInCU: 0x184B4, offset: 0x184B4, size: 0x8, addend: 0x0, symName: __ZNSt10_Head_baseILm2ESt6vectorIiSaIiEELb0EE7_M_headERS3_, symObjAddr: 0x644, symBinAddr: 0x100004D08, symSize: 0x14 }
  - { offsetInCU: 0x184DB, offset: 0x184DB, size: 0x8, addend: 0x0, symName: __ZNSt11_Tuple_implILm2EJSt6vectorIiSaIiEEEE7_M_headERS3_, symObjAddr: 0x628, symBinAddr: 0x100004CEC, symSize: 0x1C }
  - { offsetInCU: 0x18503, offset: 0x18503, size: 0x8, addend: 0x0, symName: __ZSt12__get_helperILm2ESt6vectorIiSaIiEEJEERT0_RSt11_Tuple_implIXT_EJS3_DpT1_EE, symObjAddr: 0x60C, symBinAddr: 0x100004CD0, symSize: 0x1C }
  - { offsetInCU: 0x18549, offset: 0x18549, size: 0x8, addend: 0x0, symName: __ZSt3getILm2EJSt6vectorIiSaIiEEiS2_EEONSt13tuple_elementIXT_ESt5tupleIJDpT0_EEE4typeEOS7_, symObjAddr: 0x5EC, symBinAddr: 0x100004CB0, symSize: 0x20 }
  - { offsetInCU: 0x18596, offset: 0x18596, size: 0x8, addend: 0x0, symName: __ZSt7forwardIiEOT_RNSt16remove_referenceIS0_E4typeE, symObjAddr: 0x5D8, symBinAddr: 0x100004C9C, symSize: 0x14 }
  - { offsetInCU: 0x185C6, offset: 0x185C6, size: 0x8, addend: 0x0, symName: __ZNSt10_Head_baseILm1EiLb0EE7_M_headERS0_, symObjAddr: 0x5C4, symBinAddr: 0x100004C88, symSize: 0x14 }
  - { offsetInCU: 0x185ED, offset: 0x185ED, size: 0x8, addend: 0x0, symName: __ZNSt11_Tuple_implILm1EJiSt6vectorIiSaIiEEEE7_M_headERS3_, symObjAddr: 0x5A4, symBinAddr: 0x100004C68, symSize: 0x20 }
  - { offsetInCU: 0x18615, offset: 0x18615, size: 0x8, addend: 0x0, symName: __ZSt12__get_helperILm1EiJSt6vectorIiSaIiEEEERT0_RSt11_Tuple_implIXT_EJS3_DpT1_EE, symObjAddr: 0x588, symBinAddr: 0x100004C4C, symSize: 0x1C }
  - { offsetInCU: 0x18661, offset: 0x18661, size: 0x8, addend: 0x0, symName: __ZSt3getILm1EJSt6vectorIiSaIiEEiS2_EEONSt13tuple_elementIXT_ESt5tupleIJDpT0_EEE4typeEOS7_, symObjAddr: 0x568, symBinAddr: 0x100004C2C, symSize: 0x20 }
  - { offsetInCU: 0x186AE, offset: 0x186AE, size: 0x8, addend: 0x0, symName: __ZSt7forwardISt6vectorIiSaIiEEEOT_RNSt16remove_referenceIS3_E4typeE, symObjAddr: 0x554, symBinAddr: 0x100004C18, symSize: 0x14 }
  - { offsetInCU: 0x186DE, offset: 0x186DE, size: 0x8, addend: 0x0, symName: __ZNSt10_Head_baseILm0ESt6vectorIiSaIiEELb0EE7_M_headERS3_, symObjAddr: 0x540, symBinAddr: 0x100004C04, symSize: 0x14 }
  - { offsetInCU: 0x18705, offset: 0x18705, size: 0x8, addend: 0x0, symName: __ZNSt11_Tuple_implILm0EJSt6vectorIiSaIiEEiS2_EE7_M_headERS3_, symObjAddr: 0x520, symBinAddr: 0x100004BE4, symSize: 0x20 }
  - { offsetInCU: 0x1872D, offset: 0x1872D, size: 0x8, addend: 0x0, symName: __ZSt12__get_helperILm0ESt6vectorIiSaIiEEJiS2_EERT0_RSt11_Tuple_implIXT_EJS3_DpT1_EE, symObjAddr: 0x504, symBinAddr: 0x100004BC8, symSize: 0x1C }
  - { offsetInCU: 0x1877E, offset: 0x1877E, size: 0x8, addend: 0x0, symName: __ZSt3getILm0EJSt6vectorIiSaIiEEiS2_EEONSt13tuple_elementIXT_ESt5tupleIJDpT0_EEE4typeEOS7_, symObjAddr: 0x4E4, symBinAddr: 0x100004BA8, symSize: 0x20 }
  - { offsetInCU: 0x1880F, offset: 0x1880F, size: 0x8, addend: 0x0, symName: __ZNSt5tupleIJSt6vectorIiSaIiEEiS2_EEC1ERKS3_, symObjAddr: 0x4BC, symBinAddr: 0x100004B80, symSize: 0x28 }
  - { offsetInCU: 0x18863, offset: 0x18863, size: 0x8, addend: 0x0, symName: __ZNSt11_Tuple_implILm0EJSt6vectorIiSaIiEEiS2_EEC2ERKS3_, symObjAddr: 0x45C, symBinAddr: 0x100004B20, symSize: 0x60 }
  - { offsetInCU: 0x188A9, offset: 0x188A9, size: 0x8, addend: 0x0, symName: __ZNSt10_Head_baseILm0ESt6vectorIiSaIiEELb0EEC2ERKS3_, symObjAddr: 0x434, symBinAddr: 0x100004AF8, symSize: 0x28 }
  - { offsetInCU: 0x188F2, offset: 0x188F2, size: 0x8, addend: 0x0, symName: __ZNSt11_Tuple_implILm1EJiSt6vectorIiSaIiEEEEC2ERKS3_, symObjAddr: 0x3FC, symBinAddr: 0x100004AC0, symSize: 0x38 }
  - { offsetInCU: 0x1893A, offset: 0x1893A, size: 0x8, addend: 0x0, symName: __ZNSt11_Tuple_implILm2EJSt6vectorIiSaIiEEEEC2ERKS3_, symObjAddr: 0x3D4, symBinAddr: 0x100004A98, symSize: 0x28 }
  - { offsetInCU: 0x18984, offset: 0x18984, size: 0x8, addend: 0x0, symName: __ZNSt10_Head_baseILm2ESt6vectorIiSaIiEELb0EEC2ERKS3_, symObjAddr: 0x3AC, symBinAddr: 0x100004A70, symSize: 0x28 }
  - { offsetInCU: 0x189CA, offset: 0x189CA, size: 0x8, addend: 0x0, symName: __ZNSt5tupleIJSt6vectorIiSaIiEEiS2_EED1Ev, symObjAddr: 0x38C, symBinAddr: 0x100004A50, symSize: 0x20 }
  - { offsetInCU: 0x18A1F, offset: 0x18A1F, size: 0x8, addend: 0x0, symName: __ZNSt11_Tuple_implILm0EJSt6vectorIiSaIiEEiS2_EED2Ev, symObjAddr: 0x360, symBinAddr: 0x100004A24, symSize: 0x2C }
  - { offsetInCU: 0x18A65, offset: 0x18A65, size: 0x8, addend: 0x0, symName: __ZNSt10_Head_baseILm0ESt6vectorIiSaIiEELb0EED2Ev, symObjAddr: 0x340, symBinAddr: 0x100004A04, symSize: 0x20 }
  - { offsetInCU: 0x18AAF, offset: 0x18AAF, size: 0x8, addend: 0x0, symName: __ZNSt11_Tuple_implILm1EJiSt6vectorIiSaIiEEEED2Ev, symObjAddr: 0x320, symBinAddr: 0x1000049E4, symSize: 0x20 }
  - { offsetInCU: 0x18AF8, offset: 0x18AF8, size: 0x8, addend: 0x0, symName: __ZNSt11_Tuple_implILm2EJSt6vectorIiSaIiEEEED2Ev, symObjAddr: 0x300, symBinAddr: 0x1000049C4, symSize: 0x20 }
  - { offsetInCU: 0x18B42, offset: 0x18B42, size: 0x8, addend: 0x0, symName: __ZNSt10_Head_baseILm2ESt6vectorIiSaIiEELb0EED2Ev, symObjAddr: 0x2E0, symBinAddr: 0x1000049A4, symSize: 0x20 }
  - { offsetInCU: 0x18BA8, offset: 0x18BA8, size: 0x8, addend: 0x0, symName: __ZNSt5stackISt5tupleIJSt6vectorIiSaIiEEiS3_EESt5dequeIS4_SaIS4_EEED1Ev, symObjAddr: 0x2C0, symBinAddr: 0x100004984, symSize: 0x20 }
  - { offsetInCU: 0x18BC9, offset: 0x18BC9, size: 0x8, addend: 0x0, symName: __ZNSt3mapIiiSt4lessIiESaISt4pairIKiiEEEC1Ev, symObjAddr: 0x2A0, symBinAddr: 0x100004964, symSize: 0x20 }
  - { offsetInCU: 0x18C1F, offset: 0x18C1F, size: 0x8, addend: 0x0, symName: __ZNSt8_Rb_treeIiSt4pairIKiiESt10_Select1stIS2_ESt4lessIiESaIS2_EEC1Ev, symObjAddr: 0x280, symBinAddr: 0x100004944, symSize: 0x20 }
  - { offsetInCU: 0x18C81, offset: 0x18C81, size: 0x8, addend: 0x0, symName: __ZNSt8_Rb_treeIiSt4pairIKiiESt10_Select1stIS2_ESt4lessIiESaIS2_EE13_Rb_tree_implIS6_Lb1EED1Ev, symObjAddr: 0x254, symBinAddr: 0x100004918, symSize: 0x2C }
  - { offsetInCU: 0x18CB5, offset: 0x18CB5, size: 0x8, addend: 0x0, symName: __ZNSt3setISt6vectorIiSaIiEESt4lessIS2_ESaIS2_EEC1Ev, symObjAddr: 0x234, symBinAddr: 0x1000048F8, symSize: 0x20 }
  - { offsetInCU: 0x18D0A, offset: 0x18D0A, size: 0x8, addend: 0x0, symName: __ZNSt8_Rb_treeISt6vectorIiSaIiEES2_St9_IdentityIS2_ESt4lessIS2_ESaIS2_EEC1Ev, symObjAddr: 0x214, symBinAddr: 0x1000048D8, symSize: 0x20 }
  - { offsetInCU: 0x18D6C, offset: 0x18D6C, size: 0x8, addend: 0x0, symName: __ZNSt8_Rb_treeISt6vectorIiSaIiEES2_St9_IdentityIS2_ESt4lessIS2_ESaIS2_EE13_Rb_tree_implIS6_Lb1EED1Ev, symObjAddr: 0x1E8, symBinAddr: 0x1000048AC, symSize: 0x2C }
  - { offsetInCU: 0x18D8E, offset: 0x18D8E, size: 0x8, addend: 0x0, symName: __ZNSt6vectorISt5arrayIiLm3EESaIS1_EEC1Ev, symObjAddr: 0x1C8, symBinAddr: 0x10000488C, symSize: 0x20 }
  - { offsetInCU: 0x18DD1, offset: 0x18DD1, size: 0x8, addend: 0x0, symName: __ZNSt12_Vector_baseISt5arrayIiLm3EESaIS1_EEC2Ev, symObjAddr: 0x1A8, symBinAddr: 0x10000486C, symSize: 0x20 }
  - { offsetInCU: 0x18E28, offset: 0x18E28, size: 0x8, addend: 0x0, symName: __ZNSt12_Vector_baseISt5arrayIiLm3EESaIS1_EE12_Vector_implD1Ev, symObjAddr: 0x17C, symBinAddr: 0x100004840, symSize: 0x2C }
  - { offsetInCU: 0x18E60, offset: 0x18E60, size: 0x8, addend: 0x0, symName: __ZNSt6vectorIiSaIiEEC1Ev, symObjAddr: 0x15C, symBinAddr: 0x100004820, symSize: 0x20 }
  - { offsetInCU: 0x18EA3, offset: 0x18EA3, size: 0x8, addend: 0x0, symName: __ZNSt12_Vector_baseIiSaIiEEC2Ev, symObjAddr: 0x13C, symBinAddr: 0x100004800, symSize: 0x20 }
  - { offsetInCU: 0x18EFA, offset: 0x18EFA, size: 0x8, addend: 0x0, symName: __ZNSt12_Vector_baseIiSaIiEE12_Vector_implD1Ev, symObjAddr: 0x110, symBinAddr: 0x1000047D4, symSize: 0x2C }
  - { offsetInCU: 0x18F11, offset: 0x18F11, size: 0x8, addend: 0x0, symName: __ZSt16__deque_buf_sizem, symObjAddr: 0xE0, symBinAddr: 0x1000047A4, symSize: 0x30 }
  - { offsetInCU: 0x18F3C, offset: 0x18F3C, size: 0x8, addend: 0x0, symName: __ZNSt15_Rb_tree_header8_M_resetEv, symObjAddr: 0xA4, symBinAddr: 0x100004768, symSize: 0x3C }
  - { offsetInCU: 0x18F93, offset: 0x18F93, size: 0x8, addend: 0x0, symName: __ZNSt15_Rb_tree_headerC2Ev, symObjAddr: 0x7C, symBinAddr: 0x100004740, symSize: 0x28 }
  - { offsetInCU: 0x18FA9, offset: 0x18FA9, size: 0x8, addend: 0x0, symName: __ZdlPvS_, symObjAddr: 0x64, symBinAddr: 0x100004728, symSize: 0x18 }
  - { offsetInCU: 0x18FDC, offset: 0x18FDC, size: 0x8, addend: 0x0, symName: __ZnwmPv, symObjAddr: 0x4C, symBinAddr: 0x100004710, symSize: 0x18 }
  - { offsetInCU: 0x19007, offset: 0x19007, size: 0x8, addend: 0x0, symName: __ZSt17__size_to_integerm, symObjAddr: 0x38, symBinAddr: 0x1000046FC, symSize: 0x14 }
  - { offsetInCU: 0x1902F, offset: 0x1902F, size: 0x8, addend: 0x0, symName: __ZN9__gnu_cxx5__ops15__val_comp_iterENS0_15_Iter_less_iterE, symObjAddr: 0x20, symBinAddr: 0x1000046E4, symSize: 0x18 }
  - { offsetInCU: 0x190A9, offset: 0x190A9, size: 0x8, addend: 0x0, symName: __ZN9__gnu_cxx5__ops14_Iter_less_valC1ENS0_15_Iter_less_iterE, symObjAddr: 0x8, symBinAddr: 0x1000046CC, symSize: 0x18 }
  - { offsetInCU: 0x19099, offset: 0x19099, size: 0x8, addend: 0x0, symName: __ZN9__gnu_cxx5__ops16__iter_less_iterEv, symObjAddr: 0x0, symBinAddr: 0x1000046C4, symSize: 0x8 }
...
