---
triple:          'arm64-apple-darwin'
binary-path:     '/Users/dingkai/Code/IOI2024/NZOI/2022-3-2.gout'
relocations:
  - { offsetInCU: 0xBB, offset: 0xBB, size: 0x8, addend: 0x0, symName: __ZSt23__is_constant_evaluatedv, symObjAddr: 0x0, symBinAddr: 0x100003078, symSize: 0x8 }
  - { offsetInCU: 0x1259C, offset: 0x1259C, size: 0x8, addend: 0x0, symName: __ZStL8__ioinit, symObjAddr: 0x8A5D0, symBinAddr: 0x10001418C, symSize: 0x0 }
  - { offsetInCU: 0x12627, offset: 0x12627, size: 0x8, addend: 0x0, symName: _n, symObjAddr: 0x8A5D8, symBinAddr: 0x100014190, symSize: 0x0 }
  - { offsetInCU: 0x1263D, offset: 0x1263D, size: 0x8, addend: 0x0, symName: _m, symObjAddr: 0x8A5E0, symBinAddr: 0x100014198, symSize: 0x0 }
  - { offsetInCU: 0x12654, offset: 0x12654, size: 0x8, addend: 0x0, symName: _va, symObjAddr: 0x8A5E8, symBinAddr: 0x1000141A0, symSize: 0x0 }
  - { offsetInCU: 0x1266A, offset: 0x1266A, size: 0x8, addend: 0x0, symName: _vb, symObjAddr: 0x8A5F0, symBinAddr: 0x1000141A8, symSize: 0x0 }
  - { offsetInCU: 0x127A1, offset: 0x127A1, size: 0x8, addend: 0x0, symName: __Z15dependencyANameB5cxx11, symObjAddr: 0x8A5F8, symBinAddr: 0x1000141B0, symSize: 0x0 }
  - { offsetInCU: 0x127BB, offset: 0x127BB, size: 0x8, addend: 0x0, symName: __Z15dependencyBNameB5cxx11, symObjAddr: 0x8A610, symBinAddr: 0x1000141C8, symSize: 0x0 }
  - { offsetInCU: 0x128EC, offset: 0x128EC, size: 0x8, addend: 0x0, symName: __Z13dependencyMpAB5cxx11, symObjAddr: 0x8A628, symBinAddr: 0x1000141E0, symSize: 0x0 }
  - { offsetInCU: 0x12906, offset: 0x12906, size: 0x8, addend: 0x0, symName: __Z13dependencyMpBB5cxx11, symObjAddr: 0x8A640, symBinAddr: 0x1000141F8, symSize: 0x0 }
  - { offsetInCU: 0x13369, offset: 0x13369, size: 0x8, addend: 0x0, symName: __GLOBAL__sub_I_2022_3_2.cpp, symObjAddr: 0x6CF4, symBinAddr: 0x100009D6C, symSize: 0x14 }
  - { offsetInCU: 0x133FD, offset: 0x133FD, size: 0x8, addend: 0x0, symName: __ZNSt6vectorISt3mapINSt7__cxx1112basic_stringIcSt11char_traitsIcESaIcEEExSt4lessIS6_ESaISt4pairIKS6_xEEESaISD_EED1Ev, symObjAddr: 0x6C98, symBinAddr: 0x100009D10, symSize: 0x5C }
  - { offsetInCU: 0x1344D, offset: 0x1344D, size: 0x8, addend: 0x0, symName: __ZNSt6vectorINSt7__cxx1112basic_stringIcSt11char_traitsIcESaIcEEESaIS5_EED1Ev, symObjAddr: 0x6C3C, symBinAddr: 0x100009CB4, symSize: 0x5C }
  - { offsetInCU: 0x1347C, offset: 0x1347C, size: 0x8, addend: 0x0, symName: __Z41__static_initialization_and_destruction_0v, symObjAddr: 0x6B60, symBinAddr: 0x100009BD8, symSize: 0xDC }
  - { offsetInCU: 0x1346C, offset: 0x1346C, size: 0x8, addend: 0x0, symName: __ZNSt11__copy_moveILb0ELb0ESt26random_access_iterator_tagE12__assign_oneIxKxEEvPT_PT0_, symObjAddr: 0x6B38, symBinAddr: 0x100009BB0, symSize: 0x28 }
  - { offsetInCU: 0x134B6, offset: 0x134B6, size: 0x8, addend: 0x0, symName: __ZNSt11__copy_moveILb0ELb1ESt26random_access_iterator_tagE8__copy_mIKxxEEPT0_PT_S7_S5_, symObjAddr: 0x6AA8, symBinAddr: 0x100009B20, symSize: 0x90 }
  - { offsetInCU: 0x13520, offset: 0x13520, size: 0x8, addend: 0x0, symName: __ZSt14__copy_move_a2ILb0EPKxPxET1_T0_S4_S3_, symObjAddr: 0x6A7C, symBinAddr: 0x100009AF4, symSize: 0x2C }
  - { offsetInCU: 0x13584, offset: 0x13584, size: 0x8, addend: 0x0, symName: __ZSt12__niter_wrapIPxET_RKS1_S1_, symObjAddr: 0x6A64, symBinAddr: 0x100009ADC, symSize: 0x18 }
  - { offsetInCU: 0x135BD, offset: 0x135BD, size: 0x8, addend: 0x0, symName: __ZSt14__copy_move_a1ILb0EPKxPxET1_T0_S4_S3_, symObjAddr: 0x6A38, symBinAddr: 0x100009AB0, symSize: 0x2C }
  - { offsetInCU: 0x13621, offset: 0x13621, size: 0x8, addend: 0x0, symName: __ZSt13__copy_move_aILb0EN9__gnu_cxx17__normal_iteratorIPKxSt6vectorIxSaIxEEEEPxET1_T0_SA_S9_, symObjAddr: 0x69D8, symBinAddr: 0x100009A50, symSize: 0x60 }
  - { offsetInCU: 0x13685, offset: 0x13685, size: 0x8, addend: 0x0, symName: __ZSt12__miter_baseIN9__gnu_cxx17__normal_iteratorIPKxSt6vectorIxSaIxEEEEET_S8_, symObjAddr: 0x69C4, symBinAddr: 0x100009A3C, symSize: 0x14 }
  - { offsetInCU: 0x136B6, offset: 0x136B6, size: 0x8, addend: 0x0, symName: __ZSt4copyIN9__gnu_cxx17__normal_iteratorIPKxSt6vectorIxSaIxEEEEPxET0_T_SA_S9_, symObjAddr: 0x697C, symBinAddr: 0x1000099F4, symSize: 0x48 }
  - { offsetInCU: 0x13729, offset: 0x13729, size: 0x8, addend: 0x0, symName: __ZNSt10_Head_baseILm0ERKNSt7__cxx1112basic_stringIcSt11char_traitsIcESaIcEEELb0EE7_M_headERS8_, symObjAddr: 0x6964, symBinAddr: 0x1000099DC, symSize: 0x18 }
  - { offsetInCU: 0x13750, offset: 0x13750, size: 0x8, addend: 0x0, symName: __ZNSt20__uninitialized_copyILb1EE13__uninit_copyIN9__gnu_cxx17__normal_iteratorIPKxSt6vectorIxSaIxEEEEPxEET0_T_SC_SB_, symObjAddr: 0x6938, symBinAddr: 0x1000099B0, symSize: 0x2C }
  - { offsetInCU: 0x137C7, offset: 0x137C7, size: 0x8, addend: 0x0, symName: __ZNSt11_Tuple_implILm0EJRKNSt7__cxx1112basic_stringIcSt11char_traitsIcESaIcEEEEE7_M_headERS8_, symObjAddr: 0x691C, symBinAddr: 0x100009994, symSize: 0x1C }
  - { offsetInCU: 0x137EF, offset: 0x137EF, size: 0x8, addend: 0x0, symName: __ZSt18uninitialized_copyIN9__gnu_cxx17__normal_iteratorIPKxSt6vectorIxSaIxEEEEPxET0_T_SA_S9_, symObjAddr: 0x68E0, symBinAddr: 0x100009958, symSize: 0x3C }
  - { offsetInCU: 0x13868, offset: 0x13868, size: 0x8, addend: 0x0, symName: __ZNSt12_Vector_baseIxSaIxEE17_M_create_storageEm, symObjAddr: 0x6880, symBinAddr: 0x1000098F8, symSize: 0x60 }
  - { offsetInCU: 0x138F4, offset: 0x138F4, size: 0x8, addend: 0x0, symName: __ZNSt12_Vector_baseIxSaIxEE12_Vector_implC1ERKS0_, symObjAddr: 0x6834, symBinAddr: 0x1000098AC, symSize: 0x4C }
  - { offsetInCU: 0x13967, offset: 0x13967, size: 0x8, addend: 0x0, symName: __ZNK9__gnu_cxx5__ops15_Iter_less_iterclIPKxS4_EEbT_T0_, symObjAddr: 0x6800, symBinAddr: 0x100009878, symSize: 0x34 }
  - { offsetInCU: 0x139BD, offset: 0x139BD, size: 0x8, addend: 0x0, symName: __ZNSt8__lc_raiISt26random_access_iterator_tagS0_E6__cnd2IPKxEEbT_S5_, symObjAddr: 0x67E8, symBinAddr: 0x100009860, symSize: 0x18 }
  - { offsetInCU: 0x139EE, offset: 0x139EE, size: 0x8, addend: 0x0, symName: __ZNSt8__lc_raiISt26random_access_iterator_tagS0_E10__newlast1IPKxS4_EET_S5_S5_T0_S6_, symObjAddr: 0x677C, symBinAddr: 0x1000097F4, symSize: 0x6C }
  - { offsetInCU: 0x13A78, offset: 0x13A78, size: 0x8, addend: 0x0, symName: __ZSt12__get_helperILm0ERKNSt7__cxx1112basic_stringIcSt11char_traitsIcESaIcEEEJEERT0_RSt11_Tuple_implIXT_EJS8_DpT1_EE, symObjAddr: 0x6760, symBinAddr: 0x1000097D8, symSize: 0x1C }
  - { offsetInCU: 0x13AB8, offset: 0x13AB8, size: 0x8, addend: 0x0, symName: __ZSt22__uninitialized_copy_aIN9__gnu_cxx17__normal_iteratorIPKxSt6vectorIxSaIxEEEEPxxET0_T_SA_S9_RSaIT1_E, symObjAddr: 0x6730, symBinAddr: 0x1000097A8, symSize: 0x30 }
  - { offsetInCU: 0x13B7C, offset: 0x13B7C, size: 0x8, addend: 0x0, symName: __ZNSt12_Vector_baseIxSaIxEEC2EmRKS0_, symObjAddr: 0x66DC, symBinAddr: 0x100009754, symSize: 0x54 }
  - { offsetInCU: 0x13B9F, offset: 0x13B9F, size: 0x8, addend: 0x0, symName: __ZSt30__lexicographical_compare_implIPKxS1_N9__gnu_cxx5__ops15_Iter_less_iterEEbT_S5_T0_S6_T1_, symObjAddr: 0x65C0, symBinAddr: 0x100009638, symSize: 0x11C }
  - { offsetInCU: 0x13C22, offset: 0x13C22, size: 0x8, addend: 0x0, symName: __ZSt3getILm0EJRKNSt7__cxx1112basic_stringIcSt11char_traitsIcESaIcEEEEERNSt13tuple_elementIXT_ESt5tupleIJDpT0_EEE4typeERSC_, symObjAddr: 0x65A4, symBinAddr: 0x10000961C, symSize: 0x1C }
  - { offsetInCU: 0x13CBB, offset: 0x13CBB, size: 0x8, addend: 0x0, symName: __ZNSt6vectorIxSaIxEEC1ERKS1_, symObjAddr: 0x6490, symBinAddr: 0x100009508, symSize: 0x114 }
  - { offsetInCU: 0x13DB8, offset: 0x13DB8, size: 0x8, addend: 0x0, symName: __ZNSt25__lexicographical_compareILb0EE4__lcIPKxS3_EEbT_S4_T0_S5_, symObjAddr: 0x6448, symBinAddr: 0x1000094C0, symSize: 0x48 }
  - { offsetInCU: 0x13E26, offset: 0x13E26, size: 0x8, addend: 0x0, symName: __ZNK9__gnu_cxx17__normal_iteratorIPKxSt6vectorIxSaIxEEE4baseEv, symObjAddr: 0x6434, symBinAddr: 0x1000094AC, symSize: 0x14 }
  - { offsetInCU: 0x13F64, offset: 0x13F64, size: 0x8, addend: 0x0, symName: __ZNSt4pairIKNSt7__cxx1112basic_stringIcSt11char_traitsIcESaIcEEExEC1IJRS6_EJLm0EEJEJEEERSt5tupleIJDpT_EERSA_IJDpT1_EESt12_Index_tupleIJXspT0_EEESJ_IJXspT2_EEE, symObjAddr: 0x63E0, symBinAddr: 0x100009458, symSize: 0x54 }
  - { offsetInCU: 0x13FB6, offset: 0x13FB6, size: 0x8, addend: 0x0, symName: __ZNSt20_Rb_tree_key_compareISt4lessINSt7__cxx1112basic_stringIcSt11char_traitsIcESaIcEEEEEC2EOS8_, symObjAddr: 0x63C8, symBinAddr: 0x100009440, symSize: 0x18 }
  - { offsetInCU: 0x13FF7, offset: 0x13FF7, size: 0x8, addend: 0x0, symName: __ZNSt15__new_allocatorISt13_Rb_tree_nodeISt6vectorIxSaIxEEEE8allocateEmPKv, symObjAddr: 0x6328, symBinAddr: 0x1000093A0, symSize: 0xA0 }
  - { offsetInCU: 0x14066, offset: 0x14066, size: 0x8, addend: 0x0, symName: __ZSt30__lexicographical_compare_aux1IPKxS1_EbT_S2_T0_S3_, symObjAddr: 0x62EC, symBinAddr: 0x100009364, symSize: 0x3C }
  - { offsetInCU: 0x140E0, offset: 0x140E0, size: 0x8, addend: 0x0, symName: __ZSt12__niter_baseIPKxSt6vectorIxSaIxEEET_N9__gnu_cxx17__normal_iteratorIS5_T0_EE, symObjAddr: 0x62CC, symBinAddr: 0x100009344, symSize: 0x20 }
  - { offsetInCU: 0x1415D, offset: 0x1415D, size: 0x8, addend: 0x0, symName: __ZNSt15__new_allocatorISt13_Rb_tree_nodeINSt7__cxx1112basic_stringIcSt11char_traitsIcESaIcEEEEE8allocateEmPKv, symObjAddr: 0x6250, symBinAddr: 0x1000092C8, symSize: 0x7C }
  - { offsetInCU: 0x1429A, offset: 0x1429A, size: 0x8, addend: 0x0, symName: __ZNSt4pairIKNSt7__cxx1112basic_stringIcSt11char_traitsIcESaIcEEExEC1IJRS6_EJEEESt21piecewise_construct_tSt5tupleIJDpT_EESB_IJDpT0_EE, symObjAddr: 0x6214, symBinAddr: 0x10000928C, symSize: 0x3C }
  - { offsetInCU: 0x142E0, offset: 0x142E0, size: 0x8, addend: 0x0, symName: __ZNSt11_Tuple_implILm0EJRKNSt7__cxx1112basic_stringIcSt11char_traitsIcESaIcEEEEEC2EOS8_, symObjAddr: 0x61EC, symBinAddr: 0x100009264, symSize: 0x28 }
  - { offsetInCU: 0x143B3, offset: 0x143B3, size: 0x8, addend: 0x0, symName: __ZNSt3mapINSt7__cxx1112basic_stringIcSt11char_traitsIcESaIcEEExSt4lessIS5_ESaISt4pairIKS5_xEEEC1EOSC_, symObjAddr: 0x61C4, symBinAddr: 0x10000923C, symSize: 0x28 }
  - { offsetInCU: 0x14416, offset: 0x14416, size: 0x8, addend: 0x0, symName: __ZNSt8_Rb_treeINSt7__cxx1112basic_stringIcSt11char_traitsIcESaIcEEESt4pairIKS5_xESt10_Select1stIS8_ESt4lessIS5_ESaIS8_EEC1EOSE_, symObjAddr: 0x619C, symBinAddr: 0x100009214, symSize: 0x28 }
  - { offsetInCU: 0x14477, offset: 0x14477, size: 0x8, addend: 0x0, symName: __ZNSt8_Rb_treeINSt7__cxx1112basic_stringIcSt11char_traitsIcESaIcEEESt4pairIKS5_xESt10_Select1stIS8_ESt4lessIS5_ESaIS8_EE13_Rb_tree_implISC_Lb1EEC1EOSG_, symObjAddr: 0x6130, symBinAddr: 0x1000091A8, symSize: 0x6C }
  - { offsetInCU: 0x14465, offset: 0x14465, size: 0x8, addend: 0x0, symName: __ZSt7forwardISt3mapINSt7__cxx1112basic_stringIcSt11char_traitsIcESaIcEEExSt4lessIS6_ESaISt4pairIKS6_xEEEEOT_RNSt16remove_referenceISE_E4typeE, symObjAddr: 0x611C, symBinAddr: 0x100009194, symSize: 0x14 }
  - { offsetInCU: 0x14499, offset: 0x14499, size: 0x8, addend: 0x0, symName: __ZNSt8_Rb_treeINSt7__cxx1112basic_stringIcSt11char_traitsIcESaIcEEESt4pairIKS5_xESt10_Select1stIS8_ESt4lessIS5_ESaIS8_EE8_M_eraseEPSt13_Rb_tree_nodeIS8_E, symObjAddr: 0x60B8, symBinAddr: 0x100009130, symSize: 0x64 }
  - { offsetInCU: 0x14582, offset: 0x14582, size: 0x8, addend: 0x0, symName: __ZNSt15__new_allocatorISt13_Rb_tree_nodeISt4pairIKNSt7__cxx1112basic_stringIcSt11char_traitsIcESaIcEEExEEED2Ev, symObjAddr: 0x60A4, symBinAddr: 0x10000911C, symSize: 0x14 }
  - { offsetInCU: 0x145B9, offset: 0x145B9, size: 0x8, addend: 0x0, symName: __ZSt7forwardINSt7__cxx1112basic_stringIcSt11char_traitsIcESaIcEEEEOT_RNSt16remove_referenceIS6_E4typeE, symObjAddr: 0x6090, symBinAddr: 0x100009108, symSize: 0x14 }
  - { offsetInCU: 0x14651, offset: 0x14651, size: 0x8, addend: 0x0, symName: __ZSt29__lexicographical_compare_auxIN9__gnu_cxx17__normal_iteratorIPKxSt6vectorIxSaIxEEEES7_EbT_S8_T0_S9_, symObjAddr: 0x601C, symBinAddr: 0x100009094, symSize: 0x74 }
  - { offsetInCU: 0x146D7, offset: 0x146D7, size: 0x8, addend: 0x0, symName: __ZN9__gnu_cxx16__aligned_membufISt6vectorIxSaIxEEE7_M_addrEv, symObjAddr: 0x6008, symBinAddr: 0x100009080, symSize: 0x14 }
  - { offsetInCU: 0x1476D, offset: 0x1476D, size: 0x8, addend: 0x0, symName: __ZN9__gnu_cxx16__aligned_membufINSt7__cxx1112basic_stringIcSt11char_traitsIcESaIcEEEE7_M_addrEv, symObjAddr: 0x5FF4, symBinAddr: 0x10000906C, symSize: 0x14 }
  - { offsetInCU: 0x1479B, offset: 0x1479B, size: 0x8, addend: 0x0, symName: __ZNK9__gnu_cxx16__aligned_membufISt4pairIKNSt7__cxx1112basic_stringIcSt11char_traitsIcESaIcEEExEE7_M_addrEv, symObjAddr: 0x5FE0, symBinAddr: 0x100009058, symSize: 0x14 }
  - { offsetInCU: 0x147C5, offset: 0x147C5, size: 0x8, addend: 0x0, symName: __ZNSt15__new_allocatorISt13_Rb_tree_nodeISt4pairIKNSt7__cxx1112basic_stringIcSt11char_traitsIcESaIcEEExEEE10deallocateEPSA_m, symObjAddr: 0x5FA4, symBinAddr: 0x10000901C, symSize: 0x3C }
  - { offsetInCU: 0x1489E, offset: 0x1489E, size: 0x8, addend: 0x0, symName: __ZNSt4pairIKNSt7__cxx1112basic_stringIcSt11char_traitsIcESaIcEEExED1Ev, symObjAddr: 0x5F84, symBinAddr: 0x100008FFC, symSize: 0x20 }
  - { offsetInCU: 0x14944, offset: 0x14944, size: 0x8, addend: 0x0, symName: __ZNSt5tupleIJRKNSt7__cxx1112basic_stringIcSt11char_traitsIcESaIcEEEEEC1EOS8_, symObjAddr: 0x5F5C, symBinAddr: 0x100008FD4, symSize: 0x28 }
  - { offsetInCU: 0x14927, offset: 0x14927, size: 0x8, addend: 0x0, symName: __ZNSt15__new_allocatorISt13_Rb_tree_nodeISt4pairIKNSt7__cxx1112basic_stringIcSt11char_traitsIcESaIcEEExEEE8allocateEmPKv, symObjAddr: 0x5EBC, symBinAddr: 0x100008F34, symSize: 0xA0 }
  - { offsetInCU: 0x14A0D, offset: 0x14A0D, size: 0x8, addend: 0x0, symName: __ZSt4moveIRSt3mapINSt7__cxx1112basic_stringIcSt11char_traitsIcESaIcEEExSt4lessIS6_ESaISt4pairIKS6_xEEEEONSt16remove_referenceIT_E4typeEOSG_, symObjAddr: 0x5EA8, symBinAddr: 0x100008F20, symSize: 0x14 }
  - { offsetInCU: 0x14ADB, offset: 0x14ADB, size: 0x8, addend: 0x0, symName: __ZNSt8_Rb_treeINSt7__cxx1112basic_stringIcSt11char_traitsIcESaIcEEESt4pairIKS5_xESt10_Select1stIS8_ESt4lessIS5_ESaIS8_EED1Ev, symObjAddr: 0x5E74, symBinAddr: 0x100008EEC, symSize: 0x34 }
  - { offsetInCU: 0x14B4C, offset: 0x14B4C, size: 0x8, addend: 0x0, symName: __ZNSt8_Rb_treeINSt7__cxx1112basic_stringIcSt11char_traitsIcESaIcEEESt4pairIKS5_xESt10_Select1stIS8_ESt4lessIS5_ESaIS8_EE13_Rb_tree_implISC_Lb1EEC1Ev, symObjAddr: 0x5E30, symBinAddr: 0x100008EA8, symSize: 0x44 }
  - { offsetInCU: 0x14B94, offset: 0x14B94, size: 0x8, addend: 0x0, symName: __ZNSt8_Rb_treeISt6vectorIxSaIxEES2_St9_IdentityIS2_ESt4lessIS2_ESaIS2_EE17_M_construct_nodeIJRKS2_EEEvPSt13_Rb_tree_nodeIS2_EDpOT_, symObjAddr: 0x5D2C, symBinAddr: 0x100008DA4, symSize: 0x104 }
  - { offsetInCU: 0x14C47, offset: 0x14C47, size: 0x8, addend: 0x0, symName: __ZNSt8_Rb_treeISt6vectorIxSaIxEES2_St9_IdentityIS2_ESt4lessIS2_ESaIS2_EE11_M_get_nodeEv, symObjAddr: 0x5CF0, symBinAddr: 0x100008D68, symSize: 0x3C }
  - { offsetInCU: 0x14C97, offset: 0x14C97, size: 0x8, addend: 0x0, symName: __ZSt23lexicographical_compareIN9__gnu_cxx17__normal_iteratorIPKxSt6vectorIxSaIxEEEES7_EbT_S8_T0_S9_, symObjAddr: 0x5CB8, symBinAddr: 0x100008D30, symSize: 0x38 }
  - { offsetInCU: 0x14D05, offset: 0x14D05, size: 0x8, addend: 0x0, symName: __ZNKSt6vectorIxSaIxEE5beginEv, symObjAddr: 0x5C94, symBinAddr: 0x100008D0C, symSize: 0x24 }
  - { offsetInCU: 0x14D59, offset: 0x14D59, size: 0x8, addend: 0x0, symName: __ZNSt15__new_allocatorISt13_Rb_tree_nodeISt6vectorIxSaIxEEEE10deallocateEPS4_m, symObjAddr: 0x5C58, symBinAddr: 0x100008CD0, symSize: 0x3C }
  - { offsetInCU: 0x14DCA, offset: 0x14DCA, size: 0x8, addend: 0x0, symName: __ZN9__gnu_cxx16__aligned_membufISt6vectorIxSaIxEEE6_M_ptrEv, symObjAddr: 0x5C3C, symBinAddr: 0x100008CB4, symSize: 0x1C }
  - { offsetInCU: 0x14DF4, offset: 0x14DF4, size: 0x8, addend: 0x0, symName: __ZNSt8_Rb_treeINSt7__cxx1112basic_stringIcSt11char_traitsIcESaIcEEES5_St9_IdentityIS5_ESt4lessIS5_ESaIS5_EE17_M_construct_nodeIJRKS5_EEEvPSt13_Rb_tree_nodeIS5_EDpOT_, symObjAddr: 0x5B38, symBinAddr: 0x100008BB0, symSize: 0x104 }
  - { offsetInCU: 0x14EA7, offset: 0x14EA7, size: 0x8, addend: 0x0, symName: __ZNSt8_Rb_treeINSt7__cxx1112basic_stringIcSt11char_traitsIcESaIcEEES5_St9_IdentityIS5_ESt4lessIS5_ESaIS5_EE11_M_get_nodeEv, symObjAddr: 0x5AFC, symBinAddr: 0x100008B74, symSize: 0x3C }
  - { offsetInCU: 0x14EFB, offset: 0x14EFB, size: 0x8, addend: 0x0, symName: __ZNSt15__new_allocatorISt13_Rb_tree_nodeINSt7__cxx1112basic_stringIcSt11char_traitsIcESaIcEEEEE10deallocateEPS7_m, symObjAddr: 0x5ACC, symBinAddr: 0x100008B44, symSize: 0x30 }
  - { offsetInCU: 0x14F6C, offset: 0x14F6C, size: 0x8, addend: 0x0, symName: __ZN9__gnu_cxx16__aligned_membufINSt7__cxx1112basic_stringIcSt11char_traitsIcESaIcEEEE6_M_ptrEv, symObjAddr: 0x5AB0, symBinAddr: 0x100008B28, symSize: 0x1C }
  - { offsetInCU: 0x14F96, offset: 0x14F96, size: 0x8, addend: 0x0, symName: __ZNK9__gnu_cxx16__aligned_membufISt4pairIKNSt7__cxx1112basic_stringIcSt11char_traitsIcESaIcEEExEE6_M_ptrEv, symObjAddr: 0x5A94, symBinAddr: 0x100008B0C, symSize: 0x1C }
  - { offsetInCU: 0x14FC8, offset: 0x14FC8, size: 0x8, addend: 0x0, symName: __ZSt7forwardIRPSt13_Rb_tree_nodeISt4pairIKNSt7__cxx1112basic_stringIcSt11char_traitsIcESaIcEEExEEEOT_RNSt16remove_referenceISD_E4typeE, symObjAddr: 0x5A80, symBinAddr: 0x100008AF8, symSize: 0x14 }
  - { offsetInCU: 0x150D7, offset: 0x150D7, size: 0x8, addend: 0x0, symName: __ZNSt8_Rb_treeINSt7__cxx1112basic_stringIcSt11char_traitsIcESaIcEEESt4pairIKS5_xESt10_Select1stIS8_ESt4lessIS5_ESaIS8_EE21_M_get_Node_allocatorEv, symObjAddr: 0x5A6C, symBinAddr: 0x100008AE4, symSize: 0x14 }
  - { offsetInCU: 0x150FD, offset: 0x150FD, size: 0x8, addend: 0x0, symName: __ZSt8_DestroyISt3mapINSt7__cxx1112basic_stringIcSt11char_traitsIcESaIcEEExSt4lessIS6_ESaISt4pairIKS6_xEEEEvPT_, symObjAddr: 0x5A4C, symBinAddr: 0x100008AC4, symSize: 0x20 }
  - { offsetInCU: 0x151B1, offset: 0x151B1, size: 0x8, addend: 0x0, symName: __ZNSt3mapINSt7__cxx1112basic_stringIcSt11char_traitsIcESaIcEEExSt4lessIS5_ESaISt4pairIKS5_xEEED1Ev, symObjAddr: 0x5A2C, symBinAddr: 0x100008AA4, symSize: 0x20 }
  - { offsetInCU: 0x15172, offset: 0x15172, size: 0x8, addend: 0x0, symName: __ZSt19__relocate_object_aISt3mapINSt7__cxx1112basic_stringIcSt11char_traitsIcESaIcEEExSt4lessIS6_ESaISt4pairIKS6_xEEESD_SaISD_EEvPT_PT0_RT1_, symObjAddr: 0x595C, symBinAddr: 0x1000089D4, symSize: 0xD0 }
  - { offsetInCU: 0x152A6, offset: 0x152A6, size: 0x8, addend: 0x0, symName: __ZSt10_ConstructISt3mapINSt7__cxx1112basic_stringIcSt11char_traitsIcESaIcEEExSt4lessIS6_ESaISt4pairIKS6_xEEEJEEvPT_DpOT0_, symObjAddr: 0x5924, symBinAddr: 0x10000899C, symSize: 0x38 }
  - { offsetInCU: 0x1535B, offset: 0x1535B, size: 0x8, addend: 0x0, symName: __ZNSt3mapINSt7__cxx1112basic_stringIcSt11char_traitsIcESaIcEEExSt4lessIS5_ESaISt4pairIKS5_xEEEC1Ev, symObjAddr: 0x5904, symBinAddr: 0x10000897C, symSize: 0x20 }
  - { offsetInCU: 0x153B1, offset: 0x153B1, size: 0x8, addend: 0x0, symName: __ZNSt8_Rb_treeINSt7__cxx1112basic_stringIcSt11char_traitsIcESaIcEEESt4pairIKS5_xESt10_Select1stIS8_ESt4lessIS5_ESaIS8_EEC1Ev, symObjAddr: 0x58E4, symBinAddr: 0x10000895C, symSize: 0x20 }
  - { offsetInCU: 0x15413, offset: 0x15413, size: 0x8, addend: 0x0, symName: __ZNSt8_Rb_treeINSt7__cxx1112basic_stringIcSt11char_traitsIcESaIcEEESt4pairIKS5_xESt10_Select1stIS8_ESt4lessIS5_ESaIS8_EE13_Rb_tree_implISC_Lb1EED1Ev, symObjAddr: 0x58B8, symBinAddr: 0x100008930, symSize: 0x2C }
  - { offsetInCU: 0x153C4, offset: 0x153C4, size: 0x8, addend: 0x0, symName: __ZSt11__addressofISt3mapINSt7__cxx1112basic_stringIcSt11char_traitsIcESaIcEEExSt4lessIS6_ESaISt4pairIKS6_xEEEEPT_RSE_, symObjAddr: 0x58A4, symBinAddr: 0x10000891C, symSize: 0x14 }
  - { offsetInCU: 0x15408, offset: 0x15408, size: 0x8, addend: 0x0, symName: __ZSt8_DestroyINSt7__cxx1112basic_stringIcSt11char_traitsIcESaIcEEEEvPT_, symObjAddr: 0x5884, symBinAddr: 0x1000088FC, symSize: 0x20 }
  - { offsetInCU: 0x15438, offset: 0x15438, size: 0x8, addend: 0x0, symName: __ZSt19__relocate_object_aINSt7__cxx1112basic_stringIcSt11char_traitsIcESaIcEEES5_SaIS5_EEvPT_PT0_RT1_, symObjAddr: 0x57B4, symBinAddr: 0x10000882C, symSize: 0xD0 }
  - { offsetInCU: 0x1556C, offset: 0x1556C, size: 0x8, addend: 0x0, symName: __ZSt10_ConstructINSt7__cxx1112basic_stringIcSt11char_traitsIcESaIcEEEJEEvPT_DpOT0_, symObjAddr: 0x5788, symBinAddr: 0x100008800, symSize: 0x2C }
  - { offsetInCU: 0x155A6, offset: 0x155A6, size: 0x8, addend: 0x0, symName: __ZSt11__addressofINSt7__cxx1112basic_stringIcSt11char_traitsIcESaIcEEEEPT_RS6_, symObjAddr: 0x5774, symBinAddr: 0x1000087EC, symSize: 0x14 }
  - { offsetInCU: 0x155EE, offset: 0x155EE, size: 0x8, addend: 0x0, symName: __ZNSt8_Rb_treeISt6vectorIxSaIxEES2_St9_IdentityIS2_ESt4lessIS2_ESaIS2_EE14_M_create_nodeIJRKS2_EEEPSt13_Rb_tree_nodeIS2_EDpOT_, symObjAddr: 0x5734, symBinAddr: 0x1000087AC, symSize: 0x40 }
  - { offsetInCU: 0x1564A, offset: 0x1564A, size: 0x8, addend: 0x0, symName: __ZSt7forwardIRPSt13_Rb_tree_nodeISt6vectorIxSaIxEEEEOT_RNSt16remove_referenceIS7_E4typeE, symObjAddr: 0x5720, symBinAddr: 0x100008798, symSize: 0x14 }
  - { offsetInCU: 0x1567A, offset: 0x1567A, size: 0x8, addend: 0x0, symName: __ZStltIxSaIxEEbRKSt6vectorIT_T0_ES6_, symObjAddr: 0x56B4, symBinAddr: 0x10000872C, symSize: 0x6C }
  - { offsetInCU: 0x156C4, offset: 0x156C4, size: 0x8, addend: 0x0, symName: __ZSt14__relocate_a_1IxxENSt9enable_ifIXsrSt24__is_bitwise_relocatableIT_vE5valueEPS2_E4typeES4_S4_S4_RSaIT0_E, symObjAddr: 0x564C, symBinAddr: 0x1000086C4, symSize: 0x68 }
  - { offsetInCU: 0x1573E, offset: 0x1573E, size: 0x8, addend: 0x0, symName: __ZSt12__niter_baseIPxET_S1_, symObjAddr: 0x5638, symBinAddr: 0x1000086B0, symSize: 0x14 }
  - { offsetInCU: 0x15773, offset: 0x15773, size: 0x8, addend: 0x0, symName: __ZNSt15__new_allocatorIxE8allocateEmPKv, symObjAddr: 0x55BC, symBinAddr: 0x100008634, symSize: 0x7C }
  - { offsetInCU: 0x157E6, offset: 0x157E6, size: 0x8, addend: 0x0, symName: __ZNKSt12_Vector_baseIxSaIxEE19_M_get_Tp_allocatorEv, symObjAddr: 0x55A8, symBinAddr: 0x100008620, symSize: 0x14 }
  - { offsetInCU: 0x1580C, offset: 0x1580C, size: 0x8, addend: 0x0, symName: __ZNSt6vectorIxSaIxEE11_S_max_sizeERKS0_, symObjAddr: 0x5554, symBinAddr: 0x1000085CC, symSize: 0x54 }
  - { offsetInCU: 0x1591D, offset: 0x1591D, size: 0x8, addend: 0x0, symName: __ZNSt13_Rb_tree_nodeISt6vectorIxSaIxEEE9_M_valptrEv, symObjAddr: 0x5534, symBinAddr: 0x1000085AC, symSize: 0x20 }
  - { offsetInCU: 0x15947, offset: 0x15947, size: 0x8, addend: 0x0, symName: __ZNSt8_Rb_treeISt6vectorIxSaIxEES2_St9_IdentityIS2_ESt4lessIS2_ESaIS2_EE21_M_get_Node_allocatorEv, symObjAddr: 0x5520, symBinAddr: 0x100008598, symSize: 0x14 }
  - { offsetInCU: 0x15971, offset: 0x15971, size: 0x8, addend: 0x0, symName: __ZNSt8_Rb_treeINSt7__cxx1112basic_stringIcSt11char_traitsIcESaIcEEES5_St9_IdentityIS5_ESt4lessIS5_ESaIS5_EE14_M_create_nodeIJRKS5_EEEPSt13_Rb_tree_nodeIS5_EDpOT_, symObjAddr: 0x54E0, symBinAddr: 0x100008558, symSize: 0x40 }
  - { offsetInCU: 0x159CD, offset: 0x159CD, size: 0x8, addend: 0x0, symName: __ZSt7forwardIRPSt13_Rb_tree_nodeINSt7__cxx1112basic_stringIcSt11char_traitsIcESaIcEEEEEOT_RNSt16remove_referenceISA_E4typeE, symObjAddr: 0x54CC, symBinAddr: 0x100008544, symSize: 0x14 }
  - { offsetInCU: 0x15A60, offset: 0x15A60, size: 0x8, addend: 0x0, symName: __ZNSt13_Rb_tree_nodeINSt7__cxx1112basic_stringIcSt11char_traitsIcESaIcEEEE9_M_valptrEv, symObjAddr: 0x54AC, symBinAddr: 0x100008524, symSize: 0x20 }
  - { offsetInCU: 0x15A8A, offset: 0x15A8A, size: 0x8, addend: 0x0, symName: __ZNSt8_Rb_treeINSt7__cxx1112basic_stringIcSt11char_traitsIcESaIcEEES5_St9_IdentityIS5_ESt4lessIS5_ESaIS5_EE21_M_get_Node_allocatorEv, symObjAddr: 0x5498, symBinAddr: 0x100008510, symSize: 0x14 }
  - { offsetInCU: 0x15AB4, offset: 0x15AB4, size: 0x8, addend: 0x0, symName: __ZNKSt10_Select1stISt4pairIKNSt7__cxx1112basic_stringIcSt11char_traitsIcESaIcEEExEEclERKS8_, symObjAddr: 0x5480, symBinAddr: 0x1000084F8, symSize: 0x18 }
  - { offsetInCU: 0x15AEE, offset: 0x15AEE, size: 0x8, addend: 0x0, symName: __ZNKSt13_Rb_tree_nodeISt4pairIKNSt7__cxx1112basic_stringIcSt11char_traitsIcESaIcEEExEE9_M_valptrEv, symObjAddr: 0x5460, symBinAddr: 0x1000084D8, symSize: 0x20 }
  - { offsetInCU: 0x15B1A, offset: 0x15B1A, size: 0x8, addend: 0x0, symName: __ZSt7forwardIRPSt18_Rb_tree_node_baseEOT_RNSt16remove_referenceIS3_E4typeE, symObjAddr: 0x544C, symBinAddr: 0x1000084C4, symSize: 0x14 }
  - { offsetInCU: 0x15C1A, offset: 0x15C1A, size: 0x8, addend: 0x0, symName: __ZNSt4pairIPSt18_Rb_tree_node_baseS1_EC1IRPSt13_Rb_tree_nodeIS_IKNSt7__cxx1112basic_stringIcSt11char_traitsIcESaIcEEExEERS1_Lb1EEEOT_OT0_, symObjAddr: 0x5404, symBinAddr: 0x10000847C, symSize: 0x48 }
  - { offsetInCU: 0x15BDA, offset: 0x15BDA, size: 0x8, addend: 0x0, symName: __ZNSt8_Rb_treeINSt7__cxx1112basic_stringIcSt11char_traitsIcESaIcEEESt4pairIKS5_xESt10_Select1stIS8_ESt4lessIS5_ESaIS8_EE5beginEv, symObjAddr: 0x53DC, symBinAddr: 0x100008454, symSize: 0x28 }
  - { offsetInCU: 0x15C04, offset: 0x15C04, size: 0x8, addend: 0x0, symName: __ZNSt8_Rb_treeINSt7__cxx1112basic_stringIcSt11char_traitsIcESaIcEEESt4pairIKS5_xESt10_Select1stIS8_ESt4lessIS5_ESaIS8_EE11_M_put_nodeEPSt13_Rb_tree_nodeIS8_E, symObjAddr: 0x5390, symBinAddr: 0x100008408, symSize: 0x4C }
  - { offsetInCU: 0x15C70, offset: 0x15C70, size: 0x8, addend: 0x0, symName: __ZNSt8_Rb_treeINSt7__cxx1112basic_stringIcSt11char_traitsIcESaIcEEESt4pairIKS5_xESt10_Select1stIS8_ESt4lessIS5_ESaIS8_EE15_M_destroy_nodeEPSt13_Rb_tree_nodeIS8_E, symObjAddr: 0x5330, symBinAddr: 0x1000083A8, symSize: 0x60 }
  - { offsetInCU: 0x15CFE, offset: 0x15CFE, size: 0x8, addend: 0x0, symName: __ZNSt8_Rb_treeINSt7__cxx1112basic_stringIcSt11char_traitsIcESaIcEEESt4pairIKS5_xESt10_Select1stIS8_ESt4lessIS5_ESaIS8_EE17_M_construct_nodeIJRKSt21piecewise_construct_tSt5tupleIJRS7_EESJ_IJEEEEEvPSt13_Rb_tree_nodeIS8_EDpOT_, symObjAddr: 0x51B4, symBinAddr: 0x10000822C, symSize: 0x17C }
  - { offsetInCU: 0x15DF1, offset: 0x15DF1, size: 0x8, addend: 0x0, symName: __ZNSt8_Rb_treeINSt7__cxx1112basic_stringIcSt11char_traitsIcESaIcEEESt4pairIKS5_xESt10_Select1stIS8_ESt4lessIS5_ESaIS8_EE11_M_get_nodeEv, symObjAddr: 0x5178, symBinAddr: 0x1000081F0, symSize: 0x3C }
  - { offsetInCU: 0x15E49, offset: 0x15E49, size: 0x8, addend: 0x0, symName: __ZN9__gnu_cxx16__aligned_membufISt4pairIKNSt7__cxx1112basic_stringIcSt11char_traitsIcESaIcEEExEE7_M_addrEv, symObjAddr: 0x5164, symBinAddr: 0x1000081DC, symSize: 0x14 }
  - { offsetInCU: 0x15E6F, offset: 0x15E6F, size: 0x8, addend: 0x0, symName: __ZNSt8_Rb_treeINSt7__cxx1112basic_stringIcSt11char_traitsIcESaIcEEESt4pairIKS5_xESt10_Select1stIS8_ESt4lessIS5_ESaIS8_EE7_S_leftEPSt18_Rb_tree_node_base, symObjAddr: 0x514C, symBinAddr: 0x1000081C4, symSize: 0x18 }
  - { offsetInCU: 0x15E9B, offset: 0x15E9B, size: 0x8, addend: 0x0, symName: __ZNKSt8_Rb_treeINSt7__cxx1112basic_stringIcSt11char_traitsIcESaIcEEESt4pairIKS5_xESt10_Select1stIS8_ESt4lessIS5_ESaIS8_EE9_M_mbeginEv, symObjAddr: 0x5134, symBinAddr: 0x1000081AC, symSize: 0x18 }
  - { offsetInCU: 0x15EC1, offset: 0x15EC1, size: 0x8, addend: 0x0, symName: __ZNSt12_Destroy_auxILb0EE9__destroyIPSt3mapINSt7__cxx1112basic_stringIcSt11char_traitsIcESaIcEEExSt4lessIS8_ESaISt4pairIKS8_xEEEEEvT_SH_, symObjAddr: 0x50E8, symBinAddr: 0x100008160, symSize: 0x4C }
  - { offsetInCU: 0x15F00, offset: 0x15F00, size: 0x8, addend: 0x0, symName: __ZSt14__relocate_a_1IPSt3mapINSt7__cxx1112basic_stringIcSt11char_traitsIcESaIcEEExSt4lessIS6_ESaISt4pairIKS6_xEEESE_SaISD_EET0_T_SH_SG_RT1_, symObjAddr: 0x5064, symBinAddr: 0x1000080DC, symSize: 0x84 }
  - { offsetInCU: 0x15F83, offset: 0x15F83, size: 0x8, addend: 0x0, symName: __ZSt12__niter_baseIPSt3mapINSt7__cxx1112basic_stringIcSt11char_traitsIcESaIcEEExSt4lessIS6_ESaISt4pairIKS6_xEEEET_SF_, symObjAddr: 0x5050, symBinAddr: 0x1000080C8, symSize: 0x14 }
  - { offsetInCU: 0x15FB8, offset: 0x15FB8, size: 0x8, addend: 0x0, symName: __ZNSt15__new_allocatorISt3mapINSt7__cxx1112basic_stringIcSt11char_traitsIcESaIcEEExSt4lessIS6_ESaISt4pairIKS6_xEEEE8allocateEmPKv, symObjAddr: 0x4FC0, symBinAddr: 0x100008038, symSize: 0x90 }
  - { offsetInCU: 0x16027, offset: 0x16027, size: 0x8, addend: 0x0, symName: __ZNSt27__uninitialized_default_n_1ILb0EE18__uninit_default_nIPSt3mapINSt7__cxx1112basic_stringIcSt11char_traitsIcESaIcEEExSt4lessIS8_ESaISt4pairIKS8_xEEEmEET_SH_T0_, symObjAddr: 0x4F68, symBinAddr: 0x100007FE0, symSize: 0x58 }
  - { offsetInCU: 0x16097, offset: 0x16097, size: 0x8, addend: 0x0, symName: __ZNSt12_Destroy_auxILb0EE9__destroyIPNSt7__cxx1112basic_stringIcSt11char_traitsIcESaIcEEEEEvT_S9_, symObjAddr: 0x4F1C, symBinAddr: 0x100007F94, symSize: 0x4C }
  - { offsetInCU: 0x160D6, offset: 0x160D6, size: 0x8, addend: 0x0, symName: __ZSt14__relocate_a_1IPNSt7__cxx1112basic_stringIcSt11char_traitsIcESaIcEEES6_SaIS5_EET0_T_S9_S8_RT1_, symObjAddr: 0x4E98, symBinAddr: 0x100007F10, symSize: 0x84 }
  - { offsetInCU: 0x16159, offset: 0x16159, size: 0x8, addend: 0x0, symName: __ZSt12__niter_baseIPNSt7__cxx1112basic_stringIcSt11char_traitsIcESaIcEEEET_S7_, symObjAddr: 0x4E84, symBinAddr: 0x100007EFC, symSize: 0x14 }
  - { offsetInCU: 0x1618E, offset: 0x1618E, size: 0x8, addend: 0x0, symName: __ZNSt15__new_allocatorINSt7__cxx1112basic_stringIcSt11char_traitsIcESaIcEEEE8allocateEmPKv, symObjAddr: 0x4E08, symBinAddr: 0x100007E80, symSize: 0x7C }
  - { offsetInCU: 0x161FD, offset: 0x161FD, size: 0x8, addend: 0x0, symName: __ZNSt27__uninitialized_default_n_1ILb0EE18__uninit_default_nIPNSt7__cxx1112basic_stringIcSt11char_traitsIcESaIcEEEmEET_S9_T0_, symObjAddr: 0x4DB0, symBinAddr: 0x100007E28, symSize: 0x58 }
  - { offsetInCU: 0x16275, offset: 0x16275, size: 0x8, addend: 0x0, symName: __ZNK9__gnu_cxx16__aligned_membufISt6vectorIxSaIxEEE7_M_addrEv, symObjAddr: 0x4D9C, symBinAddr: 0x100007E14, symSize: 0x14 }
  - { offsetInCU: 0x162A1, offset: 0x162A1, size: 0x8, addend: 0x0, symName: __ZSt7forwardISt17_Rb_tree_iteratorISt6vectorIxSaIxEEEEOT_RNSt16remove_referenceIS5_E4typeE, symObjAddr: 0x4D88, symBinAddr: 0x100007E00, symSize: 0x14 }
  - { offsetInCU: 0x162E0, offset: 0x162E0, size: 0x8, addend: 0x0, symName: __ZNKSt8_Rb_treeISt6vectorIxSaIxEES2_St9_IdentityIS2_ESt4lessIS2_ESaIS2_EE11_Alloc_nodeclIRKS2_EEPSt13_Rb_tree_nodeIS2_EOT_, symObjAddr: 0x4D4C, symBinAddr: 0x100007DC4, symSize: 0x3C }
  - { offsetInCU: 0x1631F, offset: 0x1631F, size: 0x8, addend: 0x0, symName: __ZNSt8_Rb_treeISt6vectorIxSaIxEES2_St9_IdentityIS2_ESt4lessIS2_ESaIS2_EE6_S_keyEPKSt18_Rb_tree_node_base, symObjAddr: 0x4D30, symBinAddr: 0x100007DA8, symSize: 0x1C }
  - { offsetInCU: 0x1634B, offset: 0x1634B, size: 0x8, addend: 0x0, symName: __ZNSt17_Rb_tree_iteratorISt6vectorIxSaIxEEEmmEv, symObjAddr: 0x4D00, symBinAddr: 0x100007D78, symSize: 0x30 }
  - { offsetInCU: 0x16418, offset: 0x16418, size: 0x8, addend: 0x0, symName: __ZNSt4pairIPSt18_Rb_tree_node_baseS1_EC1IRPSt13_Rb_tree_nodeISt6vectorIxSaIxEEERS1_Lb1EEEOT_OT0_, symObjAddr: 0x4CB8, symBinAddr: 0x100007D30, symSize: 0x48 }
  - { offsetInCU: 0x16403, offset: 0x16403, size: 0x8, addend: 0x0, symName: __ZSteqRKSt17_Rb_tree_iteratorISt6vectorIxSaIxEEES5_, symObjAddr: 0x4C88, symBinAddr: 0x100007D00, symSize: 0x30 }
  - { offsetInCU: 0x1643F, offset: 0x1643F, size: 0x8, addend: 0x0, symName: __ZNSt8_Rb_treeISt6vectorIxSaIxEES2_St9_IdentityIS2_ESt4lessIS2_ESaIS2_EE5beginEv, symObjAddr: 0x4C60, symBinAddr: 0x100007CD8, symSize: 0x28 }
  - { offsetInCU: 0x16469, offset: 0x16469, size: 0x8, addend: 0x0, symName: __ZNKSt4lessISt6vectorIxSaIxEEEclERKS2_S5_, symObjAddr: 0x4C34, symBinAddr: 0x100007CAC, symSize: 0x2C }
  - { offsetInCU: 0x164AF, offset: 0x164AF, size: 0x8, addend: 0x0, symName: __ZNSt8_Rb_treeISt6vectorIxSaIxEES2_St9_IdentityIS2_ESt4lessIS2_ESaIS2_EE6_S_keyEPKSt13_Rb_tree_nodeIS2_E, symObjAddr: 0x4C0C, symBinAddr: 0x100007C84, symSize: 0x28 }
  - { offsetInCU: 0x164DB, offset: 0x164DB, size: 0x8, addend: 0x0, symName: __ZNK9__gnu_cxx17__normal_iteratorIPxSt6vectorIxSaIxEEEdeEv, symObjAddr: 0x4BF4, symBinAddr: 0x100007C6C, symSize: 0x18 }
  - { offsetInCU: 0x16505, offset: 0x16505, size: 0x8, addend: 0x0, symName: __ZNK9__gnu_cxx17__normal_iteratorIPxSt6vectorIxSaIxEEEmiEl, symObjAddr: 0x4BB0, symBinAddr: 0x100007C28, symSize: 0x44 }
  - { offsetInCU: 0x1657A, offset: 0x1657A, size: 0x8, addend: 0x0, symName: __ZSt12__relocate_aIPxS0_SaIxEET0_T_S3_S2_RT1_, symObjAddr: 0x4B54, symBinAddr: 0x100007BCC, symSize: 0x5C }
  - { offsetInCU: 0x16615, offset: 0x16615, size: 0x8, addend: 0x0, symName: __ZNKSt6vectorIxSaIxEE8max_sizeEv, symObjAddr: 0x4B34, symBinAddr: 0x100007BAC, symSize: 0x20 }
  - { offsetInCU: 0x16643, offset: 0x16643, size: 0x8, addend: 0x0, symName: __ZNK9__gnu_cxx16__aligned_membufINSt7__cxx1112basic_stringIcSt11char_traitsIcESaIcEEEE7_M_addrEv, symObjAddr: 0x4B20, symBinAddr: 0x100007B98, symSize: 0x14 }
  - { offsetInCU: 0x16669, offset: 0x16669, size: 0x8, addend: 0x0, symName: __ZNSt12_Destroy_auxILb1EE9__destroyIPxEEvT_S3_, symObjAddr: 0x4B08, symBinAddr: 0x100007B80, symSize: 0x18 }
  - { offsetInCU: 0x1669E, offset: 0x1669E, size: 0x8, addend: 0x0, symName: __ZNSt15__new_allocatorIxE10deallocateEPxm, symObjAddr: 0x4AD8, symBinAddr: 0x100007B50, symSize: 0x30 }
  - { offsetInCU: 0x166E6, offset: 0x166E6, size: 0x8, addend: 0x0, symName: __ZNSt8_Rb_treeISt6vectorIxSaIxEES2_St9_IdentityIS2_ESt4lessIS2_ESaIS2_EE11_M_put_nodeEPSt13_Rb_tree_nodeIS2_E, symObjAddr: 0x4A8C, symBinAddr: 0x100007B04, symSize: 0x4C }
  - { offsetInCU: 0x16752, offset: 0x16752, size: 0x8, addend: 0x0, symName: __ZNSt8_Rb_treeISt6vectorIxSaIxEES2_St9_IdentityIS2_ESt4lessIS2_ESaIS2_EE15_M_destroy_nodeEPSt13_Rb_tree_nodeIS2_E, symObjAddr: 0x4A2C, symBinAddr: 0x100007AA4, symSize: 0x60 }
  - { offsetInCU: 0x167E2, offset: 0x167E2, size: 0x8, addend: 0x0, symName: __ZSt7forwardIbEOT_RNSt16remove_referenceIS0_E4typeE, symObjAddr: 0x4A18, symBinAddr: 0x100007A90, symSize: 0x14 }
  - { offsetInCU: 0x16818, offset: 0x16818, size: 0x8, addend: 0x0, symName: __ZSt7forwardISt17_Rb_tree_iteratorINSt7__cxx1112basic_stringIcSt11char_traitsIcESaIcEEEEEOT_RNSt16remove_referenceIS8_E4typeE, symObjAddr: 0x4A04, symBinAddr: 0x100007A7C, symSize: 0x14 }
  - { offsetInCU: 0x16857, offset: 0x16857, size: 0x8, addend: 0x0, symName: __ZNKSt8_Rb_treeINSt7__cxx1112basic_stringIcSt11char_traitsIcESaIcEEES5_St9_IdentityIS5_ESt4lessIS5_ESaIS5_EE11_Alloc_nodeclIRKS5_EEPSt13_Rb_tree_nodeIS5_EOT_, symObjAddr: 0x49C8, symBinAddr: 0x100007A40, symSize: 0x3C }
  - { offsetInCU: 0x16896, offset: 0x16896, size: 0x8, addend: 0x0, symName: __ZNSt8_Rb_treeINSt7__cxx1112basic_stringIcSt11char_traitsIcESaIcEEES5_St9_IdentityIS5_ESt4lessIS5_ESaIS5_EE6_S_keyEPKSt18_Rb_tree_node_base, symObjAddr: 0x49AC, symBinAddr: 0x100007A24, symSize: 0x1C }
  - { offsetInCU: 0x168C2, offset: 0x168C2, size: 0x8, addend: 0x0, symName: __ZNSt17_Rb_tree_iteratorINSt7__cxx1112basic_stringIcSt11char_traitsIcESaIcEEEEmmEv, symObjAddr: 0x497C, symBinAddr: 0x1000079F4, symSize: 0x30 }
  - { offsetInCU: 0x169B2, offset: 0x169B2, size: 0x8, addend: 0x0, symName: __ZNSt4pairIPSt18_Rb_tree_node_baseS1_EC1IRPSt13_Rb_tree_nodeINSt7__cxx1112basic_stringIcSt11char_traitsIcESaIcEEEERS1_Lb1EEEOT_OT0_, symObjAddr: 0x4934, symBinAddr: 0x1000079AC, symSize: 0x48 }
  - { offsetInCU: 0x1697A, offset: 0x1697A, size: 0x8, addend: 0x0, symName: __ZSteqRKSt17_Rb_tree_iteratorINSt7__cxx1112basic_stringIcSt11char_traitsIcESaIcEEEES8_, symObjAddr: 0x4904, symBinAddr: 0x10000797C, symSize: 0x30 }
  - { offsetInCU: 0x169B6, offset: 0x169B6, size: 0x8, addend: 0x0, symName: __ZNSt8_Rb_treeINSt7__cxx1112basic_stringIcSt11char_traitsIcESaIcEEES5_St9_IdentityIS5_ESt4lessIS5_ESaIS5_EE5beginEv, symObjAddr: 0x48DC, symBinAddr: 0x100007954, symSize: 0x28 }
  - { offsetInCU: 0x169DC, offset: 0x169DC, size: 0x8, addend: 0x0, symName: __ZNSt8_Rb_treeINSt7__cxx1112basic_stringIcSt11char_traitsIcESaIcEEES5_St9_IdentityIS5_ESt4lessIS5_ESaIS5_EE6_S_keyEPKSt13_Rb_tree_nodeIS5_E, symObjAddr: 0x48B4, symBinAddr: 0x10000792C, symSize: 0x28 }
  - { offsetInCU: 0x16A08, offset: 0x16A08, size: 0x8, addend: 0x0, symName: __ZNSt8_Rb_treeINSt7__cxx1112basic_stringIcSt11char_traitsIcESaIcEEES5_St9_IdentityIS5_ESt4lessIS5_ESaIS5_EE6_M_endEv, symObjAddr: 0x489C, symBinAddr: 0x100007914, symSize: 0x18 }
  - { offsetInCU: 0x16A32, offset: 0x16A32, size: 0x8, addend: 0x0, symName: __ZNSt8_Rb_treeINSt7__cxx1112basic_stringIcSt11char_traitsIcESaIcEEES5_St9_IdentityIS5_ESt4lessIS5_ESaIS5_EE11_M_put_nodeEPSt13_Rb_tree_nodeIS5_E, symObjAddr: 0x4850, symBinAddr: 0x1000078C8, symSize: 0x4C }
  - { offsetInCU: 0x16A9E, offset: 0x16A9E, size: 0x8, addend: 0x0, symName: __ZNSt8_Rb_treeINSt7__cxx1112basic_stringIcSt11char_traitsIcESaIcEEES5_St9_IdentityIS5_ESt4lessIS5_ESaIS5_EE15_M_destroy_nodeEPSt13_Rb_tree_nodeIS5_E, symObjAddr: 0x47F0, symBinAddr: 0x100007868, symSize: 0x60 }
  - { offsetInCU: 0x16B2C, offset: 0x16B2C, size: 0x8, addend: 0x0, symName: __ZNSt8_Rb_treeINSt7__cxx1112basic_stringIcSt11char_traitsIcESaIcEEESt4pairIKS5_xESt10_Select1stIS8_ESt4lessIS5_ESaIS8_EE14_M_insert_nodeEPSt18_Rb_tree_node_baseSG_PSt13_Rb_tree_nodeIS8_E, symObjAddr: 0x471C, symBinAddr: 0x100007794, symSize: 0xD4 }
  - { offsetInCU: 0x16B92, offset: 0x16B92, size: 0x8, addend: 0x0, symName: __ZNSt8_Rb_treeINSt7__cxx1112basic_stringIcSt11char_traitsIcESaIcEEESt4pairIKS5_xESt10_Select1stIS8_ESt4lessIS5_ESaIS8_EE6_S_keyEPKSt13_Rb_tree_nodeIS8_E, symObjAddr: 0x46F4, symBinAddr: 0x10000776C, symSize: 0x28 }
  - { offsetInCU: 0x16BBE, offset: 0x16BBE, size: 0x8, addend: 0x0, symName: __ZNSt17_Rb_tree_iteratorISt4pairIKNSt7__cxx1112basic_stringIcSt11char_traitsIcESaIcEEExEEppEv, symObjAddr: 0x46C4, symBinAddr: 0x10000773C, symSize: 0x30 }
  - { offsetInCU: 0x16BE4, offset: 0x16BE4, size: 0x8, addend: 0x0, symName: __ZNSt8_Rb_treeINSt7__cxx1112basic_stringIcSt11char_traitsIcESaIcEEESt4pairIKS5_xESt10_Select1stIS8_ESt4lessIS5_ESaIS8_EE8_S_rightEPSt18_Rb_tree_node_base, symObjAddr: 0x46AC, symBinAddr: 0x100007724, symSize: 0x18 }
  - { offsetInCU: 0x16C10, offset: 0x16C10, size: 0x8, addend: 0x0, symName: __ZNSt17_Rb_tree_iteratorISt4pairIKNSt7__cxx1112basic_stringIcSt11char_traitsIcESaIcEEExEEmmEv, symObjAddr: 0x467C, symBinAddr: 0x1000076F4, symSize: 0x30 }
  - { offsetInCU: 0x16CBA, offset: 0x16CBA, size: 0x8, addend: 0x0, symName: __ZNSt4pairIPSt18_Rb_tree_node_baseS1_EC1IRS1_S4_Lb1EEEOT_OT0_, symObjAddr: 0x4634, symBinAddr: 0x1000076AC, symSize: 0x48 }
  - { offsetInCU: 0x16CC6, offset: 0x16CC6, size: 0x8, addend: 0x0, symName: __ZNSt8_Rb_treeINSt7__cxx1112basic_stringIcSt11char_traitsIcESaIcEEESt4pairIKS5_xESt10_Select1stIS8_ESt4lessIS5_ESaIS8_EE11_M_leftmostEv, symObjAddr: 0x461C, symBinAddr: 0x100007694, symSize: 0x18 }
  - { offsetInCU: 0x16CF0, offset: 0x16CF0, size: 0x8, addend: 0x0, symName: __ZNSt8_Rb_treeINSt7__cxx1112basic_stringIcSt11char_traitsIcESaIcEEESt4pairIKS5_xESt10_Select1stIS8_ESt4lessIS5_ESaIS8_EE24_M_get_insert_unique_posERS7_, symObjAddr: 0x44BC, symBinAddr: 0x100007534, symSize: 0x160 }
  - { offsetInCU: 0x16DEF, offset: 0x16DEF, size: 0x8, addend: 0x0, symName: __ZNSt4pairIPSt18_Rb_tree_node_baseS1_EC1IS1_S1_Lb1EEERKS1_S5_, symObjAddr: 0x4480, symBinAddr: 0x1000074F8, symSize: 0x3C }
  - { offsetInCU: 0x16DF7, offset: 0x16DF7, size: 0x8, addend: 0x0, symName: __ZNSt8_Rb_treeINSt7__cxx1112basic_stringIcSt11char_traitsIcESaIcEEESt4pairIKS5_xESt10_Select1stIS8_ESt4lessIS5_ESaIS8_EE6_S_keyEPKSt18_Rb_tree_node_base, symObjAddr: 0x4464, symBinAddr: 0x1000074DC, symSize: 0x1C }
  - { offsetInCU: 0x16E23, offset: 0x16E23, size: 0x8, addend: 0x0, symName: __ZNSt8_Rb_treeINSt7__cxx1112basic_stringIcSt11char_traitsIcESaIcEEESt4pairIKS5_xESt10_Select1stIS8_ESt4lessIS5_ESaIS8_EE12_M_rightmostEv, symObjAddr: 0x444C, symBinAddr: 0x1000074C4, symSize: 0x18 }
  - { offsetInCU: 0x16E4D, offset: 0x16E4D, size: 0x8, addend: 0x0, symName: __ZNKSt8_Rb_treeINSt7__cxx1112basic_stringIcSt11char_traitsIcESaIcEEESt4pairIKS5_xESt10_Select1stIS8_ESt4lessIS5_ESaIS8_EE4sizeEv, symObjAddr: 0x4434, symBinAddr: 0x1000074AC, symSize: 0x18 }
  - { offsetInCU: 0x16E77, offset: 0x16E77, size: 0x8, addend: 0x0, symName: __ZNKSt23_Rb_tree_const_iteratorISt4pairIKNSt7__cxx1112basic_stringIcSt11char_traitsIcESaIcEEExEE13_M_const_castEv, symObjAddr: 0x440C, symBinAddr: 0x100007484, symSize: 0x28 }
  - { offsetInCU: 0x16EA1, offset: 0x16EA1, size: 0x8, addend: 0x0, symName: __ZNSt8_Rb_treeINSt7__cxx1112basic_stringIcSt11char_traitsIcESaIcEEESt4pairIKS5_xESt10_Select1stIS8_ESt4lessIS5_ESaIS8_EE12_M_drop_nodeEPSt13_Rb_tree_nodeIS8_E, symObjAddr: 0x43D8, symBinAddr: 0x100007450, symSize: 0x34 }
  - { offsetInCU: 0x16EDB, offset: 0x16EDB, size: 0x8, addend: 0x0, symName: __ZNSt8_Rb_treeINSt7__cxx1112basic_stringIcSt11char_traitsIcESaIcEEESt4pairIKS5_xESt10_Select1stIS8_ESt4lessIS5_ESaIS8_EE14_M_create_nodeIJRKSt21piecewise_construct_tSt5tupleIJRS7_EESJ_IJEEEEEPSt13_Rb_tree_nodeIS8_EDpOT_, symObjAddr: 0x4368, symBinAddr: 0x1000073E0, symSize: 0x70 }
  - { offsetInCU: 0x16FC1, offset: 0x16FC1, size: 0x8, addend: 0x0, symName: __ZNSt10_Head_baseILm0ERKNSt7__cxx1112basic_stringIcSt11char_traitsIcESaIcEEELb0EEC2ES7_, symObjAddr: 0x4344, symBinAddr: 0x1000073BC, symSize: 0x24 }
  - { offsetInCU: 0x16F9B, offset: 0x16F9B, size: 0x8, addend: 0x0, symName: __ZSt3minImERKT_S2_S2_, symObjAddr: 0x430C, symBinAddr: 0x100007384, symSize: 0x38 }
  - { offsetInCU: 0x16FDE, offset: 0x16FDE, size: 0x8, addend: 0x0, symName: __ZN9__gnu_cxx16__aligned_membufISt4pairIKNSt7__cxx1112basic_stringIcSt11char_traitsIcESaIcEEExEE6_M_ptrEv, symObjAddr: 0x42F0, symBinAddr: 0x100007368, symSize: 0x1C }
  - { offsetInCU: 0x17008, offset: 0x17008, size: 0x8, addend: 0x0, symName: __ZNSt8_Rb_treeINSt7__cxx1112basic_stringIcSt11char_traitsIcESaIcEEESt4pairIKS5_xESt10_Select1stIS8_ESt4lessIS5_ESaIS8_EE14_M_lower_boundEPSt13_Rb_tree_nodeIS8_EPSt18_Rb_tree_node_baseRS7_, symObjAddr: 0x4250, symBinAddr: 0x1000072C8, symSize: 0xA0 }
  - { offsetInCU: 0x17062, offset: 0x17062, size: 0x8, addend: 0x0, symName: __ZNSt8_Rb_treeINSt7__cxx1112basic_stringIcSt11char_traitsIcESaIcEEESt4pairIKS5_xESt10_Select1stIS8_ESt4lessIS5_ESaIS8_EE6_M_endEv, symObjAddr: 0x4238, symBinAddr: 0x1000072B0, symSize: 0x18 }
  - { offsetInCU: 0x1708C, offset: 0x1708C, size: 0x8, addend: 0x0, symName: __ZNSt8_Rb_treeINSt7__cxx1112basic_stringIcSt11char_traitsIcESaIcEEESt4pairIKS5_xESt10_Select1stIS8_ESt4lessIS5_ESaIS8_EE8_M_beginEv, symObjAddr: 0x421C, symBinAddr: 0x100007294, symSize: 0x1C }
  - { offsetInCU: 0x170B2, offset: 0x170B2, size: 0x8, addend: 0x0, symName: __ZSt8_DestroyIPSt3mapINSt7__cxx1112basic_stringIcSt11char_traitsIcESaIcEEExSt4lessIS6_ESaISt4pairIKS6_xEEEEvT_SF_, symObjAddr: 0x41F4, symBinAddr: 0x10000726C, symSize: 0x28 }
  - { offsetInCU: 0x170F1, offset: 0x170F1, size: 0x8, addend: 0x0, symName: __ZSt12__relocate_aIPSt3mapINSt7__cxx1112basic_stringIcSt11char_traitsIcESaIcEEExSt4lessIS6_ESaISt4pairIKS6_xEEESE_SaISD_EET0_T_SH_SG_RT1_, symObjAddr: 0x4198, symBinAddr: 0x100007210, symSize: 0x5C }
  - { offsetInCU: 0x17188, offset: 0x17188, size: 0x8, addend: 0x0, symName: __ZSt25__uninitialized_default_nIPSt3mapINSt7__cxx1112basic_stringIcSt11char_traitsIcESaIcEEExSt4lessIS6_ESaISt4pairIKS6_xEEEmET_SF_T0_, symObjAddr: 0x416C, symBinAddr: 0x1000071E4, symSize: 0x2C }
  - { offsetInCU: 0x171E7, offset: 0x171E7, size: 0x8, addend: 0x0, symName: __ZNKSt12_Vector_baseISt3mapINSt7__cxx1112basic_stringIcSt11char_traitsIcESaIcEEExSt4lessIS6_ESaISt4pairIKS6_xEEESaISD_EE19_M_get_Tp_allocatorEv, symObjAddr: 0x4158, symBinAddr: 0x1000071D0, symSize: 0x14 }
  - { offsetInCU: 0x1720D, offset: 0x1720D, size: 0x8, addend: 0x0, symName: __ZNSt6vectorISt3mapINSt7__cxx1112basic_stringIcSt11char_traitsIcESaIcEEExSt4lessIS6_ESaISt4pairIKS6_xEEESaISD_EE11_S_max_sizeERKSE_, symObjAddr: 0x40FC, symBinAddr: 0x100007174, symSize: 0x5C }
  - { offsetInCU: 0x172BB, offset: 0x172BB, size: 0x8, addend: 0x0, symName: __ZSt8_DestroyIPNSt7__cxx1112basic_stringIcSt11char_traitsIcESaIcEEEEvT_S7_, symObjAddr: 0x40D4, symBinAddr: 0x10000714C, symSize: 0x28 }
  - { offsetInCU: 0x172FA, offset: 0x172FA, size: 0x8, addend: 0x0, symName: __ZSt12__relocate_aIPNSt7__cxx1112basic_stringIcSt11char_traitsIcESaIcEEES6_SaIS5_EET0_T_S9_S8_RT1_, symObjAddr: 0x4078, symBinAddr: 0x1000070F0, symSize: 0x5C }
  - { offsetInCU: 0x17391, offset: 0x17391, size: 0x8, addend: 0x0, symName: __ZSt3maxImERKT_S2_S2_, symObjAddr: 0x4040, symBinAddr: 0x1000070B8, symSize: 0x38 }
  - { offsetInCU: 0x173D2, offset: 0x173D2, size: 0x8, addend: 0x0, symName: __ZSt25__uninitialized_default_nIPNSt7__cxx1112basic_stringIcSt11char_traitsIcESaIcEEEmET_S7_T0_, symObjAddr: 0x4014, symBinAddr: 0x10000708C, symSize: 0x2C }
  - { offsetInCU: 0x17431, offset: 0x17431, size: 0x8, addend: 0x0, symName: __ZNKSt12_Vector_baseINSt7__cxx1112basic_stringIcSt11char_traitsIcESaIcEEESaIS5_EE19_M_get_Tp_allocatorEv, symObjAddr: 0x4000, symBinAddr: 0x100007078, symSize: 0x14 }
  - { offsetInCU: 0x17457, offset: 0x17457, size: 0x8, addend: 0x0, symName: __ZNSt6vectorINSt7__cxx1112basic_stringIcSt11char_traitsIcESaIcEEESaIS5_EE11_S_max_sizeERKS6_, symObjAddr: 0x3FAC, symBinAddr: 0x100007024, symSize: 0x54 }
  - { offsetInCU: 0x17509, offset: 0x17509, size: 0x8, addend: 0x0, symName: __ZNSt15__new_allocatorISt3mapINSt7__cxx1112basic_stringIcSt11char_traitsIcESaIcEEExSt4lessIS6_ESaISt4pairIKS6_xEEEE10deallocateEPSD_m, symObjAddr: 0x3F70, symBinAddr: 0x100006FE8, symSize: 0x3C }
  - { offsetInCU: 0x17551, offset: 0x17551, size: 0x8, addend: 0x0, symName: __ZNSt15__new_allocatorINSt7__cxx1112basic_stringIcSt11char_traitsIcESaIcEEEE10deallocateEPS5_m, symObjAddr: 0x3F40, symBinAddr: 0x100006FB8, symSize: 0x30 }
  - { offsetInCU: 0x175FA, offset: 0x175FA, size: 0x8, addend: 0x0, symName: __ZN9__gnu_cxx17__normal_iteratorIPKxSt6vectorIxSaIxEEEC1ERKS2_, symObjAddr: 0x3F18, symBinAddr: 0x100006F90, symSize: 0x28 }
  - { offsetInCU: 0x175EB, offset: 0x175EB, size: 0x8, addend: 0x0, symName: __ZNK9__gnu_cxx16__aligned_membufISt6vectorIxSaIxEEE6_M_ptrEv, symObjAddr: 0x3EFC, symBinAddr: 0x100006F74, symSize: 0x1C }
  - { offsetInCU: 0x17684, offset: 0x17684, size: 0x8, addend: 0x0, symName: __ZNSt23_Rb_tree_const_iteratorISt6vectorIxSaIxEEEC1EPKSt18_Rb_tree_node_base, symObjAddr: 0x3ED8, symBinAddr: 0x100006F50, symSize: 0x24 }
  - { offsetInCU: 0x17667, offset: 0x17667, size: 0x8, addend: 0x0, symName: __ZNSt8_Rb_treeISt6vectorIxSaIxEES2_St9_IdentityIS2_ESt4lessIS2_ESaIS2_EE14_M_upper_boundEPSt13_Rb_tree_nodeIS2_EPSt18_Rb_tree_node_baseRKS2_, symObjAddr: 0x3E40, symBinAddr: 0x100006EB8, symSize: 0x98 }
  - { offsetInCU: 0x176C1, offset: 0x176C1, size: 0x8, addend: 0x0, symName: __ZNSt8_Rb_treeISt6vectorIxSaIxEES2_St9_IdentityIS2_ESt4lessIS2_ESaIS2_EE6_M_endEv, symObjAddr: 0x3E28, symBinAddr: 0x100006EA0, symSize: 0x18 }
  - { offsetInCU: 0x176ED, offset: 0x176ED, size: 0x8, addend: 0x0, symName: __ZSt7forwardIRSt17_Rb_tree_iteratorISt6vectorIxSaIxEEEEOT_RNSt16remove_referenceIS6_E4typeE, symObjAddr: 0x3E14, symBinAddr: 0x100006E8C, symSize: 0x14 }
  - { offsetInCU: 0x17789, offset: 0x17789, size: 0x8, addend: 0x0, symName: __ZNSt17_Rb_tree_iteratorISt6vectorIxSaIxEEEC1EPSt18_Rb_tree_node_base, symObjAddr: 0x3DF0, symBinAddr: 0x100006E68, symSize: 0x24 }
  - { offsetInCU: 0x177FF, offset: 0x177FF, size: 0x8, addend: 0x0, symName: __ZNSt4pairISt17_Rb_tree_iteratorISt6vectorIxSaIxEEEbEC1IS4_bLb1EEEOT_OT0_, symObjAddr: 0x3DA4, symBinAddr: 0x100006E1C, symSize: 0x4C }
  - { offsetInCU: 0x17805, offset: 0x17805, size: 0x8, addend: 0x0, symName: __ZNSt8_Rb_treeISt6vectorIxSaIxEES2_St9_IdentityIS2_ESt4lessIS2_ESaIS2_EE10_M_insert_IRKS2_NS8_11_Alloc_nodeEEESt17_Rb_tree_iteratorIS2_EPSt18_Rb_tree_node_baseSG_OT_RT0_, symObjAddr: 0x3CB0, symBinAddr: 0x100006D28, symSize: 0xF4 }
  - { offsetInCU: 0x178A4, offset: 0x178A4, size: 0x8, addend: 0x0, symName: __ZSt7forwardIRKSt6vectorIxSaIxEEEOT_RNSt16remove_referenceIS5_E4typeE, symObjAddr: 0x3C9C, symBinAddr: 0x100006D14, symSize: 0x14 }
  - { offsetInCU: 0x17957, offset: 0x17957, size: 0x8, addend: 0x0, symName: __ZNSt8_Rb_treeISt6vectorIxSaIxEES2_St9_IdentityIS2_ESt4lessIS2_ESaIS2_EE11_Alloc_nodeC1ERS8_, symObjAddr: 0x3C78, symBinAddr: 0x100006CF0, symSize: 0x24 }
  - { offsetInCU: 0x1792A, offset: 0x1792A, size: 0x8, addend: 0x0, symName: __ZNKSt9_IdentityISt6vectorIxSaIxEEEclERKS2_, symObjAddr: 0x3C60, symBinAddr: 0x100006CD8, symSize: 0x18 }
  - { offsetInCU: 0x17964, offset: 0x17964, size: 0x8, addend: 0x0, symName: __ZNSt8_Rb_treeISt6vectorIxSaIxEES2_St9_IdentityIS2_ESt4lessIS2_ESaIS2_EE24_M_get_insert_unique_posERKS2_, symObjAddr: 0x3AFC, symBinAddr: 0x100006B74, symSize: 0x164 }
  - { offsetInCU: 0x179E3, offset: 0x179E3, size: 0x8, addend: 0x0, symName: __ZNSt6vectorIxSaIxEE4backEv, symObjAddr: 0x3AC4, symBinAddr: 0x100006B3C, symSize: 0x38 }
  - { offsetInCU: 0x17A0D, offset: 0x17A0D, size: 0x8, addend: 0x0, symName: __ZNSt6vectorIxSaIxEE17_M_realloc_insertIJxEEEvN9__gnu_cxx17__normal_iteratorIPxS1_EEDpOT_, symObjAddr: 0x3904, symBinAddr: 0x10000697C, symSize: 0x1C0 }
  - { offsetInCU: 0x17B72, offset: 0x17B72, size: 0x8, addend: 0x0, symName: __ZSt7forwardIxEOT_RNSt16remove_referenceIS0_E4typeE, symObjAddr: 0x38F0, symBinAddr: 0x100006968, symSize: 0x14 }
  - { offsetInCU: 0x17BA6, offset: 0x17BA6, size: 0x8, addend: 0x0, symName: __ZNK9__gnu_cxx17__normal_iteratorIPxSt6vectorIxSaIxEEE4baseEv, symObjAddr: 0x38DC, symBinAddr: 0x100006954, symSize: 0x14 }
  - { offsetInCU: 0x17BCC, offset: 0x17BCC, size: 0x8, addend: 0x0, symName: __ZNSt6vectorIxSaIxEE11_S_relocateEPxS2_S2_RS0_, symObjAddr: 0x38A8, symBinAddr: 0x100006920, symSize: 0x34 }
  - { offsetInCU: 0x17C28, offset: 0x17C28, size: 0x8, addend: 0x0, symName: __ZNSt12_Vector_baseIxSaIxEE11_M_allocateEm, symObjAddr: 0x3858, symBinAddr: 0x1000068D0, symSize: 0x50 }
  - { offsetInCU: 0x17C8E, offset: 0x17C8E, size: 0x8, addend: 0x0, symName: __ZN9__gnu_cxxmiIPxSt6vectorIxSaIxEEEENS_17__normal_iteratorIT_T0_E15difference_typeERKS8_SB_, symObjAddr: 0x3818, symBinAddr: 0x100006890, symSize: 0x40 }
  - { offsetInCU: 0x17CDC, offset: 0x17CDC, size: 0x8, addend: 0x0, symName: __ZNSt6vectorIxSaIxEE5beginEv, symObjAddr: 0x37F4, symBinAddr: 0x10000686C, symSize: 0x24 }
  - { offsetInCU: 0x17D06, offset: 0x17D06, size: 0x8, addend: 0x0, symName: __ZNKSt6vectorIxSaIxEE12_M_check_lenEmPKc, symObjAddr: 0x3724, symBinAddr: 0x10000679C, symSize: 0xD0 }
  - { offsetInCU: 0x17DC0, offset: 0x17DC0, size: 0x8, addend: 0x0, symName: __ZN9__gnu_cxx17__normal_iteratorIPxSt6vectorIxSaIxEEEC1ERKS1_, symObjAddr: 0x36FC, symBinAddr: 0x100006774, symSize: 0x28 }
  - { offsetInCU: 0x17DF3, offset: 0x17DF3, size: 0x8, addend: 0x0, symName: __ZSt7forwardIRKxEOT_RNSt16remove_referenceIS2_E4typeE, symObjAddr: 0x36E8, symBinAddr: 0x100006760, symSize: 0x14 }
  - { offsetInCU: 0x17E27, offset: 0x17E27, size: 0x8, addend: 0x0, symName: __ZNK9__gnu_cxx16__aligned_membufINSt7__cxx1112basic_stringIcSt11char_traitsIcESaIcEEEE6_M_ptrEv, symObjAddr: 0x36CC, symBinAddr: 0x100006744, symSize: 0x1C }
  - { offsetInCU: 0x17EE3, offset: 0x17EE3, size: 0x8, addend: 0x0, symName: __ZNSt23_Rb_tree_const_iteratorINSt7__cxx1112basic_stringIcSt11char_traitsIcESaIcEEEEC1EPKSt18_Rb_tree_node_base, symObjAddr: 0x36A8, symBinAddr: 0x100006720, symSize: 0x24 }
  - { offsetInCU: 0x17E9F, offset: 0x17E9F, size: 0x8, addend: 0x0, symName: __ZSt8_DestroyIPxEvT_S1_, symObjAddr: 0x3680, symBinAddr: 0x1000066F8, symSize: 0x28 }
  - { offsetInCU: 0x17F28, offset: 0x17F28, size: 0x8, addend: 0x0, symName: __ZNKSt8_Rb_treeISt6vectorIxSaIxEES2_St9_IdentityIS2_ESt4lessIS2_ESaIS2_EE9_M_mbeginEv, symObjAddr: 0x3668, symBinAddr: 0x1000066E0, symSize: 0x18 }
  - { offsetInCU: 0x17F52, offset: 0x17F52, size: 0x8, addend: 0x0, symName: __ZNSt8_Rb_treeISt6vectorIxSaIxEES2_St9_IdentityIS2_ESt4lessIS2_ESaIS2_EE12_M_drop_nodeEPSt13_Rb_tree_nodeIS2_E, symObjAddr: 0x3634, symBinAddr: 0x1000066AC, symSize: 0x34 }
  - { offsetInCU: 0x17F88, offset: 0x17F88, size: 0x8, addend: 0x0, symName: __ZNSt8_Rb_treeISt6vectorIxSaIxEES2_St9_IdentityIS2_ESt4lessIS2_ESaIS2_EE7_S_leftEPSt18_Rb_tree_node_base, symObjAddr: 0x361C, symBinAddr: 0x100006694, symSize: 0x18 }
  - { offsetInCU: 0x17FB0, offset: 0x17FB0, size: 0x8, addend: 0x0, symName: __ZNSt8_Rb_treeISt6vectorIxSaIxEES2_St9_IdentityIS2_ESt4lessIS2_ESaIS2_EE8_S_rightEPSt18_Rb_tree_node_base, symObjAddr: 0x3604, symBinAddr: 0x10000667C, symSize: 0x18 }
  - { offsetInCU: 0x18086, offset: 0x18086, size: 0x8, addend: 0x0, symName: __ZNSt23_Rb_tree_const_iteratorINSt7__cxx1112basic_stringIcSt11char_traitsIcESaIcEEEEC1ERKSt17_Rb_tree_iteratorIS5_E, symObjAddr: 0x35DC, symBinAddr: 0x100006654, symSize: 0x28 }
  - { offsetInCU: 0x18044, offset: 0x18044, size: 0x8, addend: 0x0, symName: __ZSt7forwardIRbEOT_RNSt16remove_referenceIS1_E4typeE, symObjAddr: 0x35C8, symBinAddr: 0x100006640, symSize: 0x14 }
  - { offsetInCU: 0x1807A, offset: 0x1807A, size: 0x8, addend: 0x0, symName: __ZSt7forwardIRSt17_Rb_tree_iteratorINSt7__cxx1112basic_stringIcSt11char_traitsIcESaIcEEEEEOT_RNSt16remove_referenceIS9_E4typeE, symObjAddr: 0x35B4, symBinAddr: 0x10000662C, symSize: 0x14 }
  - { offsetInCU: 0x18139, offset: 0x18139, size: 0x8, addend: 0x0, symName: __ZNSt17_Rb_tree_iteratorINSt7__cxx1112basic_stringIcSt11char_traitsIcESaIcEEEEC1EPSt18_Rb_tree_node_base, symObjAddr: 0x3590, symBinAddr: 0x100006608, symSize: 0x24 }
  - { offsetInCU: 0x181AF, offset: 0x181AF, size: 0x8, addend: 0x0, symName: __ZNSt4pairISt17_Rb_tree_iteratorINSt7__cxx1112basic_stringIcSt11char_traitsIcESaIcEEEEbEC1IS7_bLb1EEEOT_OT0_, symObjAddr: 0x3544, symBinAddr: 0x1000065BC, symSize: 0x4C }
  - { offsetInCU: 0x18192, offset: 0x18192, size: 0x8, addend: 0x0, symName: __ZNSt8_Rb_treeINSt7__cxx1112basic_stringIcSt11char_traitsIcESaIcEEES5_St9_IdentityIS5_ESt4lessIS5_ESaIS5_EE10_M_insert_IRKS5_NSB_11_Alloc_nodeEEESt17_Rb_tree_iteratorIS5_EPSt18_Rb_tree_node_baseSJ_OT_RT0_, symObjAddr: 0x3450, symBinAddr: 0x1000064C8, symSize: 0xF4 }
  - { offsetInCU: 0x18231, offset: 0x18231, size: 0x8, addend: 0x0, symName: __ZSt7forwardIRKNSt7__cxx1112basic_stringIcSt11char_traitsIcESaIcEEEEOT_RNSt16remove_referenceIS8_E4typeE, symObjAddr: 0x343C, symBinAddr: 0x1000064B4, symSize: 0x14 }
  - { offsetInCU: 0x18307, offset: 0x18307, size: 0x8, addend: 0x0, symName: __ZNSt8_Rb_treeINSt7__cxx1112basic_stringIcSt11char_traitsIcESaIcEEES5_St9_IdentityIS5_ESt4lessIS5_ESaIS5_EE11_Alloc_nodeC1ERSB_, symObjAddr: 0x3418, symBinAddr: 0x100006490, symSize: 0x24 }
  - { offsetInCU: 0x182B7, offset: 0x182B7, size: 0x8, addend: 0x0, symName: __ZNKSt9_IdentityINSt7__cxx1112basic_stringIcSt11char_traitsIcESaIcEEEEclERKS5_, symObjAddr: 0x3400, symBinAddr: 0x100006478, symSize: 0x18 }
  - { offsetInCU: 0x182F1, offset: 0x182F1, size: 0x8, addend: 0x0, symName: __ZNSt8_Rb_treeINSt7__cxx1112basic_stringIcSt11char_traitsIcESaIcEEES5_St9_IdentityIS5_ESt4lessIS5_ESaIS5_EE24_M_get_insert_unique_posERKS5_, symObjAddr: 0x32A0, symBinAddr: 0x100006318, symSize: 0x160 }
  - { offsetInCU: 0x18370, offset: 0x18370, size: 0x8, addend: 0x0, symName: __ZNKSt8_Rb_treeINSt7__cxx1112basic_stringIcSt11char_traitsIcESaIcEEES5_St9_IdentityIS5_ESt4lessIS5_ESaIS5_EE9_M_mbeginEv, symObjAddr: 0x3288, symBinAddr: 0x100006300, symSize: 0x18 }
  - { offsetInCU: 0x1839A, offset: 0x1839A, size: 0x8, addend: 0x0, symName: __ZNSt8_Rb_treeINSt7__cxx1112basic_stringIcSt11char_traitsIcESaIcEEES5_St9_IdentityIS5_ESt4lessIS5_ESaIS5_EE12_M_drop_nodeEPSt13_Rb_tree_nodeIS5_E, symObjAddr: 0x3254, symBinAddr: 0x1000062CC, symSize: 0x34 }
  - { offsetInCU: 0x183D0, offset: 0x183D0, size: 0x8, addend: 0x0, symName: __ZNSt8_Rb_treeINSt7__cxx1112basic_stringIcSt11char_traitsIcESaIcEEES5_St9_IdentityIS5_ESt4lessIS5_ESaIS5_EE7_S_leftEPSt18_Rb_tree_node_base, symObjAddr: 0x323C, symBinAddr: 0x1000062B4, symSize: 0x18 }
  - { offsetInCU: 0x183F8, offset: 0x183F8, size: 0x8, addend: 0x0, symName: __ZNSt8_Rb_treeINSt7__cxx1112basic_stringIcSt11char_traitsIcESaIcEEES5_St9_IdentityIS5_ESt4lessIS5_ESaIS5_EE8_S_rightEPSt18_Rb_tree_node_base, symObjAddr: 0x3224, symBinAddr: 0x10000629C, symSize: 0x18 }
  - { offsetInCU: 0x184CE, offset: 0x184CE, size: 0x8, addend: 0x0, symName: __ZNSt17_Rb_tree_iteratorISt4pairIKNSt7__cxx1112basic_stringIcSt11char_traitsIcESaIcEEExEEC1EPSt18_Rb_tree_node_base, symObjAddr: 0x3200, symBinAddr: 0x100006278, symSize: 0x24 }
  - { offsetInCU: 0x1848A, offset: 0x1848A, size: 0x8, addend: 0x0, symName: __ZNSt8_Rb_treeINSt7__cxx1112basic_stringIcSt11char_traitsIcESaIcEEESt4pairIKS5_xESt10_Select1stIS8_ESt4lessIS5_ESaIS8_EE10_Auto_node9_M_insertES6_IPSt18_Rb_tree_node_baseSH_E, symObjAddr: 0x31B4, symBinAddr: 0x10000622C, symSize: 0x4C }
  - { offsetInCU: 0x184D4, offset: 0x184D4, size: 0x8, addend: 0x0, symName: __ZNKSt8_Rb_treeINSt7__cxx1112basic_stringIcSt11char_traitsIcESaIcEEESt4pairIKS5_xESt10_Select1stIS8_ESt4lessIS5_ESaIS8_EE10_Auto_node6_M_keyEv, symObjAddr: 0x3194, symBinAddr: 0x10000620C, symSize: 0x20 }
  - { offsetInCU: 0x184FE, offset: 0x184FE, size: 0x8, addend: 0x0, symName: __ZNSt8_Rb_treeINSt7__cxx1112basic_stringIcSt11char_traitsIcESaIcEEESt4pairIKS5_xESt10_Select1stIS8_ESt4lessIS5_ESaIS8_EE29_M_get_insert_hint_unique_posESt23_Rb_tree_const_iteratorIS8_ERS7_, symObjAddr: 0x2E5C, symBinAddr: 0x100005ED4, symSize: 0x338 }
  - { offsetInCU: 0x1864A, offset: 0x1864A, size: 0x8, addend: 0x0, symName: __ZNSt8_Rb_treeINSt7__cxx1112basic_stringIcSt11char_traitsIcESaIcEEESt4pairIKS5_xESt10_Select1stIS8_ESt4lessIS5_ESaIS8_EE10_Auto_nodeD1Ev, symObjAddr: 0x2E18, symBinAddr: 0x100005E90, symSize: 0x44 }
  - { offsetInCU: 0x186FD, offset: 0x186FD, size: 0x8, addend: 0x0, symName: __ZNSt8_Rb_treeINSt7__cxx1112basic_stringIcSt11char_traitsIcESaIcEEESt4pairIKS5_xESt10_Select1stIS8_ESt4lessIS5_ESaIS8_EE10_Auto_nodeC1IJRKSt21piecewise_construct_tSt5tupleIJRS7_EESK_IJEEEEERSE_DpOT_, symObjAddr: 0x2D9C, symBinAddr: 0x100005E14, symSize: 0x7C }
  - { offsetInCU: 0x1869C, offset: 0x1869C, size: 0x8, addend: 0x0, symName: __ZSt7forwardISt5tupleIJEEEOT_RNSt16remove_referenceIS2_E4typeE, symObjAddr: 0x2D88, symBinAddr: 0x100005E00, symSize: 0x14 }
  - { offsetInCU: 0x186D2, offset: 0x186D2, size: 0x8, addend: 0x0, symName: __ZSt7forwardISt5tupleIJRKNSt7__cxx1112basic_stringIcSt11char_traitsIcESaIcEEEEEEOT_RNSt16remove_referenceISA_E4typeE, symObjAddr: 0x2D74, symBinAddr: 0x100005DEC, symSize: 0x14 }
  - { offsetInCU: 0x18708, offset: 0x18708, size: 0x8, addend: 0x0, symName: __ZSt7forwardIRKSt21piecewise_construct_tEOT_RNSt16remove_referenceIS3_E4typeE, symObjAddr: 0x2D60, symBinAddr: 0x100005DD8, symSize: 0x14 }
  - { offsetInCU: 0x187B5, offset: 0x187B5, size: 0x8, addend: 0x0, symName: __ZNSt11_Tuple_implILm0EJRKNSt7__cxx1112basic_stringIcSt11char_traitsIcESaIcEEEEEC2ES7_, symObjAddr: 0x2D38, symBinAddr: 0x100005DB0, symSize: 0x28 }
  - { offsetInCU: 0x1878A, offset: 0x1878A, size: 0x8, addend: 0x0, symName: __ZStltIcSt11char_traitsIcESaIcEEbRKNSt7__cxx1112basic_stringIT_T0_T1_EESA_, symObjAddr: 0x2D0C, symBinAddr: 0x100005D84, symSize: 0x2C }
  - { offsetInCU: 0x187E1, offset: 0x187E1, size: 0x8, addend: 0x0, symName: __ZNSt13_Rb_tree_nodeISt4pairIKNSt7__cxx1112basic_stringIcSt11char_traitsIcESaIcEEExEE9_M_valptrEv, symObjAddr: 0x2CEC, symBinAddr: 0x100005D64, symSize: 0x20 }
  - { offsetInCU: 0x1880B, offset: 0x1880B, size: 0x8, addend: 0x0, symName: __ZNKSt8_Rb_treeINSt7__cxx1112basic_stringIcSt11char_traitsIcESaIcEEESt4pairIKS5_xESt10_Select1stIS8_ESt4lessIS5_ESaIS8_EE8key_compEv, symObjAddr: 0x2CD4, symBinAddr: 0x100005D4C, symSize: 0x18 }
  - { offsetInCU: 0x18835, offset: 0x18835, size: 0x8, addend: 0x0, symName: __ZNSt8_Rb_treeINSt7__cxx1112basic_stringIcSt11char_traitsIcESaIcEEESt4pairIKS5_xESt10_Select1stIS8_ESt4lessIS5_ESaIS8_EE3endEv, symObjAddr: 0x2CAC, symBinAddr: 0x100005D24, symSize: 0x28 }
  - { offsetInCU: 0x1885F, offset: 0x1885F, size: 0x8, addend: 0x0, symName: __ZNSt8_Rb_treeINSt7__cxx1112basic_stringIcSt11char_traitsIcESaIcEEESt4pairIKS5_xESt10_Select1stIS8_ESt4lessIS5_ESaIS8_EE11lower_boundERS7_, symObjAddr: 0x2C64, symBinAddr: 0x100005CDC, symSize: 0x48 }
  - { offsetInCU: 0x188D0, offset: 0x188D0, size: 0x8, addend: 0x0, symName: __ZNSt6vectorISt3mapINSt7__cxx1112basic_stringIcSt11char_traitsIcESaIcEEExSt4lessIS6_ESaISt4pairIKS6_xEEESaISD_EE11_S_relocateEPSD_SG_SG_RSE_, symObjAddr: 0x2C30, symBinAddr: 0x100005CA8, symSize: 0x34 }
  - { offsetInCU: 0x1892C, offset: 0x1892C, size: 0x8, addend: 0x0, symName: __ZNSt12_Vector_baseISt3mapINSt7__cxx1112basic_stringIcSt11char_traitsIcESaIcEEExSt4lessIS6_ESaISt4pairIKS6_xEEESaISD_EE11_M_allocateEm, symObjAddr: 0x2BE0, symBinAddr: 0x100005C58, symSize: 0x50 }
  - { offsetInCU: 0x18990, offset: 0x18990, size: 0x8, addend: 0x0, symName: __ZNKSt6vectorISt3mapINSt7__cxx1112basic_stringIcSt11char_traitsIcESaIcEEExSt4lessIS6_ESaISt4pairIKS6_xEEESaISD_EE12_M_check_lenEmPKc, symObjAddr: 0x2B10, symBinAddr: 0x100005B88, symSize: 0xD0 }
  - { offsetInCU: 0x189E6, offset: 0x189E6, size: 0x8, addend: 0x0, symName: __ZSt27__uninitialized_default_n_aIPSt3mapINSt7__cxx1112basic_stringIcSt11char_traitsIcESaIcEEExSt4lessIS6_ESaISt4pairIKS6_xEEEmSD_ET_SF_T0_RSaIT1_E, symObjAddr: 0x2AE8, symBinAddr: 0x100005B60, symSize: 0x28 }
  - { offsetInCU: 0x18A45, offset: 0x18A45, size: 0x8, addend: 0x0, symName: __ZNSt12_Vector_baseISt3mapINSt7__cxx1112basic_stringIcSt11char_traitsIcESaIcEEExSt4lessIS6_ESaISt4pairIKS6_xEEESaISD_EE19_M_get_Tp_allocatorEv, symObjAddr: 0x2AD4, symBinAddr: 0x100005B4C, symSize: 0x14 }
  - { offsetInCU: 0x18A6F, offset: 0x18A6F, size: 0x8, addend: 0x0, symName: __ZNKSt6vectorISt3mapINSt7__cxx1112basic_stringIcSt11char_traitsIcESaIcEEExSt4lessIS6_ESaISt4pairIKS6_xEEESaISD_EE8max_sizeEv, symObjAddr: 0x2AB4, symBinAddr: 0x100005B2C, symSize: 0x20 }
  - { offsetInCU: 0x18AD0, offset: 0x18AD0, size: 0x8, addend: 0x0, symName: __ZNSt6vectorINSt7__cxx1112basic_stringIcSt11char_traitsIcESaIcEEESaIS5_EE11_S_relocateEPS5_S8_S8_RS6_, symObjAddr: 0x2A80, symBinAddr: 0x100005AF8, symSize: 0x34 }
  - { offsetInCU: 0x18B2C, offset: 0x18B2C, size: 0x8, addend: 0x0, symName: __ZNSt12_Vector_baseINSt7__cxx1112basic_stringIcSt11char_traitsIcESaIcEEESaIS5_EE11_M_allocateEm, symObjAddr: 0x2A30, symBinAddr: 0x100005AA8, symSize: 0x50 }
  - { offsetInCU: 0x18B90, offset: 0x18B90, size: 0x8, addend: 0x0, symName: __ZNKSt6vectorINSt7__cxx1112basic_stringIcSt11char_traitsIcESaIcEEESaIS5_EE12_M_check_lenEmPKc, symObjAddr: 0x2960, symBinAddr: 0x1000059D8, symSize: 0xD0 }
  - { offsetInCU: 0x18BE6, offset: 0x18BE6, size: 0x8, addend: 0x0, symName: __ZSt27__uninitialized_default_n_aIPNSt7__cxx1112basic_stringIcSt11char_traitsIcESaIcEEEmS5_ET_S7_T0_RSaIT1_E, symObjAddr: 0x2938, symBinAddr: 0x1000059B0, symSize: 0x28 }
  - { offsetInCU: 0x18C45, offset: 0x18C45, size: 0x8, addend: 0x0, symName: __ZNSt12_Vector_baseINSt7__cxx1112basic_stringIcSt11char_traitsIcESaIcEEESaIS5_EE19_M_get_Tp_allocatorEv, symObjAddr: 0x2924, symBinAddr: 0x10000599C, symSize: 0x14 }
  - { offsetInCU: 0x18C6F, offset: 0x18C6F, size: 0x8, addend: 0x0, symName: __ZNKSt6vectorINSt7__cxx1112basic_stringIcSt11char_traitsIcESaIcEEESaIS5_EE8max_sizeEv, symObjAddr: 0x2904, symBinAddr: 0x10000597C, symSize: 0x20 }
  - { offsetInCU: 0x18D25, offset: 0x18D25, size: 0x8, addend: 0x0, symName: __ZNK9__gnu_cxx17__normal_iteratorIPKxSt6vectorIxSaIxEEEdeEv, symObjAddr: 0x28EC, symBinAddr: 0x100005964, symSize: 0x18 }
  - { offsetInCU: 0x18D4F, offset: 0x18D4F, size: 0x8, addend: 0x0, symName: __ZN9__gnu_cxx17__normal_iteratorIPKxSt6vectorIxSaIxEEEmmEv, symObjAddr: 0x28C4, symBinAddr: 0x10000593C, symSize: 0x28 }
  - { offsetInCU: 0x18DEE, offset: 0x18DEE, size: 0x8, addend: 0x0, symName: __ZNSt16reverse_iteratorIN9__gnu_cxx17__normal_iteratorIPKxSt6vectorIxSaIxEEEEEC1ES7_, symObjAddr: 0x28A0, symBinAddr: 0x100005918, symSize: 0x24 }
  - { offsetInCU: 0x18DC9, offset: 0x18DC9, size: 0x8, addend: 0x0, symName: __ZNKSt6vectorIxSaIxEE3endEv, symObjAddr: 0x2878, symBinAddr: 0x1000058F0, symSize: 0x28 }
  - { offsetInCU: 0x18DF3, offset: 0x18DF3, size: 0x8, addend: 0x0, symName: __ZNKSt13_Rb_tree_nodeISt6vectorIxSaIxEEE9_M_valptrEv, symObjAddr: 0x2858, symBinAddr: 0x1000058D0, symSize: 0x20 }
  - { offsetInCU: 0x18E1D, offset: 0x18E1D, size: 0x8, addend: 0x0, symName: __ZNKSt8_Rb_treeISt6vectorIxSaIxEES2_St9_IdentityIS2_ESt4lessIS2_ESaIS2_EE5beginEv, symObjAddr: 0x2830, symBinAddr: 0x1000058A8, symSize: 0x28 }
  - { offsetInCU: 0x18EBA, offset: 0x18EBA, size: 0x8, addend: 0x0, symName: __ZNSt23_Rb_tree_const_iteratorISt6vectorIxSaIxEEEC1ERKSt17_Rb_tree_iteratorIS2_E, symObjAddr: 0x2808, symBinAddr: 0x100005880, symSize: 0x28 }
  - { offsetInCU: 0x18E99, offset: 0x18E99, size: 0x8, addend: 0x0, symName: __ZNSt8_Rb_treeISt6vectorIxSaIxEES2_St9_IdentityIS2_ESt4lessIS2_ESaIS2_EE11upper_boundERKS2_, symObjAddr: 0x27C0, symBinAddr: 0x100005838, symSize: 0x48 }
  - { offsetInCU: 0x18F7E, offset: 0x18F7E, size: 0x8, addend: 0x0, symName: __ZNSt4pairISt23_Rb_tree_const_iteratorISt6vectorIxSaIxEEEbEC1IRSt17_Rb_tree_iteratorIS3_ERbLb1EEEOT_OT0_, symObjAddr: 0x276C, symBinAddr: 0x1000057E4, symSize: 0x54 }
  - { offsetInCU: 0x18F5F, offset: 0x18F5F, size: 0x8, addend: 0x0, symName: __ZNSt8_Rb_treeISt6vectorIxSaIxEES2_St9_IdentityIS2_ESt4lessIS2_ESaIS2_EE16_M_insert_uniqueIRKS2_EESt4pairISt17_Rb_tree_iteratorIS2_EbEOT_, symObjAddr: 0x26A0, symBinAddr: 0x100005718, symSize: 0xCC }
  - { offsetInCU: 0x18FD9, offset: 0x18FD9, size: 0x8, addend: 0x0, symName: __ZNSt6vectorIxSaIxEE12emplace_backIJxEEERxDpOT_, symObjAddr: 0x25B8, symBinAddr: 0x100005630, symSize: 0xE8 }
  - { offsetInCU: 0x19082, offset: 0x19082, size: 0x8, addend: 0x0, symName: __ZSt4moveIRxEONSt16remove_referenceIT_E4typeEOS2_, symObjAddr: 0x25A4, symBinAddr: 0x10000561C, symSize: 0x14 }
  - { offsetInCU: 0x190B6, offset: 0x190B6, size: 0x8, addend: 0x0, symName: __ZNSt6vectorIxSaIxEE17_M_realloc_insertIJRKxEEEvN9__gnu_cxx17__normal_iteratorIPxS1_EEDpOT_, symObjAddr: 0x23E4, symBinAddr: 0x10000545C, symSize: 0x1C0 }
  - { offsetInCU: 0x191D5, offset: 0x191D5, size: 0x8, addend: 0x0, symName: __ZNSt6vectorIxSaIxEE3endEv, symObjAddr: 0x23BC, symBinAddr: 0x100005434, symSize: 0x28 }
  - { offsetInCU: 0x19243, offset: 0x19243, size: 0x8, addend: 0x0, symName: __ZNKSt13_Rb_tree_nodeINSt7__cxx1112basic_stringIcSt11char_traitsIcESaIcEEEE9_M_valptrEv, symObjAddr: 0x239C, symBinAddr: 0x100005414, symSize: 0x20 }
  - { offsetInCU: 0x1926D, offset: 0x1926D, size: 0x8, addend: 0x0, symName: __ZNKSt8_Rb_treeINSt7__cxx1112basic_stringIcSt11char_traitsIcESaIcEEES5_St9_IdentityIS5_ESt4lessIS5_ESaIS5_EE3endEv, symObjAddr: 0x2374, symBinAddr: 0x1000053EC, symSize: 0x28 }
  - { offsetInCU: 0x19297, offset: 0x19297, size: 0x8, addend: 0x0, symName: __ZNKSt8_Rb_treeINSt7__cxx1112basic_stringIcSt11char_traitsIcESaIcEEES5_St9_IdentityIS5_ESt4lessIS5_ESaIS5_EE5beginEv, symObjAddr: 0x234C, symBinAddr: 0x1000053C4, symSize: 0x28 }
  - { offsetInCU: 0x192FC, offset: 0x192FC, size: 0x8, addend: 0x0, symName: __ZNSt12_Vector_baseIxSaIxEE19_M_get_Tp_allocatorEv, symObjAddr: 0x2338, symBinAddr: 0x1000053B0, symSize: 0x14 }
  - { offsetInCU: 0x19326, offset: 0x19326, size: 0x8, addend: 0x0, symName: __ZNSt12_Vector_baseIxSaIxEE13_M_deallocateEPxm, symObjAddr: 0x22E0, symBinAddr: 0x100005358, symSize: 0x58 }
  - { offsetInCU: 0x193DD, offset: 0x193DD, size: 0x8, addend: 0x0, symName: __ZNSt15__new_allocatorIxED2Ev, symObjAddr: 0x22CC, symBinAddr: 0x100005344, symSize: 0x14 }
  - { offsetInCU: 0x1942E, offset: 0x1942E, size: 0x8, addend: 0x0, symName: __ZNSt12_Vector_baseIxSaIxEE17_Vector_impl_dataC2Ev, symObjAddr: 0x22A0, symBinAddr: 0x100005318, symSize: 0x2C }
  - { offsetInCU: 0x19437, offset: 0x19437, size: 0x8, addend: 0x0, symName: __ZNSt8_Rb_treeISt6vectorIxSaIxEES2_St9_IdentityIS2_ESt4lessIS2_ESaIS2_EE8_M_beginEv, symObjAddr: 0x2284, symBinAddr: 0x1000052FC, symSize: 0x1C }
  - { offsetInCU: 0x19461, offset: 0x19461, size: 0x8, addend: 0x0, symName: __ZNSt8_Rb_treeISt6vectorIxSaIxEES2_St9_IdentityIS2_ESt4lessIS2_ESaIS2_EE8_M_eraseEPSt13_Rb_tree_nodeIS2_E, symObjAddr: 0x2220, symBinAddr: 0x100005298, symSize: 0x64 }
  - { offsetInCU: 0x1951C, offset: 0x1951C, size: 0x8, addend: 0x0, symName: __ZNSt15__new_allocatorISt13_Rb_tree_nodeISt6vectorIxSaIxEEEED2Ev, symObjAddr: 0x220C, symBinAddr: 0x100005284, symSize: 0x14 }
  - { offsetInCU: 0x19553, offset: 0x19553, size: 0x8, addend: 0x0, symName: __ZNSt20_Rb_tree_key_compareISt4lessISt6vectorIxSaIxEEEEC2Ev, symObjAddr: 0x21F8, symBinAddr: 0x100005270, symSize: 0x14 }
  - { offsetInCU: 0x19621, offset: 0x19621, size: 0x8, addend: 0x0, symName: __ZNSt4pairISt23_Rb_tree_const_iteratorINSt7__cxx1112basic_stringIcSt11char_traitsIcESaIcEEEEbEC1IRSt17_Rb_tree_iteratorIS6_ERbLb1EEEOT_OT0_, symObjAddr: 0x21A4, symBinAddr: 0x10000521C, symSize: 0x54 }
  - { offsetInCU: 0x195DF, offset: 0x195DF, size: 0x8, addend: 0x0, symName: __ZNSt8_Rb_treeINSt7__cxx1112basic_stringIcSt11char_traitsIcESaIcEEES5_St9_IdentityIS5_ESt4lessIS5_ESaIS5_EE16_M_insert_uniqueIRKS5_EESt4pairISt17_Rb_tree_iteratorIS5_EbEOT_, symObjAddr: 0x20D8, symBinAddr: 0x100005150, symSize: 0xCC }
  - { offsetInCU: 0x19659, offset: 0x19659, size: 0x8, addend: 0x0, symName: __ZNSt8_Rb_treeINSt7__cxx1112basic_stringIcSt11char_traitsIcESaIcEEES5_St9_IdentityIS5_ESt4lessIS5_ESaIS5_EE8_M_beginEv, symObjAddr: 0x20BC, symBinAddr: 0x100005134, symSize: 0x1C }
  - { offsetInCU: 0x19683, offset: 0x19683, size: 0x8, addend: 0x0, symName: __ZNSt8_Rb_treeINSt7__cxx1112basic_stringIcSt11char_traitsIcESaIcEEES5_St9_IdentityIS5_ESt4lessIS5_ESaIS5_EE8_M_eraseEPSt13_Rb_tree_nodeIS5_E, symObjAddr: 0x2058, symBinAddr: 0x1000050D0, symSize: 0x64 }
  - { offsetInCU: 0x19761, offset: 0x19761, size: 0x8, addend: 0x0, symName: __ZNSt15__new_allocatorISt13_Rb_tree_nodeINSt7__cxx1112basic_stringIcSt11char_traitsIcESaIcEEEEED2Ev, symObjAddr: 0x2044, symBinAddr: 0x1000050BC, symSize: 0x14 }
  - { offsetInCU: 0x19798, offset: 0x19798, size: 0x8, addend: 0x0, symName: __ZNSt20_Rb_tree_key_compareISt4lessINSt7__cxx1112basic_stringIcSt11char_traitsIcESaIcEEEEEC2Ev, symObjAddr: 0x2030, symBinAddr: 0x1000050A8, symSize: 0x14 }
  - { offsetInCU: 0x19775, offset: 0x19775, size: 0x8, addend: 0x0, symName: __ZNSt8_Rb_treeINSt7__cxx1112basic_stringIcSt11char_traitsIcESaIcEEESt4pairIKS5_xESt10_Select1stIS8_ESt4lessIS5_ESaIS8_EE22_M_emplace_hint_uniqueIJRKSt21piecewise_construct_tSt5tupleIJRS7_EESJ_IJEEEEESt17_Rb_tree_iteratorIS8_ESt23_Rb_tree_const_iteratorIS8_EDpOT_, symObjAddr: 0x1F58, symBinAddr: 0x100004FD0, symSize: 0xD8 }
  - { offsetInCU: 0x198A7, offset: 0x198A7, size: 0x8, addend: 0x0, symName: __ZNSt23_Rb_tree_const_iteratorISt4pairIKNSt7__cxx1112basic_stringIcSt11char_traitsIcESaIcEEExEEC1ERKSt17_Rb_tree_iteratorIS8_E, symObjAddr: 0x1F30, symBinAddr: 0x100004FA8, symSize: 0x28 }
  - { offsetInCU: 0x198DA, offset: 0x198DA, size: 0x8, addend: 0x0, symName: __ZNSt5tupleIJRKNSt7__cxx1112basic_stringIcSt11char_traitsIcESaIcEEEEEC1ILb1ELb1EEES7_, symObjAddr: 0x1F08, symBinAddr: 0x100004F80, symSize: 0x28 }
  - { offsetInCU: 0x198BE, offset: 0x198BE, size: 0x8, addend: 0x0, symName: __ZNKSt4lessINSt7__cxx1112basic_stringIcSt11char_traitsIcESaIcEEEEclERKS5_S8_, symObjAddr: 0x1EDC, symBinAddr: 0x100004F54, symSize: 0x2C }
  - { offsetInCU: 0x19908, offset: 0x19908, size: 0x8, addend: 0x0, symName: __ZNKSt17_Rb_tree_iteratorISt4pairIKNSt7__cxx1112basic_stringIcSt11char_traitsIcESaIcEEExEEdeEv, symObjAddr: 0x1EBC, symBinAddr: 0x100004F34, symSize: 0x20 }
  - { offsetInCU: 0x19932, offset: 0x19932, size: 0x8, addend: 0x0, symName: __ZNKSt3mapINSt7__cxx1112basic_stringIcSt11char_traitsIcESaIcEEExSt4lessIS5_ESaISt4pairIKS5_xEEE8key_compEv, symObjAddr: 0x1E90, symBinAddr: 0x100004F08, symSize: 0x2C }
  - { offsetInCU: 0x1995E, offset: 0x1995E, size: 0x8, addend: 0x0, symName: __ZSteqRKSt17_Rb_tree_iteratorISt4pairIKNSt7__cxx1112basic_stringIcSt11char_traitsIcESaIcEEExEESB_, symObjAddr: 0x1E60, symBinAddr: 0x100004ED8, symSize: 0x30 }
  - { offsetInCU: 0x1999A, offset: 0x1999A, size: 0x8, addend: 0x0, symName: __ZNSt3mapINSt7__cxx1112basic_stringIcSt11char_traitsIcESaIcEEExSt4lessIS5_ESaISt4pairIKS5_xEEE3endEv, symObjAddr: 0x1E44, symBinAddr: 0x100004EBC, symSize: 0x1C }
  - { offsetInCU: 0x199C4, offset: 0x199C4, size: 0x8, addend: 0x0, symName: __ZNSt3mapINSt7__cxx1112basic_stringIcSt11char_traitsIcESaIcEEExSt4lessIS5_ESaISt4pairIKS5_xEEE11lower_boundERS9_, symObjAddr: 0x1E20, symBinAddr: 0x100004E98, symSize: 0x24 }
  - { offsetInCU: 0x199FE, offset: 0x199FE, size: 0x8, addend: 0x0, symName: __ZNSt6vectorISt3mapINSt7__cxx1112basic_stringIcSt11char_traitsIcESaIcEEExSt4lessIS6_ESaISt4pairIKS6_xEEESaISD_EE15_M_erase_at_endEPSD_, symObjAddr: 0x1D8C, symBinAddr: 0x100004E04, symSize: 0x94 }
  - { offsetInCU: 0x19A8D, offset: 0x19A8D, size: 0x8, addend: 0x0, symName: __ZNSt6vectorISt3mapINSt7__cxx1112basic_stringIcSt11char_traitsIcESaIcEEExSt4lessIS6_ESaISt4pairIKS6_xEEESaISD_EE17_M_default_appendEm, symObjAddr: 0x1B44, symBinAddr: 0x100004BBC, symSize: 0x248 }
  - { offsetInCU: 0x19B35, offset: 0x19B35, size: 0x8, addend: 0x0, symName: __ZNKSt6vectorISt3mapINSt7__cxx1112basic_stringIcSt11char_traitsIcESaIcEEExSt4lessIS6_ESaISt4pairIKS6_xEEESaISD_EE4sizeEv, symObjAddr: 0x1B10, symBinAddr: 0x100004B88, symSize: 0x34 }
  - { offsetInCU: 0x19B5F, offset: 0x19B5F, size: 0x8, addend: 0x0, symName: __ZNSt6vectorINSt7__cxx1112basic_stringIcSt11char_traitsIcESaIcEEESaIS5_EE15_M_erase_at_endEPS5_, symObjAddr: 0x1A88, symBinAddr: 0x100004B00, symSize: 0x88 }
  - { offsetInCU: 0x19BEE, offset: 0x19BEE, size: 0x8, addend: 0x0, symName: __ZNSt6vectorINSt7__cxx1112basic_stringIcSt11char_traitsIcESaIcEEESaIS5_EE17_M_default_appendEm, symObjAddr: 0x1888, symBinAddr: 0x100004900, symSize: 0x200 }
  - { offsetInCU: 0x19C96, offset: 0x19C96, size: 0x8, addend: 0x0, symName: __ZNKSt6vectorINSt7__cxx1112basic_stringIcSt11char_traitsIcESaIcEEESaIS5_EE4sizeEv, symObjAddr: 0x1860, symBinAddr: 0x1000048D8, symSize: 0x28 }
  - { offsetInCU: 0x19CC0, offset: 0x19CC0, size: 0x8, addend: 0x0, symName: __ZNSt12_Vector_baseISt3mapINSt7__cxx1112basic_stringIcSt11char_traitsIcESaIcEEExSt4lessIS6_ESaISt4pairIKS6_xEEESaISD_EE13_M_deallocateEPSD_m, symObjAddr: 0x1808, symBinAddr: 0x100004880, symSize: 0x58 }
  - { offsetInCU: 0x19DD1, offset: 0x19DD1, size: 0x8, addend: 0x0, symName: __ZNSt15__new_allocatorISt3mapINSt7__cxx1112basic_stringIcSt11char_traitsIcESaIcEEExSt4lessIS6_ESaISt4pairIKS6_xEEEED2Ev, symObjAddr: 0x17F4, symBinAddr: 0x10000486C, symSize: 0x14 }
  - { offsetInCU: 0x19E24, offset: 0x19E24, size: 0x8, addend: 0x0, symName: __ZNSt12_Vector_baseISt3mapINSt7__cxx1112basic_stringIcSt11char_traitsIcESaIcEEExSt4lessIS6_ESaISt4pairIKS6_xEEESaISD_EE17_Vector_impl_dataC2Ev, symObjAddr: 0x17C8, symBinAddr: 0x100004840, symSize: 0x2C }
  - { offsetInCU: 0x19DD1, offset: 0x19DD1, size: 0x8, addend: 0x0, symName: __ZNSt12_Vector_baseINSt7__cxx1112basic_stringIcSt11char_traitsIcESaIcEEESaIS5_EE13_M_deallocateEPS5_m, symObjAddr: 0x1770, symBinAddr: 0x1000047E8, symSize: 0x58 }
  - { offsetInCU: 0x19EBB, offset: 0x19EBB, size: 0x8, addend: 0x0, symName: __ZNSt15__new_allocatorINSt7__cxx1112basic_stringIcSt11char_traitsIcESaIcEEEED2Ev, symObjAddr: 0x175C, symBinAddr: 0x1000047D4, symSize: 0x14 }
  - { offsetInCU: 0x19F0E, offset: 0x19F0E, size: 0x8, addend: 0x0, symName: __ZNSt12_Vector_baseINSt7__cxx1112basic_stringIcSt11char_traitsIcESaIcEEESaIS5_EE17_Vector_impl_dataC2Ev, symObjAddr: 0x1730, symBinAddr: 0x1000047A8, symSize: 0x2C }
  - { offsetInCU: 0x19EE4, offset: 0x19EE4, size: 0x8, addend: 0x0, symName: __ZSt4moveIRNSt7__cxx1112basic_stringIcSt11char_traitsIcESaIcEEEEONSt16remove_referenceIT_E4typeEOS8_, symObjAddr: 0x171C, symBinAddr: 0x100004794, symSize: 0x14 }
  - { offsetInCU: 0x19F18, offset: 0x19F18, size: 0x8, addend: 0x0, symName: __ZNKSt16reverse_iteratorIN9__gnu_cxx17__normal_iteratorIPKxSt6vectorIxSaIxEEEEEdeEv, symObjAddr: 0x16F0, symBinAddr: 0x100004768, symSize: 0x2C }
  - { offsetInCU: 0x19F52, offset: 0x19F52, size: 0x8, addend: 0x0, symName: __ZNKSt6vectorIxSaIxEE6rbeginEv, symObjAddr: 0x16B8, symBinAddr: 0x100004730, symSize: 0x38 }
  - { offsetInCU: 0x19F7C, offset: 0x19F7C, size: 0x8, addend: 0x0, symName: __ZNKSt6vectorIxSaIxEEixEm, symObjAddr: 0x1690, symBinAddr: 0x100004708, symSize: 0x28 }
  - { offsetInCU: 0x19FB6, offset: 0x19FB6, size: 0x8, addend: 0x0, symName: __ZNKSt23_Rb_tree_const_iteratorISt6vectorIxSaIxEEEdeEv, symObjAddr: 0x1670, symBinAddr: 0x1000046E8, symSize: 0x20 }
  - { offsetInCU: 0x19FE0, offset: 0x19FE0, size: 0x8, addend: 0x0, symName: __ZNSt6vectorIxSaIxEEixEm, symObjAddr: 0x1648, symBinAddr: 0x1000046C0, symSize: 0x28 }
  - { offsetInCU: 0x1A01A, offset: 0x1A01A, size: 0x8, addend: 0x0, symName: __ZNKSt6vectorIxSaIxEE4sizeEv, symObjAddr: 0x1620, symBinAddr: 0x100004698, symSize: 0x28 }
  - { offsetInCU: 0x1A044, offset: 0x1A044, size: 0x8, addend: 0x0, symName: __ZNSt23_Rb_tree_const_iteratorISt6vectorIxSaIxEEEmmEi, symObjAddr: 0x15E0, symBinAddr: 0x100004658, symSize: 0x40 }
  - { offsetInCU: 0x1A088, offset: 0x1A088, size: 0x8, addend: 0x0, symName: __ZSteqRKSt23_Rb_tree_const_iteratorISt6vectorIxSaIxEEES5_, symObjAddr: 0x15B0, symBinAddr: 0x100004628, symSize: 0x30 }
  - { offsetInCU: 0x1A0C4, offset: 0x1A0C4, size: 0x8, addend: 0x0, symName: __ZNKSt3setISt6vectorIxSaIxEESt4lessIS2_ESaIS2_EE5beginEv, symObjAddr: 0x1594, symBinAddr: 0x10000460C, symSize: 0x1C }
  - { offsetInCU: 0x1A0EE, offset: 0x1A0EE, size: 0x8, addend: 0x0, symName: __ZNSt3setISt6vectorIxSaIxEESt4lessIS2_ESaIS2_EE11upper_boundERKS2_, symObjAddr: 0x155C, symBinAddr: 0x1000045D4, symSize: 0x38 }
  - { offsetInCU: 0x1A128, offset: 0x1A128, size: 0x8, addend: 0x0, symName: __ZNSt3setISt6vectorIxSaIxEESt4lessIS2_ESaIS2_EE6insertERKS2_, symObjAddr: 0x151C, symBinAddr: 0x100004594, symSize: 0x40 }
  - { offsetInCU: 0x1A172, offset: 0x1A172, size: 0x8, addend: 0x0, symName: __ZNSt6vectorIxSaIxEE9push_backEOx, symObjAddr: 0x14EC, symBinAddr: 0x100004564, symSize: 0x30 }
  - { offsetInCU: 0x1A1AC, offset: 0x1A1AC, size: 0x8, addend: 0x0, symName: __ZNSt6vectorIxSaIxEE9push_backERKx, symObjAddr: 0x1418, symBinAddr: 0x100004490, symSize: 0xD4 }
  - { offsetInCU: 0x1A24A, offset: 0x1A24A, size: 0x8, addend: 0x0, symName: __ZNKSt23_Rb_tree_const_iteratorINSt7__cxx1112basic_stringIcSt11char_traitsIcESaIcEEEEdeEv, symObjAddr: 0x13F8, symBinAddr: 0x100004470, symSize: 0x20 }
  - { offsetInCU: 0x1A274, offset: 0x1A274, size: 0x8, addend: 0x0, symName: __ZNSt23_Rb_tree_const_iteratorINSt7__cxx1112basic_stringIcSt11char_traitsIcESaIcEEEEppEv, symObjAddr: 0x13C8, symBinAddr: 0x100004440, symSize: 0x30 }
  - { offsetInCU: 0x1A2A0, offset: 0x1A2A0, size: 0x8, addend: 0x0, symName: __ZStneRKSt23_Rb_tree_const_iteratorINSt7__cxx1112basic_stringIcSt11char_traitsIcESaIcEEEES8_, symObjAddr: 0x1398, symBinAddr: 0x100004410, symSize: 0x30 }
  - { offsetInCU: 0x1A2DC, offset: 0x1A2DC, size: 0x8, addend: 0x0, symName: __ZNKSt3setINSt7__cxx1112basic_stringIcSt11char_traitsIcESaIcEEESt4lessIS5_ESaIS5_EE3endEv, symObjAddr: 0x137C, symBinAddr: 0x1000043F4, symSize: 0x1C }
  - { offsetInCU: 0x1A306, offset: 0x1A306, size: 0x8, addend: 0x0, symName: __ZNKSt3setINSt7__cxx1112basic_stringIcSt11char_traitsIcESaIcEEESt4lessIS5_ESaIS5_EE5beginEv, symObjAddr: 0x1360, symBinAddr: 0x1000043D8, symSize: 0x1C }
  - { offsetInCU: 0x1A366, offset: 0x1A366, size: 0x8, addend: 0x0, symName: __ZNSt6vectorIxSaIxEED1Ev, symObjAddr: 0x1304, symBinAddr: 0x10000437C, symSize: 0x5C }
  - { offsetInCU: 0x1A3E4, offset: 0x1A3E4, size: 0x8, addend: 0x0, symName: __ZNSt12_Vector_baseIxSaIxEED2Ev, symObjAddr: 0x12B4, symBinAddr: 0x10000432C, symSize: 0x50 }
  - { offsetInCU: 0x1A44B, offset: 0x1A44B, size: 0x8, addend: 0x0, symName: __ZNSt12_Vector_baseIxSaIxEE12_Vector_implC1Ev, symObjAddr: 0x127C, symBinAddr: 0x1000042F4, symSize: 0x38 }
  - { offsetInCU: 0x1A4F3, offset: 0x1A4F3, size: 0x8, addend: 0x0, symName: __ZNSt8_Rb_treeISt6vectorIxSaIxEES2_St9_IdentityIS2_ESt4lessIS2_ESaIS2_EED1Ev, symObjAddr: 0x1248, symBinAddr: 0x1000042C0, symSize: 0x34 }
  - { offsetInCU: 0x1A564, offset: 0x1A564, size: 0x8, addend: 0x0, symName: __ZNSt8_Rb_treeISt6vectorIxSaIxEES2_St9_IdentityIS2_ESt4lessIS2_ESaIS2_EE13_Rb_tree_implIS6_Lb1EEC1Ev, symObjAddr: 0x1204, symBinAddr: 0x10000427C, symSize: 0x44 }
  - { offsetInCU: 0x1A56B, offset: 0x1A56B, size: 0x8, addend: 0x0, symName: __ZNSt3setINSt7__cxx1112basic_stringIcSt11char_traitsIcESaIcEEESt4lessIS5_ESaIS5_EE6insertERKS5_, symObjAddr: 0x11C4, symBinAddr: 0x10000423C, symSize: 0x40 }
  - { offsetInCU: 0x1A5B1, offset: 0x1A5B1, size: 0x8, addend: 0x0, symName: __ZSteqIcSt11char_traitsIcESaIcEEbRKNSt7__cxx1112basic_stringIT_T0_T1_EESA_, symObjAddr: 0x1144, symBinAddr: 0x1000041BC, symSize: 0x80 }
  - { offsetInCU: 0x1A695, offset: 0x1A695, size: 0x8, addend: 0x0, symName: __ZNSt8_Rb_treeINSt7__cxx1112basic_stringIcSt11char_traitsIcESaIcEEES5_St9_IdentityIS5_ESt4lessIS5_ESaIS5_EED1Ev, symObjAddr: 0x1110, symBinAddr: 0x100004188, symSize: 0x34 }
  - { offsetInCU: 0x1A706, offset: 0x1A706, size: 0x8, addend: 0x0, symName: __ZNSt8_Rb_treeINSt7__cxx1112basic_stringIcSt11char_traitsIcESaIcEEES5_St9_IdentityIS5_ESt4lessIS5_ESaIS5_EE13_Rb_tree_implIS9_Lb1EEC1Ev, symObjAddr: 0x10CC, symBinAddr: 0x100004144, symSize: 0x44 }
  - { offsetInCU: 0x1A6EA, offset: 0x1A6EA, size: 0x8, addend: 0x0, symName: __ZNSt3mapINSt7__cxx1112basic_stringIcSt11char_traitsIcESaIcEEExSt4lessIS5_ESaISt4pairIKS5_xEEEixERS9_, symObjAddr: 0xFD8, symBinAddr: 0x100004050, symSize: 0xF4 }
  - { offsetInCU: 0x1A734, offset: 0x1A734, size: 0x8, addend: 0x0, symName: __ZNSt6vectorISt3mapINSt7__cxx1112basic_stringIcSt11char_traitsIcESaIcEEExSt4lessIS6_ESaISt4pairIKS6_xEEESaISD_EEixEm, symObjAddr: 0xFA4, symBinAddr: 0x10000401C, symSize: 0x34 }
  - { offsetInCU: 0x1A76E, offset: 0x1A76E, size: 0x8, addend: 0x0, symName: __ZNSt6vectorINSt7__cxx1112basic_stringIcSt11char_traitsIcESaIcEEESaIS5_EEixEm, symObjAddr: 0xF7C, symBinAddr: 0x100003FF4, symSize: 0x28 }
  - { offsetInCU: 0x1A7A8, offset: 0x1A7A8, size: 0x8, addend: 0x0, symName: __ZNSt6vectorISt3mapINSt7__cxx1112basic_stringIcSt11char_traitsIcESaIcEEExSt4lessIS6_ESaISt4pairIKS6_xEEESaISD_EE6resizeEm, symObjAddr: 0xEC0, symBinAddr: 0x100003F38, symSize: 0xBC }
  - { offsetInCU: 0x1A7E2, offset: 0x1A7E2, size: 0x8, addend: 0x0, symName: __ZNSt6vectorINSt7__cxx1112basic_stringIcSt11char_traitsIcESaIcEEESaIS5_EE6resizeEm, symObjAddr: 0xE10, symBinAddr: 0x100003E88, symSize: 0xB0 }
  - { offsetInCU: 0x1A8B5, offset: 0x1A8B5, size: 0x8, addend: 0x0, symName: __ZNSt12_Vector_baseISt3mapINSt7__cxx1112basic_stringIcSt11char_traitsIcESaIcEEExSt4lessIS6_ESaISt4pairIKS6_xEEESaISD_EED2Ev, symObjAddr: 0xDB4, symBinAddr: 0x100003E2C, symSize: 0x5C }
  - { offsetInCU: 0x1A91C, offset: 0x1A91C, size: 0x8, addend: 0x0, symName: __ZNSt12_Vector_baseISt3mapINSt7__cxx1112basic_stringIcSt11char_traitsIcESaIcEEExSt4lessIS6_ESaISt4pairIKS6_xEEESaISD_EE12_Vector_implC1Ev, symObjAddr: 0xD7C, symBinAddr: 0x100003DF4, symSize: 0x38 }
  - { offsetInCU: 0x1A970, offset: 0x1A970, size: 0x8, addend: 0x0, symName: __ZNSt12_Vector_baseINSt7__cxx1112basic_stringIcSt11char_traitsIcESaIcEEESaIS5_EED2Ev, symObjAddr: 0xD2C, symBinAddr: 0x100003DA4, symSize: 0x50 }
  - { offsetInCU: 0x1A9D7, offset: 0x1A9D7, size: 0x8, addend: 0x0, symName: __ZNSt12_Vector_baseINSt7__cxx1112basic_stringIcSt11char_traitsIcESaIcEEESaIS5_EE12_Vector_implC1Ev, symObjAddr: 0xCF4, symBinAddr: 0x100003D6C, symSize: 0x38 }
  - { offsetInCU: 0x1A9E5, offset: 0x1A9E5, size: 0x8, addend: 0x0, symName: _main, symObjAddr: 0x504, symBinAddr: 0x10000357C, symSize: 0x7F0 }
  - { offsetInCU: 0x1AC8E, offset: 0x1AC8E, size: 0x8, addend: 0x0, symName: __ZNSt6vectorIxSaIxEEC1Ev, symObjAddr: 0x4E4, symBinAddr: 0x10000355C, symSize: 0x20 }
  - { offsetInCU: 0x1ACD1, offset: 0x1ACD1, size: 0x8, addend: 0x0, symName: __ZNSt12_Vector_baseIxSaIxEEC2Ev, symObjAddr: 0x4C4, symBinAddr: 0x10000353C, symSize: 0x20 }
  - { offsetInCU: 0x1AD28, offset: 0x1AD28, size: 0x8, addend: 0x0, symName: __ZNSt12_Vector_baseIxSaIxEE12_Vector_implD1Ev, symObjAddr: 0x498, symBinAddr: 0x100003510, symSize: 0x2C }
  - { offsetInCU: 0x1AD95, offset: 0x1AD95, size: 0x8, addend: 0x0, symName: __ZNSt3setISt6vectorIxSaIxEESt4lessIS2_ESaIS2_EED1Ev, symObjAddr: 0x478, symBinAddr: 0x1000034F0, symSize: 0x20 }
  - { offsetInCU: 0x1ADD1, offset: 0x1ADD1, size: 0x8, addend: 0x0, symName: __ZNSt3setISt6vectorIxSaIxEESt4lessIS2_ESaIS2_EEC1Ev, symObjAddr: 0x458, symBinAddr: 0x1000034D0, symSize: 0x20 }
  - { offsetInCU: 0x1AE26, offset: 0x1AE26, size: 0x8, addend: 0x0, symName: __ZNSt8_Rb_treeISt6vectorIxSaIxEES2_St9_IdentityIS2_ESt4lessIS2_ESaIS2_EEC1Ev, symObjAddr: 0x438, symBinAddr: 0x1000034B0, symSize: 0x20 }
  - { offsetInCU: 0x1AE88, offset: 0x1AE88, size: 0x8, addend: 0x0, symName: __ZNSt8_Rb_treeISt6vectorIxSaIxEES2_St9_IdentityIS2_ESt4lessIS2_ESaIS2_EE13_Rb_tree_implIS6_Lb1EED1Ev, symObjAddr: 0x40C, symBinAddr: 0x100003484, symSize: 0x2C }
  - { offsetInCU: 0x1AEE1, offset: 0x1AEE1, size: 0x8, addend: 0x0, symName: __ZNSt3setINSt7__cxx1112basic_stringIcSt11char_traitsIcESaIcEEESt4lessIS5_ESaIS5_EED1Ev, symObjAddr: 0x3EC, symBinAddr: 0x100003464, symSize: 0x20 }
  - { offsetInCU: 0x1AF1D, offset: 0x1AF1D, size: 0x8, addend: 0x0, symName: __ZNSt3setINSt7__cxx1112basic_stringIcSt11char_traitsIcESaIcEEESt4lessIS5_ESaIS5_EEC1Ev, symObjAddr: 0x3CC, symBinAddr: 0x100003444, symSize: 0x20 }
  - { offsetInCU: 0x1AF72, offset: 0x1AF72, size: 0x8, addend: 0x0, symName: __ZNSt8_Rb_treeINSt7__cxx1112basic_stringIcSt11char_traitsIcESaIcEEES5_St9_IdentityIS5_ESt4lessIS5_ESaIS5_EEC1Ev, symObjAddr: 0x3AC, symBinAddr: 0x100003424, symSize: 0x20 }
  - { offsetInCU: 0x1AFD4, offset: 0x1AFD4, size: 0x8, addend: 0x0, symName: __ZNSt8_Rb_treeINSt7__cxx1112basic_stringIcSt11char_traitsIcESaIcEEES5_St9_IdentityIS5_ESt4lessIS5_ESaIS5_EE13_Rb_tree_implIS9_Lb1EED1Ev, symObjAddr: 0x380, symBinAddr: 0x1000033F8, symSize: 0x2C }
  - { offsetInCU: 0x1B01F, offset: 0x1B01F, size: 0x8, addend: 0x0, symName: __ZNSt6vectorISt3mapINSt7__cxx1112basic_stringIcSt11char_traitsIcESaIcEEExSt4lessIS6_ESaISt4pairIKS6_xEEESaISD_EEC1Ev, symObjAddr: 0x360, symBinAddr: 0x1000033D8, symSize: 0x20 }
  - { offsetInCU: 0x1B062, offset: 0x1B062, size: 0x8, addend: 0x0, symName: __ZNSt12_Vector_baseISt3mapINSt7__cxx1112basic_stringIcSt11char_traitsIcESaIcEEExSt4lessIS6_ESaISt4pairIKS6_xEEESaISD_EEC2Ev, symObjAddr: 0x340, symBinAddr: 0x1000033B8, symSize: 0x20 }
  - { offsetInCU: 0x1B0B9, offset: 0x1B0B9, size: 0x8, addend: 0x0, symName: __ZNSt12_Vector_baseISt3mapINSt7__cxx1112basic_stringIcSt11char_traitsIcESaIcEEExSt4lessIS6_ESaISt4pairIKS6_xEEESaISD_EE12_Vector_implD1Ev, symObjAddr: 0x314, symBinAddr: 0x10000338C, symSize: 0x2C }
  - { offsetInCU: 0x1B0DB, offset: 0x1B0DB, size: 0x8, addend: 0x0, symName: __ZNSt6vectorINSt7__cxx1112basic_stringIcSt11char_traitsIcESaIcEEESaIS5_EEC1Ev, symObjAddr: 0x2F4, symBinAddr: 0x10000336C, symSize: 0x20 }
  - { offsetInCU: 0x1B11E, offset: 0x1B11E, size: 0x8, addend: 0x0, symName: __ZNSt12_Vector_baseINSt7__cxx1112basic_stringIcSt11char_traitsIcESaIcEEESaIS5_EEC2Ev, symObjAddr: 0x2D4, symBinAddr: 0x10000334C, symSize: 0x20 }
  - { offsetInCU: 0x1B175, offset: 0x1B175, size: 0x8, addend: 0x0, symName: __ZNSt12_Vector_baseINSt7__cxx1112basic_stringIcSt11char_traitsIcESaIcEEESaIS5_EE12_Vector_implD1Ev, symObjAddr: 0x2A8, symBinAddr: 0x100003320, symSize: 0x2C }
  - { offsetInCU: 0x1B15C, offset: 0x1B15C, size: 0x8, addend: 0x0, symName: __ZNSt15_Rb_tree_header8_M_resetEv, symObjAddr: 0x26C, symBinAddr: 0x1000032E4, symSize: 0x3C }
  - { offsetInCU: 0x1B186, offset: 0x1B186, size: 0x8, addend: 0x0, symName: __ZNSt15_Rb_tree_header12_M_move_dataERS_, symObjAddr: 0x1E8, symBinAddr: 0x100003260, symSize: 0x84 }
  - { offsetInCU: 0x1B1FC, offset: 0x1B1FC, size: 0x8, addend: 0x0, symName: __ZNSt15_Rb_tree_headerC2EOS_, symObjAddr: 0x19C, symBinAddr: 0x100003214, symSize: 0x4C }
  - { offsetInCU: 0x1B23E, offset: 0x1B23E, size: 0x8, addend: 0x0, symName: __ZNSt15_Rb_tree_headerC2Ev, symObjAddr: 0x174, symBinAddr: 0x1000031EC, symSize: 0x28 }
  - { offsetInCU: 0x1B247, offset: 0x1B247, size: 0x8, addend: 0x0, symName: __ZNSt11char_traitsIcE7compareEPKcS2_m, symObjAddr: 0x78, symBinAddr: 0x1000030F0, symSize: 0xFC }
  - { offsetInCU: 0x1B2B2, offset: 0x1B2B2, size: 0x8, addend: 0x0, symName: __ZNSt11char_traitsIcE2ltERKcS2_, symObjAddr: 0x40, symBinAddr: 0x1000030B8, symSize: 0x38 }
  - { offsetInCU: 0x1B2F7, offset: 0x1B2F7, size: 0x8, addend: 0x0, symName: __ZdlPvS_, symObjAddr: 0x28, symBinAddr: 0x1000030A0, symSize: 0x18 }
  - { offsetInCU: 0x1B32A, offset: 0x1B32A, size: 0x8, addend: 0x0, symName: __ZnwmPv, symObjAddr: 0x10, symBinAddr: 0x100003088, symSize: 0x18 }
  - { offsetInCU: 0x1B356, offset: 0x1B356, size: 0x8, addend: 0x0, symName: __ZN9__gnu_cxx5__ops16__iter_less_iterEv, symObjAddr: 0x8, symBinAddr: 0x100003080, symSize: 0x8 }
  - { offsetInCU: 0x1B36E, offset: 0x1B36E, size: 0x8, addend: 0x0, symName: __ZSt23__is_constant_evaluatedv, symObjAddr: 0x0, symBinAddr: 0x100003078, symSize: 0x8 }
...
