---
triple:          'arm64-apple-darwin'
binary-path:     '/Users/dingkai/Code/IOI2024/NZOI/2021-2-5.gout'
relocations:
  - { offsetInCU: 0xBB, offset: 0xBB, size: 0x8, addend: 0x0, symName: __ZN9__gnu_cxx5__ops16__iter_less_iterEv, symObjAddr: 0x0, symBinAddr: 0x100003D94, symSize: 0x8 }
  - { offsetInCU: 0x9590, offset: 0x9590, size: 0x8, addend: 0x0, symName: __ZStL8__ioinit, symObjAddr: 0x47E18, symBinAddr: 0x1000100F4, symSize: 0x0 }
  - { offsetInCU: 0x961A, offset: 0x961A, size: 0x8, addend: 0x0, symName: _h, symObjAddr: 0x47E20, symBinAddr: 0x1000100F8, symSize: 0x0 }
  - { offsetInCU: 0x9630, offset: 0x9630, size: 0x8, addend: 0x0, symName: _w, symObjAddr: 0x47E28, symBinAddr: 0x100010100, symSize: 0x0 }
  - { offsetInCU: 0x9646, offset: 0x9646, size: 0x8, addend: 0x0, symName: _n, symObjAddr: 0x47E30, symBinAddr: 0x100010108, symSize: 0x0 }
  - { offsetInCU: 0x977B, offset: 0x977B, size: 0x8, addend: 0x0, symName: _duckR, symObjAddr: 0x47E38, symBinAddr: 0x100010110, symSize: 0x0 }
  - { offsetInCU: 0x9927, offset: 0x9927, size: 0x8, addend: 0x0, symName: _mpXY, symObjAddr: 0x47E50, symBinAddr: 0x100010128, symSize: 0x0 }
  - { offsetInCU: 0x993D, offset: 0x993D, size: 0x8, addend: 0x0, symName: _mpYX, symObjAddr: 0x47E80, symBinAddr: 0x100010158, symSize: 0x0 }
  - { offsetInCU: 0x9D22, offset: 0x9D22, size: 0x8, addend: 0x0, symName: __GLOBAL__sub_I_2021_2_5.cpp, symObjAddr: 0x449C, symBinAddr: 0x100008230, symSize: 0x14 }
  - { offsetInCU: 0x9D75, offset: 0x9D75, size: 0x8, addend: 0x0, symName: __ZNSt6vectorIS_ISt5arrayIxLm2EESaIS1_EESaIS3_EED1Ev, symObjAddr: 0x4440, symBinAddr: 0x1000081D4, symSize: 0x5C }
  - { offsetInCU: 0x9DBE, offset: 0x9DBE, size: 0x8, addend: 0x0, symName: __Z41__static_initialization_and_destruction_0v, symObjAddr: 0x438C, symBinAddr: 0x100008120, symSize: 0xB4 }
  - { offsetInCU: 0x9E0D, offset: 0x9E0D, size: 0x8, addend: 0x0, symName: __ZNSt3mapISt5arrayIxLm2EEbSt4lessIS1_ESaISt4pairIKS1_bEEED1Ev, symObjAddr: 0x436C, symBinAddr: 0x100008100, symSize: 0x20 }
  - { offsetInCU: 0x9DF3, offset: 0x9DF3, size: 0x8, addend: 0x0, symName: __ZNSt10_Head_baseILm0EOSt5arrayIxLm2EELb0EE7_M_headERS3_, symObjAddr: 0x4354, symBinAddr: 0x1000080E8, symSize: 0x18 }
  - { offsetInCU: 0x9E1A, offset: 0x9E1A, size: 0x8, addend: 0x0, symName: __ZNSt11_Tuple_implILm0EJOSt5arrayIxLm2EEEE7_M_headERS3_, symObjAddr: 0x4338, symBinAddr: 0x1000080CC, symSize: 0x1C }
  - { offsetInCU: 0x9E42, offset: 0x9E42, size: 0x8, addend: 0x0, symName: __ZSt12__get_helperILm0EOSt5arrayIxLm2EEJEERT0_RSt11_Tuple_implIXT_EJS3_DpT1_EE, symObjAddr: 0x431C, symBinAddr: 0x1000080B0, symSize: 0x1C }
  - { offsetInCU: 0x9E88, offset: 0x9E88, size: 0x8, addend: 0x0, symName: __ZSt7forwardIOSt5arrayIxLm2EEEOT_RNSt16remove_referenceIS3_E4typeE, symObjAddr: 0x4308, symBinAddr: 0x10000809C, symSize: 0x14 }
  - { offsetInCU: 0x9EB8, offset: 0x9EB8, size: 0x8, addend: 0x0, symName: __ZSt3getILm0EJOSt5arrayIxLm2EEEERNSt13tuple_elementIXT_ESt5tupleIJDpT0_EEE4typeERS7_, symObjAddr: 0x42EC, symBinAddr: 0x100008080, symSize: 0x1C }
  - { offsetInCU: 0x9EF5, offset: 0x9EF5, size: 0x8, addend: 0x0, symName: __ZNSt11__copy_moveILb0ELb0ESt26random_access_iterator_tagE12__assign_oneISt5arrayIxLm2EEKS4_EEvPT_PT0_, symObjAddr: 0x42C4, symBinAddr: 0x100008058, symSize: 0x28 }
  - { offsetInCU: 0x9FA9, offset: 0x9FA9, size: 0x8, addend: 0x0, symName: __ZNSt12_Vector_baseISt5arrayIxLm2EESaIS1_EE17_Vector_impl_dataC2EOS4_, symObjAddr: 0x4254, symBinAddr: 0x100007FE8, symSize: 0x70 }
  - { offsetInCU: 0x9F9B, offset: 0x9F9B, size: 0x8, addend: 0x0, symName: __ZSt4moveIRNSt12_Vector_baseISt5arrayIxLm2EESaIS2_EE12_Vector_implEEONSt16remove_referenceIT_E4typeEOS8_, symObjAddr: 0x4240, symBinAddr: 0x100007FD4, symSize: 0x14 }
  - { offsetInCU: 0xA0A8, offset: 0xA0A8, size: 0x8, addend: 0x0, symName: __ZNSt4pairIKSt5arrayIxLm2EEbEC1IJOS1_EJLm0EEJEJEEERSt5tupleIJDpT_EERS6_IJDpT1_EESt12_Index_tupleIJXspT0_EEESF_IJXspT2_EEE, symObjAddr: 0x41F8, symBinAddr: 0x100007F8C, symSize: 0x48 }
  - { offsetInCU: 0xA0A8, offset: 0xA0A8, size: 0x8, addend: 0x0, symName: __ZNK9__gnu_cxx5__ops15_Iter_less_iterclIPKxS4_EEbT_T0_, symObjAddr: 0x41C4, symBinAddr: 0x100007F58, symSize: 0x34 }
  - { offsetInCU: 0xA0FC, offset: 0xA0FC, size: 0x8, addend: 0x0, symName: __ZNSt8__lc_raiISt26random_access_iterator_tagS0_E6__cnd2IPKxEEbT_S5_, symObjAddr: 0x41AC, symBinAddr: 0x100007F40, symSize: 0x18 }
  - { offsetInCU: 0xA12D, offset: 0xA12D, size: 0x8, addend: 0x0, symName: __ZNSt8__lc_raiISt26random_access_iterator_tagS0_E10__newlast1IPKxS4_EET_S5_S5_T0_S6_, symObjAddr: 0x4140, symBinAddr: 0x100007ED4, symSize: 0x6C }
  - { offsetInCU: 0xA1B7, offset: 0xA1B7, size: 0x8, addend: 0x0, symName: __ZNSt11__copy_moveILb0ELb1ESt26random_access_iterator_tagE8__copy_mIKSt5arrayIxLm2EES4_EEPT0_PT_S9_S7_, symObjAddr: 0x40B0, symBinAddr: 0x100007E44, symSize: 0x90 }
  - { offsetInCU: 0xA221, offset: 0xA221, size: 0x8, addend: 0x0, symName: __ZSt9__fill_a1IPSt5arrayIxLm2EES1_EN9__gnu_cxx11__enable_ifIXntsrSt11__is_scalarIT0_E7__valueEvE6__typeET_SA_RKS6_, symObjAddr: 0x4060, symBinAddr: 0x100007DF4, symSize: 0x50 }
  - { offsetInCU: 0xA2E0, offset: 0xA2E0, size: 0x8, addend: 0x0, symName: __ZNSt12_Vector_baseISt5arrayIxLm2EESaIS1_EE12_Vector_implC1EOS4_, symObjAddr: 0x3FF4, symBinAddr: 0x100007D88, symSize: 0x6C }
  - { offsetInCU: 0xA3D8, offset: 0xA3D8, size: 0x8, addend: 0x0, symName: __ZNSt4pairIKSt5arrayIxLm2EEbEC1IJOS1_EJEEESt21piecewise_construct_tSt5tupleIJDpT_EES7_IJDpT0_EE, symObjAddr: 0x3FB8, symBinAddr: 0x100007D4C, symSize: 0x3C }
  - { offsetInCU: 0xA41C, offset: 0xA41C, size: 0x8, addend: 0x0, symName: __ZNSt11_Tuple_implILm0EJOSt5arrayIxLm2EEEEC2EOS3_, symObjAddr: 0x3F90, symBinAddr: 0x100007D24, symSize: 0x28 }
  - { offsetInCU: 0xA42A, offset: 0xA42A, size: 0x8, addend: 0x0, symName: __ZSt30__lexicographical_compare_implIPKxS1_N9__gnu_cxx5__ops15_Iter_less_iterEEbT_S5_T0_S6_T1_, symObjAddr: 0x3E74, symBinAddr: 0x100007C08, symSize: 0x11C }
  - { offsetInCU: 0xA4AD, offset: 0xA4AD, size: 0x8, addend: 0x0, symName: __ZSt14__copy_move_a2ILb0EPKSt5arrayIxLm2EEPS1_ET1_T0_S6_S5_, symObjAddr: 0x3E48, symBinAddr: 0x100007BDC, symSize: 0x2C }
  - { offsetInCU: 0xA515, offset: 0xA515, size: 0x8, addend: 0x0, symName: __ZNK9__gnu_cxx17__normal_iteratorIPKSt5arrayIxLm2EESt6vectorIS2_SaIS2_EEE4baseEv, symObjAddr: 0x3E34, symBinAddr: 0x100007BC8, symSize: 0x14 }
  - { offsetInCU: 0xA539, offset: 0xA539, size: 0x8, addend: 0x0, symName: __ZSt8__fill_aIPSt5arrayIxLm2EES1_EvT_S3_RKT0_, symObjAddr: 0x3E04, symBinAddr: 0x100007B98, symSize: 0x30 }
  - { offsetInCU: 0xA643, offset: 0xA643, size: 0x8, addend: 0x0, symName: __ZNSt6vectorISt5arrayIxLm2EESaIS1_EEC1EOS3_, symObjAddr: 0x3DDC, symBinAddr: 0x100007B70, symSize: 0x28 }
  - { offsetInCU: 0xA693, offset: 0xA693, size: 0x8, addend: 0x0, symName: __ZNSt12_Vector_baseISt5arrayIxLm2EESaIS1_EEC2EOS3_, symObjAddr: 0x3DB4, symBinAddr: 0x100007B48, symSize: 0x28 }
  - { offsetInCU: 0xA692, offset: 0xA692, size: 0x8, addend: 0x0, symName: __ZSt7forwardISt6vectorISt5arrayIxLm2EESaIS2_EEEOT_RNSt16remove_referenceIS5_E4typeE, symObjAddr: 0x3DA0, symBinAddr: 0x100007B34, symSize: 0x14 }
  - { offsetInCU: 0xA778, offset: 0xA778, size: 0x8, addend: 0x0, symName: __ZNSt5tupleIJOSt5arrayIxLm2EEEEC1EOS3_, symObjAddr: 0x3D78, symBinAddr: 0x100007B0C, symSize: 0x28 }
  - { offsetInCU: 0xA781, offset: 0xA781, size: 0x8, addend: 0x0, symName: __ZNSt15__new_allocatorISt13_Rb_tree_nodeISt4pairIKSt5arrayIxLm2EEbEEE8allocateEmPKv, symObjAddr: 0x3CD8, symBinAddr: 0x100007A6C, symSize: 0xA0 }
  - { offsetInCU: 0xA7EB, offset: 0xA7EB, size: 0x8, addend: 0x0, symName: __ZNSt25__lexicographical_compareILb0EE4__lcIPKxS3_EEbT_S4_T0_S5_, symObjAddr: 0x3C90, symBinAddr: 0x100007A24, symSize: 0x48 }
  - { offsetInCU: 0xA85E, offset: 0xA85E, size: 0x8, addend: 0x0, symName: __ZNK9__gnu_cxx16__aligned_membufISt4pairIKSt5arrayIxLm2EEbEE7_M_addrEv, symObjAddr: 0x3C7C, symBinAddr: 0x100007A10, symSize: 0x14 }
  - { offsetInCU: 0xA881, offset: 0xA881, size: 0x8, addend: 0x0, symName: __ZSt12__niter_wrapIPSt5arrayIxLm2EEET_RKS3_S3_, symObjAddr: 0x3C64, symBinAddr: 0x1000079F8, symSize: 0x18 }
  - { offsetInCU: 0xA8BA, offset: 0xA8BA, size: 0x8, addend: 0x0, symName: __ZSt14__copy_move_a1ILb0EPKSt5arrayIxLm2EEPS1_ET1_T0_S6_S5_, symObjAddr: 0x3C38, symBinAddr: 0x1000079CC, symSize: 0x2C }
  - { offsetInCU: 0xA91E, offset: 0xA91E, size: 0x8, addend: 0x0, symName: __ZSt12__niter_baseIPKSt5arrayIxLm2EESt6vectorIS1_SaIS1_EEET_N9__gnu_cxx17__normal_iteratorIS7_T0_EE, symObjAddr: 0x3C18, symBinAddr: 0x1000079AC, symSize: 0x20 }
  - { offsetInCU: 0xA958, offset: 0xA958, size: 0x8, addend: 0x0, symName: __ZSt10__fill_n_aIPSt5arrayIxLm2EEmS1_ET_S3_T0_RKT1_St26random_access_iterator_tag, symObjAddr: 0x3BB4, symBinAddr: 0x100007948, symSize: 0x64 }
  - { offsetInCU: 0xAA49, offset: 0xAA49, size: 0x8, addend: 0x0, symName: __ZSt4moveIRSt6vectorISt5arrayIxLm2EESaIS2_EEEONSt16remove_referenceIT_E4typeEOS7_, symObjAddr: 0x3BA0, symBinAddr: 0x100007934, symSize: 0x14 }
  - { offsetInCU: 0xAACF, offset: 0xAACF, size: 0x8, addend: 0x0, symName: __ZNSt12_Vector_baseISt5arrayIxLm2EESaIS1_EE12_Vector_implC1Ev, symObjAddr: 0x3B68, symBinAddr: 0x1000078FC, symSize: 0x38 }
  - { offsetInCU: 0xAB03, offset: 0xAB03, size: 0x8, addend: 0x0, symName: __ZSt7forwardIRPSt13_Rb_tree_nodeISt4pairIKSt5arrayIxLm2EEbEEEOT_RNSt16remove_referenceIS9_E4typeE, symObjAddr: 0x3B54, symBinAddr: 0x1000078E8, symSize: 0x14 }
  - { offsetInCU: 0xABA9, offset: 0xABA9, size: 0x8, addend: 0x0, symName: __ZSt30__lexicographical_compare_aux1IPKxS1_EbT_S2_T0_S3_, symObjAddr: 0x3B18, symBinAddr: 0x1000078AC, symSize: 0x3C }
  - { offsetInCU: 0xAC23, offset: 0xAC23, size: 0x8, addend: 0x0, symName: __ZSt8__memcmpIxxEiPKT_PKT0_m, symObjAddr: 0x3AE4, symBinAddr: 0x100007878, symSize: 0x34 }
  - { offsetInCU: 0xAC7E, offset: 0xAC7E, size: 0x8, addend: 0x0, symName: __ZNK9__gnu_cxx16__aligned_membufISt4pairIKSt5arrayIxLm2EEbEE6_M_ptrEv, symObjAddr: 0x3AC8, symBinAddr: 0x10000785C, symSize: 0x1C }
  - { offsetInCU: 0xACA2, offset: 0xACA2, size: 0x8, addend: 0x0, symName: __ZSt13__copy_move_aILb0EN9__gnu_cxx17__normal_iteratorIPKSt5arrayIxLm2EESt6vectorIS3_SaIS3_EEEEPS3_ET1_T0_SC_SB_, symObjAddr: 0x3A68, symBinAddr: 0x1000077FC, symSize: 0x60 }
  - { offsetInCU: 0xAD06, offset: 0xAD06, size: 0x8, addend: 0x0, symName: __ZSt12__miter_baseIN9__gnu_cxx17__normal_iteratorIPKSt5arrayIxLm2EESt6vectorIS3_SaIS3_EEEEET_SA_, symObjAddr: 0x3A54, symBinAddr: 0x1000077E8, symSize: 0x14 }
  - { offsetInCU: 0xAD4B, offset: 0xAD4B, size: 0x8, addend: 0x0, symName: __ZSt6fill_nIPSt5arrayIxLm2EEmS1_ET_S3_T0_RKT1_, symObjAddr: 0x3A0C, symBinAddr: 0x1000077A0, symSize: 0x48 }
  - { offsetInCU: 0xADCE, offset: 0xADCE, size: 0x8, addend: 0x0, symName: __ZSt10_ConstructISt5arrayIxLm2EEJEEvPT_DpOT0_, symObjAddr: 0x39C8, symBinAddr: 0x10000775C, symSize: 0x44 }
  - { offsetInCU: 0xAE08, offset: 0xAE08, size: 0x8, addend: 0x0, symName: __ZSt11__addressofISt5arrayIxLm2EEEPT_RS2_, symObjAddr: 0x39B4, symBinAddr: 0x100007748, symSize: 0x14 }
  - { offsetInCU: 0xAE4C, offset: 0xAE4C, size: 0x8, addend: 0x0, symName: __ZSt8_DestroyISt6vectorISt5arrayIxLm2EESaIS2_EEEvPT_, symObjAddr: 0x3994, symBinAddr: 0x100007728, symSize: 0x20 }
  - { offsetInCU: 0xAE7C, offset: 0xAE7C, size: 0x8, addend: 0x0, symName: __ZSt19__relocate_object_aISt6vectorISt5arrayIxLm2EESaIS2_EES4_SaIS4_EEvPT_PT0_RT1_, symObjAddr: 0x38C4, symBinAddr: 0x100007658, symSize: 0xD0 }
  - { offsetInCU: 0xAFB0, offset: 0xAFB0, size: 0x8, addend: 0x0, symName: __ZSt10_ConstructISt6vectorISt5arrayIxLm2EESaIS2_EEJEEvPT_DpOT0_, symObjAddr: 0x3890, symBinAddr: 0x100007624, symSize: 0x34 }
  - { offsetInCU: 0xB02B, offset: 0xB02B, size: 0x8, addend: 0x0, symName: __ZNSt6vectorISt5arrayIxLm2EESaIS1_EEC1Ev, symObjAddr: 0x3870, symBinAddr: 0x100007604, symSize: 0x20 }
  - { offsetInCU: 0xB06E, offset: 0xB06E, size: 0x8, addend: 0x0, symName: __ZNSt12_Vector_baseISt5arrayIxLm2EESaIS1_EEC2Ev, symObjAddr: 0x3850, symBinAddr: 0x1000075E4, symSize: 0x20 }
  - { offsetInCU: 0xB062, offset: 0xB062, size: 0x8, addend: 0x0, symName: __ZSt11__addressofISt6vectorISt5arrayIxLm2EESaIS2_EEEPT_RS5_, symObjAddr: 0x383C, symBinAddr: 0x1000075D0, symSize: 0x14 }
  - { offsetInCU: 0xB0AA, offset: 0xB0AA, size: 0x8, addend: 0x0, symName: __ZNSt15__new_allocatorISt13_Rb_tree_nodeISt4pairIKSt5arrayIxLm2EEbEEE10deallocateEPS6_m, symObjAddr: 0x3800, symBinAddr: 0x100007594, symSize: 0x3C }
  - { offsetInCU: 0xB11B, offset: 0xB11B, size: 0x8, addend: 0x0, symName: __ZSt7forwardIRPSt18_Rb_tree_node_baseEOT_RNSt16remove_referenceIS3_E4typeE, symObjAddr: 0x37EC, symBinAddr: 0x100007580, symSize: 0x14 }
  - { offsetInCU: 0xB1F4, offset: 0xB1F4, size: 0x8, addend: 0x0, symName: __ZNSt4pairIPSt18_Rb_tree_node_baseS1_EC1IRPSt13_Rb_tree_nodeIS_IKSt5arrayIxLm2EEbEERS1_Lb1EEEOT_OT0_, symObjAddr: 0x37A4, symBinAddr: 0x100007538, symSize: 0x48 }
  - { offsetInCU: 0xB1D9, offset: 0xB1D9, size: 0x8, addend: 0x0, symName: __ZNSt8_Rb_treeISt5arrayIxLm2EESt4pairIKS1_bESt10_Select1stIS4_ESt4lessIS1_ESaIS4_EE5beginEv, symObjAddr: 0x377C, symBinAddr: 0x100007510, symSize: 0x28 }
  - { offsetInCU: 0xB201, offset: 0xB201, size: 0x8, addend: 0x0, symName: __ZNSt8_Rb_treeISt5arrayIxLm2EESt4pairIKS1_bESt10_Select1stIS4_ESt4lessIS1_ESaIS4_EE17_M_construct_nodeIJRKSt21piecewise_construct_tSt5tupleIJOS1_EESF_IJEEEEEvPSt13_Rb_tree_nodeIS4_EDpOT_, symObjAddr: 0x3600, symBinAddr: 0x100007394, symSize: 0x17C }
  - { offsetInCU: 0xB2F2, offset: 0xB2F2, size: 0x8, addend: 0x0, symName: __ZNSt8_Rb_treeISt5arrayIxLm2EESt4pairIKS1_bESt10_Select1stIS4_ESt4lessIS1_ESaIS4_EE11_M_get_nodeEv, symObjAddr: 0x35C4, symBinAddr: 0x100007358, symSize: 0x3C }
  - { offsetInCU: 0xB3A4, offset: 0xB3A4, size: 0x8, addend: 0x0, symName: __ZNSt10_Head_baseILm0EOSt5arrayIxLm2EELb0EEC2IS1_EEOT_, symObjAddr: 0x3594, symBinAddr: 0x100007328, symSize: 0x30 }
  - { offsetInCU: 0xB3A2, offset: 0xB3A2, size: 0x8, addend: 0x0, symName: __ZSt29__lexicographical_compare_auxIPKxS1_EbT_S2_T0_S3_, symObjAddr: 0x3520, symBinAddr: 0x1000072B4, symSize: 0x74 }
  - { offsetInCU: 0xB40C, offset: 0xB40C, size: 0x8, addend: 0x0, symName: __ZNSt7__equalILb1EE5equalIxEEbPKT_S4_S4_, symObjAddr: 0x34C0, symBinAddr: 0x100007254, symSize: 0x60 }
  - { offsetInCU: 0xB484, offset: 0xB484, size: 0x8, addend: 0x0, symName: __ZNKSt10_Select1stISt4pairIKSt5arrayIxLm2EEbEEclERKS4_, symObjAddr: 0x34A8, symBinAddr: 0x10000723C, symSize: 0x18 }
  - { offsetInCU: 0xB4BC, offset: 0xB4BC, size: 0x8, addend: 0x0, symName: __ZNKSt13_Rb_tree_nodeISt4pairIKSt5arrayIxLm2EEbEE9_M_valptrEv, symObjAddr: 0x3488, symBinAddr: 0x10000721C, symSize: 0x20 }
  - { offsetInCU: 0xB4E0, offset: 0xB4E0, size: 0x8, addend: 0x0, symName: __ZSt4copyIN9__gnu_cxx17__normal_iteratorIPKSt5arrayIxLm2EESt6vectorIS3_SaIS3_EEEEPS3_ET0_T_SC_SB_, symObjAddr: 0x3440, symBinAddr: 0x1000071D4, symSize: 0x48 }
  - { offsetInCU: 0xB553, offset: 0xB553, size: 0x8, addend: 0x0, symName: __ZSt14__relocate_a_1ISt5arrayIxLm2EES1_ENSt9enable_ifIXsrSt24__is_bitwise_relocatableIT_vE5valueEPS4_E4typeES6_S6_S6_RSaIT0_E, symObjAddr: 0x33D8, symBinAddr: 0x10000716C, symSize: 0x68 }
  - { offsetInCU: 0xB5CD, offset: 0xB5CD, size: 0x8, addend: 0x0, symName: __ZSt12__niter_baseIPSt5arrayIxLm2EEET_S3_, symObjAddr: 0x33C4, symBinAddr: 0x100007158, symSize: 0x14 }
  - { offsetInCU: 0xB602, offset: 0xB602, size: 0x8, addend: 0x0, symName: __ZNSt15__new_allocatorISt5arrayIxLm2EEE10deallocateEPS1_m, symObjAddr: 0x3394, symBinAddr: 0x100007128, symSize: 0x30 }
  - { offsetInCU: 0xB648, offset: 0xB648, size: 0x8, addend: 0x0, symName: __ZNSt15__new_allocatorISt5arrayIxLm2EEE8allocateEmPKv, symObjAddr: 0x3318, symBinAddr: 0x1000070AC, symSize: 0x7C }
  - { offsetInCU: 0xB6B2, offset: 0xB6B2, size: 0x8, addend: 0x0, symName: __ZNSt27__uninitialized_default_n_1ILb1EE18__uninit_default_nIPSt5arrayIxLm2EEmEET_S5_T0_, symObjAddr: 0x32B4, symBinAddr: 0x100007048, symSize: 0x64 }
  - { offsetInCU: 0xB739, offset: 0xB739, size: 0x8, addend: 0x0, symName: __ZNSt12_Destroy_auxILb0EE9__destroyIPSt6vectorISt5arrayIxLm2EESaIS4_EEEEvT_S8_, symObjAddr: 0x3268, symBinAddr: 0x100006FFC, symSize: 0x4C }
  - { offsetInCU: 0xB778, offset: 0xB778, size: 0x8, addend: 0x0, symName: __ZSt14__relocate_a_1IPSt6vectorISt5arrayIxLm2EESaIS2_EES5_SaIS4_EET0_T_S8_S7_RT1_, symObjAddr: 0x31E4, symBinAddr: 0x100006F78, symSize: 0x84 }
  - { offsetInCU: 0xB7FB, offset: 0xB7FB, size: 0x8, addend: 0x0, symName: __ZSt12__niter_baseIPSt6vectorISt5arrayIxLm2EESaIS2_EEET_S6_, symObjAddr: 0x31D0, symBinAddr: 0x100006F64, symSize: 0x14 }
  - { offsetInCU: 0xB830, offset: 0xB830, size: 0x8, addend: 0x0, symName: __ZNSt15__new_allocatorISt6vectorISt5arrayIxLm2EESaIS2_EEE8allocateEmPKv, symObjAddr: 0x3140, symBinAddr: 0x100006ED4, symSize: 0x90 }
  - { offsetInCU: 0xB89A, offset: 0xB89A, size: 0x8, addend: 0x0, symName: __ZNSt27__uninitialized_default_n_1ILb0EE18__uninit_default_nIPSt6vectorISt5arrayIxLm2EESaIS4_EEmEET_S8_T0_, symObjAddr: 0x30E8, symBinAddr: 0x100006E7C, symSize: 0x58 }
  - { offsetInCU: 0xB8FA, offset: 0xB8FA, size: 0x8, addend: 0x0, symName: __ZSt3minImERKT_S2_S2_, symObjAddr: 0x30B0, symBinAddr: 0x100006E44, symSize: 0x38 }
  - { offsetInCU: 0xB9A9, offset: 0xB9A9, size: 0x8, addend: 0x0, symName: __ZNSt8_Rb_treeISt5arrayIxLm2EESt4pairIKS1_bESt10_Select1stIS4_ESt4lessIS1_ESaIS4_EE21_M_get_Node_allocatorEv, symObjAddr: 0x309C, symBinAddr: 0x100006E30, symSize: 0x14 }
  - { offsetInCU: 0xB9D1, offset: 0xB9D1, size: 0x8, addend: 0x0, symName: __ZNSt8_Rb_treeISt5arrayIxLm2EESt4pairIKS1_bESt10_Select1stIS4_ESt4lessIS1_ESaIS4_EE14_M_insert_nodeEPSt18_Rb_tree_node_baseSC_PSt13_Rb_tree_nodeIS4_E, symObjAddr: 0x2FC8, symBinAddr: 0x100006D5C, symSize: 0xD4 }
  - { offsetInCU: 0xBA39, offset: 0xBA39, size: 0x8, addend: 0x0, symName: __ZNSt17_Rb_tree_iteratorISt4pairIKSt5arrayIxLm2EEbEEppEv, symObjAddr: 0x2F98, symBinAddr: 0x100006D2C, symSize: 0x30 }
  - { offsetInCU: 0xBA61, offset: 0xBA61, size: 0x8, addend: 0x0, symName: __ZNSt17_Rb_tree_iteratorISt4pairIKSt5arrayIxLm2EEbEEmmEv, symObjAddr: 0x2F68, symBinAddr: 0x100006CFC, symSize: 0x30 }
  - { offsetInCU: 0xBB07, offset: 0xBB07, size: 0x8, addend: 0x0, symName: __ZNSt4pairIPSt18_Rb_tree_node_baseS1_EC1IRS1_S4_Lb1EEEOT_OT0_, symObjAddr: 0x2F20, symBinAddr: 0x100006CB4, symSize: 0x48 }
  - { offsetInCU: 0xBB13, offset: 0xBB13, size: 0x8, addend: 0x0, symName: __ZNSt8_Rb_treeISt5arrayIxLm2EESt4pairIKS1_bESt10_Select1stIS4_ESt4lessIS1_ESaIS4_EE11_M_leftmostEv, symObjAddr: 0x2F08, symBinAddr: 0x100006C9C, symSize: 0x18 }
  - { offsetInCU: 0xBB3B, offset: 0xBB3B, size: 0x8, addend: 0x0, symName: __ZNSt8_Rb_treeISt5arrayIxLm2EESt4pairIKS1_bESt10_Select1stIS4_ESt4lessIS1_ESaIS4_EE24_M_get_insert_unique_posERS3_, symObjAddr: 0x2DA4, symBinAddr: 0x100006B38, symSize: 0x164 }
  - { offsetInCU: 0xBC36, offset: 0xBC36, size: 0x8, addend: 0x0, symName: __ZNSt4pairIPSt18_Rb_tree_node_baseS1_EC1IS1_S1_Lb1EEERKS1_S5_, symObjAddr: 0x2D68, symBinAddr: 0x100006AFC, symSize: 0x3C }
  - { offsetInCU: 0xBC3E, offset: 0xBC3E, size: 0x8, addend: 0x0, symName: __ZNSt8_Rb_treeISt5arrayIxLm2EESt4pairIKS1_bESt10_Select1stIS4_ESt4lessIS1_ESaIS4_EE6_S_keyEPKSt18_Rb_tree_node_base, symObjAddr: 0x2D4C, symBinAddr: 0x100006AE0, symSize: 0x1C }
  - { offsetInCU: 0xBC6A, offset: 0xBC6A, size: 0x8, addend: 0x0, symName: __ZNSt8_Rb_treeISt5arrayIxLm2EESt4pairIKS1_bESt10_Select1stIS4_ESt4lessIS1_ESaIS4_EE12_M_rightmostEv, symObjAddr: 0x2D34, symBinAddr: 0x100006AC8, symSize: 0x18 }
  - { offsetInCU: 0xBC92, offset: 0xBC92, size: 0x8, addend: 0x0, symName: __ZNKSt8_Rb_treeISt5arrayIxLm2EESt4pairIKS1_bESt10_Select1stIS4_ESt4lessIS1_ESaIS4_EE4sizeEv, symObjAddr: 0x2D1C, symBinAddr: 0x100006AB0, symSize: 0x18 }
  - { offsetInCU: 0xBCBA, offset: 0xBCBA, size: 0x8, addend: 0x0, symName: __ZNKSt23_Rb_tree_const_iteratorISt4pairIKSt5arrayIxLm2EEbEE13_M_const_castEv, symObjAddr: 0x2CF4, symBinAddr: 0x100006A88, symSize: 0x28 }
  - { offsetInCU: 0xBCE2, offset: 0xBCE2, size: 0x8, addend: 0x0, symName: __ZNSt8_Rb_treeISt5arrayIxLm2EESt4pairIKS1_bESt10_Select1stIS4_ESt4lessIS1_ESaIS4_EE14_M_create_nodeIJRKSt21piecewise_construct_tSt5tupleIJOS1_EESF_IJEEEEEPSt13_Rb_tree_nodeIS4_EDpOT_, symObjAddr: 0x2C84, symBinAddr: 0x100006A18, symSize: 0x70 }
  - { offsetInCU: 0xBDAE, offset: 0xBDAE, size: 0x8, addend: 0x0, symName: __ZNSt11_Tuple_implILm0EJOSt5arrayIxLm2EEEEC2IS1_EEOT_, symObjAddr: 0x2C48, symBinAddr: 0x1000069DC, symSize: 0x3C }
  - { offsetInCU: 0xBDAD, offset: 0xBDAD, size: 0x8, addend: 0x0, symName: __ZSt23lexicographical_compareIPKxS1_EbT_S2_T0_S3_, symObjAddr: 0x2C10, symBinAddr: 0x1000069A4, symSize: 0x38 }
  - { offsetInCU: 0xBE17, offset: 0xBE17, size: 0x8, addend: 0x0, symName: __ZSt12__equal_aux1IPKxS1_EbT_S2_T0_, symObjAddr: 0x2BD8, symBinAddr: 0x10000696C, symSize: 0x38 }
  - { offsetInCU: 0xBE81, offset: 0xBE81, size: 0x8, addend: 0x0, symName: __ZSt12__niter_baseIPKxET_S2_, symObjAddr: 0x2BC4, symBinAddr: 0x100006958, symSize: 0x14 }
  - { offsetInCU: 0xBEBB, offset: 0xBEBB, size: 0x8, addend: 0x0, symName: __ZN9__gnu_cxx16__aligned_membufISt4pairIKSt5arrayIxLm2EEbEE7_M_addrEv, symObjAddr: 0x2BB0, symBinAddr: 0x100006944, symSize: 0x14 }
  - { offsetInCU: 0xBEDE, offset: 0xBEDE, size: 0x8, addend: 0x0, symName: __ZNSt8_Rb_treeISt5arrayIxLm2EESt4pairIKS1_bESt10_Select1stIS4_ESt4lessIS1_ESaIS4_EE6_S_keyEPKSt13_Rb_tree_nodeIS4_E, symObjAddr: 0x2B88, symBinAddr: 0x10000691C, symSize: 0x28 }
  - { offsetInCU: 0xBF06, offset: 0xBF06, size: 0x8, addend: 0x0, symName: __ZNSt12_Destroy_auxILb1EE9__destroyIPSt5arrayIxLm2EEEEvT_S5_, symObjAddr: 0x2B70, symBinAddr: 0x100006904, symSize: 0x18 }
  - { offsetInCU: 0xBF37, offset: 0xBF37, size: 0x8, addend: 0x0, symName: __ZNSt20__uninitialized_copyILb1EE13__uninit_copyIN9__gnu_cxx17__normal_iteratorIPKSt5arrayIxLm2EESt6vectorIS5_SaIS5_EEEEPS5_EET0_T_SE_SD_, symObjAddr: 0x2B44, symBinAddr: 0x1000068D8, symSize: 0x2C }
  - { offsetInCU: 0xBFE9, offset: 0xBFE9, size: 0x8, addend: 0x0, symName: __ZNSt12_Vector_baseISt5arrayIxLm2EESaIS1_EE17_Vector_impl_dataC2Ev, symObjAddr: 0x2B18, symBinAddr: 0x1000068AC, symSize: 0x2C }
  - { offsetInCU: 0xBFEA, offset: 0xBFEA, size: 0x8, addend: 0x0, symName: __ZSt12__relocate_aIPSt5arrayIxLm2EES2_SaIS1_EET0_T_S5_S4_RT1_, symObjAddr: 0x2ABC, symBinAddr: 0x100006850, symSize: 0x5C }
  - { offsetInCU: 0xC0AC, offset: 0xC0AC, size: 0x8, addend: 0x0, symName: __ZSt25__uninitialized_default_nIPSt5arrayIxLm2EEmET_S3_T0_, symObjAddr: 0x2A90, symBinAddr: 0x100006824, symSize: 0x2C }
  - { offsetInCU: 0xC107, offset: 0xC107, size: 0x8, addend: 0x0, symName: __ZNSt6vectorISt5arrayIxLm2EESaIS1_EE11_S_max_sizeERKS2_, symObjAddr: 0x2A3C, symBinAddr: 0x1000067D0, symSize: 0x54 }
  - { offsetInCU: 0xC1B4, offset: 0xC1B4, size: 0x8, addend: 0x0, symName: __ZSt8_DestroyIPSt6vectorISt5arrayIxLm2EESaIS2_EEEvT_S6_, symObjAddr: 0x2A14, symBinAddr: 0x1000067A8, symSize: 0x28 }
  - { offsetInCU: 0xC1F3, offset: 0xC1F3, size: 0x8, addend: 0x0, symName: __ZSt12__relocate_aIPSt6vectorISt5arrayIxLm2EESaIS2_EES5_SaIS4_EET0_T_S8_S7_RT1_, symObjAddr: 0x29B8, symBinAddr: 0x10000674C, symSize: 0x5C }
  - { offsetInCU: 0xC287, offset: 0xC287, size: 0x8, addend: 0x0, symName: __ZSt3maxImERKT_S2_S2_, symObjAddr: 0x2980, symBinAddr: 0x100006714, symSize: 0x38 }
  - { offsetInCU: 0xC2C8, offset: 0xC2C8, size: 0x8, addend: 0x0, symName: __ZSt25__uninitialized_default_nIPSt6vectorISt5arrayIxLm2EESaIS2_EEmET_S6_T0_, symObjAddr: 0x2954, symBinAddr: 0x1000066E8, symSize: 0x2C }
  - { offsetInCU: 0xC327, offset: 0xC327, size: 0x8, addend: 0x0, symName: __ZNKSt12_Vector_baseISt6vectorISt5arrayIxLm2EESaIS2_EESaIS4_EE19_M_get_Tp_allocatorEv, symObjAddr: 0x2940, symBinAddr: 0x1000066D4, symSize: 0x14 }
  - { offsetInCU: 0xC34B, offset: 0xC34B, size: 0x8, addend: 0x0, symName: __ZNSt6vectorIS_ISt5arrayIxLm2EESaIS1_EESaIS3_EE11_S_max_sizeERKS4_, symObjAddr: 0x28E4, symBinAddr: 0x100006678, symSize: 0x5C }
  - { offsetInCU: 0xC3FC, offset: 0xC3FC, size: 0x8, addend: 0x0, symName: __ZNSt8_Rb_treeISt5arrayIxLm2EESt4pairIKS1_bESt10_Select1stIS4_ESt4lessIS1_ESaIS4_EE11_M_put_nodeEPSt13_Rb_tree_nodeIS4_E, symObjAddr: 0x2898, symBinAddr: 0x10000662C, symSize: 0x4C }
  - { offsetInCU: 0xC466, offset: 0xC466, size: 0x8, addend: 0x0, symName: __ZNSt8_Rb_treeISt5arrayIxLm2EESt4pairIKS1_bESt10_Select1stIS4_ESt4lessIS1_ESaIS4_EE15_M_destroy_nodeEPSt13_Rb_tree_nodeIS4_E, symObjAddr: 0x2840, symBinAddr: 0x1000065D4, symSize: 0x58 }
  - { offsetInCU: 0xC4F2, offset: 0xC4F2, size: 0x8, addend: 0x0, symName: __ZNSt15__new_allocatorISt6vectorISt5arrayIxLm2EESaIS2_EEE10deallocateEPS4_m, symObjAddr: 0x2804, symBinAddr: 0x100006598, symSize: 0x3C }
  - { offsetInCU: 0xC538, offset: 0xC538, size: 0x8, addend: 0x0, symName: __ZNSt8_Rb_treeISt5arrayIxLm2EESt4pairIKS1_bESt10_Select1stIS4_ESt4lessIS1_ESaIS4_EE10_Auto_node9_M_insertES2_IPSt18_Rb_tree_node_baseSD_E, symObjAddr: 0x27B8, symBinAddr: 0x10000654C, symSize: 0x4C }
  - { offsetInCU: 0xC580, offset: 0xC580, size: 0x8, addend: 0x0, symName: __ZNKSt8_Rb_treeISt5arrayIxLm2EESt4pairIKS1_bESt10_Select1stIS4_ESt4lessIS1_ESaIS4_EE10_Auto_node6_M_keyEv, symObjAddr: 0x2798, symBinAddr: 0x10000652C, symSize: 0x20 }
  - { offsetInCU: 0xC5A8, offset: 0xC5A8, size: 0x8, addend: 0x0, symName: __ZNSt8_Rb_treeISt5arrayIxLm2EESt4pairIKS1_bESt10_Select1stIS4_ESt4lessIS1_ESaIS4_EE29_M_get_insert_hint_unique_posESt23_Rb_tree_const_iteratorIS4_ERS3_, symObjAddr: 0x2460, symBinAddr: 0x1000061F4, symSize: 0x338 }
  - { offsetInCU: 0xC6CD, offset: 0xC6CD, size: 0x8, addend: 0x0, symName: __ZNSt8_Rb_treeISt5arrayIxLm2EESt4pairIKS1_bESt10_Select1stIS4_ESt4lessIS1_ESaIS4_EE10_Auto_nodeD1Ev, symObjAddr: 0x241C, symBinAddr: 0x1000061B0, symSize: 0x44 }
  - { offsetInCU: 0xC77F, offset: 0xC77F, size: 0x8, addend: 0x0, symName: __ZNSt8_Rb_treeISt5arrayIxLm2EESt4pairIKS1_bESt10_Select1stIS4_ESt4lessIS1_ESaIS4_EE10_Auto_nodeC1IJRKSt21piecewise_construct_tSt5tupleIJOS1_EESG_IJEEEEERSA_DpOT_, symObjAddr: 0x23A0, symBinAddr: 0x100006134, symSize: 0x7C }
  - { offsetInCU: 0xC743, offset: 0xC743, size: 0x8, addend: 0x0, symName: __ZSt7forwardISt5tupleIJEEEOT_RNSt16remove_referenceIS2_E4typeE, symObjAddr: 0x238C, symBinAddr: 0x100006120, symSize: 0x14 }
  - { offsetInCU: 0xC779, offset: 0xC779, size: 0x8, addend: 0x0, symName: __ZSt7forwardISt5tupleIJOSt5arrayIxLm2EEEEEOT_RNSt16remove_referenceIS5_E4typeE, symObjAddr: 0x2378, symBinAddr: 0x10000610C, symSize: 0x14 }
  - { offsetInCU: 0xC7AF, offset: 0xC7AF, size: 0x8, addend: 0x0, symName: __ZSt7forwardIRKSt21piecewise_construct_tEOT_RNSt16remove_referenceIS3_E4typeE, symObjAddr: 0x2364, symBinAddr: 0x1000060F8, symSize: 0x14 }
  - { offsetInCU: 0xC84F, offset: 0xC84F, size: 0x8, addend: 0x0, symName: __ZNSt5tupleIJOSt5arrayIxLm2EEEEC1IJS1_ELb1ELb1EEEDpOT_, symObjAddr: 0x2328, symBinAddr: 0x1000060BC, symSize: 0x3C }
  - { offsetInCU: 0xC866, offset: 0xC866, size: 0x8, addend: 0x0, symName: __ZSt7forwardISt5arrayIxLm2EEEOT_RNSt16remove_referenceIS2_E4typeE, symObjAddr: 0x2314, symBinAddr: 0x1000060A8, symSize: 0x14 }
  - { offsetInCU: 0xC896, offset: 0xC896, size: 0x8, addend: 0x0, symName: __ZStltIxLm2EEbRKSt5arrayIT_XT0_EES4_, symObjAddr: 0x22A8, symBinAddr: 0x10000603C, symSize: 0x6C }
  - { offsetInCU: 0xC8E5, offset: 0xC8E5, size: 0x8, addend: 0x0, symName: __ZNKSt8_Rb_treeISt5arrayIxLm2EESt4pairIKS1_bESt10_Select1stIS4_ESt4lessIS1_ESaIS4_EE8key_compEv, symObjAddr: 0x2290, symBinAddr: 0x100006024, symSize: 0x18 }
  - { offsetInCU: 0xC909, offset: 0xC909, size: 0x8, addend: 0x0, symName: __ZSt11__equal_auxIPKxS1_EbT_S2_T0_, symObjAddr: 0x2238, symBinAddr: 0x100005FCC, symSize: 0x58 }
  - { offsetInCU: 0xC967, offset: 0xC967, size: 0x8, addend: 0x0, symName: __ZNKSt5arrayIxLm2EE4dataEv, symObjAddr: 0x2224, symBinAddr: 0x100005FB8, symSize: 0x14 }
  - { offsetInCU: 0xC98F, offset: 0xC98F, size: 0x8, addend: 0x0, symName: __ZN9__gnu_cxx16__aligned_membufISt4pairIKSt5arrayIxLm2EEbEE6_M_ptrEv, symObjAddr: 0x2208, symBinAddr: 0x100005F9C, symSize: 0x1C }
  - { offsetInCU: 0xCA27, offset: 0xCA27, size: 0x8, addend: 0x0, symName: __ZNSt17_Rb_tree_iteratorISt4pairIKSt5arrayIxLm2EEbEEC1EPSt18_Rb_tree_node_base, symObjAddr: 0x21E4, symBinAddr: 0x100005F78, symSize: 0x24 }
  - { offsetInCU: 0xCA08, offset: 0xCA08, size: 0x8, addend: 0x0, symName: __ZNSt8_Rb_treeISt5arrayIxLm2EESt4pairIKS1_bESt10_Select1stIS4_ESt4lessIS1_ESaIS4_EE14_M_lower_boundEPSt13_Rb_tree_nodeIS4_EPSt18_Rb_tree_node_baseRS3_, symObjAddr: 0x2144, symBinAddr: 0x100005ED8, symSize: 0xA0 }
  - { offsetInCU: 0xCA60, offset: 0xCA60, size: 0x8, addend: 0x0, symName: __ZNSt8_Rb_treeISt5arrayIxLm2EESt4pairIKS1_bESt10_Select1stIS4_ESt4lessIS1_ESaIS4_EE6_M_endEv, symObjAddr: 0x212C, symBinAddr: 0x100005EC0, symSize: 0x18 }
  - { offsetInCU: 0xCA84, offset: 0xCA84, size: 0x8, addend: 0x0, symName: __ZSt8_DestroyIPSt5arrayIxLm2EEEvT_S3_, symObjAddr: 0x2104, symBinAddr: 0x100005E98, symSize: 0x28 }
  - { offsetInCU: 0xCAC3, offset: 0xCAC3, size: 0x8, addend: 0x0, symName: __ZSt18uninitialized_copyIN9__gnu_cxx17__normal_iteratorIPKSt5arrayIxLm2EESt6vectorIS3_SaIS3_EEEEPS3_ET0_T_SC_SB_, symObjAddr: 0x20C8, symBinAddr: 0x100005E5C, symSize: 0x3C }
  - { offsetInCU: 0xCBB0, offset: 0xCBB0, size: 0x8, addend: 0x0, symName: __ZN9__gnu_cxx17__normal_iteratorIPKSt5arrayIxLm2EESt6vectorIS2_SaIS2_EEEC1ERKS4_, symObjAddr: 0x20A0, symBinAddr: 0x100005E34, symSize: 0x28 }
  - { offsetInCU: 0xCB8F, offset: 0xCB8F, size: 0x8, addend: 0x0, symName: __ZNSt12_Vector_baseISt5arrayIxLm2EESaIS1_EE17_M_create_storageEm, symObjAddr: 0x2040, symBinAddr: 0x100005DD4, symSize: 0x60 }
  - { offsetInCU: 0xCC29, offset: 0xCC29, size: 0x8, addend: 0x0, symName: __ZNSt12_Vector_baseISt5arrayIxLm2EESaIS1_EE12_Vector_implC1ERKS2_, symObjAddr: 0x1FF4, symBinAddr: 0x100005D88, symSize: 0x4C }
  - { offsetInCU: 0xCCB2, offset: 0xCCB2, size: 0x8, addend: 0x0, symName: __ZNSt15__new_allocatorISt5arrayIxLm2EEED2Ev, symObjAddr: 0x1FE0, symBinAddr: 0x100005D74, symSize: 0x14 }
  - { offsetInCU: 0xCCBE, offset: 0xCCBE, size: 0x8, addend: 0x0, symName: __ZNSt6vectorISt5arrayIxLm2EESaIS1_EE11_S_relocateEPS1_S4_S4_RS2_, symObjAddr: 0x1FAC, symBinAddr: 0x100005D40, symSize: 0x34 }
  - { offsetInCU: 0xCD1A, offset: 0xCD1A, size: 0x8, addend: 0x0, symName: __ZNSt12_Vector_baseISt5arrayIxLm2EESaIS1_EE13_M_deallocateEPS1_m, symObjAddr: 0x1F54, symBinAddr: 0x100005CE8, symSize: 0x58 }
  - { offsetInCU: 0xCD94, offset: 0xCD94, size: 0x8, addend: 0x0, symName: __ZNSt12_Vector_baseISt5arrayIxLm2EESaIS1_EE11_M_allocateEm, symObjAddr: 0x1F04, symBinAddr: 0x100005C98, symSize: 0x50 }
  - { offsetInCU: 0xCDF6, offset: 0xCDF6, size: 0x8, addend: 0x0, symName: __ZNKSt6vectorISt5arrayIxLm2EESaIS1_EE12_M_check_lenEmPKc, symObjAddr: 0x1E34, symBinAddr: 0x100005BC8, symSize: 0xD0 }
  - { offsetInCU: 0xCE4A, offset: 0xCE4A, size: 0x8, addend: 0x0, symName: __ZSt27__uninitialized_default_n_aIPSt5arrayIxLm2EEmS1_ET_S3_T0_RSaIT1_E, symObjAddr: 0x1E0C, symBinAddr: 0x100005BA0, symSize: 0x28 }
  - { offsetInCU: 0xCEA9, offset: 0xCEA9, size: 0x8, addend: 0x0, symName: __ZNKSt6vectorISt5arrayIxLm2EESaIS1_EE8max_sizeEv, symObjAddr: 0x1DEC, symBinAddr: 0x100005B80, symSize: 0x20 }
  - { offsetInCU: 0xCF05, offset: 0xCF05, size: 0x8, addend: 0x0, symName: __ZNSt6vectorIS_ISt5arrayIxLm2EESaIS1_EESaIS3_EE11_S_relocateEPS3_S6_S6_RS4_, symObjAddr: 0x1DB8, symBinAddr: 0x100005B4C, symSize: 0x34 }
  - { offsetInCU: 0xCF61, offset: 0xCF61, size: 0x8, addend: 0x0, symName: __ZNSt12_Vector_baseISt6vectorISt5arrayIxLm2EESaIS2_EESaIS4_EE11_M_allocateEm, symObjAddr: 0x1D68, symBinAddr: 0x100005AFC, symSize: 0x50 }
  - { offsetInCU: 0xCFC3, offset: 0xCFC3, size: 0x8, addend: 0x0, symName: __ZNKSt6vectorIS_ISt5arrayIxLm2EESaIS1_EESaIS3_EE12_M_check_lenEmPKc, symObjAddr: 0x1C98, symBinAddr: 0x100005A2C, symSize: 0xD0 }
  - { offsetInCU: 0xD017, offset: 0xD017, size: 0x8, addend: 0x0, symName: __ZSt27__uninitialized_default_n_aIPSt6vectorISt5arrayIxLm2EESaIS2_EEmS4_ET_S6_T0_RSaIT1_E, symObjAddr: 0x1C70, symBinAddr: 0x100005A04, symSize: 0x28 }
  - { offsetInCU: 0xD076, offset: 0xD076, size: 0x8, addend: 0x0, symName: __ZNSt12_Vector_baseISt6vectorISt5arrayIxLm2EESaIS2_EESaIS4_EE19_M_get_Tp_allocatorEv, symObjAddr: 0x1C5C, symBinAddr: 0x1000059F0, symSize: 0x14 }
  - { offsetInCU: 0xD09E, offset: 0xD09E, size: 0x8, addend: 0x0, symName: __ZNKSt6vectorIS_ISt5arrayIxLm2EESaIS1_EESaIS3_EE8max_sizeEv, symObjAddr: 0x1C3C, symBinAddr: 0x1000059D0, symSize: 0x20 }
  - { offsetInCU: 0xD0C6, offset: 0xD0C6, size: 0x8, addend: 0x0, symName: __ZNKSt8_Rb_treeISt5arrayIxLm2EESt4pairIKS1_bESt10_Select1stIS4_ESt4lessIS1_ESaIS4_EE9_M_mbeginEv, symObjAddr: 0x1C24, symBinAddr: 0x1000059B8, symSize: 0x18 }
  - { offsetInCU: 0xD0EE, offset: 0xD0EE, size: 0x8, addend: 0x0, symName: __ZNSt8_Rb_treeISt5arrayIxLm2EESt4pairIKS1_bESt10_Select1stIS4_ESt4lessIS1_ESaIS4_EE12_M_drop_nodeEPSt13_Rb_tree_nodeIS4_E, symObjAddr: 0x1BF0, symBinAddr: 0x100005984, symSize: 0x34 }
  - { offsetInCU: 0xD122, offset: 0xD122, size: 0x8, addend: 0x0, symName: __ZNSt8_Rb_treeISt5arrayIxLm2EESt4pairIKS1_bESt10_Select1stIS4_ESt4lessIS1_ESaIS4_EE7_S_leftEPSt18_Rb_tree_node_base, symObjAddr: 0x1BD8, symBinAddr: 0x10000596C, symSize: 0x18 }
  - { offsetInCU: 0xD14A, offset: 0xD14A, size: 0x8, addend: 0x0, symName: __ZNSt8_Rb_treeISt5arrayIxLm2EESt4pairIKS1_bESt10_Select1stIS4_ESt4lessIS1_ESaIS4_EE8_S_rightEPSt18_Rb_tree_node_base, symObjAddr: 0x1BC0, symBinAddr: 0x100005954, symSize: 0x18 }
  - { offsetInCU: 0xD1CC, offset: 0xD1CC, size: 0x8, addend: 0x0, symName: __ZNSt8_Rb_treeISt5arrayIxLm2EESt4pairIKS1_bESt10_Select1stIS4_ESt4lessIS1_ESaIS4_EE22_M_emplace_hint_uniqueIJRKSt21piecewise_construct_tSt5tupleIJOS1_EESF_IJEEEEESt17_Rb_tree_iteratorIS4_ESt23_Rb_tree_const_iteratorIS4_EDpOT_, symObjAddr: 0x1AE8, symBinAddr: 0x10000587C, symSize: 0xD8 }
  - { offsetInCU: 0xD2D6, offset: 0xD2D6, size: 0x8, addend: 0x0, symName: __ZNSt23_Rb_tree_const_iteratorISt4pairIKSt5arrayIxLm2EEbEEC1ERKSt17_Rb_tree_iteratorIS4_E, symObjAddr: 0x1AC0, symBinAddr: 0x100005854, symSize: 0x28 }
  - { offsetInCU: 0xD2A8, offset: 0xD2A8, size: 0x8, addend: 0x0, symName: __ZSt16forward_as_tupleIJSt5arrayIxLm2EEEESt5tupleIJDpOT_EES5_, symObjAddr: 0x1A88, symBinAddr: 0x10000581C, symSize: 0x38 }
  - { offsetInCU: 0xD2E0, offset: 0xD2E0, size: 0x8, addend: 0x0, symName: __ZSt4moveIRSt5arrayIxLm2EEEONSt16remove_referenceIT_E4typeEOS4_, symObjAddr: 0x1A74, symBinAddr: 0x100005808, symSize: 0x14 }
  - { offsetInCU: 0xD314, offset: 0xD314, size: 0x8, addend: 0x0, symName: __ZNKSt4lessISt5arrayIxLm2EEEclERKS1_S4_, symObjAddr: 0x1A48, symBinAddr: 0x1000057DC, symSize: 0x2C }
  - { offsetInCU: 0xD35C, offset: 0xD35C, size: 0x8, addend: 0x0, symName: __ZNKSt17_Rb_tree_iteratorISt4pairIKSt5arrayIxLm2EEbEEdeEv, symObjAddr: 0x1A28, symBinAddr: 0x1000057BC, symSize: 0x20 }
  - { offsetInCU: 0xD384, offset: 0xD384, size: 0x8, addend: 0x0, symName: __ZNKSt3mapISt5arrayIxLm2EEbSt4lessIS1_ESaISt4pairIKS1_bEEE8key_compEv, symObjAddr: 0x19FC, symBinAddr: 0x100005790, symSize: 0x2C }
  - { offsetInCU: 0xD3AE, offset: 0xD3AE, size: 0x8, addend: 0x0, symName: __ZSteqRKSt17_Rb_tree_iteratorISt4pairIKSt5arrayIxLm2EEbEES7_, symObjAddr: 0x19CC, symBinAddr: 0x100005760, symSize: 0x30 }
  - { offsetInCU: 0xD3E6, offset: 0xD3E6, size: 0x8, addend: 0x0, symName: __ZSt5equalIPKxS1_EbT_S2_T0_, symObjAddr: 0x199C, symBinAddr: 0x100005730, symSize: 0x30 }
  - { offsetInCU: 0xD444, offset: 0xD444, size: 0x8, addend: 0x0, symName: __ZNKSt5arrayIxLm2EE3endEv, symObjAddr: 0x197C, symBinAddr: 0x100005710, symSize: 0x20 }
  - { offsetInCU: 0xD46C, offset: 0xD46C, size: 0x8, addend: 0x0, symName: __ZNKSt5arrayIxLm2EE5beginEv, symObjAddr: 0x1960, symBinAddr: 0x1000056F4, symSize: 0x1C }
  - { offsetInCU: 0xD494, offset: 0xD494, size: 0x8, addend: 0x0, symName: __ZNSt13_Rb_tree_nodeISt4pairIKSt5arrayIxLm2EEbEE9_M_valptrEv, symObjAddr: 0x1940, symBinAddr: 0x1000056D4, symSize: 0x20 }
  - { offsetInCU: 0xD4BC, offset: 0xD4BC, size: 0x8, addend: 0x0, symName: __ZNSt8_Rb_treeISt5arrayIxLm2EESt4pairIKS1_bESt10_Select1stIS4_ESt4lessIS1_ESaIS4_EE3endEv, symObjAddr: 0x1918, symBinAddr: 0x1000056AC, symSize: 0x28 }
  - { offsetInCU: 0xD4E4, offset: 0xD4E4, size: 0x8, addend: 0x0, symName: __ZNSt8_Rb_treeISt5arrayIxLm2EESt4pairIKS1_bESt10_Select1stIS4_ESt4lessIS1_ESaIS4_EE11lower_boundERS3_, symObjAddr: 0x18D0, symBinAddr: 0x100005664, symSize: 0x48 }
  - { offsetInCU: 0xD550, offset: 0xD550, size: 0x8, addend: 0x0, symName: __ZSt22__uninitialized_copy_aIN9__gnu_cxx17__normal_iteratorIPKSt5arrayIxLm2EESt6vectorIS3_SaIS3_EEEEPS3_S3_ET0_T_SC_SB_RSaIT1_E, symObjAddr: 0x18A0, symBinAddr: 0x100005634, symSize: 0x30 }
  - { offsetInCU: 0xD5BF, offset: 0xD5BF, size: 0x8, addend: 0x0, symName: __ZNSt12_Vector_baseISt5arrayIxLm2EESaIS1_EE19_M_get_Tp_allocatorEv, symObjAddr: 0x188C, symBinAddr: 0x100005620, symSize: 0x14 }
  - { offsetInCU: 0xD5E7, offset: 0xD5E7, size: 0x8, addend: 0x0, symName: __ZNKSt6vectorISt5arrayIxLm2EESaIS1_EE3endEv, symObjAddr: 0x1864, symBinAddr: 0x1000055F8, symSize: 0x28 }
  - { offsetInCU: 0xD60F, offset: 0xD60F, size: 0x8, addend: 0x0, symName: __ZNKSt6vectorISt5arrayIxLm2EESaIS1_EE5beginEv, symObjAddr: 0x1840, symBinAddr: 0x1000055D4, symSize: 0x24 }
  - { offsetInCU: 0xD684, offset: 0xD684, size: 0x8, addend: 0x0, symName: __ZNSt12_Vector_baseISt5arrayIxLm2EESaIS1_EED2Ev, symObjAddr: 0x17F0, symBinAddr: 0x100005584, symSize: 0x50 }
  - { offsetInCU: 0xD6DF, offset: 0xD6DF, size: 0x8, addend: 0x0, symName: __ZNSt12_Vector_baseISt5arrayIxLm2EESaIS1_EEC2EmRKS2_, symObjAddr: 0x179C, symBinAddr: 0x100005530, symSize: 0x54 }
  - { offsetInCU: 0xD741, offset: 0xD741, size: 0x8, addend: 0x0, symName: __ZNSt12_Vector_baseISt5arrayIxLm2EESaIS1_EE12_Vector_implD1Ev, symObjAddr: 0x1770, symBinAddr: 0x100005504, symSize: 0x2C }
  - { offsetInCU: 0xD77C, offset: 0xD77C, size: 0x8, addend: 0x0, symName: __ZNKSt12_Vector_baseISt5arrayIxLm2EESaIS1_EE19_M_get_Tp_allocatorEv, symObjAddr: 0x175C, symBinAddr: 0x1000054F0, symSize: 0x14 }
  - { offsetInCU: 0xD7A4, offset: 0xD7A4, size: 0x8, addend: 0x0, symName: __ZNK9__gnu_cxx17__normal_iteratorIPSt6vectorISt5arrayIxLm2EESaIS3_EES1_IS5_SaIS5_EEE4baseEv, symObjAddr: 0x1748, symBinAddr: 0x1000054DC, symSize: 0x14 }
  - { offsetInCU: 0xD849, offset: 0xD849, size: 0x8, addend: 0x0, symName: __ZN9__gnu_cxx17__normal_iteratorIPSt6vectorISt5arrayIxLm2EESaIS3_EES1_IS5_SaIS5_EEEC1ERKS6_, symObjAddr: 0x1720, symBinAddr: 0x1000054B4, symSize: 0x28 }
  - { offsetInCU: 0xD81D, offset: 0xD81D, size: 0x8, addend: 0x0, symName: __ZNK9__gnu_cxx17__normal_iteratorIPSt5arrayIxLm2EESt6vectorIS2_SaIS2_EEE4baseEv, symObjAddr: 0x170C, symBinAddr: 0x1000054A0, symSize: 0x14 }
  - { offsetInCU: 0xD8B6, offset: 0xD8B6, size: 0x8, addend: 0x0, symName: __ZN9__gnu_cxx17__normal_iteratorIPSt5arrayIxLm2EESt6vectorIS2_SaIS2_EEEC1ERKS3_, symObjAddr: 0x16E4, symBinAddr: 0x100005478, symSize: 0x28 }
  - { offsetInCU: 0xD896, offset: 0xD896, size: 0x8, addend: 0x0, symName: __ZNSt6vectorISt5arrayIxLm2EESaIS1_EE15_M_erase_at_endEPS1_, symObjAddr: 0x165C, symBinAddr: 0x1000053F0, symSize: 0x88 }
  - { offsetInCU: 0xD923, offset: 0xD923, size: 0x8, addend: 0x0, symName: __ZNSt6vectorISt5arrayIxLm2EESaIS1_EE17_M_default_appendEm, symObjAddr: 0x145C, symBinAddr: 0x1000051F0, symSize: 0x200 }
  - { offsetInCU: 0xD9C9, offset: 0xD9C9, size: 0x8, addend: 0x0, symName: __ZNKSt6vectorISt5arrayIxLm2EESaIS1_EE4sizeEv, symObjAddr: 0x1434, symBinAddr: 0x1000051C8, symSize: 0x28 }
  - { offsetInCU: 0xD9F1, offset: 0xD9F1, size: 0x8, addend: 0x0, symName: __ZNSt6vectorIS_ISt5arrayIxLm2EESaIS1_EESaIS3_EE15_M_erase_at_endEPS3_, symObjAddr: 0x13A0, symBinAddr: 0x100005134, symSize: 0x94 }
  - { offsetInCU: 0xDA7E, offset: 0xDA7E, size: 0x8, addend: 0x0, symName: __ZNSt6vectorIS_ISt5arrayIxLm2EESaIS1_EESaIS3_EE17_M_default_appendEm, symObjAddr: 0x1158, symBinAddr: 0x100004EEC, symSize: 0x248 }
  - { offsetInCU: 0xDB24, offset: 0xDB24, size: 0x8, addend: 0x0, symName: __ZNKSt6vectorIS_ISt5arrayIxLm2EESaIS1_EESaIS3_EE4sizeEv, symObjAddr: 0x1124, symBinAddr: 0x100004EB8, symSize: 0x34 }
  - { offsetInCU: 0xDB4C, offset: 0xDB4C, size: 0x8, addend: 0x0, symName: __ZNSt8_Rb_treeISt5arrayIxLm2EESt4pairIKS1_bESt10_Select1stIS4_ESt4lessIS1_ESaIS4_EE8_M_beginEv, symObjAddr: 0x1108, symBinAddr: 0x100004E9C, symSize: 0x1C }
  - { offsetInCU: 0xDB74, offset: 0xDB74, size: 0x8, addend: 0x0, symName: __ZNSt8_Rb_treeISt5arrayIxLm2EESt4pairIKS1_bESt10_Select1stIS4_ESt4lessIS1_ESaIS4_EE8_M_eraseEPSt13_Rb_tree_nodeIS4_E, symObjAddr: 0x10A4, symBinAddr: 0x100004E38, symSize: 0x64 }
  - { offsetInCU: 0xDC36, offset: 0xDC36, size: 0x8, addend: 0x0, symName: __ZNSt15__new_allocatorISt13_Rb_tree_nodeISt4pairIKSt5arrayIxLm2EEbEEED2Ev, symObjAddr: 0x1090, symBinAddr: 0x100004E24, symSize: 0x14 }
  - { offsetInCU: 0xDC62, offset: 0xDC62, size: 0x8, addend: 0x0, symName: __ZNSt20_Rb_tree_key_compareISt4lessISt5arrayIxLm2EEEEC2Ev, symObjAddr: 0x107C, symBinAddr: 0x100004E10, symSize: 0x14 }
  - { offsetInCU: 0xDC64, offset: 0xDC64, size: 0x8, addend: 0x0, symName: __ZNSt12_Vector_baseISt6vectorISt5arrayIxLm2EESaIS2_EESaIS4_EE13_M_deallocateEPS4_m, symObjAddr: 0x1024, symBinAddr: 0x100004DB8, symSize: 0x58 }
  - { offsetInCU: 0xDD39, offset: 0xDD39, size: 0x8, addend: 0x0, symName: __ZNSt15__new_allocatorISt6vectorISt5arrayIxLm2EESaIS2_EEED2Ev, symObjAddr: 0x1010, symBinAddr: 0x100004DA4, symSize: 0x14 }
  - { offsetInCU: 0xDD8C, offset: 0xDD8C, size: 0x8, addend: 0x0, symName: __ZNSt12_Vector_baseISt6vectorISt5arrayIxLm2EESaIS2_EESaIS4_EE17_Vector_impl_dataC2Ev, symObjAddr: 0xFE4, symBinAddr: 0x100004D78, symSize: 0x2C }
  - { offsetInCU: 0xDD73, offset: 0xDD73, size: 0x8, addend: 0x0, symName: __ZNSt3mapISt5arrayIxLm2EEbSt4lessIS1_ESaISt4pairIKS1_bEEEixEOS1_, symObjAddr: 0xEE0, symBinAddr: 0x100004C74, symSize: 0x104 }
  - { offsetInCU: 0xDDB7, offset: 0xDDB7, size: 0x8, addend: 0x0, symName: __ZSteqIxLm2EEbRKSt5arrayIT_XT0_EES4_, symObjAddr: 0xE8C, symBinAddr: 0x100004C20, symSize: 0x54 }
  - { offsetInCU: 0xDE06, offset: 0xDE06, size: 0x8, addend: 0x0, symName: __ZNKSt17_Rb_tree_iteratorISt4pairIKSt5arrayIxLm2EEbEEptEv, symObjAddr: 0xE6C, symBinAddr: 0x100004C00, symSize: 0x20 }
  - { offsetInCU: 0xDE2E, offset: 0xDE2E, size: 0x8, addend: 0x0, symName: __ZNSt3mapISt5arrayIxLm2EEbSt4lessIS1_ESaISt4pairIKS1_bEEE3endEv, symObjAddr: 0xE50, symBinAddr: 0x100004BE4, symSize: 0x1C }
  - { offsetInCU: 0xDE52, offset: 0xDE52, size: 0x8, addend: 0x0, symName: __ZStneRKSt17_Rb_tree_iteratorISt4pairIKSt5arrayIxLm2EEbEES7_, symObjAddr: 0xE20, symBinAddr: 0x100004BB4, symSize: 0x30 }
  - { offsetInCU: 0xDE8E, offset: 0xDE8E, size: 0x8, addend: 0x0, symName: __ZNSt3mapISt5arrayIxLm2EEbSt4lessIS1_ESaISt4pairIKS1_bEEE11lower_boundERS5_, symObjAddr: 0xDFC, symBinAddr: 0x100004B90, symSize: 0x24 }
  - { offsetInCU: 0xDF0C, offset: 0xDF0C, size: 0x8, addend: 0x0, symName: __ZNSt6vectorISt5arrayIxLm2EESaIS1_EED1Ev, symObjAddr: 0xDA0, symBinAddr: 0x100004B34, symSize: 0x5C }
  - { offsetInCU: 0xDF8B, offset: 0xDF8B, size: 0x8, addend: 0x0, symName: __ZNSt6vectorISt5arrayIxLm2EESaIS1_EEC1ERKS3_, symObjAddr: 0xC8C, symBinAddr: 0x100004A20, symSize: 0x114 }
  - { offsetInCU: 0xE066, offset: 0xE066, size: 0x8, addend: 0x0, symName: __ZNK9__gnu_cxx17__normal_iteratorIPSt6vectorISt5arrayIxLm2EESaIS3_EES1_IS5_SaIS5_EEEdeEv, symObjAddr: 0xC74, symBinAddr: 0x100004A08, symSize: 0x18 }
  - { offsetInCU: 0xE08E, offset: 0xE08E, size: 0x8, addend: 0x0, symName: __ZN9__gnu_cxx17__normal_iteratorIPSt6vectorISt5arrayIxLm2EESaIS3_EES1_IS5_SaIS5_EEEppEv, symObjAddr: 0xC4C, symBinAddr: 0x1000049E0, symSize: 0x28 }
  - { offsetInCU: 0xE0B8, offset: 0xE0B8, size: 0x8, addend: 0x0, symName: __ZN9__gnu_cxxneIPSt6vectorISt5arrayIxLm2EESaIS3_EES1_IS5_SaIS5_EEEEbRKNS_17__normal_iteratorIT_T0_EESE_, symObjAddr: 0xC08, symBinAddr: 0x10000499C, symSize: 0x44 }
  - { offsetInCU: 0xE106, offset: 0xE106, size: 0x8, addend: 0x0, symName: __ZNSt6vectorIS_ISt5arrayIxLm2EESaIS1_EESaIS3_EE3endEv, symObjAddr: 0xBE0, symBinAddr: 0x100004974, symSize: 0x28 }
  - { offsetInCU: 0xE12E, offset: 0xE12E, size: 0x8, addend: 0x0, symName: __ZNSt6vectorIS_ISt5arrayIxLm2EESaIS1_EESaIS3_EE5beginEv, symObjAddr: 0xBBC, symBinAddr: 0x100004950, symSize: 0x24 }
  - { offsetInCU: 0xE156, offset: 0xE156, size: 0x8, addend: 0x0, symName: __ZNK9__gnu_cxx17__normal_iteratorIPSt5arrayIxLm2EESt6vectorIS2_SaIS2_EEEdeEv, symObjAddr: 0xBA4, symBinAddr: 0x100004938, symSize: 0x18 }
  - { offsetInCU: 0xE17E, offset: 0xE17E, size: 0x8, addend: 0x0, symName: __ZN9__gnu_cxx17__normal_iteratorIPSt5arrayIxLm2EESt6vectorIS2_SaIS2_EEEppEv, symObjAddr: 0xB7C, symBinAddr: 0x100004910, symSize: 0x28 }
  - { offsetInCU: 0xE1A8, offset: 0xE1A8, size: 0x8, addend: 0x0, symName: __ZN9__gnu_cxxneIPSt5arrayIxLm2EESt6vectorIS2_SaIS2_EEEEbRKNS_17__normal_iteratorIT_T0_EESC_, symObjAddr: 0xB38, symBinAddr: 0x1000048CC, symSize: 0x44 }
  - { offsetInCU: 0xE1F6, offset: 0xE1F6, size: 0x8, addend: 0x0, symName: __ZNSt6vectorISt5arrayIxLm2EESaIS1_EE3endEv, symObjAddr: 0xB10, symBinAddr: 0x1000048A4, symSize: 0x28 }
  - { offsetInCU: 0xE21E, offset: 0xE21E, size: 0x8, addend: 0x0, symName: __ZNSt6vectorISt5arrayIxLm2EESaIS1_EE5beginEv, symObjAddr: 0xAEC, symBinAddr: 0x100004880, symSize: 0x24 }
  - { offsetInCU: 0xE246, offset: 0xE246, size: 0x8, addend: 0x0, symName: __ZNSt6vectorISt5arrayIxLm2EESaIS1_EE6resizeEm, symObjAddr: 0xA3C, symBinAddr: 0x1000047D0, symSize: 0xB0 }
  - { offsetInCU: 0xE27E, offset: 0xE27E, size: 0x8, addend: 0x0, symName: __ZNSt6vectorIS_ISt5arrayIxLm2EESaIS1_EESaIS3_EEixEm, symObjAddr: 0xA08, symBinAddr: 0x10000479C, symSize: 0x34 }
  - { offsetInCU: 0xE2B6, offset: 0xE2B6, size: 0x8, addend: 0x0, symName: __ZNSt6vectorIS_ISt5arrayIxLm2EESaIS1_EESaIS3_EE6resizeEm, symObjAddr: 0x94C, symBinAddr: 0x1000046E0, symSize: 0xBC }
  - { offsetInCU: 0xE369, offset: 0xE369, size: 0x8, addend: 0x0, symName: __ZNSt8_Rb_treeISt5arrayIxLm2EESt4pairIKS1_bESt10_Select1stIS4_ESt4lessIS1_ESaIS4_EED1Ev, symObjAddr: 0x918, symBinAddr: 0x1000046AC, symSize: 0x34 }
  - { offsetInCU: 0xE3DA, offset: 0xE3DA, size: 0x8, addend: 0x0, symName: __ZNSt8_Rb_treeISt5arrayIxLm2EESt4pairIKS1_bESt10_Select1stIS4_ESt4lessIS1_ESaIS4_EE13_Rb_tree_implIS8_Lb1EEC1Ev, symObjAddr: 0x8D4, symBinAddr: 0x100004668, symSize: 0x44 }
  - { offsetInCU: 0xE434, offset: 0xE434, size: 0x8, addend: 0x0, symName: __ZNSt12_Vector_baseISt6vectorISt5arrayIxLm2EESaIS2_EESaIS4_EED2Ev, symObjAddr: 0x878, symBinAddr: 0x10000460C, symSize: 0x5C }
  - { offsetInCU: 0xE49B, offset: 0xE49B, size: 0x8, addend: 0x0, symName: __ZNSt12_Vector_baseISt6vectorISt5arrayIxLm2EESaIS2_EESaIS4_EE12_Vector_implC1Ev, symObjAddr: 0x840, symBinAddr: 0x1000045D4, symSize: 0x38 }
  - { offsetInCU: 0xE4BA, offset: 0xE4BA, size: 0x8, addend: 0x0, symName: _main, symObjAddr: 0x208, symBinAddr: 0x100003F9C, symSize: 0x638 }
  - { offsetInCU: 0xE6D3, offset: 0xE6D3, size: 0x8, addend: 0x0, symName: __ZSt3getILm1ExLm2EEOT0_OSt5arrayIS0_XT1_EE, symObjAddr: 0x1E8, symBinAddr: 0x100003F7C, symSize: 0x20 }
  - { offsetInCU: 0xE71E, offset: 0xE71E, size: 0x8, addend: 0x0, symName: __ZSt4moveIRxEONSt16remove_referenceIT_E4typeEOS2_, symObjAddr: 0x1D4, symBinAddr: 0x100003F68, symSize: 0x14 }
  - { offsetInCU: 0xE74E, offset: 0xE74E, size: 0x8, addend: 0x0, symName: __ZSt3getILm0ExLm2EEOT0_OSt5arrayIS0_XT1_EE, symObjAddr: 0x1B4, symBinAddr: 0x100003F48, symSize: 0x20 }
  - { offsetInCU: 0xE793, offset: 0xE793, size: 0x8, addend: 0x0, symName: __ZSt3getILm1ExLm2EERT0_RSt5arrayIS0_XT1_EE, symObjAddr: 0x19C, symBinAddr: 0x100003F30, symSize: 0x18 }
  - { offsetInCU: 0xE7D8, offset: 0xE7D8, size: 0x8, addend: 0x0, symName: __ZSt3getILm0ExLm2EERT0_RSt5arrayIS0_XT1_EE, symObjAddr: 0x188, symBinAddr: 0x100003F1C, symSize: 0x14 }
  - { offsetInCU: 0xE873, offset: 0xE873, size: 0x8, addend: 0x0, symName: __ZNSt3mapISt5arrayIxLm2EEbSt4lessIS1_ESaISt4pairIKS1_bEEEC1Ev, symObjAddr: 0x168, symBinAddr: 0x100003EFC, symSize: 0x20 }
  - { offsetInCU: 0xE8C9, offset: 0xE8C9, size: 0x8, addend: 0x0, symName: __ZNSt8_Rb_treeISt5arrayIxLm2EESt4pairIKS1_bESt10_Select1stIS4_ESt4lessIS1_ESaIS4_EEC1Ev, symObjAddr: 0x148, symBinAddr: 0x100003EDC, symSize: 0x20 }
  - { offsetInCU: 0xE92B, offset: 0xE92B, size: 0x8, addend: 0x0, symName: __ZNSt8_Rb_treeISt5arrayIxLm2EESt4pairIKS1_bESt10_Select1stIS4_ESt4lessIS1_ESaIS4_EE13_Rb_tree_implIS8_Lb1EED1Ev, symObjAddr: 0x11C, symBinAddr: 0x100003EB0, symSize: 0x2C }
  - { offsetInCU: 0xE94D, offset: 0xE94D, size: 0x8, addend: 0x0, symName: __ZNSt6vectorIS_ISt5arrayIxLm2EESaIS1_EESaIS3_EEC1Ev, symObjAddr: 0xFC, symBinAddr: 0x100003E90, symSize: 0x20 }
  - { offsetInCU: 0xE997, offset: 0xE997, size: 0x8, addend: 0x0, symName: __ZNSt12_Vector_baseISt6vectorISt5arrayIxLm2EESaIS2_EESaIS4_EEC2Ev, symObjAddr: 0xDC, symBinAddr: 0x100003E70, symSize: 0x20 }
  - { offsetInCU: 0xE9EE, offset: 0xE9EE, size: 0x8, addend: 0x0, symName: __ZNSt12_Vector_baseISt6vectorISt5arrayIxLm2EESaIS2_EESaIS4_EE12_Vector_implD1Ev, symObjAddr: 0xB0, symBinAddr: 0x100003E44, symSize: 0x2C }
  - { offsetInCU: 0xE9E7, offset: 0xE9E7, size: 0x8, addend: 0x0, symName: __ZNSt15_Rb_tree_header8_M_resetEv, symObjAddr: 0x74, symBinAddr: 0x100003E08, symSize: 0x3C }
  - { offsetInCU: 0xEA3E, offset: 0xEA3E, size: 0x8, addend: 0x0, symName: __ZNSt15_Rb_tree_headerC2Ev, symObjAddr: 0x4C, symBinAddr: 0x100003DE0, symSize: 0x28 }
  - { offsetInCU: 0xEA54, offset: 0xEA54, size: 0x8, addend: 0x0, symName: __ZdlPvS_, symObjAddr: 0x34, symBinAddr: 0x100003DC8, symSize: 0x18 }
  - { offsetInCU: 0xEA87, offset: 0xEA87, size: 0x8, addend: 0x0, symName: __ZnwmPv, symObjAddr: 0x1C, symBinAddr: 0x100003DB0, symSize: 0x18 }
  - { offsetInCU: 0xEAB2, offset: 0xEAB2, size: 0x8, addend: 0x0, symName: __ZSt17__size_to_integerm, symObjAddr: 0x8, symBinAddr: 0x100003D9C, symSize: 0x14 }
  - { offsetInCU: 0xEADB, offset: 0xEADB, size: 0x8, addend: 0x0, symName: __ZN9__gnu_cxx5__ops16__iter_less_iterEv, symObjAddr: 0x0, symBinAddr: 0x100003D94, symSize: 0x8 }
...
