---
triple:          'arm64-apple-darwin'
binary-path:     '/Users/dingkai/Code/IOI2024/USACO/Bronze/202312/Problem_3._Farmer_John_Actually_Farms.gout'
relocations:
  - { offsetInCU: 0xD8, offset: 0xD8, size: 0x8, addend: 0x0, symName: __ZN9__gnu_cxx5__ops16__iter_less_iterEv, symObjAddr: 0x0, symBinAddr: 0x1000031D8, symSize: 0x8 }
  - { offsetInCU: 0xE0, offset: 0xE0, size: 0x8, addend: 0x0, symName: __ZL3IDX, symObjAddr: 0x2D64, symBinAddr: 0x100006588, symSize: 0x0 }
  - { offsetInCU: 0x37B4, offset: 0x37B4, size: 0x8, addend: 0x0, symName: __ZStL8__ioinit, symObjAddr: 0x26F90, symBinAddr: 0x10000C034, symSize: 0x0 }
  - { offsetInCU: 0x526B, offset: 0x526B, size: 0x8, addend: 0x0, symName: _plant, symObjAddr: 0x26F98, symBinAddr: 0x10000C038, symSize: 0x0 }
  - { offsetInCU: 0x5282, offset: 0x5282, size: 0x8, addend: 0x0, symName: __ZL3IDX, symObjAddr: 0x2D64, symBinAddr: 0x100006588, symSize: 0x0 }
  - { offsetInCU: 0x52A1, offset: 0x52A1, size: 0x8, addend: 0x0, symName: __ZL8ORIGINAL, symObjAddr: 0x2D68, symBinAddr: 0x10000658C, symSize: 0x0 }
  - { offsetInCU: 0x52BC, offset: 0x52BC, size: 0x8, addend: 0x0, symName: __ZL9INCREMENT, symObjAddr: 0x2D6C, symBinAddr: 0x100006590, symSize: 0x0 }
  - { offsetInCU: 0x6005, offset: 0x6005, size: 0x8, addend: 0x0, symName: __ZNSt8__detail30__integer_to_chars_is_unsignedIjEE, symObjAddr: 0x2D70, symBinAddr: 0x100006594, symSize: 0x0 }
  - { offsetInCU: 0x601F, offset: 0x601F, size: 0x8, addend: 0x0, symName: __ZNSt8__detail30__integer_to_chars_is_unsignedImEE, symObjAddr: 0x2D71, symBinAddr: 0x100006595, symSize: 0x0 }
  - { offsetInCU: 0x6039, offset: 0x6039, size: 0x8, addend: 0x0, symName: __ZNSt8__detail30__integer_to_chars_is_unsignedIyEE, symObjAddr: 0x2D72, symBinAddr: 0x100006596, symSize: 0x0 }
  - { offsetInCU: 0x6080, offset: 0x6080, size: 0x8, addend: 0x0, symName: __GLOBAL__sub_I_Problem_3._Farmer_John_Actually_Farms.cpp, symObjAddr: 0x2D50, symBinAddr: 0x100005F28, symSize: 0x14 }
  - { offsetInCU: 0x6088, offset: 0x6088, size: 0x8, addend: 0x0, symName: __ZL3IDX, symObjAddr: 0x2D64, symBinAddr: 0x100006588, symSize: 0x0 }
  - { offsetInCU: 0x60B4, offset: 0x60B4, size: 0x8, addend: 0x0, symName: __ZNSt6vectorISt5arrayIxLm3EESaIS1_EED1Ev, symObjAddr: 0x2CF4, symBinAddr: 0x100005ECC, symSize: 0x5C }
  - { offsetInCU: 0x60BC, offset: 0x60BC, size: 0x8, addend: 0x0, symName: __GLOBAL__sub_I_Problem_3._Farmer_John_Actually_Farms.cpp, symObjAddr: 0x2D50, symBinAddr: 0x100005F28, symSize: 0x14 }
  - { offsetInCU: 0x611E, offset: 0x611E, size: 0x8, addend: 0x0, symName: __Z41__static_initialization_and_destruction_0v, symObjAddr: 0x2C90, symBinAddr: 0x100005E68, symSize: 0x64 }
  - { offsetInCU: 0x6126, offset: 0x6126, size: 0x8, addend: 0x0, symName: __ZNSt6vectorISt5arrayIxLm3EESaIS1_EED1Ev, symObjAddr: 0x2CF4, symBinAddr: 0x100005ECC, symSize: 0x5C }
  - { offsetInCU: 0x6124, offset: 0x6124, size: 0x8, addend: 0x0, symName: __ZNK9__gnu_cxx5__ops15_Iter_less_iterclIPKxS4_EEbT_T0_, symObjAddr: 0x2C5C, symBinAddr: 0x100005E34, symSize: 0x34 }
  - { offsetInCU: 0x612C, offset: 0x612C, size: 0x8, addend: 0x0, symName: __Z41__static_initialization_and_destruction_0v, symObjAddr: 0x2C90, symBinAddr: 0x100005E68, symSize: 0x64 }
  - { offsetInCU: 0x6193, offset: 0x6193, size: 0x8, addend: 0x0, symName: __ZNSt8__lc_raiISt26random_access_iterator_tagS0_E6__cnd2IPKxEEbT_S5_, symObjAddr: 0x2C44, symBinAddr: 0x100005E1C, symSize: 0x18 }
  - { offsetInCU: 0x619B, offset: 0x619B, size: 0x8, addend: 0x0, symName: __ZNK9__gnu_cxx5__ops15_Iter_less_iterclIPKxS4_EEbT_T0_, symObjAddr: 0x2C5C, symBinAddr: 0x100005E34, symSize: 0x34 }
  - { offsetInCU: 0x61D6, offset: 0x61D6, size: 0x8, addend: 0x0, symName: __ZNSt8__lc_raiISt26random_access_iterator_tagS0_E10__newlast1IPKxS4_EET_S5_S5_T0_S6_, symObjAddr: 0x2BD8, symBinAddr: 0x100005DB0, symSize: 0x6C }
  - { offsetInCU: 0x61DE, offset: 0x61DE, size: 0x8, addend: 0x0, symName: __ZNSt8__lc_raiISt26random_access_iterator_tagS0_E6__cnd2IPKxEEbT_S5_, symObjAddr: 0x2C44, symBinAddr: 0x100005E1C, symSize: 0x18 }
  - { offsetInCU: 0x62D1, offset: 0x62D1, size: 0x8, addend: 0x0, symName: __ZSt4moveIRxEONSt16remove_referenceIT_E4typeEOS2_, symObjAddr: 0x2BC4, symBinAddr: 0x100005D9C, symSize: 0x14 }
  - { offsetInCU: 0x62D9, offset: 0x62D9, size: 0x8, addend: 0x0, symName: __ZNSt8__lc_raiISt26random_access_iterator_tagS0_E10__newlast1IPKxS4_EET_S5_S5_T0_S6_, symObjAddr: 0x2BD8, symBinAddr: 0x100005DB0, symSize: 0x6C }
  - { offsetInCU: 0x63AC, offset: 0x63AC, size: 0x8, addend: 0x0, symName: __ZSt30__lexicographical_compare_implIPKxS1_N9__gnu_cxx5__ops15_Iter_less_iterEEbT_S5_T0_S6_T1_, symObjAddr: 0x2AA8, symBinAddr: 0x100005C80, symSize: 0x11C }
  - { offsetInCU: 0x63B4, offset: 0x63B4, size: 0x8, addend: 0x0, symName: __ZSt4moveIRxEONSt16remove_referenceIT_E4typeEOS2_, symObjAddr: 0x2BC4, symBinAddr: 0x100005D9C, symSize: 0x14 }
  - { offsetInCU: 0x6440, offset: 0x6440, size: 0x8, addend: 0x0, symName: __ZSt4swapIxENSt9enable_ifIXsrSt6__and_IJSt6__not_ISt15__is_tuple_likeIT_EESt21is_move_constructibleIS4_ESt18is_move_assignableIS4_EEE5valueEvE4typeERS4_SE_, symObjAddr: 0x2A54, symBinAddr: 0x100005C2C, symSize: 0x54 }
  - { offsetInCU: 0x6448, offset: 0x6448, size: 0x8, addend: 0x0, symName: __ZSt30__lexicographical_compare_implIPKxS1_N9__gnu_cxx5__ops15_Iter_less_iterEEbT_S5_T0_S6_T1_, symObjAddr: 0x2AA8, symBinAddr: 0x100005C80, symSize: 0x11C }
  - { offsetInCU: 0x63F8, offset: 0x63F8, size: 0x8, addend: 0x0, symName: __ZNSt11__copy_moveILb1ELb0ESt26random_access_iterator_tagE12__assign_oneISt5arrayIxLm3EES4_EEvPT_PT0_, symObjAddr: 0x2A10, symBinAddr: 0x100005BE8, symSize: 0x44 }
  - { offsetInCU: 0x6400, offset: 0x6400, size: 0x8, addend: 0x0, symName: __ZSt4swapIxENSt9enable_ifIXsrSt6__and_IJSt6__not_ISt15__is_tuple_likeIT_EESt21is_move_constructibleIS4_ESt18is_move_assignableIS4_EEE5valueEvE4typeERS4_SE_, symObjAddr: 0x2A54, symBinAddr: 0x100005C2C, symSize: 0x54 }
  - { offsetInCU: 0x6458, offset: 0x6458, size: 0x8, addend: 0x0, symName: __ZNSt25__lexicographical_compareILb0EE4__lcIPKxS3_EEbT_S4_T0_S5_, symObjAddr: 0x29C8, symBinAddr: 0x100005BA0, symSize: 0x48 }
  - { offsetInCU: 0x6460, offset: 0x6460, size: 0x8, addend: 0x0, symName: __ZNSt11__copy_moveILb1ELb0ESt26random_access_iterator_tagE12__assign_oneISt5arrayIxLm3EES4_EEvPT_PT0_, symObjAddr: 0x2A10, symBinAddr: 0x100005BE8, symSize: 0x44 }
  - { offsetInCU: 0x6526, offset: 0x6526, size: 0x8, addend: 0x0, symName: __ZSt9iter_swapIPxS0_EvT_T0_, symObjAddr: 0x29A0, symBinAddr: 0x100005B78, symSize: 0x28 }
  - { offsetInCU: 0x652E, offset: 0x652E, size: 0x8, addend: 0x0, symName: __ZNSt25__lexicographical_compareILb0EE4__lcIPKxS3_EEbT_S4_T0_S5_, symObjAddr: 0x29C8, symBinAddr: 0x100005BA0, symSize: 0x48 }
  - { offsetInCU: 0x6565, offset: 0x6565, size: 0x8, addend: 0x0, symName: __ZNSt20__copy_move_backwardILb1ELb1ESt26random_access_iterator_tagE13__copy_move_bISt5arrayIxLm3EES4_EEPT0_PT_S8_S6_, symObjAddr: 0x28C4, symBinAddr: 0x100005A9C, symSize: 0xDC }
  - { offsetInCU: 0x656D, offset: 0x656D, size: 0x8, addend: 0x0, symName: __ZSt9iter_swapIPxS0_EvT_T0_, symObjAddr: 0x29A0, symBinAddr: 0x100005B78, symSize: 0x28 }
  - { offsetInCU: 0x6676, offset: 0x6676, size: 0x8, addend: 0x0, symName: __ZSt30__lexicographical_compare_aux1IPKxS1_EbT_S2_T0_S3_, symObjAddr: 0x2888, symBinAddr: 0x100005A60, symSize: 0x3C }
  - { offsetInCU: 0x667E, offset: 0x667E, size: 0x8, addend: 0x0, symName: __ZNSt20__copy_move_backwardILb1ELb1ESt26random_access_iterator_tagE13__copy_move_bISt5arrayIxLm3EES4_EEPT0_PT_S8_S6_, symObjAddr: 0x28C4, symBinAddr: 0x100005A9C, symSize: 0xDC }
  - { offsetInCU: 0x66DB, offset: 0x66DB, size: 0x8, addend: 0x0, symName: __ZSt12__niter_baseIPKxET_S2_, symObjAddr: 0x2874, symBinAddr: 0x100005A4C, symSize: 0x14 }
  - { offsetInCU: 0x66E3, offset: 0x66E3, size: 0x8, addend: 0x0, symName: __ZSt30__lexicographical_compare_aux1IPKxS1_EbT_S2_T0_S3_, symObjAddr: 0x2888, symBinAddr: 0x100005A60, symSize: 0x3C }
  - { offsetInCU: 0x6736, offset: 0x6736, size: 0x8, addend: 0x0, symName: __ZSt11swap_rangesIPxS0_ET0_T_S2_S1_, symObjAddr: 0x281C, symBinAddr: 0x1000059F4, symSize: 0x58 }
  - { offsetInCU: 0x673E, offset: 0x673E, size: 0x8, addend: 0x0, symName: __ZSt12__niter_baseIPKxET_S2_, symObjAddr: 0x2874, symBinAddr: 0x100005A4C, symSize: 0x14 }
  - { offsetInCU: 0x675F, offset: 0x675F, size: 0x8, addend: 0x0, symName: __ZNSt5arrayIxLm3EE3endEv, symObjAddr: 0x27FC, symBinAddr: 0x1000059D4, symSize: 0x20 }
  - { offsetInCU: 0x6767, offset: 0x6767, size: 0x8, addend: 0x0, symName: __ZSt11swap_rangesIPxS0_ET0_T_S2_S1_, symObjAddr: 0x281C, symBinAddr: 0x1000059F4, symSize: 0x58 }
  - { offsetInCU: 0x67B4, offset: 0x67B4, size: 0x8, addend: 0x0, symName: __ZNSt5arrayIxLm3EE5beginEv, symObjAddr: 0x27E0, symBinAddr: 0x1000059B8, symSize: 0x1C }
  - { offsetInCU: 0x67BC, offset: 0x67BC, size: 0x8, addend: 0x0, symName: __ZNSt5arrayIxLm3EE3endEv, symObjAddr: 0x27FC, symBinAddr: 0x1000059D4, symSize: 0x20 }
  - { offsetInCU: 0x681C, offset: 0x681C, size: 0x8, addend: 0x0, symName: __ZNK9__gnu_cxx5__ops14_Iter_less_valclINS_17__normal_iteratorIPSt5arrayIxLm3EESt6vectorIS5_SaIS5_EEEES5_EEbT_RT0_, symObjAddr: 0x27B0, symBinAddr: 0x100005988, symSize: 0x30 }
  - { offsetInCU: 0x6824, offset: 0x6824, size: 0x8, addend: 0x0, symName: __ZNSt5arrayIxLm3EE5beginEv, symObjAddr: 0x27E0, symBinAddr: 0x1000059B8, symSize: 0x1C }
  - { offsetInCU: 0x6947, offset: 0x6947, size: 0x8, addend: 0x0, symName: __ZSt9__fill_a1IPSt5arrayIxLm3EES1_EN9__gnu_cxx11__enable_ifIXntsrSt11__is_scalarIT0_E7__valueEvE6__typeET_SA_RKS6_, symObjAddr: 0x2750, symBinAddr: 0x100005928, symSize: 0x60 }
  - { offsetInCU: 0x694F, offset: 0x694F, size: 0x8, addend: 0x0, symName: __ZNK9__gnu_cxx5__ops14_Iter_less_valclINS_17__normal_iteratorIPSt5arrayIxLm3EESt6vectorIS5_SaIS5_EEEES5_EEbT_RT0_, symObjAddr: 0x27B0, symBinAddr: 0x100005988, symSize: 0x30 }
  - { offsetInCU: 0x69A8, offset: 0x69A8, size: 0x8, addend: 0x0, symName: __ZSt23__copy_move_backward_a2ILb1EPSt5arrayIxLm3EES2_ET1_T0_S4_S3_, symObjAddr: 0x2724, symBinAddr: 0x1000058FC, symSize: 0x2C }
  - { offsetInCU: 0x69B0, offset: 0x69B0, size: 0x8, addend: 0x0, symName: __ZSt9__fill_a1IPSt5arrayIxLm3EES1_EN9__gnu_cxx11__enable_ifIXntsrSt11__is_scalarIT0_E7__valueEvE6__typeET_SA_RKS6_, symObjAddr: 0x2750, symBinAddr: 0x100005928, symSize: 0x60 }
  - { offsetInCU: 0x6A1A, offset: 0x6A1A, size: 0x8, addend: 0x0, symName: __ZSt29__lexicographical_compare_auxIPKxS1_EbT_S2_T0_S3_, symObjAddr: 0x26B0, symBinAddr: 0x100005888, symSize: 0x74 }
  - { offsetInCU: 0x6A22, offset: 0x6A22, size: 0x8, addend: 0x0, symName: __ZSt23__copy_move_backward_a2ILb1EPSt5arrayIxLm3EES2_ET1_T0_S4_S3_, symObjAddr: 0x2724, symBinAddr: 0x1000058FC, symSize: 0x2C }
  - { offsetInCU: 0x6A28, offset: 0x6A28, size: 0x8, addend: 0x0, symName: __ZNKSt5arrayIxLm3EE4dataEv, symObjAddr: 0x269C, symBinAddr: 0x100005874, symSize: 0x14 }
  - { offsetInCU: 0x6A30, offset: 0x6A30, size: 0x8, addend: 0x0, symName: __ZSt29__lexicographical_compare_auxIPKxS1_EbT_S2_T0_S3_, symObjAddr: 0x26B0, symBinAddr: 0x100005888, symSize: 0x74 }
  - { offsetInCU: 0x6A57, offset: 0x6A57, size: 0x8, addend: 0x0, symName: __ZNSt5arrayIxLm3EE4swapERS0_, symObjAddr: 0x2648, symBinAddr: 0x100005820, symSize: 0x54 }
  - { offsetInCU: 0x6A5F, offset: 0x6A5F, size: 0x8, addend: 0x0, symName: __ZNKSt5arrayIxLm3EE4dataEv, symObjAddr: 0x269C, symBinAddr: 0x100005874, symSize: 0x14 }
  - { offsetInCU: 0x6BE2, offset: 0x6BE2, size: 0x8, addend: 0x0, symName: __ZSt11__push_heapIN9__gnu_cxx17__normal_iteratorIPSt5arrayIxLm3EESt6vectorIS3_SaIS3_EEEElS3_NS0_5__ops14_Iter_less_valEEvT_T0_SC_T1_RT2_, symObjAddr: 0x24FC, symBinAddr: 0x1000056D4, symSize: 0x14C }
  - { offsetInCU: 0x6BEA, offset: 0x6BEA, size: 0x8, addend: 0x0, symName: __ZNSt5arrayIxLm3EE4swapERS0_, symObjAddr: 0x2648, symBinAddr: 0x100005820, symSize: 0x54 }
  - { offsetInCU: 0x6BEC, offset: 0x6BEC, size: 0x8, addend: 0x0, symName: __ZSt4moveIRN9__gnu_cxx5__ops15_Iter_less_iterEEONSt16remove_referenceIT_E4typeEOS5_, symObjAddr: 0x24E8, symBinAddr: 0x1000056C0, symSize: 0x14 }
  - { offsetInCU: 0x6BF4, offset: 0x6BF4, size: 0x8, addend: 0x0, symName: __ZSt11__push_heapIN9__gnu_cxx17__normal_iteratorIPSt5arrayIxLm3EESt6vectorIS3_SaIS3_EEEElS3_NS0_5__ops14_Iter_less_valEEvT_T0_SC_T1_RT2_, symObjAddr: 0x24FC, symBinAddr: 0x1000056D4, symSize: 0x14C }
  - { offsetInCU: 0x6C3F, offset: 0x6C3F, size: 0x8, addend: 0x0, symName: __ZSt8__fill_aIPSt5arrayIxLm3EES1_EvT_S3_RKT0_, symObjAddr: 0x24B8, symBinAddr: 0x100005690, symSize: 0x30 }
  - { offsetInCU: 0x6C47, offset: 0x6C47, size: 0x8, addend: 0x0, symName: __ZSt4moveIRN9__gnu_cxx5__ops15_Iter_less_iterEEONSt16remove_referenceIT_E4typeEOS5_, symObjAddr: 0x24E8, symBinAddr: 0x1000056C0, symSize: 0x14 }
  - { offsetInCU: 0x6D43, offset: 0x6D43, size: 0x8, addend: 0x0, symName: __ZSt12__niter_wrapIN9__gnu_cxx17__normal_iteratorIPSt5arrayIxLm3EESt6vectorIS3_SaIS3_EEEES4_ET_S9_T0_, symObjAddr: 0x2470, symBinAddr: 0x100005648, symSize: 0x48 }
  - { offsetInCU: 0x6D4B, offset: 0x6D4B, size: 0x8, addend: 0x0, symName: __ZSt8__fill_aIPSt5arrayIxLm3EES1_EvT_S3_RKT0_, symObjAddr: 0x24B8, symBinAddr: 0x100005690, symSize: 0x30 }
  - { offsetInCU: 0x6D53, offset: 0x6D53, size: 0x8, addend: 0x0, symName: __ZSt23__copy_move_backward_a1ILb1EPSt5arrayIxLm3EES2_ET1_T0_S4_S3_, symObjAddr: 0x2444, symBinAddr: 0x10000561C, symSize: 0x2C }
  - { offsetInCU: 0x6D5B, offset: 0x6D5B, size: 0x8, addend: 0x0, symName: __ZSt12__niter_wrapIN9__gnu_cxx17__normal_iteratorIPSt5arrayIxLm3EESt6vectorIS3_SaIS3_EEEES4_ET_S9_T0_, symObjAddr: 0x2470, symBinAddr: 0x100005648, symSize: 0x48 }
  - { offsetInCU: 0x6DFF, offset: 0x6DFF, size: 0x8, addend: 0x0, symName: __ZSt12__niter_baseIPSt5arrayIxLm3EESt6vectorIS1_SaIS1_EEET_N9__gnu_cxx17__normal_iteratorIS6_T0_EE, symObjAddr: 0x2424, symBinAddr: 0x1000055FC, symSize: 0x20 }
  - { offsetInCU: 0x6E07, offset: 0x6E07, size: 0x8, addend: 0x0, symName: __ZSt23__copy_move_backward_a1ILb1EPSt5arrayIxLm3EES2_ET1_T0_S4_S3_, symObjAddr: 0x2444, symBinAddr: 0x10000561C, symSize: 0x2C }
  - { offsetInCU: 0x6E12, offset: 0x6E12, size: 0x8, addend: 0x0, symName: __ZSt23lexicographical_compareIPKxS1_EbT_S2_T0_S3_, symObjAddr: 0x23EC, symBinAddr: 0x1000055C4, symSize: 0x38 }
  - { offsetInCU: 0x6E1A, offset: 0x6E1A, size: 0x8, addend: 0x0, symName: __ZSt12__niter_baseIPSt5arrayIxLm3EESt6vectorIS1_SaIS1_EEET_N9__gnu_cxx17__normal_iteratorIS6_T0_EE, symObjAddr: 0x2424, symBinAddr: 0x1000055FC, symSize: 0x20 }
  - { offsetInCU: 0x6E2C, offset: 0x6E2C, size: 0x8, addend: 0x0, symName: __ZNKSt5arrayIxLm3EE3endEv, symObjAddr: 0x23CC, symBinAddr: 0x1000055A4, symSize: 0x20 }
  - { offsetInCU: 0x6E34, offset: 0x6E34, size: 0x8, addend: 0x0, symName: __ZSt23lexicographical_compareIPKxS1_EbT_S2_T0_S3_, symObjAddr: 0x23EC, symBinAddr: 0x1000055C4, symSize: 0x38 }
  - { offsetInCU: 0x6E5B, offset: 0x6E5B, size: 0x8, addend: 0x0, symName: __ZNKSt5arrayIxLm3EE5beginEv, symObjAddr: 0x23B0, symBinAddr: 0x100005588, symSize: 0x1C }
  - { offsetInCU: 0x6E63, offset: 0x6E63, size: 0x8, addend: 0x0, symName: __ZNKSt5arrayIxLm3EE3endEv, symObjAddr: 0x23CC, symBinAddr: 0x1000055A4, symSize: 0x20 }
  - { offsetInCU: 0x6F15, offset: 0x6F15, size: 0x8, addend: 0x0, symName: __ZSt4swapIxLm3EENSt9enable_ifIXsrNSt14__array_traitsIT_XT0_EE13_Is_swappableE5valueEvE4typeERSt5arrayIS2_XT0_EES9_, symObjAddr: 0x2388, symBinAddr: 0x100005560, symSize: 0x28 }
  - { offsetInCU: 0x6F1D, offset: 0x6F1D, size: 0x8, addend: 0x0, symName: __ZNKSt5arrayIxLm3EE5beginEv, symObjAddr: 0x23B0, symBinAddr: 0x100005588, symSize: 0x1C }
  - { offsetInCU: 0x703E, offset: 0x703E, size: 0x8, addend: 0x0, symName: __ZSt13__adjust_heapIN9__gnu_cxx17__normal_iteratorIPSt5arrayIxLm3EESt6vectorIS3_SaIS3_EEEElS3_NS0_5__ops15_Iter_less_iterEEvT_T0_SC_T1_T2_, symObjAddr: 0x2168, symBinAddr: 0x100005340, symSize: 0x220 }
  - { offsetInCU: 0x7046, offset: 0x7046, size: 0x8, addend: 0x0, symName: __ZSt4swapIxLm3EENSt9enable_ifIXsrNSt14__array_traitsIT_XT0_EE13_Is_swappableE5valueEvE4typeERSt5arrayIS2_XT0_EES9_, symObjAddr: 0x2388, symBinAddr: 0x100005560, symSize: 0x28 }
  - { offsetInCU: 0x7095, offset: 0x7095, size: 0x8, addend: 0x0, symName: __ZSt10__fill_n_aIPSt5arrayIxLm3EEmS1_ET_S3_T0_RKT1_St26random_access_iterator_tag, symObjAddr: 0x20E4, symBinAddr: 0x1000052BC, symSize: 0x84 }
  - { offsetInCU: 0x709D, offset: 0x709D, size: 0x8, addend: 0x0, symName: __ZSt13__adjust_heapIN9__gnu_cxx17__normal_iteratorIPSt5arrayIxLm3EESt6vectorIS3_SaIS3_EEEElS3_NS0_5__ops15_Iter_less_iterEEvT_T0_SC_T1_T2_, symObjAddr: 0x2168, symBinAddr: 0x100005340, symSize: 0x220 }
  - { offsetInCU: 0x70BC, offset: 0x70BC, size: 0x8, addend: 0x0, symName: __ZNK9__gnu_cxx5__ops14_Val_less_iterclISt5arrayIxLm3EENS_17__normal_iteratorIPS4_St6vectorIS4_SaIS4_EEEEEEbRT_T0_, symObjAddr: 0x20B0, symBinAddr: 0x100005288, symSize: 0x34 }
  - { offsetInCU: 0x70C4, offset: 0x70C4, size: 0x8, addend: 0x0, symName: __ZSt10__fill_n_aIPSt5arrayIxLm3EEmS1_ET_S3_T0_RKT1_St26random_access_iterator_tag, symObjAddr: 0x20E4, symBinAddr: 0x1000052BC, symSize: 0x84 }
  - { offsetInCU: 0x729A, offset: 0x729A, size: 0x8, addend: 0x0, symName: __ZSt22__copy_move_backward_aILb1EN9__gnu_cxx17__normal_iteratorIPSt5arrayIxLm3EESt6vectorIS3_SaIS3_EEEES8_ET1_T0_SA_S9_, symObjAddr: 0x2050, symBinAddr: 0x100005228, symSize: 0x60 }
  - { offsetInCU: 0x72A2, offset: 0x72A2, size: 0x8, addend: 0x0, symName: __ZNK9__gnu_cxx5__ops14_Val_less_iterclISt5arrayIxLm3EENS_17__normal_iteratorIPS4_St6vectorIS4_SaIS4_EEEEEEbRT_T0_, symObjAddr: 0x20B0, symBinAddr: 0x100005288, symSize: 0x34 }
  - { offsetInCU: 0x7297, offset: 0x7297, size: 0x8, addend: 0x0, symName: __ZSt12__miter_baseIN9__gnu_cxx17__normal_iteratorIPSt5arrayIxLm3EESt6vectorIS3_SaIS3_EEEEET_S9_, symObjAddr: 0x203C, symBinAddr: 0x100005214, symSize: 0x14 }
  - { offsetInCU: 0x729F, offset: 0x729F, size: 0x8, addend: 0x0, symName: __ZSt22__copy_move_backward_aILb1EN9__gnu_cxx17__normal_iteratorIPSt5arrayIxLm3EESt6vectorIS3_SaIS3_EEEES8_ET1_T0_SA_S9_, symObjAddr: 0x2050, symBinAddr: 0x100005228, symSize: 0x60 }
  - { offsetInCU: 0x724D, offset: 0x724D, size: 0x8, addend: 0x0, symName: __ZStltIxLm3EEbRKSt5arrayIT_XT0_EES4_, symObjAddr: 0x1FD0, symBinAddr: 0x1000051A8, symSize: 0x6C }
  - { offsetInCU: 0x7255, offset: 0x7255, size: 0x8, addend: 0x0, symName: __ZSt12__miter_baseIN9__gnu_cxx17__normal_iteratorIPSt5arrayIxLm3EESt6vectorIS3_SaIS3_EEEEET_S9_, symObjAddr: 0x203C, symBinAddr: 0x100005214, symSize: 0x14 }
  - { offsetInCU: 0x73B3, offset: 0x73B3, size: 0x8, addend: 0x0, symName: __ZSt9iter_swapIN9__gnu_cxx17__normal_iteratorIPSt5arrayIxLm3EESt6vectorIS3_SaIS3_EEEES8_EvT_T0_, symObjAddr: 0x1F8C, symBinAddr: 0x100005164, symSize: 0x44 }
  - { offsetInCU: 0x73BB, offset: 0x73BB, size: 0x8, addend: 0x0, symName: __ZStltIxLm3EEbRKSt5arrayIT_XT0_EES4_, symObjAddr: 0x1FD0, symBinAddr: 0x1000051A8, symSize: 0x6C }
  - { offsetInCU: 0x72D6, offset: 0x72D6, size: 0x8, addend: 0x0, symName: __ZN9__gnu_cxx17__normal_iteratorIPSt5arrayIxLm3EESt6vectorIS2_SaIS2_EEEmmEv, symObjAddr: 0x1F64, symBinAddr: 0x10000513C, symSize: 0x28 }
  - { offsetInCU: 0x72DE, offset: 0x72DE, size: 0x8, addend: 0x0, symName: __ZSt9iter_swapIN9__gnu_cxx17__normal_iteratorIPSt5arrayIxLm3EESt6vectorIS3_SaIS3_EEEES8_EvT_T0_, symObjAddr: 0x1F8C, symBinAddr: 0x100005164, symSize: 0x44 }
  - { offsetInCU: 0x741F, offset: 0x741F, size: 0x8, addend: 0x0, symName: __ZSt10__pop_heapIN9__gnu_cxx17__normal_iteratorIPSt5arrayIxLm3EESt6vectorIS3_SaIS3_EEEENS0_5__ops15_Iter_less_iterEEvT_SB_SB_RT0_, symObjAddr: 0x1E98, symBinAddr: 0x100005070, symSize: 0xCC }
  - { offsetInCU: 0x7427, offset: 0x7427, size: 0x8, addend: 0x0, symName: __ZN9__gnu_cxx17__normal_iteratorIPSt5arrayIxLm3EESt6vectorIS2_SaIS2_EEEmmEv, symObjAddr: 0x1F64, symBinAddr: 0x10000513C, symSize: 0x28 }
  - { offsetInCU: 0x747B, offset: 0x747B, size: 0x8, addend: 0x0, symName: __ZN9__gnu_cxxltIPSt5arrayIxLm3EESt6vectorIS2_SaIS2_EEEEbRKNS_17__normal_iteratorIT_T0_EESC_, symObjAddr: 0x1E54, symBinAddr: 0x10000502C, symSize: 0x44 }
  - { offsetInCU: 0x7483, offset: 0x7483, size: 0x8, addend: 0x0, symName: __ZSt10__pop_heapIN9__gnu_cxx17__normal_iteratorIPSt5arrayIxLm3EESt6vectorIS3_SaIS3_EEEENS0_5__ops15_Iter_less_iterEEvT_SB_SB_RT0_, symObjAddr: 0x1E98, symBinAddr: 0x100005070, symSize: 0xCC }
  - { offsetInCU: 0x7554, offset: 0x7554, size: 0x8, addend: 0x0, symName: __ZSt11__make_heapIN9__gnu_cxx17__normal_iteratorIPSt5arrayIxLm3EESt6vectorIS3_SaIS3_EEEENS0_5__ops15_Iter_less_iterEEvT_SB_RT0_, symObjAddr: 0x1D4C, symBinAddr: 0x100004F24, symSize: 0x108 }
  - { offsetInCU: 0x755C, offset: 0x755C, size: 0x8, addend: 0x0, symName: __ZN9__gnu_cxxltIPSt5arrayIxLm3EESt6vectorIS2_SaIS2_EEEEbRKNS_17__normal_iteratorIT_T0_EESC_, symObjAddr: 0x1E54, symBinAddr: 0x10000502C, symSize: 0x44 }
  - { offsetInCU: 0x75D2, offset: 0x75D2, size: 0x8, addend: 0x0, symName: __ZSt6fill_nIPSt5arrayIxLm3EEmS1_ET_S3_T0_RKT1_, symObjAddr: 0x1D04, symBinAddr: 0x100004EDC, symSize: 0x48 }
  - { offsetInCU: 0x75DA, offset: 0x75DA, size: 0x8, addend: 0x0, symName: __ZSt11__make_heapIN9__gnu_cxx17__normal_iteratorIPSt5arrayIxLm3EESt6vectorIS3_SaIS3_EEEENS0_5__ops15_Iter_less_iterEEvT_SB_RT0_, symObjAddr: 0x1D4C, symBinAddr: 0x100004F24, symSize: 0x108 }
  - { offsetInCU: 0x764F, offset: 0x764F, size: 0x8, addend: 0x0, symName: __ZSt10_ConstructISt5arrayIxLm3EEJEEvPT_DpOT0_, symObjAddr: 0x1CC0, symBinAddr: 0x100004E98, symSize: 0x44 }
  - { offsetInCU: 0x7657, offset: 0x7657, size: 0x8, addend: 0x0, symName: __ZSt6fill_nIPSt5arrayIxLm3EEmS1_ET_S3_T0_RKT1_, symObjAddr: 0x1D04, symBinAddr: 0x100004EDC, symSize: 0x48 }
  - { offsetInCU: 0x769B, offset: 0x769B, size: 0x8, addend: 0x0, symName: __ZSt11__addressofISt5arrayIxLm3EEEPT_RS2_, symObjAddr: 0x1CAC, symBinAddr: 0x100004E84, symSize: 0x14 }
  - { offsetInCU: 0x76A3, offset: 0x76A3, size: 0x8, addend: 0x0, symName: __ZSt10_ConstructISt5arrayIxLm3EEJEEvPT_DpOT0_, symObjAddr: 0x1CC0, symBinAddr: 0x100004E98, symSize: 0x44 }
  - { offsetInCU: 0x77D5, offset: 0x77D5, size: 0x8, addend: 0x0, symName: __ZSt25__unguarded_linear_insertIN9__gnu_cxx17__normal_iteratorIPSt5arrayIxLm3EESt6vectorIS3_SaIS3_EEEENS0_5__ops14_Val_less_iterEEvT_T0_, symObjAddr: 0x1BC4, symBinAddr: 0x100004D9C, symSize: 0xE8 }
  - { offsetInCU: 0x77DD, offset: 0x77DD, size: 0x8, addend: 0x0, symName: __ZSt11__addressofISt5arrayIxLm3EEEPT_RS2_, symObjAddr: 0x1CAC, symBinAddr: 0x100004E84, symSize: 0x14 }
  - { offsetInCU: 0x7884, offset: 0x7884, size: 0x8, addend: 0x0, symName: __ZSt13move_backwardIN9__gnu_cxx17__normal_iteratorIPSt5arrayIxLm3EESt6vectorIS3_SaIS3_EEEES8_ET0_T_SA_S9_, symObjAddr: 0x1B7C, symBinAddr: 0x100004D54, symSize: 0x48 }
  - { offsetInCU: 0x788C, offset: 0x788C, size: 0x8, addend: 0x0, symName: __ZSt25__unguarded_linear_insertIN9__gnu_cxx17__normal_iteratorIPSt5arrayIxLm3EESt6vectorIS3_SaIS3_EEEENS0_5__ops14_Val_less_iterEEvT_T0_, symObjAddr: 0x1BC4, symBinAddr: 0x100004D9C, symSize: 0xE8 }
  - { offsetInCU: 0x781B, offset: 0x781B, size: 0x8, addend: 0x0, symName: __ZSt4moveIRSt5arrayIxLm3EEEONSt16remove_referenceIT_E4typeEOS4_, symObjAddr: 0x1B68, symBinAddr: 0x100004D40, symSize: 0x14 }
  - { offsetInCU: 0x7823, offset: 0x7823, size: 0x8, addend: 0x0, symName: __ZSt13move_backwardIN9__gnu_cxx17__normal_iteratorIPSt5arrayIxLm3EESt6vectorIS3_SaIS3_EEEES8_ET0_T_SA_S9_, symObjAddr: 0x1B7C, symBinAddr: 0x100004D54, symSize: 0x48 }
  - { offsetInCU: 0x7807, offset: 0x7807, size: 0x8, addend: 0x0, symName: __ZNK9__gnu_cxx5__ops15_Iter_less_iterclINS_17__normal_iteratorIPSt5arrayIxLm3EESt6vectorIS5_SaIS5_EEEESA_EEbT_T0_, symObjAddr: 0x1B20, symBinAddr: 0x100004CF8, symSize: 0x48 }
  - { offsetInCU: 0x780F, offset: 0x780F, size: 0x8, addend: 0x0, symName: __ZSt4moveIRSt5arrayIxLm3EEEONSt16remove_referenceIT_E4typeEOS4_, symObjAddr: 0x1B68, symBinAddr: 0x100004D40, symSize: 0x14 }
  - { offsetInCU: 0x792E, offset: 0x792E, size: 0x8, addend: 0x0, symName: __ZN9__gnu_cxxeqIPSt5arrayIxLm3EESt6vectorIS2_SaIS2_EEEEbRKNS_17__normal_iteratorIT_T0_EESC_, symObjAddr: 0x1ADC, symBinAddr: 0x100004CB4, symSize: 0x44 }
  - { offsetInCU: 0x7936, offset: 0x7936, size: 0x8, addend: 0x0, symName: __ZNK9__gnu_cxx5__ops15_Iter_less_iterclINS_17__normal_iteratorIPSt5arrayIxLm3EESt6vectorIS5_SaIS5_EEEESA_EEbT_T0_, symObjAddr: 0x1B20, symBinAddr: 0x100004CF8, symSize: 0x48 }
  - { offsetInCU: 0x7A19, offset: 0x7A19, size: 0x8, addend: 0x0, symName: __ZSt21__unguarded_partitionIN9__gnu_cxx17__normal_iteratorIPSt5arrayIxLm3EESt6vectorIS3_SaIS3_EEEENS0_5__ops15_Iter_less_iterEET_SB_SB_SB_T0_, symObjAddr: 0x1A18, symBinAddr: 0x100004BF0, symSize: 0xC4 }
  - { offsetInCU: 0x7A21, offset: 0x7A21, size: 0x8, addend: 0x0, symName: __ZN9__gnu_cxxeqIPSt5arrayIxLm3EESt6vectorIS2_SaIS2_EEEEbRKNS_17__normal_iteratorIT_T0_EESC_, symObjAddr: 0x1ADC, symBinAddr: 0x100004CB4, symSize: 0x44 }
  - { offsetInCU: 0x7AAC, offset: 0x7AAC, size: 0x8, addend: 0x0, symName: __ZSt22__move_median_to_firstIN9__gnu_cxx17__normal_iteratorIPSt5arrayIxLm3EESt6vectorIS3_SaIS3_EEEENS0_5__ops15_Iter_less_iterEEvT_SB_SB_SB_T0_, symObjAddr: 0x18F4, symBinAddr: 0x100004ACC, symSize: 0x124 }
  - { offsetInCU: 0x7AB4, offset: 0x7AB4, size: 0x8, addend: 0x0, symName: __ZSt21__unguarded_partitionIN9__gnu_cxx17__normal_iteratorIPSt5arrayIxLm3EESt6vectorIS3_SaIS3_EEEENS0_5__ops15_Iter_less_iterEET_SB_SB_SB_T0_, symObjAddr: 0x1A18, symBinAddr: 0x100004BF0, symSize: 0xC4 }
  - { offsetInCU: 0x7A13, offset: 0x7A13, size: 0x8, addend: 0x0, symName: __ZNK9__gnu_cxx17__normal_iteratorIPSt5arrayIxLm3EESt6vectorIS2_SaIS2_EEEmiEl, symObjAddr: 0x18A4, symBinAddr: 0x100004A7C, symSize: 0x50 }
  - { offsetInCU: 0x7A1B, offset: 0x7A1B, size: 0x8, addend: 0x0, symName: __ZSt22__move_median_to_firstIN9__gnu_cxx17__normal_iteratorIPSt5arrayIxLm3EESt6vectorIS3_SaIS3_EEEENS0_5__ops15_Iter_less_iterEEvT_SB_SB_SB_T0_, symObjAddr: 0x18F4, symBinAddr: 0x100004ACC, symSize: 0x124 }
  - { offsetInCU: 0x7B70, offset: 0x7B70, size: 0x8, addend: 0x0, symName: __ZSt11__sort_heapIN9__gnu_cxx17__normal_iteratorIPSt5arrayIxLm3EESt6vectorIS3_SaIS3_EEEENS0_5__ops15_Iter_less_iterEEvT_SB_RT0_, symObjAddr: 0x183C, symBinAddr: 0x100004A14, symSize: 0x68 }
  - { offsetInCU: 0x7B78, offset: 0x7B78, size: 0x8, addend: 0x0, symName: __ZNK9__gnu_cxx17__normal_iteratorIPSt5arrayIxLm3EESt6vectorIS2_SaIS2_EEEmiEl, symObjAddr: 0x18A4, symBinAddr: 0x100004A7C, symSize: 0x50 }
  - { offsetInCU: 0x7BEF, offset: 0x7BEF, size: 0x8, addend: 0x0, symName: __ZSt13__heap_selectIN9__gnu_cxx17__normal_iteratorIPSt5arrayIxLm3EESt6vectorIS3_SaIS3_EEEENS0_5__ops15_Iter_less_iterEEvT_SB_SB_T0_, symObjAddr: 0x1798, symBinAddr: 0x100004970, symSize: 0xA4 }
  - { offsetInCU: 0x7BF7, offset: 0x7BF7, size: 0x8, addend: 0x0, symName: __ZSt11__sort_heapIN9__gnu_cxx17__normal_iteratorIPSt5arrayIxLm3EESt6vectorIS3_SaIS3_EEEENS0_5__ops15_Iter_less_iterEEvT_SB_RT0_, symObjAddr: 0x183C, symBinAddr: 0x100004A14, symSize: 0x68 }
  - { offsetInCU: 0x7BC1, offset: 0x7BC1, size: 0x8, addend: 0x0, symName: __ZSt13__countl_zeroImEiT_, symObjAddr: 0x1744, symBinAddr: 0x10000491C, symSize: 0x54 }
  - { offsetInCU: 0x7BC9, offset: 0x7BC9, size: 0x8, addend: 0x0, symName: __ZSt13__heap_selectIN9__gnu_cxx17__normal_iteratorIPSt5arrayIxLm3EESt6vectorIS3_SaIS3_EEEENS0_5__ops15_Iter_less_iterEEvT_SB_SB_T0_, symObjAddr: 0x1798, symBinAddr: 0x100004970, symSize: 0xA4 }
  - { offsetInCU: 0x7D1C, offset: 0x7D1C, size: 0x8, addend: 0x0, symName: __ZSt14__relocate_a_1ISt5arrayIxLm3EES1_ENSt9enable_ifIXsrSt24__is_bitwise_relocatableIT_vE5valueEPS4_E4typeES6_S6_S6_RSaIT0_E, symObjAddr: 0x16B4, symBinAddr: 0x10000488C, symSize: 0x90 }
  - { offsetInCU: 0x7D24, offset: 0x7D24, size: 0x8, addend: 0x0, symName: __ZSt13__countl_zeroImEiT_, symObjAddr: 0x1744, symBinAddr: 0x10000491C, symSize: 0x54 }
  - { offsetInCU: 0x7D51, offset: 0x7D51, size: 0x8, addend: 0x0, symName: __ZSt12__niter_baseIPSt5arrayIxLm3EEET_S3_, symObjAddr: 0x16A0, symBinAddr: 0x100004878, symSize: 0x14 }
  - { offsetInCU: 0x7D59, offset: 0x7D59, size: 0x8, addend: 0x0, symName: __ZSt14__relocate_a_1ISt5arrayIxLm3EES1_ENSt9enable_ifIXsrSt24__is_bitwise_relocatableIT_vE5valueEPS4_E4typeES6_S6_S6_RSaIT0_E, symObjAddr: 0x16B4, symBinAddr: 0x10000488C, symSize: 0x90 }
  - { offsetInCU: 0x7D42, offset: 0x7D42, size: 0x8, addend: 0x0, symName: __ZNSt15__new_allocatorISt5arrayIxLm3EEE8allocateEmPKv, symObjAddr: 0x1610, symBinAddr: 0x1000047E8, symSize: 0x90 }
  - { offsetInCU: 0x7D4A, offset: 0x7D4A, size: 0x8, addend: 0x0, symName: __ZSt12__niter_baseIPSt5arrayIxLm3EEET_S3_, symObjAddr: 0x16A0, symBinAddr: 0x100004878, symSize: 0x14 }
  - { offsetInCU: 0x7DC8, offset: 0x7DC8, size: 0x8, addend: 0x0, symName: __ZNSt27__uninitialized_default_n_1ILb1EE18__uninit_default_nIPSt5arrayIxLm3EEmEET_S5_T0_, symObjAddr: 0x15AC, symBinAddr: 0x100004784, symSize: 0x64 }
  - { offsetInCU: 0x7DD0, offset: 0x7DD0, size: 0x8, addend: 0x0, symName: __ZNSt15__new_allocatorISt5arrayIxLm3EEE8allocateEmPKv, symObjAddr: 0x1610, symBinAddr: 0x1000047E8, symSize: 0x90 }
  - { offsetInCU: 0x7E89, offset: 0x7E89, size: 0x8, addend: 0x0, symName: __ZSt3minImERKT_S2_S2_, symObjAddr: 0x1574, symBinAddr: 0x10000474C, symSize: 0x38 }
  - { offsetInCU: 0x7E91, offset: 0x7E91, size: 0x8, addend: 0x0, symName: __ZNSt27__uninitialized_default_n_1ILb1EE18__uninit_default_nIPSt5arrayIxLm3EEmEET_S5_T0_, symObjAddr: 0x15AC, symBinAddr: 0x100004784, symSize: 0x64 }
  - { offsetInCU: 0x7ED1, offset: 0x7ED1, size: 0x8, addend: 0x0, symName: __ZNSt12_Destroy_auxILb1EE9__destroyIPSt5arrayIxLm3EEEEvT_S5_, symObjAddr: 0x155C, symBinAddr: 0x100004734, symSize: 0x18 }
  - { offsetInCU: 0x7ED9, offset: 0x7ED9, size: 0x8, addend: 0x0, symName: __ZSt3minImERKT_S2_S2_, symObjAddr: 0x1574, symBinAddr: 0x10000474C, symSize: 0x38 }
  - { offsetInCU: 0x804B, offset: 0x804B, size: 0x8, addend: 0x0, symName: __ZSt26__unguarded_insertion_sortIN9__gnu_cxx17__normal_iteratorIPSt5arrayIxLm3EESt6vectorIS3_SaIS3_EEEENS0_5__ops15_Iter_less_iterEEvT_SB_T0_, symObjAddr: 0x14EC, symBinAddr: 0x1000046C4, symSize: 0x70 }
  - { offsetInCU: 0x8053, offset: 0x8053, size: 0x8, addend: 0x0, symName: __ZNSt12_Destroy_auxILb1EE9__destroyIPSt5arrayIxLm3EEEEvT_S5_, symObjAddr: 0x155C, symBinAddr: 0x100004734, symSize: 0x18 }
  - { offsetInCU: 0x80D6, offset: 0x80D6, size: 0x8, addend: 0x0, symName: __ZSt16__insertion_sortIN9__gnu_cxx17__normal_iteratorIPSt5arrayIxLm3EESt6vectorIS3_SaIS3_EEEENS0_5__ops15_Iter_less_iterEEvT_SB_T0_, symObjAddr: 0x13C0, symBinAddr: 0x100004598, symSize: 0x12C }
  - { offsetInCU: 0x80DE, offset: 0x80DE, size: 0x8, addend: 0x0, symName: __ZSt26__unguarded_insertion_sortIN9__gnu_cxx17__normal_iteratorIPSt5arrayIxLm3EESt6vectorIS3_SaIS3_EEEENS0_5__ops15_Iter_less_iterEEvT_SB_T0_, symObjAddr: 0x14EC, symBinAddr: 0x1000046C4, symSize: 0x70 }
  - { offsetInCU: 0x8078, offset: 0x8078, size: 0x8, addend: 0x0, symName: __ZNK9__gnu_cxx17__normal_iteratorIPSt5arrayIxLm3EESt6vectorIS2_SaIS2_EEEplEl, symObjAddr: 0x1374, symBinAddr: 0x10000454C, symSize: 0x4C }
  - { offsetInCU: 0x8080, offset: 0x8080, size: 0x8, addend: 0x0, symName: __ZSt16__insertion_sortIN9__gnu_cxx17__normal_iteratorIPSt5arrayIxLm3EESt6vectorIS3_SaIS3_EEEENS0_5__ops15_Iter_less_iterEEvT_SB_T0_, symObjAddr: 0x13C0, symBinAddr: 0x100004598, symSize: 0x12C }
  - { offsetInCU: 0x81FA, offset: 0x81FA, size: 0x8, addend: 0x0, symName: __ZSt27__unguarded_partition_pivotIN9__gnu_cxx17__normal_iteratorIPSt5arrayIxLm3EESt6vectorIS3_SaIS3_EEEENS0_5__ops15_Iter_less_iterEET_SB_SB_T0_, symObjAddr: 0x12D0, symBinAddr: 0x1000044A8, symSize: 0xA4 }
  - { offsetInCU: 0x8202, offset: 0x8202, size: 0x8, addend: 0x0, symName: __ZNK9__gnu_cxx17__normal_iteratorIPSt5arrayIxLm3EESt6vectorIS2_SaIS2_EEEplEl, symObjAddr: 0x1374, symBinAddr: 0x10000454C, symSize: 0x4C }
  - { offsetInCU: 0x8272, offset: 0x8272, size: 0x8, addend: 0x0, symName: __ZSt14__partial_sortIN9__gnu_cxx17__normal_iteratorIPSt5arrayIxLm3EESt6vectorIS3_SaIS3_EEEENS0_5__ops15_Iter_less_iterEEvT_SB_SB_T0_, symObjAddr: 0x1284, symBinAddr: 0x10000445C, symSize: 0x4C }
  - { offsetInCU: 0x827A, offset: 0x827A, size: 0x8, addend: 0x0, symName: __ZSt27__unguarded_partition_pivotIN9__gnu_cxx17__normal_iteratorIPSt5arrayIxLm3EESt6vectorIS3_SaIS3_EEEENS0_5__ops15_Iter_less_iterEET_SB_SB_T0_, symObjAddr: 0x12D0, symBinAddr: 0x1000044A8, symSize: 0xA4 }
  - { offsetInCU: 0x8219, offset: 0x8219, size: 0x8, addend: 0x0, symName: __ZSt11__bit_widthImEiT_, symObjAddr: 0x1254, symBinAddr: 0x10000442C, symSize: 0x30 }
  - { offsetInCU: 0x8221, offset: 0x8221, size: 0x8, addend: 0x0, symName: __ZSt14__partial_sortIN9__gnu_cxx17__normal_iteratorIPSt5arrayIxLm3EESt6vectorIS3_SaIS3_EEEENS0_5__ops15_Iter_less_iterEEvT_SB_SB_T0_, symObjAddr: 0x1284, symBinAddr: 0x10000445C, symSize: 0x4C }
  - { offsetInCU: 0x82FB, offset: 0x82FB, size: 0x8, addend: 0x0, symName: __ZSt12__relocate_aIPSt5arrayIxLm3EES2_SaIS1_EET0_T_S5_S4_RT1_, symObjAddr: 0x11F8, symBinAddr: 0x1000043D0, symSize: 0x5C }
  - { offsetInCU: 0x8303, offset: 0x8303, size: 0x8, addend: 0x0, symName: __ZSt11__bit_widthImEiT_, symObjAddr: 0x1254, symBinAddr: 0x10000442C, symSize: 0x30 }
  - { offsetInCU: 0x833E, offset: 0x833E, size: 0x8, addend: 0x0, symName: __ZSt3maxImERKT_S2_S2_, symObjAddr: 0x11C0, symBinAddr: 0x100004398, symSize: 0x38 }
  - { offsetInCU: 0x8346, offset: 0x8346, size: 0x8, addend: 0x0, symName: __ZSt12__relocate_aIPSt5arrayIxLm3EES2_SaIS1_EET0_T_S5_S4_RT1_, symObjAddr: 0x11F8, symBinAddr: 0x1000043D0, symSize: 0x5C }
  - { offsetInCU: 0x83F8, offset: 0x83F8, size: 0x8, addend: 0x0, symName: __ZSt25__uninitialized_default_nIPSt5arrayIxLm3EEmET_S3_T0_, symObjAddr: 0x1194, symBinAddr: 0x10000436C, symSize: 0x2C }
  - { offsetInCU: 0x8400, offset: 0x8400, size: 0x8, addend: 0x0, symName: __ZSt3maxImERKT_S2_S2_, symObjAddr: 0x11C0, symBinAddr: 0x100004398, symSize: 0x38 }
  - { offsetInCU: 0x83ED, offset: 0x83ED, size: 0x8, addend: 0x0, symName: __ZNKSt12_Vector_baseISt5arrayIxLm3EESaIS1_EE19_M_get_Tp_allocatorEv, symObjAddr: 0x1180, symBinAddr: 0x100004358, symSize: 0x14 }
  - { offsetInCU: 0x83F5, offset: 0x83F5, size: 0x8, addend: 0x0, symName: __ZSt25__uninitialized_default_nIPSt5arrayIxLm3EEmET_S3_T0_, symObjAddr: 0x1194, symBinAddr: 0x10000436C, symSize: 0x2C }
  - { offsetInCU: 0x841C, offset: 0x841C, size: 0x8, addend: 0x0, symName: __ZNSt6vectorISt5arrayIxLm3EESaIS1_EE11_S_max_sizeERKS2_, symObjAddr: 0x1124, symBinAddr: 0x1000042FC, symSize: 0x5C }
  - { offsetInCU: 0x8424, offset: 0x8424, size: 0x8, addend: 0x0, symName: __ZNKSt12_Vector_baseISt5arrayIxLm3EESaIS1_EE19_M_get_Tp_allocatorEv, symObjAddr: 0x1180, symBinAddr: 0x100004358, symSize: 0x14 }
  - { offsetInCU: 0x8536, offset: 0x8536, size: 0x8, addend: 0x0, symName: __ZSt8_DestroyIPSt5arrayIxLm3EEEvT_S3_, symObjAddr: 0x10FC, symBinAddr: 0x1000042D4, symSize: 0x28 }
  - { offsetInCU: 0x853E, offset: 0x853E, size: 0x8, addend: 0x0, symName: __ZNSt6vectorISt5arrayIxLm3EESaIS1_EE11_S_max_sizeERKS2_, symObjAddr: 0x1124, symBinAddr: 0x1000042FC, symSize: 0x5C }
  - { offsetInCU: 0x853D, offset: 0x853D, size: 0x8, addend: 0x0, symName: __ZNSt15__new_allocatorISt5arrayIxLm3EEE10deallocateEPS1_m, symObjAddr: 0x10C0, symBinAddr: 0x100004298, symSize: 0x3C }
  - { offsetInCU: 0x8545, offset: 0x8545, size: 0x8, addend: 0x0, symName: __ZSt8_DestroyIPSt5arrayIxLm3EEEvT_S3_, symObjAddr: 0x10FC, symBinAddr: 0x1000042D4, symSize: 0x28 }
  - { offsetInCU: 0x86C1, offset: 0x86C1, size: 0x8, addend: 0x0, symName: __ZSt22__final_insertion_sortIN9__gnu_cxx17__normal_iteratorIPSt5arrayIxLm3EESt6vectorIS3_SaIS3_EEEENS0_5__ops15_Iter_less_iterEEvT_SB_T0_, symObjAddr: 0x1024, symBinAddr: 0x1000041FC, symSize: 0x9C }
  - { offsetInCU: 0x86C9, offset: 0x86C9, size: 0x8, addend: 0x0, symName: __ZNSt15__new_allocatorISt5arrayIxLm3EEE10deallocateEPS1_m, symObjAddr: 0x10C0, symBinAddr: 0x100004298, symSize: 0x3C }
  - { offsetInCU: 0x873C, offset: 0x873C, size: 0x8, addend: 0x0, symName: __ZSt16__introsort_loopIN9__gnu_cxx17__normal_iteratorIPSt5arrayIxLm3EESt6vectorIS3_SaIS3_EEEElNS0_5__ops15_Iter_less_iterEEvT_SB_T0_T1_, symObjAddr: 0xF6C, symBinAddr: 0x100004144, symSize: 0xB8 }
  - { offsetInCU: 0x8744, offset: 0x8744, size: 0x8, addend: 0x0, symName: __ZSt22__final_insertion_sortIN9__gnu_cxx17__normal_iteratorIPSt5arrayIxLm3EESt6vectorIS3_SaIS3_EEEENS0_5__ops15_Iter_less_iterEEvT_SB_T0_, symObjAddr: 0x1024, symBinAddr: 0x1000041FC, symSize: 0x9C }
  - { offsetInCU: 0x86F1, offset: 0x86F1, size: 0x8, addend: 0x0, symName: __ZSt4__lgIlET_S0_, symObjAddr: 0xF48, symBinAddr: 0x100004120, symSize: 0x24 }
  - { offsetInCU: 0x86F9, offset: 0x86F9, size: 0x8, addend: 0x0, symName: __ZSt16__introsort_loopIN9__gnu_cxx17__normal_iteratorIPSt5arrayIxLm3EESt6vectorIS3_SaIS3_EEEElNS0_5__ops15_Iter_less_iterEEvT_SB_T0_T1_, symObjAddr: 0xF6C, symBinAddr: 0x100004144, symSize: 0xB8 }
  - { offsetInCU: 0x87E1, offset: 0x87E1, size: 0x8, addend: 0x0, symName: __ZN9__gnu_cxxmiIPSt5arrayIxLm3EESt6vectorIS2_SaIS2_EEEENS_17__normal_iteratorIT_T0_E15difference_typeERKSA_SD_, symObjAddr: 0xEFC, symBinAddr: 0x1000040D4, symSize: 0x4C }
  - { offsetInCU: 0x87E9, offset: 0x87E9, size: 0x8, addend: 0x0, symName: __ZSt4__lgIlET_S0_, symObjAddr: 0xF48, symBinAddr: 0x100004120, symSize: 0x24 }
  - { offsetInCU: 0x8784, offset: 0x8784, size: 0x8, addend: 0x0, symName: __ZNSt6vectorISt5arrayIxLm3EESaIS1_EE11_S_relocateEPS1_S4_S4_RS2_, symObjAddr: 0xEC8, symBinAddr: 0x1000040A0, symSize: 0x34 }
  - { offsetInCU: 0x878C, offset: 0x878C, size: 0x8, addend: 0x0, symName: __ZN9__gnu_cxxmiIPSt5arrayIxLm3EESt6vectorIS2_SaIS2_EEEENS_17__normal_iteratorIT_T0_E15difference_typeERKSA_SD_, symObjAddr: 0xEFC, symBinAddr: 0x1000040D4, symSize: 0x4C }
  - { offsetInCU: 0x87F2, offset: 0x87F2, size: 0x8, addend: 0x0, symName: __ZNSt12_Vector_baseISt5arrayIxLm3EESaIS1_EE11_M_allocateEm, symObjAddr: 0xE78, symBinAddr: 0x100004050, symSize: 0x50 }
  - { offsetInCU: 0x87FA, offset: 0x87FA, size: 0x8, addend: 0x0, symName: __ZNSt6vectorISt5arrayIxLm3EESaIS1_EE11_S_relocateEPS1_S4_S4_RS2_, symObjAddr: 0xEC8, symBinAddr: 0x1000040A0, symSize: 0x34 }
  - { offsetInCU: 0x8867, offset: 0x8867, size: 0x8, addend: 0x0, symName: __ZNKSt6vectorISt5arrayIxLm3EESaIS1_EE12_M_check_lenEmPKc, symObjAddr: 0xDA8, symBinAddr: 0x100003F80, symSize: 0xD0 }
  - { offsetInCU: 0x886F, offset: 0x886F, size: 0x8, addend: 0x0, symName: __ZNSt12_Vector_baseISt5arrayIxLm3EESaIS1_EE11_M_allocateEm, symObjAddr: 0xE78, symBinAddr: 0x100004050, symSize: 0x50 }
  - { offsetInCU: 0x898C, offset: 0x898C, size: 0x8, addend: 0x0, symName: __ZSt27__uninitialized_default_n_aIPSt5arrayIxLm3EEmS1_ET_S3_T0_RSaIT1_E, symObjAddr: 0xD80, symBinAddr: 0x100003F58, symSize: 0x28 }
  - { offsetInCU: 0x8994, offset: 0x8994, size: 0x8, addend: 0x0, symName: __ZNKSt6vectorISt5arrayIxLm3EESaIS1_EE12_M_check_lenEmPKc, symObjAddr: 0xDA8, symBinAddr: 0x100003F80, symSize: 0xD0 }
  - { offsetInCU: 0x8958, offset: 0x8958, size: 0x8, addend: 0x0, symName: __ZNKSt6vectorISt5arrayIxLm3EESaIS1_EE8max_sizeEv, symObjAddr: 0xD60, symBinAddr: 0x100003F38, symSize: 0x20 }
  - { offsetInCU: 0x8960, offset: 0x8960, size: 0x8, addend: 0x0, symName: __ZSt27__uninitialized_default_n_aIPSt5arrayIxLm3EEmS1_ET_S3_T0_RSaIT1_E, symObjAddr: 0xD80, symBinAddr: 0x100003F58, symSize: 0x28 }
  - { offsetInCU: 0x89DC, offset: 0x89DC, size: 0x8, addend: 0x0, symName: __ZNSt12_Vector_baseISt5arrayIxLm3EESaIS1_EE19_M_get_Tp_allocatorEv, symObjAddr: 0xD4C, symBinAddr: 0x100003F24, symSize: 0x14 }
  - { offsetInCU: 0x89E4, offset: 0x89E4, size: 0x8, addend: 0x0, symName: __ZNKSt6vectorISt5arrayIxLm3EESaIS1_EE8max_sizeEv, symObjAddr: 0xD60, symBinAddr: 0x100003F38, symSize: 0x20 }
  - { offsetInCU: 0x8B70, offset: 0x8B70, size: 0x8, addend: 0x0, symName: __ZSt6__sortIN9__gnu_cxx17__normal_iteratorIPSt5arrayIxLm3EESt6vectorIS3_SaIS3_EEEENS0_5__ops15_Iter_less_iterEEvT_SB_T0_, symObjAddr: 0xCD0, symBinAddr: 0x100003EA8, symSize: 0x7C }
  - { offsetInCU: 0x8B78, offset: 0x8B78, size: 0x8, addend: 0x0, symName: __ZNSt12_Vector_baseISt5arrayIxLm3EESaIS1_EE19_M_get_Tp_allocatorEv, symObjAddr: 0xD4C, symBinAddr: 0x100003F24, symSize: 0x14 }
  - { offsetInCU: 0x8ADB, offset: 0x8ADB, size: 0x8, addend: 0x0, symName: __ZNK9__gnu_cxx17__normal_iteratorIPSt5arrayIxLm3EESt6vectorIS2_SaIS2_EEE4baseEv, symObjAddr: 0xCBC, symBinAddr: 0x100003E94, symSize: 0x14 }
  - { offsetInCU: 0x8AE3, offset: 0x8AE3, size: 0x8, addend: 0x0, symName: __ZSt6__sortIN9__gnu_cxx17__normal_iteratorIPSt5arrayIxLm3EESt6vectorIS3_SaIS3_EEEENS0_5__ops15_Iter_less_iterEEvT_SB_T0_, symObjAddr: 0xCD0, symBinAddr: 0x100003EA8, symSize: 0x7C }
  - { offsetInCU: 0x8B84, offset: 0x8B84, size: 0x8, addend: 0x0, symName: __ZN9__gnu_cxx17__normal_iteratorIPSt5arrayIxLm3EESt6vectorIS2_SaIS2_EEEC1ERKS3_, symObjAddr: 0xC94, symBinAddr: 0x100003E6C, symSize: 0x28 }
  - { offsetInCU: 0x8B8C, offset: 0x8B8C, size: 0x8, addend: 0x0, symName: __ZNK9__gnu_cxx17__normal_iteratorIPSt5arrayIxLm3EESt6vectorIS2_SaIS2_EEE4baseEv, symObjAddr: 0xCBC, symBinAddr: 0x100003E94, symSize: 0x14 }
  - { offsetInCU: 0x8B6E, offset: 0x8B6E, size: 0x8, addend: 0x0, symName: __ZNSt6vectorISt5arrayIxLm3EESaIS1_EE17_M_default_appendEm, symObjAddr: 0xA4C, symBinAddr: 0x100003C24, symSize: 0x248 }
  - { offsetInCU: 0x8B76, offset: 0x8B76, size: 0x8, addend: 0x0, symName: __ZN9__gnu_cxx17__normal_iteratorIPSt5arrayIxLm3EESt6vectorIS2_SaIS2_EEEC1ERKS3_, symObjAddr: 0xC94, symBinAddr: 0x100003E6C, symSize: 0x28 }
  - { offsetInCU: 0x8C4D, offset: 0x8C4D, size: 0x8, addend: 0x0, symName: __ZNKSt6vectorISt5arrayIxLm3EESaIS1_EE4sizeEv, symObjAddr: 0xA18, symBinAddr: 0x100003BF0, symSize: 0x34 }
  - { offsetInCU: 0x8C55, offset: 0x8C55, size: 0x8, addend: 0x0, symName: __ZNSt6vectorISt5arrayIxLm3EESaIS1_EE17_M_default_appendEm, symObjAddr: 0xA4C, symBinAddr: 0x100003C24, symSize: 0x248 }
  - { offsetInCU: 0x8C7C, offset: 0x8C7C, size: 0x8, addend: 0x0, symName: __ZNSt6vectorISt5arrayIxLm3EESaIS1_EE15_M_erase_at_endEPS1_, symObjAddr: 0x984, symBinAddr: 0x100003B5C, symSize: 0x94 }
  - { offsetInCU: 0x8C84, offset: 0x8C84, size: 0x8, addend: 0x0, symName: __ZNKSt6vectorISt5arrayIxLm3EESaIS1_EE4sizeEv, symObjAddr: 0xA18, symBinAddr: 0x100003BF0, symSize: 0x34 }
  - { offsetInCU: 0x8D23, offset: 0x8D23, size: 0x8, addend: 0x0, symName: __ZNSt12_Vector_baseISt5arrayIxLm3EESaIS1_EE13_M_deallocateEPS1_m, symObjAddr: 0x92C, symBinAddr: 0x100003B04, symSize: 0x58 }
  - { offsetInCU: 0x8D2B, offset: 0x8D2B, size: 0x8, addend: 0x0, symName: __ZNSt6vectorISt5arrayIxLm3EESaIS1_EE15_M_erase_at_endEPS1_, symObjAddr: 0x984, symBinAddr: 0x100003B5C, symSize: 0x94 }
  - { offsetInCU: 0x8E0B, offset: 0x8E0B, size: 0x8, addend: 0x0, symName: __ZNSt15__new_allocatorISt5arrayIxLm3EEED2Ev, symObjAddr: 0x918, symBinAddr: 0x100003AF0, symSize: 0x14 }
  - { offsetInCU: 0x8E13, offset: 0x8E13, size: 0x8, addend: 0x0, symName: __ZNSt12_Vector_baseISt5arrayIxLm3EESaIS1_EE13_M_deallocateEPS1_m, symObjAddr: 0x92C, symBinAddr: 0x100003B04, symSize: 0x58 }
  - { offsetInCU: 0x8E69, offset: 0x8E69, size: 0x8, addend: 0x0, symName: __ZNSt12_Vector_baseISt5arrayIxLm3EESaIS1_EE17_Vector_impl_dataC2Ev, symObjAddr: 0x8EC, symBinAddr: 0x100003AC4, symSize: 0x2C }
  - { offsetInCU: 0x8E71, offset: 0x8E71, size: 0x8, addend: 0x0, symName: __ZNSt15__new_allocatorISt5arrayIxLm3EEED2Ev, symObjAddr: 0x918, symBinAddr: 0x100003AF0, symSize: 0x14 }
  - { offsetInCU: 0x8E9A, offset: 0x8E9A, size: 0x8, addend: 0x0, symName: __ZSt3minIxERKT_S2_S2_, symObjAddr: 0x8B4, symBinAddr: 0x100003A8C, symSize: 0x38 }
  - { offsetInCU: 0x8EA2, offset: 0x8EA2, size: 0x8, addend: 0x0, symName: __ZNSt12_Vector_baseISt5arrayIxLm3EESaIS1_EE17_Vector_impl_dataC2Ev, symObjAddr: 0x8EC, symBinAddr: 0x100003AC4, symSize: 0x2C }
  - { offsetInCU: 0x8EF8, offset: 0x8EF8, size: 0x8, addend: 0x0, symName: __ZSt3maxIxERKT_S2_S2_, symObjAddr: 0x87C, symBinAddr: 0x100003A54, symSize: 0x38 }
  - { offsetInCU: 0x8F00, offset: 0x8F00, size: 0x8, addend: 0x0, symName: __ZSt3minIxERKT_S2_S2_, symObjAddr: 0x8B4, symBinAddr: 0x100003A8C, symSize: 0x38 }
  - { offsetInCU: 0x8FF3, offset: 0x8FF3, size: 0x8, addend: 0x0, symName: __ZSt4sortIN9__gnu_cxx17__normal_iteratorIPSt5arrayIxLm3EESt6vectorIS3_SaIS3_EEEEEvT_S9_, symObjAddr: 0x844, symBinAddr: 0x100003A1C, symSize: 0x38 }
  - { offsetInCU: 0x8FFB, offset: 0x8FFB, size: 0x8, addend: 0x0, symName: __ZSt3maxIxERKT_S2_S2_, symObjAddr: 0x87C, symBinAddr: 0x100003A54, symSize: 0x38 }
  - { offsetInCU: 0x8F82, offset: 0x8F82, size: 0x8, addend: 0x0, symName: __ZNK9__gnu_cxx17__normal_iteratorIPSt5arrayIxLm3EESt6vectorIS2_SaIS2_EEEdeEv, symObjAddr: 0x82C, symBinAddr: 0x100003A04, symSize: 0x18 }
  - { offsetInCU: 0x8F8A, offset: 0x8F8A, size: 0x8, addend: 0x0, symName: __ZSt4sortIN9__gnu_cxx17__normal_iteratorIPSt5arrayIxLm3EESt6vectorIS3_SaIS3_EEEEEvT_S9_, symObjAddr: 0x844, symBinAddr: 0x100003A1C, symSize: 0x38 }
  - { offsetInCU: 0x8FB1, offset: 0x8FB1, size: 0x8, addend: 0x0, symName: __ZN9__gnu_cxx17__normal_iteratorIPSt5arrayIxLm3EESt6vectorIS2_SaIS2_EEEppEv, symObjAddr: 0x804, symBinAddr: 0x1000039DC, symSize: 0x28 }
  - { offsetInCU: 0x8FB9, offset: 0x8FB9, size: 0x8, addend: 0x0, symName: __ZNK9__gnu_cxx17__normal_iteratorIPSt5arrayIxLm3EESt6vectorIS2_SaIS2_EEEdeEv, symObjAddr: 0x82C, symBinAddr: 0x100003A04, symSize: 0x18 }
  - { offsetInCU: 0x9098, offset: 0x9098, size: 0x8, addend: 0x0, symName: __ZN9__gnu_cxxneIPSt5arrayIxLm3EESt6vectorIS2_SaIS2_EEEEbRKNS_17__normal_iteratorIT_T0_EESC_, symObjAddr: 0x7C0, symBinAddr: 0x100003998, symSize: 0x44 }
  - { offsetInCU: 0x90A0, offset: 0x90A0, size: 0x8, addend: 0x0, symName: __ZN9__gnu_cxx17__normal_iteratorIPSt5arrayIxLm3EESt6vectorIS2_SaIS2_EEEppEv, symObjAddr: 0x804, symBinAddr: 0x1000039DC, symSize: 0x28 }
  - { offsetInCU: 0x904D, offset: 0x904D, size: 0x8, addend: 0x0, symName: __ZNSt6vectorISt5arrayIxLm3EESaIS1_EE3endEv, symObjAddr: 0x798, symBinAddr: 0x100003970, symSize: 0x28 }
  - { offsetInCU: 0x9055, offset: 0x9055, size: 0x8, addend: 0x0, symName: __ZN9__gnu_cxxneIPSt5arrayIxLm3EESt6vectorIS2_SaIS2_EEEEbRKNS_17__normal_iteratorIT_T0_EESC_, symObjAddr: 0x7C0, symBinAddr: 0x100003998, symSize: 0x44 }
  - { offsetInCU: 0x907C, offset: 0x907C, size: 0x8, addend: 0x0, symName: __ZNSt6vectorISt5arrayIxLm3EESaIS1_EE5beginEv, symObjAddr: 0x774, symBinAddr: 0x10000394C, symSize: 0x24 }
  - { offsetInCU: 0x9084, offset: 0x9084, size: 0x8, addend: 0x0, symName: __ZNSt6vectorISt5arrayIxLm3EESaIS1_EE3endEv, symObjAddr: 0x798, symBinAddr: 0x100003970, symSize: 0x28 }
  - { offsetInCU: 0x90AB, offset: 0x90AB, size: 0x8, addend: 0x0, symName: __ZNSt6vectorISt5arrayIxLm3EESaIS1_EE6resizeEm, symObjAddr: 0x6B8, symBinAddr: 0x100003890, symSize: 0xBC }
  - { offsetInCU: 0x90B3, offset: 0x90B3, size: 0x8, addend: 0x0, symName: __ZNSt6vectorISt5arrayIxLm3EESaIS1_EE5beginEv, symObjAddr: 0x774, symBinAddr: 0x10000394C, symSize: 0x24 }
  - { offsetInCU: 0x90EE, offset: 0x90EE, size: 0x8, addend: 0x0, symName: __ZNSt6vectorISt5arrayIxLm3EESaIS1_EE5clearEv, symObjAddr: 0x68C, symBinAddr: 0x100003864, symSize: 0x2C }
  - { offsetInCU: 0x90F6, offset: 0x90F6, size: 0x8, addend: 0x0, symName: __ZNSt6vectorISt5arrayIxLm3EESaIS1_EE6resizeEm, symObjAddr: 0x6B8, symBinAddr: 0x100003890, symSize: 0xBC }
  - { offsetInCU: 0x9174, offset: 0x9174, size: 0x8, addend: 0x0, symName: __ZNSt12_Vector_baseISt5arrayIxLm3EESaIS1_EED2Ev, symObjAddr: 0x630, symBinAddr: 0x100003808, symSize: 0x5C }
  - { offsetInCU: 0x917C, offset: 0x917C, size: 0x8, addend: 0x0, symName: __ZNSt6vectorISt5arrayIxLm3EESaIS1_EE5clearEv, symObjAddr: 0x68C, symBinAddr: 0x100003864, symSize: 0x2C }
  - { offsetInCU: 0x91F0, offset: 0x91F0, size: 0x8, addend: 0x0, symName: __ZNSt12_Vector_baseISt5arrayIxLm3EESaIS1_EE12_Vector_implC1Ev, symObjAddr: 0x5F8, symBinAddr: 0x1000037D0, symSize: 0x38 }
  - { offsetInCU: 0x91F8, offset: 0x91F8, size: 0x8, addend: 0x0, symName: __ZNSt12_Vector_baseISt5arrayIxLm3EESaIS1_EED2Ev, symObjAddr: 0x630, symBinAddr: 0x100003808, symSize: 0x5C }
  - { offsetInCU: 0x9236, offset: 0x9236, size: 0x8, addend: 0x0, symName: _main, symObjAddr: 0xF4, symBinAddr: 0x1000032CC, symSize: 0x504 }
  - { offsetInCU: 0x923E, offset: 0x923E, size: 0x8, addend: 0x0, symName: __ZNSt12_Vector_baseISt5arrayIxLm3EESaIS1_EE12_Vector_implC1Ev, symObjAddr: 0x5F8, symBinAddr: 0x1000037D0, symSize: 0x38 }
  - { offsetInCU: 0x9459, offset: 0x9459, size: 0x8, addend: 0x0, symName: __ZNSt5arrayIxLm3EEixEm, symObjAddr: 0xD0, symBinAddr: 0x1000032A8, symSize: 0x24 }
  - { offsetInCU: 0x9461, offset: 0x9461, size: 0x8, addend: 0x0, symName: _main, symObjAddr: 0xF4, symBinAddr: 0x1000032CC, symSize: 0x504 }
  - { offsetInCU: 0x94DD, offset: 0x94DD, size: 0x8, addend: 0x0, symName: __ZNSt6vectorISt5arrayIxLm3EESaIS1_EEC1Ev, symObjAddr: 0xB0, symBinAddr: 0x100003288, symSize: 0x20 }
  - { offsetInCU: 0x94E5, offset: 0x94E5, size: 0x8, addend: 0x0, symName: __ZNSt5arrayIxLm3EEixEm, symObjAddr: 0xD0, symBinAddr: 0x1000032A8, symSize: 0x24 }
  - { offsetInCU: 0x952B, offset: 0x952B, size: 0x8, addend: 0x0, symName: __ZNSt12_Vector_baseISt5arrayIxLm3EESaIS1_EEC2Ev, symObjAddr: 0x90, symBinAddr: 0x100003268, symSize: 0x20 }
  - { offsetInCU: 0x9533, offset: 0x9533, size: 0x8, addend: 0x0, symName: __ZNSt6vectorISt5arrayIxLm3EESaIS1_EEC1Ev, symObjAddr: 0xB0, symBinAddr: 0x100003288, symSize: 0x20 }
  - { offsetInCU: 0x9591, offset: 0x9591, size: 0x8, addend: 0x0, symName: __ZNSt12_Vector_baseISt5arrayIxLm3EESaIS1_EE12_Vector_implD1Ev, symObjAddr: 0x64, symBinAddr: 0x10000323C, symSize: 0x2C }
  - { offsetInCU: 0x9599, offset: 0x9599, size: 0x8, addend: 0x0, symName: __ZNSt12_Vector_baseISt5arrayIxLm3EESaIS1_EEC2Ev, symObjAddr: 0x90, symBinAddr: 0x100003268, symSize: 0x20 }
  - { offsetInCU: 0x95B8, offset: 0x95B8, size: 0x8, addend: 0x0, symName: __ZnwmPv, symObjAddr: 0x4C, symBinAddr: 0x100003224, symSize: 0x18 }
  - { offsetInCU: 0x95C0, offset: 0x95C0, size: 0x8, addend: 0x0, symName: __ZNSt12_Vector_baseISt5arrayIxLm3EESaIS1_EE12_Vector_implD1Ev, symObjAddr: 0x64, symBinAddr: 0x10000323C, symSize: 0x2C }
  - { offsetInCU: 0x9620, offset: 0x9620, size: 0x8, addend: 0x0, symName: __ZSt17__size_to_integerm, symObjAddr: 0x38, symBinAddr: 0x100003210, symSize: 0x14 }
  - { offsetInCU: 0x9628, offset: 0x9628, size: 0x8, addend: 0x0, symName: __ZnwmPv, symObjAddr: 0x4C, symBinAddr: 0x100003224, symSize: 0x18 }
  - { offsetInCU: 0x967F, offset: 0x967F, size: 0x8, addend: 0x0, symName: __ZN9__gnu_cxx5__ops15__val_comp_iterENS0_15_Iter_less_iterE, symObjAddr: 0x20, symBinAddr: 0x1000031F8, symSize: 0x18 }
  - { offsetInCU: 0x9687, offset: 0x9687, size: 0x8, addend: 0x0, symName: __ZSt17__size_to_integerm, symObjAddr: 0x38, symBinAddr: 0x100003210, symSize: 0x14 }
  - { offsetInCU: 0x96C4, offset: 0x96C4, size: 0x8, addend: 0x0, symName: __ZN9__gnu_cxx5__ops14_Iter_less_valC1ENS0_15_Iter_less_iterE, symObjAddr: 0x8, symBinAddr: 0x1000031E0, symSize: 0x18 }
  - { offsetInCU: 0x96CC, offset: 0x96CC, size: 0x8, addend: 0x0, symName: __ZN9__gnu_cxx5__ops15__val_comp_iterENS0_15_Iter_less_iterE, symObjAddr: 0x20, symBinAddr: 0x1000031F8, symSize: 0x18 }
  - { offsetInCU: 0x96FF, offset: 0x96FF, size: 0x8, addend: 0x0, symName: __ZN9__gnu_cxx5__ops16__iter_less_iterEv, symObjAddr: 0x0, symBinAddr: 0x1000031D8, symSize: 0x8 }
  - { offsetInCU: 0x9707, offset: 0x9707, size: 0x8, addend: 0x0, symName: __ZN9__gnu_cxx5__ops14_Iter_less_valC1ENS0_15_Iter_less_iterE, symObjAddr: 0x8, symBinAddr: 0x1000031E0, symSize: 0x18 }
...
